
image.elf:     file format elf32-littlenios2
image.elf
architecture: nios2:r1, flags 0x00000112:
EXEC_P, HAS_SYMS, D_PAGED
start address 0x04200000

Program Header:
    LOAD off    0x00001000 vaddr 0x00004000 paddr 0x00004000 align 2**12
         filesz 0x00000020 memsz 0x00000020 flags r-x
    LOAD off    0x00001020 vaddr 0x00004020 paddr 0x00004020 align 2**12
         filesz 0x00000224 memsz 0x00000224 flags r-x
    LOAD off    0x00002000 vaddr 0x04200000 paddr 0x04200000 align 2**12
         filesz 0x00012a94 memsz 0x00012a94 flags r-x
    LOAD off    0x00014a94 vaddr 0x04212a94 paddr 0x0421459c align 2**12
         filesz 0x00001b08 memsz 0x00001b08 flags rw-
    LOAD off    0x000170a4 vaddr 0x042160a4 paddr 0x042160a4 align 2**12
         filesz 0x00000000 memsz 0x00001388 flags rw-

Sections:
Idx Name          Size      VMA       LMA       File off  Algn
  0 .entry        00000020  00004000  00004000  00001000  2**5
                  CONTENTS, ALLOC, LOAD, READONLY, CODE
  1 .exceptions   00000224  00004020  00004020  00001020  2**2
                  CONTENTS, ALLOC, LOAD, READONLY, CODE
  2 .text         00011e50  04200000  04200000  00002000  2**2
                  CONTENTS, ALLOC, LOAD, READONLY, CODE
  3 .rodata       00000c44  04211e50  04211e50  00013e50  2**2
                  CONTENTS, ALLOC, LOAD, READONLY, DATA
  4 .rwdata       00001b08  04212a94  0421459c  00014a94  2**2
                  CONTENTS, ALLOC, LOAD, DATA, SMALL_DATA
  5 .bss          00001388  042160a4  042160a4  000170a4  2**2
                  ALLOC, SMALL_DATA
  6 .image_mem    00000000  00004244  00004244  0001659c  2**0
                  CONTENTS
  7 .new_sdram_controller_0 00000000  0421742c  0421742c  0001659c  2**0
                  CONTENTS
  8 .comment      00000023  00000000  00000000  0001659c  2**0
                  CONTENTS, READONLY
  9 .debug_aranges 00000f70  00000000  00000000  000165c0  2**3
                  CONTENTS, READONLY, DEBUGGING
 10 .debug_info   00025aff  00000000  00000000  00017530  2**0
                  CONTENTS, READONLY, DEBUGGING
 11 .debug_abbrev 000098b5  00000000  00000000  0003d02f  2**0
                  CONTENTS, READONLY, DEBUGGING
 12 .debug_line   0000c247  00000000  00000000  000468e4  2**0
                  CONTENTS, READONLY, DEBUGGING
 13 .debug_frame  00002b14  00000000  00000000  00052b2c  2**2
                  CONTENTS, READONLY, DEBUGGING
 14 .debug_str    00004137  00000000  00000000  00055640  2**0
                  CONTENTS, READONLY, DEBUGGING
 15 .debug_loc    00017904  00000000  00000000  00059777  2**0
                  CONTENTS, READONLY, DEBUGGING
 16 .debug_alt_sim_info 00000060  00000000  00000000  0007107c  2**2
                  CONTENTS, READONLY, DEBUGGING
 17 .debug_ranges 00001918  00000000  00000000  000710e0  2**3
                  CONTENTS, READONLY, DEBUGGING
 18 .thread_model 00000003  00000000  00000000  000767ba  2**0
                  CONTENTS, READONLY
 19 .cpu          0000000a  00000000  00000000  000767bd  2**0
                  CONTENTS, READONLY
 20 .qsys         00000001  00000000  00000000  000767c7  2**0
                  CONTENTS, READONLY
 21 .simulation_enabled 00000001  00000000  00000000  000767c8  2**0
                  CONTENTS, READONLY
 22 .stderr_dev   0000000a  00000000  00000000  000767c9  2**0
                  CONTENTS, READONLY
 23 .stdin_dev    0000000a  00000000  00000000  000767d3  2**0
                  CONTENTS, READONLY
 24 .stdout_dev   0000000a  00000000  00000000  000767dd  2**0
                  CONTENTS, READONLY
 25 .sopc_system_name 0000000c  00000000  00000000  000767e7  2**0
                  CONTENTS, READONLY
 26 .quartus_project_dir 00000042  00000000  00000000  000767f3  2**0
                  CONTENTS, READONLY
 27 .jdi          000106fb  00000000  00000000  00076835  2**0
                  CONTENTS, READONLY
 28 .sopcinfo     0014dfc1  00000000  00000000  00086f30  2**0
                  CONTENTS, READONLY
SYMBOL TABLE:
00004000 l    d  .entry	00000000 .entry
00004020 l    d  .exceptions	00000000 .exceptions
04200000 l    d  .text	00000000 .text
04211e50 l    d  .rodata	00000000 .rodata
04212a94 l    d  .rwdata	00000000 .rwdata
042160a4 l    d  .bss	00000000 .bss
00004244 l    d  .image_mem	00000000 .image_mem
0421742c l    d  .new_sdram_controller_0	00000000 .new_sdram_controller_0
00000000 l    d  .comment	00000000 .comment
00000000 l    d  .debug_aranges	00000000 .debug_aranges
00000000 l    d  .debug_info	00000000 .debug_info
00000000 l    d  .debug_abbrev	00000000 .debug_abbrev
00000000 l    d  .debug_line	00000000 .debug_line
00000000 l    d  .debug_frame	00000000 .debug_frame
00000000 l    d  .debug_str	00000000 .debug_str
00000000 l    d  .debug_loc	00000000 .debug_loc
00000000 l    d  .debug_alt_sim_info	00000000 .debug_alt_sim_info
00000000 l    d  .debug_ranges	00000000 .debug_ranges
00000000 l    df *ABS*	00000000 ../image_bsp//obj/HAL/src/crt0.o
04200048 l       .text	00000000 alt_after_alt_main
00000000 l    df *ABS*	00000000 alt_irq_handler.c
00000000 l    df *ABS*	00000000 alt_instruction_exception_entry.c
00000000 l    df *ABS*	00000000 decoder.c
04216104 l     O .bss	00000200 stream_buf
042160a4 l     O .bss	00000004 stream_len
042160a8 l     O .bss	00000004 portal_a_valid
042160ac l     O .bss	00000004 portal_b_valid
042160b0 l     O .bss	00000001 portal_ax
042160b1 l     O .bss	00000001 portal_ay
042160b2 l     O .bss	00000001 portal_bx
042160b3 l     O .bss	00000001 portal_by
04200084 l     F .text	00000060 coord_valid
042000e4 l     F .text	0000004c snake_write_payload_byte
04200130 l     F .text	0000013c snake_send_mailbox_command
042160b4 l     O .bss	00000004 seq.2989
0420026c l     F .text	00000108 parse_number_range
04200374 l     F .text	00000210 parse_xy_pairs_range
04200584 l     F .text	0000007c starts_with_at
04200600 l     F .text	000000b0 find_token_from
042006b0 l     F .text	00000038 find_next_snake
042006e8 l     F .text	000000cc remove_stream_prefix
042007b4 l     F .text	00000128 repair_common_ocr_errors
042008dc l     F .text	0000015c append_normalized_chunk
04200a38 l     F .text	000000d8 drop_junk_before_command
04200b10 l     F .text	000000a8 send_apple_from_segment
04200bb8 l     F .text	000000ac send_walls_from_segment
04200c64 l     F .text	000000ac send_add_walls_from_segment
04200d10 l     F .text	000000f0 send_portal_a_from_segment
04200e00 l     F .text	000000f0 send_portal_b_from_segment
04200ef0 l     F .text	00000038 send_clear_arena
04200f28 l     F .text	00000038 send_clear_walls
04200f60 l     F .text	00000328 process_stream
00000000 l    df *ABS*	00000000 main.c
042160b8 l     O .bss	00000004 session_button_pending
042160bc l     O .bss	00000004 esp_data_ready_pending
042160c0 l     O .bss	00000004 session_started
04201328 l     F .text	000000e0 print_decoder_result
04201408 l     F .text	00000040 session_button_isr
04201448 l     F .text	00000074 session_button_setup
042014bc l     F .text	00000030 session_button_is_high
042014ec l     F .text	00000040 esp_data_ready_isr
0420152c l     F .text	00000074 esp_data_ready_setup
042015a0 l     F .text	00000030 esp_data_ready_is_high
042015d0 l     F .text	0000002c img_irq_tx_set_true
042015fc l     F .text	0000002c img_irq_tx_set_false
00000000 l    df *ABS*	00000000 spi.c
04216304 l     O .bss	00001000 spi_rx_text
042160c4 l     O .bss	00000004 latest_packet_length
042018a4 l     F .text	00000044 read_u16_le
042018e8 l     F .text	00000074 read_u32_le
0420195c l     F .text	00000030 round_up_4
0420198c l     F .text	00000040 sdram_write_status
042019cc l     F .text	00000068 sdram_clear_text
04201a34 l     F .text	00000158 sdram_store_text_from_packet
04201bd0 l     F .text	00000038 sdram_read_packet_byte
04201b8c l     F .text	00000044 sdram_store_packet_byte
04201c08 l     F .text	00000070 sdram_clear_packet_region
04201c78 l     F .text	00000058 sdram_clear_status_header
04201cd0 l     F .text	00000070 sdram_store_status_header_from_packet
04201d40 l     F .text	00000044 sdram_store_image_byte
04201d84 l     F .text	00000070 sdram_clear_image_region
04201ee0 l     F .text	00000038 spi_begin_transaction
04201f18 l     F .text	0000002c spi_end_transaction
04201f44 l     F .text	00000068 spi_transfer_byte
04201fac l     F .text	00000344 store_text_and_metadata_from_packet
042022f0 l     F .text	00000070 spi_send_command4
042023a4 l     F .text	00000144 spi_read_packet_length_once
042024e8 l     F .text	0000016c spi_read_packet_bytes
04202654 l     F .text	00000044 spi_abort_packet_on_esp
042160c8 l     O .bss	00000004 invalid_ff_count.2959
00000000 l    df *ABS*	00000000 lib2-divmod.c
00000000 l    df *ABS*	00000000 ctype_.c
04212609 l     O .rodata	00000180 _ctype_b
00000000 l    df *ABS*	00000000 fflush.c
00000000 l    df *ABS*	00000000 findfp.c
04202cd0 l     F .text	00000008 __fp_unlock
04202ce4 l     F .text	0000019c __sinit.part.1
04202e80 l     F .text	00000008 __fp_lock
00000000 l    df *ABS*	00000000 mallocr.c
00000000 l    df *ABS*	00000000 fwalk.c
00000000 l    df *ABS*	00000000 impure.c
04212a94 l     O .rwdata	00000424 impure_data
00000000 l    df *ABS*	00000000 mallocr.c
00000000 l    df *ABS*	00000000 memset.c
00000000 l    df *ABS*	00000000 printf.c
00000000 l    df *ABS*	00000000 puts.c
00000000 l    df *ABS*	00000000 sbrkr.c
00000000 l    df *ABS*	00000000 stdio.c
00000000 l    df *ABS*	00000000 strlen.c
00000000 l    df *ABS*	00000000 strncmp.c
00000000 l    df *ABS*	00000000 vfprintf.c
042127d6 l     O .rodata	00000010 zeroes.4404
042065ac l     F .text	000000bc __sbprintf
042127e6 l     O .rodata	00000010 blanks.4403
00000000 l    df *ABS*	00000000 writer.c
00000000 l    df *ABS*	00000000 wsetup.c
00000000 l    df *ABS*	00000000 closer.c
00000000 l    df *ABS*	00000000 dtoa.c
04206870 l     F .text	00000200 quorem
00000000 l    df *ABS*	00000000 fclose.c
00000000 l    df *ABS*	00000000 fvwrite.c
00000000 l    df *ABS*	00000000 int_errno.c
00000000 l    df *ABS*	00000000 locale.c
042132e0 l     O .rwdata	00000020 lc_ctype_charset
042132c0 l     O .rwdata	00000020 lc_message_charset
04213300 l     O .rwdata	00000038 lconv
00000000 l    df *ABS*	00000000 lseekr.c
00000000 l    df *ABS*	00000000 makebuf.c
00000000 l    df *ABS*	00000000 memchr.c
00000000 l    df *ABS*	00000000 memcpy.c
00000000 l    df *ABS*	00000000 memmove.c
00000000 l    df *ABS*	00000000 mprec.c
04212814 l     O .rodata	0000000c p05.2768
00000000 l    df *ABS*	00000000 readr.c
00000000 l    df *ABS*	00000000 mallocr.c
00000000 l    df *ABS*	00000000 s_fpclassify.c
00000000 l    df *ABS*	00000000 strcmp.c
00000000 l    df *ABS*	00000000 vfprintf.c
0420a448 l     F .text	000000fc __sprint_r.part.0
04212948 l     O .rodata	00000010 blanks.4348
04212938 l     O .rodata	00000010 zeroes.4349
0420b9d4 l     F .text	000000bc __sbprintf
00000000 l    df *ABS*	00000000 mallocr.c
00000000 l    df *ABS*	00000000 fputwc.c
00000000 l    df *ABS*	00000000 fstatr.c
00000000 l    df *ABS*	00000000 isattyr.c
00000000 l    df *ABS*	00000000 wbuf.c
00000000 l    df *ABS*	00000000 wcrtomb.c
00000000 l    df *ABS*	00000000 wctomb_r.c
00000000 l    df *ABS*	00000000 libgcc2.c
00000000 l    df *ABS*	00000000 libgcc2.c
00000000 l    df *ABS*	00000000 adddf3.c
00000000 l    df *ABS*	00000000 divdf3.c
00000000 l    df *ABS*	00000000 eqdf2.c
00000000 l    df *ABS*	00000000 gedf2.c
00000000 l    df *ABS*	00000000 ledf2.c
00000000 l    df *ABS*	00000000 muldf3.c
00000000 l    df *ABS*	00000000 subdf3.c
00000000 l    df *ABS*	00000000 fixdfsi.c
00000000 l    df *ABS*	00000000 floatsidf.c
00000000 l    df *ABS*	00000000 floatunsidf.c
00000000 l    df *ABS*	00000000 libgcc2.c
00000000 l    df *ABS*	00000000 libgcc2.c
00000000 l    df *ABS*	00000000 alt_close.c
0420f264 l     F .text	0000003c alt_get_errno
00000000 l    df *ABS*	00000000 alt_dev.c
0420f370 l     F .text	0000002c alt_dev_null_write
00000000 l    df *ABS*	00000000 alt_errno.c
00000000 l    df *ABS*	00000000 alt_fstat.c
0420f39c l     F .text	0000003c alt_get_errno
00000000 l    df *ABS*	00000000 alt_iic.c
00000000 l    df *ABS*	00000000 alt_iic_isr_register.c
00000000 l    df *ABS*	00000000 alt_irq_vars.c
00000000 l    df *ABS*	00000000 alt_isatty.c
0420f728 l     F .text	0000003c alt_get_errno
00000000 l    df *ABS*	00000000 alt_load.c
0420f808 l     F .text	00000068 alt_load_section
00000000 l    df *ABS*	00000000 alt_lseek.c
0420f8f4 l     F .text	0000003c alt_get_errno
00000000 l    df *ABS*	00000000 alt_main.c
00000000 l    df *ABS*	00000000 alt_malloc_lock.c
00000000 l    df *ABS*	00000000 alt_read.c
0420fac8 l     F .text	0000003c alt_get_errno
00000000 l    df *ABS*	00000000 alt_release_fd.c
00000000 l    df *ABS*	00000000 alt_sbrk.c
04214588 l     O .rwdata	00000004 heap_end
00000000 l    df *ABS*	00000000 alt_usleep.c
00000000 l    df *ABS*	00000000 alt_write.c
0420fd44 l     F .text	0000003c alt_get_errno
00000000 l    df *ABS*	00000000 alt_sys_init.c
0420fe78 l     F .text	00000034 alt_dev_reg
0420feac l     F .text	0000003c alt_get_errno
0420fee8 l     F .text	00000068 alt_avalon_mutex_reg
042134e0 l     O .rwdata	00001060 jtag_image
04214540 l     O .rwdata	00000010 mutex_0
00000000 l    df *ABS*	00000000 altera_avalon_jtag_uart_fd.c
00000000 l    df *ABS*	00000000 altera_avalon_jtag_uart_init.c
04210204 l     F .text	0000020c altera_avalon_jtag_uart_irq
04210410 l     F .text	000000a0 altera_avalon_jtag_uart_timeout
00000000 l    df *ABS*	00000000 altera_avalon_jtag_uart_ioctl.c
00000000 l    df *ABS*	00000000 altera_avalon_jtag_uart_read.c
00000000 l    df *ABS*	00000000 altera_avalon_jtag_uart_write.c
00000000 l    df *ABS*	00000000 altera_avalon_mutex.c
04210a8c l     F .text	0000003c alt_get_errno
04210ac8 l     F .text	0000007c alt_mutex_trylock
00000000 l    df *ABS*	00000000 alt_alarm_start.c
00000000 l    df *ABS*	00000000 alt_busy_sleep.c
00000000 l    df *ABS*	00000000 alt_dcache_flush_all.c
00000000 l    df *ABS*	00000000 alt_dev_llist_insert.c
04211024 l     F .text	0000003c alt_get_errno
00000000 l    df *ABS*	00000000 alt_do_ctors.c
00000000 l    df *ABS*	00000000 alt_do_dtors.c
00000000 l    df *ABS*	00000000 alt_find_dev.c
00000000 l    df *ABS*	00000000 alt_icache_flush_all.c
00000000 l    df *ABS*	00000000 alt_io_redirect.c
04211324 l     F .text	000000c4 alt_open_fd
00000000 l    df *ABS*	00000000 alt_open.c
04211464 l     F .text	0000003c alt_get_errno
042114a0 l     F .text	000000c4 alt_file_locked
00000000 l    df *ABS*	00000000 alt_tick.c
00000000 l    df *ABS*	00000000 altera_nios2_gen2_irq.c
00000000 l    df *ABS*	00000000 alt_find_file.c
00000000 l    df *ABS*	00000000 alt_get_fd.c
00000000 l    df *ABS*	00000000 alt_icache_flush.c
00000000 l    df *ABS*	00000000 atexit.c
00000000 l    df *ABS*	00000000 exit.c
00000000 l    df *ABS*	00000000 memcmp.c
00000000 l    df *ABS*	00000000 __atexit.c
00000000 l    df *ABS*	00000000 __call_atexit.c
00000000 l    df *ABS*	00000000 alt_exit.c
042160f8 g     O .bss	00000004 alt_instruction_exception_handler
04209bbc g     F .text	00000074 _mprec_log10
04209ca8 g     F .text	0000008c __any_on
0420bdb8 g     F .text	00000054 _isatty_r
04212820 g     O .rodata	00000028 __mprec_tinytens
0420fa04 g     F .text	0000007c alt_main
04203fcc g     F .text	000000c0 _puts_r
0421732c g     O .bss	00000100 alt_irq
04208794 g     F .text	00000060 _lseek_r
0421459c g       *ABS*	00000000 __flash_rwdata_start
0420dd90 g     F .text	00000088 .hidden __eqdf2
0421742c g       *ABS*	00000000 __alt_heap_start
0420004c g     F .text	00000038 decoder_reset_stream
04203f90 g     F .text	0000003c printf
0420bf64 g     F .text	0000009c _wcrtomb_r
042041cc g     F .text	0000005c __sseek
04203020 g     F .text	00000010 __sinit
0420be0c g     F .text	00000140 __swbuf_r
042086b8 g     F .text	0000007c _setlocale_r
04202e88 g     F .text	00000068 __sfmoreglue
04202698 g     F .text	00000198 spi_request_text_from_esp
0420faa4 g     F .text	00000024 __malloc_unlock
04202360 g     F .text	00000044 spi_send_session_start
04208bdc g     F .text	0000015c memmove
04203008 g     F .text	00000018 _cleanup
04210c00 g     F .text	00000040 altera_avalon_mutex_trylock
04208d38 g     F .text	000000a8 _Balloc
0420de18 g     F .text	000000dc .hidden __gtdf2
0421185c g     F .text	00000024 altera_nios2_gen2_irq_init
00004000 g     F .entry	0000001c __reset
04210c94 g     F .text	00000074 altera_avalon_mutex_is_mine
04201288 g     F .text	00000054 decoder_decode_and_store_snake_command_len
00004020 g       *ABS*	00000000 __flash_exceptions_start
0420bd5c g     F .text	0000005c _fstat_r
042160d8 g     O .bss	00000004 errno
04204148 g     F .text	00000008 __seofread
042160f0 g     O .bss	00000004 alt_argv
0421c550 g       *ABS*	00000000 _gp
0420fd14 g     F .text	00000030 usleep
04213360 g     O .rwdata	00000180 alt_fd_list
042111c4 g     F .text	00000090 alt_find_dev
04208a94 g     F .text	00000148 memcpy
04202cd8 g     F .text	0000000c _cleanup_r
0420f07c g     F .text	000000dc .hidden __floatsidf
042113e8 g     F .text	0000007c alt_io_redirect
0420def4 g     F .text	000000f4 .hidden __ltdf2
04211e50 g       *ABS*	00000000 __DTOR_END__
0420408c g     F .text	00000014 puts
04211288 g     F .text	0000009c alt_exception_cause_generated_bad_addr
0420a2f8 g     F .text	00000074 __fpclassifyd
04209b18 g     F .text	000000a4 __ratio
0420b9b8 g     F .text	0000001c __vfiprintf_internal
04210608 g     F .text	0000021c altera_avalon_jtag_uart_read
04203f60 g     F .text	00000030 _printf_r
04202854 g     F .text	00000020 spi_get_latest_packet_length
0420296c g     F .text	00000064 .hidden __udivsi3
0420f764 g     F .text	000000a4 isatty
04212870 g     O .rodata	000000c8 __mprec_tens
04208734 g     F .text	0000000c __locale_charset
04211a2c g     F .text	00000090 alt_icache_flush
042160d4 g     O .bss	00000004 __malloc_top_pad
04214564 g     O .rwdata	00000004 __mb_cur_max
04208764 g     F .text	0000000c _localeconv_r
04209144 g     F .text	0000003c __i2b
042081fc g     F .text	000004bc __sfvwrite_r
042040a0 g     F .text	00000054 _sbrk_r
04209d34 g     F .text	00000060 _read_r
0421457c g     O .rwdata	00000004 alt_max_fd
042080f8 g     F .text	000000f0 _fclose_r
04202ca0 g     F .text	00000030 fflush
042160d0 g     O .bss	00000004 __malloc_max_sbrked_mem
0420cbfc g     F .text	000008ac .hidden __adddf3
042098c0 g     F .text	0000010c __b2d
04201df4 g     F .text	000000ec spi_init_manual
0420c6c4 g     F .text	00000538 .hidden __umoddi3
0420f930 g     F .text	000000d4 lseek
04210d08 g     F .text	00000050 altera_avalon_mutex_first_lock
04214554 g     O .rwdata	00000004 _global_impure_ptr
04209d94 g     F .text	00000564 _realloc_r
0421742c g       *ABS*	00000000 __bss_end
0420f638 g     F .text	000000f0 alt_iic_isr_register
04211754 g     F .text	00000108 alt_tick
0420c14c g     F .text	00000578 .hidden __udivdi3
0420bcb8 g     F .text	00000024 _fputwc_r
04212848 g     O .rodata	00000028 __mprec_bigtens
04208f28 g     F .text	00000104 __s2b
0420f158 g     F .text	000000a8 .hidden __floatunsidf
04209600 g     F .text	00000060 __mcmp
04203040 g     F .text	00000018 __fp_lock_all
0420f5ec g     F .text	0000004c alt_ic_irq_enabled
042116b8 g     F .text	0000009c alt_alarm_stop
042160e8 g     O .bss	00000004 alt_irq_active
000040fc g     F .exceptions	000000d4 alt_irq_handler
04213338 g     O .rwdata	00000028 alt_dev_null
04210b44 g     F .text	00000054 altera_avalon_mutex_open
04210fdc g     F .text	00000048 alt_dcache_flush_all
0420902c g     F .text	00000068 __hi0bits
0420effc g     F .text	00000080 .hidden __fixdfsi
0421459c g       *ABS*	00000000 __ram_rwdata_end
04214574 g     O .rwdata	00000008 alt_dev_list
0420fd80 g     F .text	000000f8 write
0421458c g     O .rwdata	00000008 alt_mutex_list
04212a94 g       *ABS*	00000000 __ram_rodata_end
0420f3d8 g     F .text	000000b0 fstat
0420def4 g     F .text	000000f4 .hidden __ledf2
04209378 g     F .text	00000140 __pow5mult
0420a55c g     F .text	0000145c ___vfiprintf_internal_r
042160e4 g     O .bss	00000004 __nlocale_changed
042029d0 g     F .text	00000058 .hidden __umodsi3
0421742c g       *ABS*	00000000 end
04210144 g     F .text	000000c0 altera_avalon_jtag_uart_init
000041d0 g     F .exceptions	00000074 alt_instruction_exception_entry
04211e50 g       *ABS*	00000000 __CTOR_LIST__
04300000 g       *ABS*	00000000 __alt_stack_pointer
0420f200 g     F .text	00000064 .hidden __clzsi2
04210824 g     F .text	00000268 altera_avalon_jtag_uart_write
04203030 g     F .text	00000004 __sfp_lock_acquire
042089b0 g     F .text	000000e4 memchr
04204398 g     F .text	000021f8 ___vfprintf_internal_r
04203194 g     F .text	00000310 _free_r
04208740 g     F .text	00000010 __locale_mb_cur_max
04211c9c g     F .text	00000180 __call_exitprocs
042160e0 g     O .bss	00000004 __mlocale_changed
0421455c g     O .rwdata	00000004 __malloc_sbrk_base
04200000 g     F .text	0000004c _start
042160fc g     O .bss	00000004 _alt_tick_rate
042094b8 g     F .text	00000148 __lshift
04216100 g     O .bss	00000004 _alt_nticks
0420fb04 g     F .text	000000fc read
0420ff88 g     F .text	00000058 alt_sys_init
04211b84 g     F .text	00000118 __register_exitproc
042042c8 g     F .text	000000d0 strncmp
04210c40 g     F .text	00000054 altera_avalon_mutex_unlock
04209180 g     F .text	000001f8 __multiply
042104b0 g     F .text	00000068 altera_avalon_jtag_uart_close
04212a94 g       *ABS*	00000000 __ram_rwdata_start
04211e50 g       *ABS*	00000000 __ram_rodata_start
04217304 g     O .bss	00000028 __malloc_current_mallinfo
042099cc g     F .text	0000014c __d2b
0420ffe0 g     F .text	00000060 altera_avalon_jtag_uart_read_fd
04211988 g     F .text	000000a4 alt_get_fd
04210e84 g     F .text	00000158 alt_busy_sleep
0420681c g     F .text	00000054 _close_r
04211b08 g     F .text	0000007c memcmp
042100a0 g     F .text	00000050 altera_avalon_jtag_uart_close_fd
0421742c g       *ABS*	00000000 __alt_stack_base
042100f0 g     F .text	00000054 altera_avalon_jtag_uart_ioctl_fd
042012dc g     F .text	0000004c decoder_decode_and_store_snake_command
042066c8 g     F .text	00000154 __swsetup_r
0420d4a8 g     F .text	000008e8 .hidden __divdf3
04202ef0 g     F .text	00000118 __sfp
04209c30 g     F .text	00000078 __copybits
04212eb8 g     O .rwdata	00000408 __malloc_av_
0420303c g     F .text	00000004 __sinit_lock_release
0420dfe8 g     F .text	00000718 .hidden __muldf3
042040f4 g     F .text	00000054 __sread
04211880 g     F .text	00000108 alt_find_file
04211060 g     F .text	000000a4 alt_dev_llist_insert
0420fa80 g     F .text	00000024 __malloc_lock
0420fc64 g     F .text	000000b0 sbrk
04202c44 g     F .text	0000005c _fflush_r
0420ba90 g     F .text	000000c4 _calloc_r
00004000 g       *ABS*	00000000 __alt_mem_image_mem
042160a4 g       *ABS*	00000000 __bss_start
04203e38 g     F .text	00000128 memset
04201628 g     F .text	0000027c main
042160f4 g     O .bss	00000004 alt_envp
042160cc g     O .bss	00000004 __malloc_max_total_mem
04210040 g     F .text	00000060 altera_avalon_jtag_uart_write_fd
0420bf4c g     F .text	00000018 __swbuf
04204228 g     F .text	00000008 __sclose
04300000 g       *ABS*	00000000 __alt_heap_limit
042081e8 g     F .text	00000014 fclose
04210bbc g     F .text	00000044 altera_avalon_mutex_lock
04206a70 g     F .text	00001688 _dtoa_r
04202830 g     F .text	00000024 spi_get_latest_text
0420362c g     F .text	0000080c _malloc_r
0420c0c0 g     F .text	00000030 __ascii_wctomb
04214580 g     O .rwdata	00000004 alt_errno
042034a4 g     F .text	000000c4 _fwalk
04202874 g     F .text	00000084 .hidden __divsi3
04203070 g     F .text	00000124 _malloc_trim_r
04211e50 g       *ABS*	00000000 __CTOR_END__
0420a36c g     F .text	000000dc strcmp
04211e50 g       *ABS*	00000000 __flash_rodata_start
04211e50 g       *ABS*	00000000 __DTOR_LIST__
0420dd90 g     F .text	00000088 .hidden __nedf2
0420ff50 g     F .text	00000038 alt_irq_init
0420fc00 g     F .text	00000064 alt_release_fd
04212958 g     O .rodata	00000100 .hidden __clz_tab
042160dc g     O .bss	00000004 _PathLocale
04211abc g     F .text	00000014 atexit
04206668 g     F .text	00000060 _write_r
04208770 g     F .text	00000018 setlocale
04214558 g     O .rwdata	00000004 _impure_ptr
042160ec g     O .bss	00000004 alt_argc
04202a28 g     F .text	0000021c __sflush_r
04211164 g     F .text	00000060 _do_dtors
0420875c g     F .text	00000008 __locale_cjk_lang
00004020 g       .exceptions	00000000 alt_irq_entry
0420985c g     F .text	00000064 __ulp
04203058 g     F .text	00000018 __fp_unlock_all
0421456c g     O .rwdata	00000008 alt_fs_list
00004020 g       *ABS*	00000000 __ram_exceptions_start
04208788 g     F .text	0000000c localeconv
04000000 g       *ABS*	00000000 __alt_mem_new_sdram_controller_0
0420f488 g     F .text	00000050 alt_ic_isr_register
0421459c g       *ABS*	00000000 _edata
0421742c g       *ABS*	00000000 _end
0420bb54 g     F .text	00000164 __fputwc
00004244 g       *ABS*	00000000 __ram_exceptions_end
04210518 g     F .text	000000f0 altera_avalon_jtag_uart_ioctl
0420f560 g     F .text	0000008c alt_ic_irq_disable
04204150 g     F .text	0000007c __swrite
04214560 g     O .rwdata	00000004 __malloc_trim_threshold
04208750 g     F .text	0000000c __locale_msgcharset
04211ad0 g     F .text	00000038 exit
04203568 g     F .text	000000c4 _fwalk_reent
04209660 g     F .text	000001fc __mdiff
042028f8 g     F .text	00000074 .hidden __modsi3
04214550 g     O .rwdata	00000004 __ctype_ptr__
04300000 g       *ABS*	00000000 __alt_data_end
00004020 g     F .exceptions	00000000 alt_exception
04203034 g     F .text	00000004 __sfp_lock_release
04212508 g     O .rodata	00000101 _ctype_
04211e1c g     F .text	00000034 _exit
04210d58 g     F .text	0000012c alt_alarm_start
042087f4 g     F .text	000001bc __smakebuf_r
04204230 g     F .text	00000098 strlen
04211564 g     F .text	00000154 open
0420de18 g     F .text	000000dc .hidden __gedf2
04214568 g     O .rwdata	00000004 __wctomb
0420a544 g     F .text	00000018 __sprint_r
04211254 g     F .text	00000034 alt_icache_flush_all
04214584 g     O .rwdata	00000004 alt_priority_mask
0420f4d8 g     F .text	00000088 alt_ic_irq_enable
04206590 g     F .text	0000001c __vfprintf_internal
04210b98 g     F .text	00000024 altera_avalon_mutex_close
0420c0f0 g     F .text	0000005c _wctomb_r
0420e700 g     F .text	000008fc .hidden __subdf3
04209094 g     F .text	000000b0 __lo0bits
04214594 g     O .rwdata	00000008 alt_alarm_list
04211104 g     F .text	00000060 _do_ctors
0420c000 g     F .text	000000c0 wcrtomb
0420f2a0 g     F .text	000000d0 close
0420f870 g     F .text	00000084 alt_load
0420bcdc g     F .text	00000080 fputwc
04203038 g     F .text	00000004 __sinit_lock_acquire
04208e08 g     F .text	00000120 __multadd
04208de0 g     F .text	00000028 _Bfree



Disassembly of section .entry:

00004000 <__reset>:
#if NIOS2_ICACHE_SIZE > 0 && defined(ALT_ALLOW_CODE_AT_RESET) && (!defined(ALT_SIM_OPTIMIZE) || defined(NIOS2_ECC_PRESENT))
    /* Assume the instruction cache size is always a power of two. */
#if NIOS2_ICACHE_SIZE > 0x8000
    movhi r2, %hi(NIOS2_ICACHE_SIZE)
#else
    movui r2, NIOS2_ICACHE_SIZE
    4000:	00840014 	movui	r2,4096
#endif

0:
    initi r2
    4004:	1001483a 	initi	r2
    addi r2, r2, -NIOS2_ICACHE_LINE_SIZE
    4008:	10bff804 	addi	r2,r2,-32
    bgt r2, zero, 0b
    400c:	00bffd16 	blt	zero,r2,4004 <__alt_data_end+0xfbd04004>
 * Jump to the _start entry point in the .text section if reset code
 * is allowed or if optimizing for RTL simulation.
 */
#if defined(ALT_ALLOW_CODE_AT_RESET) || defined(ALT_SIM_OPTIMIZE)
    /* Jump to the _start entry point in the .text section. */
    movhi r1, %hi(_start)
    4010:	00410834 	movhi	at,1056
    ori r1, r1, %lo(_start)
    4014:	08400014 	ori	at,at,0
    jmp r1
    4018:	0800683a 	jmp	at
    401c:	00000000 	call	0 <__alt_mem_image_mem-0x4000>

Disassembly of section .exceptions:

00004020 <alt_exception>:

#else /* ALT_EXCEPTION_STACK disabled */
        /* 
         * Reserve space on normal stack for registers about to be pushed.
         */
        addi  sp, sp, -76
    4020:	deffed04 	addi	sp,sp,-76
         * documentation for details).
         *
         * Leave a gap in the stack frame at 4(sp) for the muldiv handler to
         * store zero into.
         */
        stw   ra,  0(sp)
    4024:	dfc00015 	stw	ra,0(sp)
        stw   r1,   8(sp)
    4028:	d8400215 	stw	at,8(sp)
        stw   r2,  12(sp)
    402c:	d8800315 	stw	r2,12(sp)
        stw   r3,  16(sp)
    4030:	d8c00415 	stw	r3,16(sp)
        stw   r4,  20(sp)
    4034:	d9000515 	stw	r4,20(sp)
        stw   r5,  24(sp)
    4038:	d9400615 	stw	r5,24(sp)
        stw   r6,  28(sp)
    403c:	d9800715 	stw	r6,28(sp)
        stw   r7,  32(sp)
    4040:	d9c00815 	stw	r7,32(sp)
        rdctl r5, estatus   /* Read early to avoid usage stall */
    4044:	000b307a 	rdctl	r5,estatus
        stw   r8,  36(sp)
    4048:	da000915 	stw	r8,36(sp)
        stw   r9,  40(sp)
    404c:	da400a15 	stw	r9,40(sp)
        stw   r10, 44(sp)
    4050:	da800b15 	stw	r10,44(sp)
        stw   r11, 48(sp)
    4054:	dac00c15 	stw	r11,48(sp)
        stw   r12, 52(sp)
    4058:	db000d15 	stw	r12,52(sp)
        stw   r13, 56(sp)
    405c:	db400e15 	stw	r13,56(sp)
        stw   r14, 60(sp)
    4060:	db800f15 	stw	r14,60(sp)
        stw   r15, 64(sp)
    4064:	dbc01015 	stw	r15,64(sp)
        /*
         * ea-4 contains the address of the instruction being executed
         * when the exception occured. For interrupt exceptions, we will
         * will be re-issue the isntruction. Store it in 72(sp)
         */
        stw   r5,  68(sp)  /* estatus */
    4068:	d9401115 	stw	r5,68(sp)
        addi  r15, ea, -4  /* instruction that caused exception */
    406c:	ebffff04 	addi	r15,ea,-4
        stw   r15,  72(sp)
    4070:	dbc01215 	stw	r15,72(sp)
#else
        /*
         * Test to see if the exception was a software exception or caused 
         * by an external interrupt, and vector accordingly.
         */
        rdctl r4, ipending
    4074:	0009313a 	rdctl	r4,ipending
        andi  r2, r5, 1
    4078:	2880004c 	andi	r2,r5,1
        beq   r2, zero, .Lnot_irq
    407c:	10000326 	beq	r2,zero,408c <alt_exception+0x6c>
        beq   r4, zero, .Lnot_irq
    4080:	20000226 	beq	r4,zero,408c <alt_exception+0x6c>
        /*
         * Now that all necessary registers have been preserved, call 
         * alt_irq_handler() to process the interrupts.
         */

        call alt_irq_handler
    4084:	00040fc0 	call	40fc <alt_irq_handler>

        .section .exceptions.irqreturn, "xa"

        br    .Lexception_exit
    4088:	00000706 	br	40a8 <alt_exception+0x88>
         * upon completion, so we write ea (address of instruction *after*
         * the one where the exception occured) into 72(sp). The actual
         * instruction that caused the exception is written in r2, which these
         * handlers will utilize.
         */
        stw ea, 72(sp) /* EA is PC+4 so will skip over instruction causing exception */
    408c:	df401215 	stw	ea,72(sp)
.Lunknown_16bit:
        addi.n r4, r4, 2 /* Need PC+2 to skip over instruction causing exception */
        stw r4, 72(sp)

#else /* CDX is not Enabled and all instructions are 32bits */
        ldw r2, -4(ea) /* Instruction value that caused exception */
    4090:	e8bfff17 	ldw	r2,-4(ea)
         * debugger is present) or go into an infinite loop since the
         * handling behavior is undefined; in that case we will not return here.
         */

        /* Load exception-causing address as first argument (r4) */
        addi   r4, ea, -4
    4094:	e93fff04 	addi	r4,ea,-4

        /* Call the instruction-exception entry */
        call   alt_instruction_exception_entry
    4098:	00041d00 	call	41d0 <alt_instruction_exception_entry>
         * instruction
         *
         * Return code was 0: Skip. The instruction after the exception is
         * already stored in 72(sp).
         */
        bne   r2, r0, .Lexception_exit
    409c:	1000021e 	bne	r2,zero,40a8 <alt_exception+0x88>

        /*
         * Otherwise, modify 72(sp) to re-issue the instruction that caused the
         * exception.
         */
        addi  r15, ea, -4  /* instruction that caused exception */
    40a0:	ebffff04 	addi	r15,ea,-4
        stw   r15,  72(sp)
    40a4:	dbc01215 	stw	r15,72(sp)
        /* 
         * Restore the saved registers, so that all general purpose registers 
         * have been restored to their state at the time the interrupt occured.
         */

        ldw   r5,  68(sp)
    40a8:	d9401117 	ldw	r5,68(sp)
        ldw   ea,  72(sp)  /* This becomes the PC once eret is executed */
    40ac:	df401217 	ldw	ea,72(sp)
        ldw   ra,   0(sp)
    40b0:	dfc00017 	ldw	ra,0(sp)

        wrctl estatus, r5
    40b4:	2801707a 	wrctl	estatus,r5

        ldw   r1,   8(sp)
    40b8:	d8400217 	ldw	at,8(sp)
        ldw   r2,  12(sp)
    40bc:	d8800317 	ldw	r2,12(sp)
        ldw   r3,  16(sp)
    40c0:	d8c00417 	ldw	r3,16(sp)
        ldw   r4,  20(sp)
    40c4:	d9000517 	ldw	r4,20(sp)
        ldw   r5,  24(sp)
    40c8:	d9400617 	ldw	r5,24(sp)
        ldw   r6,  28(sp)
    40cc:	d9800717 	ldw	r6,28(sp)
        ldw   r7,  32(sp)
    40d0:	d9c00817 	ldw	r7,32(sp)

#if defined(ALT_EXCEPTION_STACK) && defined(ALT_STACK_CHECK)
        ldw   et, %gprel(alt_exception_old_stack_limit)(gp)
#endif

        ldw   r8,  36(sp)
    40d4:	da000917 	ldw	r8,36(sp)
        ldw   r9,  40(sp)
    40d8:	da400a17 	ldw	r9,40(sp)
        ldw   r10, 44(sp)
    40dc:	da800b17 	ldw	r10,44(sp)
        ldw   r11, 48(sp)
    40e0:	dac00c17 	ldw	r11,48(sp)
        ldw   r12, 52(sp)
    40e4:	db000d17 	ldw	r12,52(sp)
        ldw   r13, 56(sp)
    40e8:	db400e17 	ldw	r13,56(sp)
        ldw   r14, 60(sp)
    40ec:	db800f17 	ldw	r14,60(sp)
        ldw   r15, 64(sp)
    40f0:	dbc01017 	ldw	r15,64(sp)
        stw   et, %gprel(alt_stack_limit_value)(gp)
        stw   zero, %gprel(alt_exception_old_stack_limit)(gp)
#endif /* ALT_STACK_CHECK */
        ldw   sp,  76(sp)
#else /* ALT_EXCEPTION_STACK disabled */
        addi  sp, sp, 76
    40f4:	dec01304 	addi	sp,sp,76

        /*
         * Return to the interrupted instruction.
         */

        eret
    40f8:	ef80083a 	eret

000040fc <alt_irq_handler>:
 * instruction is present if the macro ALT_CI_INTERRUPT_VECTOR defined.
 */

void alt_irq_handler (void) __attribute__ ((section (".exceptions")));
void alt_irq_handler (void)
{
    40fc:	defff904 	addi	sp,sp,-28
    4100:	dfc00615 	stw	ra,24(sp)
    4104:	df000515 	stw	fp,20(sp)
    4108:	df000504 	addi	fp,sp,20
  
  /*
   * Notify the operating system that we are at interrupt level.
   */ 
  
  ALT_OS_INT_ENTER();
    410c:	0001883a 	nop
#ifndef NIOS2_EIC_PRESENT
static ALT_INLINE alt_u32 ALT_ALWAYS_INLINE alt_irq_pending (void)
{
  alt_u32 active;

  NIOS2_READ_IPENDING (active);
    4110:	0005313a 	rdctl	r2,ipending
    4114:	e0bffe15 	stw	r2,-8(fp)

  return active;
    4118:	e0bffe17 	ldw	r2,-8(fp)
   * Consider the case where the high priority interupt is asserted during
   * the interrupt entry sequence for a lower priority interrupt to see why
   * this is the case.
   */

  active = alt_irq_pending ();
    411c:	e0bffb15 	stw	r2,-20(fp)

  do
  {
    i = 0;
    4120:	e03ffd15 	stw	zero,-12(fp)
    mask = 1;
    4124:	00800044 	movi	r2,1
    4128:	e0bffc15 	stw	r2,-16(fp)
     * called to clear the interrupt condition.
     */

    do
    {
      if (active & mask)
    412c:	e0fffb17 	ldw	r3,-20(fp)
    4130:	e0bffc17 	ldw	r2,-16(fp)
    4134:	1884703a 	and	r2,r3,r2
    4138:	10001426 	beq	r2,zero,418c <alt_irq_handler+0x90>
      { 
#ifdef ALT_ENHANCED_INTERRUPT_API_PRESENT
        alt_irq[i].handler(alt_irq[i].context); 
    413c:	00810874 	movhi	r2,1057
    4140:	109ccb04 	addi	r2,r2,29484
    4144:	e0fffd17 	ldw	r3,-12(fp)
    4148:	180690fa 	slli	r3,r3,3
    414c:	10c5883a 	add	r2,r2,r3
    4150:	10c00017 	ldw	r3,0(r2)
    4154:	00810874 	movhi	r2,1057
    4158:	109ccb04 	addi	r2,r2,29484
    415c:	e13ffd17 	ldw	r4,-12(fp)
    4160:	200890fa 	slli	r4,r4,3
    4164:	1105883a 	add	r2,r2,r4
    4168:	10800104 	addi	r2,r2,4
    416c:	10800017 	ldw	r2,0(r2)
    4170:	1009883a 	mov	r4,r2
    4174:	183ee83a 	callr	r3
#else
        alt_irq[i].handler(alt_irq[i].context, i); 
#endif
        break;
    4178:	0001883a 	nop
#ifndef NIOS2_EIC_PRESENT
static ALT_INLINE alt_u32 ALT_ALWAYS_INLINE alt_irq_pending (void)
{
  alt_u32 active;

  NIOS2_READ_IPENDING (active);
    417c:	0005313a 	rdctl	r2,ipending
    4180:	e0bfff15 	stw	r2,-4(fp)

  return active;
    4184:	e0bfff17 	ldw	r2,-4(fp)
    4188:	00000706 	br	41a8 <alt_irq_handler+0xac>
      }
      mask <<= 1;
    418c:	e0bffc17 	ldw	r2,-16(fp)
    4190:	1085883a 	add	r2,r2,r2
    4194:	e0bffc15 	stw	r2,-16(fp)
      i++;
    4198:	e0bffd17 	ldw	r2,-12(fp)
    419c:	10800044 	addi	r2,r2,1
    41a0:	e0bffd15 	stw	r2,-12(fp)

    } while (1);
    41a4:	003fe106 	br	412c <__alt_data_end+0xfbd0412c>

    active = alt_irq_pending ();
    41a8:	e0bffb15 	stw	r2,-20(fp)
    
  } while (active);
    41ac:	e0bffb17 	ldw	r2,-20(fp)
    41b0:	103fdb1e 	bne	r2,zero,4120 <__alt_data_end+0xfbd04120>

  /*
   * Notify the operating system that interrupt processing is complete.
   */ 

  ALT_OS_INT_EXIT();
    41b4:	0001883a 	nop
}
    41b8:	0001883a 	nop
    41bc:	e037883a 	mov	sp,fp
    41c0:	dfc00117 	ldw	ra,4(sp)
    41c4:	df000017 	ldw	fp,0(sp)
    41c8:	dec00204 	addi	sp,sp,8
    41cc:	f800283a 	ret

000041d0 <alt_instruction_exception_entry>:
 * that handler if it has been registered. Absent a handler, it will
 * break break or hang as discussed below.
 */
int 
alt_instruction_exception_entry (alt_u32 exception_pc)
{
    41d0:	defffb04 	addi	sp,sp,-20
    41d4:	dfc00415 	stw	ra,16(sp)
    41d8:	df000315 	stw	fp,12(sp)
    41dc:	df000304 	addi	fp,sp,12
    41e0:	e13fff15 	stw	r4,-4(fp)
 * NIOS2_EXCEPTION_CAUSE_NOT_PRESENT. Your handling routine should
 * check the validity of the cause argument before proceeding.
 */
#ifdef NIOS2_HAS_EXTRA_EXCEPTION_INFO
  /* Get exception cause & "badaddr" */
  NIOS2_READ_EXCEPTION(cause);
    41e4:	000531fa 	rdctl	r2,exception
    41e8:	e0bffd15 	stw	r2,-12(fp)
  cause = ( (cause & NIOS2_EXCEPTION_REG_CAUSE_MASK) >>
    41ec:	e0bffd17 	ldw	r2,-12(fp)
    41f0:	10801f0c 	andi	r2,r2,124
    41f4:	1004d0ba 	srli	r2,r2,2
    41f8:	e0bffd15 	stw	r2,-12(fp)
              NIOS2_EXCEPTION_REG_CAUSE_OFST );

  NIOS2_READ_BADADDR(badaddr);
    41fc:	0005333a 	rdctl	r2,badaddr
    4200:	e0bffe15 	stw	r2,-8(fp)
#else
  cause = NIOS2_EXCEPTION_CAUSE_NOT_PRESENT;
  badaddr = 0;
#endif /* NIOS2_HAS_EXTRA_EXCEPTION_INFO */

  if(alt_instruction_exception_handler) {
    4204:	d0a6ea17 	ldw	r2,-25688(gp)
    4208:	10000726 	beq	r2,zero,4228 <alt_instruction_exception_entry+0x58>
     * Call handler. Its return value indicates whether the exception-causing
     * instruction should be re-issued. The code that called us,
     * alt_eceptions_entry.S, will look at this value and adjust the ea
     * register as necessary
     */
    return alt_instruction_exception_handler(cause, exception_pc, badaddr);
    420c:	d0a6ea17 	ldw	r2,-25688(gp)
    4210:	e0fffd17 	ldw	r3,-12(fp)
    4214:	e1bffe17 	ldw	r6,-8(fp)
    4218:	e17fff17 	ldw	r5,-4(fp)
    421c:	1809883a 	mov	r4,r3
    4220:	103ee83a 	callr	r2
    4224:	00000206 	br	4230 <alt_instruction_exception_entry+0x60>
   *    (a peripheral which negates its interrupt output before its
   *    interrupt handler has been executed will cause spurious interrupts)
   */
  else {
#ifdef NIOS2_HAS_DEBUG_STUB
    NIOS2_BREAK();
    4228:	003da03a 	break	0
      ;
#endif /* NIOS2_HAS_DEBUG_STUB */
  }

  /* We should not get here. Remove compiler warning. */
  return NIOS2_EXCEPTION_RETURN_REISSUE_INST;
    422c:	0005883a 	mov	r2,zero
}
    4230:	e037883a 	mov	sp,fp
    4234:	dfc00117 	ldw	ra,4(sp)
    4238:	df000017 	ldw	fp,0(sp)
    423c:	dec00204 	addi	sp,sp,8
    4240:	f800283a 	ret

Disassembly of section .text:

04200000 <_start>:

    /* Assume the data cache size is always a power of two. */
#if NIOS2_DCACHE_SIZE > 0x8000
    movhi r2, %hi(NIOS2_DCACHE_SIZE)
#else
    movui r2, NIOS2_DCACHE_SIZE
 4200000:	00820014 	movui	r2,2048
#endif

0:
    initd 0(r2)
 4200004:	10000033 	initd	0(r2)
#ifdef NIOS2_ECC_PRESENT
    addi r2, r2, -4
#else
    addi r2, r2, -NIOS2_DCACHE_LINE_SIZE
 4200008:	10bff804 	addi	r2,r2,-32
#endif
    bgt r2, zero, 0b
 420000c:	00bffd16 	blt	zero,r2,4200004 <__alt_data_end+0xfff00004>

    /*
     * Now that the caches are initialized, set up the stack pointer and global pointer.
     * The values provided by the linker are assumed to be correctly aligned.
     */
    movhi sp, %hi(__alt_stack_pointer)
 4200010:	06c10c34 	movhi	sp,1072
    ori sp, sp, %lo(__alt_stack_pointer)
 4200014:	dec00014 	ori	sp,sp,0
    movhi gp, %hi(_gp)
 4200018:	06810874 	movhi	gp,1057
    ori gp, gp, %lo(_gp)
 420001c:	d6b15414 	ori	gp,gp,50512
 */
#ifndef ALT_SIM_OPTIMIZE
    /* Log that the BSS is about to be cleared. */
    ALT_LOG_PUTS(alt_log_msg_bss)

    movhi r2, %hi(__bss_start)
 4200020:	00810874 	movhi	r2,1057
    ori r2, r2, %lo(__bss_start)
 4200024:	10982914 	ori	r2,r2,24740

    movhi r3, %hi(__bss_end)
 4200028:	00c10874 	movhi	r3,1057
    ori r3, r3, %lo(__bss_end)
 420002c:	18dd0b14 	ori	r3,r3,29740

    beq r2, r3, 1f
 4200030:	10c00326 	beq	r2,r3,4200040 <_start+0x40>

0:
    stw zero, (r2)
 4200034:	10000015 	stw	zero,0(r2)
    addi r2, r2, 4
 4200038:	10800104 	addi	r2,r2,4
    bltu r2, r3, 0b
 420003c:	10fffd36 	bltu	r2,r3,4200034 <__alt_data_end+0xfff00034>
     * section aren't defined until alt_load() has been called).
     */
    mov   et, zero
#endif

    call alt_load
 4200040:	420f8700 	call	420f870 <alt_load>

    /* Log that alt_main is about to be called. */
    ALT_LOG_PUTS(alt_log_msg_alt_main)

    /* Call the C entry point. It should never return. */
    call alt_main
 4200044:	420fa040 	call	420fa04 <alt_main>

04200048 <alt_after_alt_main>:

    /* Wait in infinite loop in case alt_main does return. */
alt_after_alt_main:
    br alt_after_alt_main
 4200048:	003fff06 	br	4200048 <__alt_data_end+0xfff00048>

0420004c <decoder_reset_stream>:
/* ============================================================
   BASIC HELPERS
   ============================================================ */

void decoder_reset_stream(void)
{
 420004c:	deffff04 	addi	sp,sp,-4
 4200050:	df000015 	stw	fp,0(sp)
 4200054:	d839883a 	mov	fp,sp
    stream_len = 0;
 4200058:	d026d515 	stw	zero,-25772(gp)
    stream_buf[0] = '\0';
 420005c:	00810874 	movhi	r2,1057
 4200060:	10984104 	addi	r2,r2,24836
 4200064:	10000005 	stb	zero,0(r2)

    portal_a_valid = 0;
 4200068:	d026d615 	stw	zero,-25768(gp)
    portal_b_valid = 0;
 420006c:	d026d715 	stw	zero,-25764(gp)
}
 4200070:	0001883a 	nop
 4200074:	e037883a 	mov	sp,fp
 4200078:	df000017 	ldw	fp,0(sp)
 420007c:	dec00104 	addi	sp,sp,4
 4200080:	f800283a 	ret

04200084 <coord_valid>:

static int coord_valid(int x, int y)
{
 4200084:	defffd04 	addi	sp,sp,-12
 4200088:	df000215 	stw	fp,8(sp)
 420008c:	df000204 	addi	fp,sp,8
 4200090:	e13ffe15 	stw	r4,-8(fp)
 4200094:	e17fff15 	stw	r5,-4(fp)
    if (x < 0 || x >= SNAKE_GRID_W) return 0;
 4200098:	e0bffe17 	ldw	r2,-8(fp)
 420009c:	10000316 	blt	r2,zero,42000ac <coord_valid+0x28>
 42000a0:	e0bffe17 	ldw	r2,-8(fp)
 42000a4:	10800810 	cmplti	r2,r2,32
 42000a8:	1000021e 	bne	r2,zero,42000b4 <coord_valid+0x30>
 42000ac:	0005883a 	mov	r2,zero
 42000b0:	00000806 	br	42000d4 <coord_valid+0x50>
    if (y < 0 || y >= SNAKE_GRID_H) return 0;
 42000b4:	e0bfff17 	ldw	r2,-4(fp)
 42000b8:	10000316 	blt	r2,zero,42000c8 <coord_valid+0x44>
 42000bc:	e0bfff17 	ldw	r2,-4(fp)
 42000c0:	10800590 	cmplti	r2,r2,22
 42000c4:	1000021e 	bne	r2,zero,42000d0 <coord_valid+0x4c>
 42000c8:	0005883a 	mov	r2,zero
 42000cc:	00000106 	br	42000d4 <coord_valid+0x50>
    return 1;
 42000d0:	00800044 	movi	r2,1
}
 42000d4:	e037883a 	mov	sp,fp
 42000d8:	df000017 	ldw	fp,0(sp)
 42000dc:	dec00104 	addi	sp,sp,4
 42000e0:	f800283a 	ret

042000e4 <snake_write_payload_byte>:

static void snake_write_payload_byte(unsigned int index, unsigned char value)
{
 42000e4:	defffc04 	addi	sp,sp,-16
 42000e8:	df000315 	stw	fp,12(sp)
 42000ec:	df000304 	addi	fp,sp,12
 42000f0:	e13ffe15 	stw	r4,-8(fp)
 42000f4:	2805883a 	mov	r2,r5
 42000f8:	e0bfff05 	stb	r2,-4(fp)
    volatile unsigned char *payload;

    payload = (volatile unsigned char *)(SHARED_FLAGS_BASE + SNAKE_MB_PAYLOAD);
 42000fc:	00814874 	movhi	r2,1313
 4200100:	10884804 	addi	r2,r2,8480
 4200104:	e0bffd15 	stw	r2,-12(fp)
    payload[index] = value;
 4200108:	e0fffd17 	ldw	r3,-12(fp)
 420010c:	e0bffe17 	ldw	r2,-8(fp)
 4200110:	1885883a 	add	r2,r3,r2
 4200114:	e0ffff03 	ldbu	r3,-4(fp)
 4200118:	10c00005 	stb	r3,0(r2)
}
 420011c:	0001883a 	nop
 4200120:	e037883a 	mov	sp,fp
 4200124:	df000017 	ldw	fp,0(sp)
 4200128:	dec00104 	addi	sp,sp,4
 420012c:	f800283a 	ret

04200130 <snake_send_mailbox_command>:
    unsigned int cmd_type,
    unsigned int count,
    unsigned int payload_len,
    const unsigned char *payload
)
{
 4200130:	defff804 	addi	sp,sp,-32
 4200134:	dfc00715 	stw	ra,28(sp)
 4200138:	df000615 	stw	fp,24(sp)
 420013c:	df000604 	addi	fp,sp,24
 4200140:	e13ffc15 	stw	r4,-16(fp)
 4200144:	e17ffd15 	stw	r5,-12(fp)
 4200148:	e1bffe15 	stw	r6,-8(fp)
 420014c:	e1ffff15 	stw	r7,-4(fp)
    static unsigned int seq = 0;
    unsigned int i;
    unsigned int wait_count = 0;
 4200150:	e03ffb15 	stw	zero,-20(fp)

    while (IORD_32DIRECT(SHARED_FLAGS_BASE, SNAKE_MB_READY) != 0)
 4200154:	00000a06 	br	4200180 <snake_send_mailbox_command+0x50>
    {
        usleep(1000);
 4200158:	0100fa04 	movi	r4,1000
 420015c:	420fd140 	call	420fd14 <usleep>
        wait_count++;
 4200160:	e0bffb17 	ldw	r2,-20(fp)
 4200164:	10800044 	addi	r2,r2,1
 4200168:	e0bffb15 	stw	r2,-20(fp)

        if (wait_count >= MAILBOX_WAIT_RETRY)
 420016c:	e0bffb17 	ldw	r2,-20(fp)
 4200170:	1080fa30 	cmpltui	r2,r2,1000
 4200174:	1000021e 	bne	r2,zero,4200180 <snake_send_mailbox_command+0x50>
        {
            return DECODER_ERR_MAILBOX_BUSY;
 4200178:	00bfff44 	movi	r2,-3
 420017c:	00003606 	br	4200258 <snake_send_mailbox_command+0x128>
{
    static unsigned int seq = 0;
    unsigned int i;
    unsigned int wait_count = 0;

    while (IORD_32DIRECT(SHARED_FLAGS_BASE, SNAKE_MB_READY) != 0)
 4200180:	00814874 	movhi	r2,1313
 4200184:	10884004 	addi	r2,r2,8448
 4200188:	10800037 	ldwio	r2,0(r2)
 420018c:	103ff21e 	bne	r2,zero,4200158 <__alt_data_end+0xfff00158>
        {
            return DECODER_ERR_MAILBOX_BUSY;
        }
    }

    if (payload_len > SNAKE_MB_PAYLOAD_MAX)
 4200190:	e0bffe17 	ldw	r2,-8(fp)
 4200194:	10804070 	cmpltui	r2,r2,257
 4200198:	1000021e 	bne	r2,zero,42001a4 <snake_send_mailbox_command+0x74>
    {
        payload_len = SNAKE_MB_PAYLOAD_MAX;
 420019c:	00804004 	movi	r2,256
 42001a0:	e0bffe15 	stw	r2,-8(fp)
    }

    for (i = 0; i < payload_len; i++)
 42001a4:	e03ffa15 	stw	zero,-24(fp)
 42001a8:	00000b06 	br	42001d8 <snake_send_mailbox_command+0xa8>
    {
        snake_write_payload_byte(i, payload[i]);
 42001ac:	e0ffff17 	ldw	r3,-4(fp)
 42001b0:	e0bffa17 	ldw	r2,-24(fp)
 42001b4:	1885883a 	add	r2,r3,r2
 42001b8:	10800003 	ldbu	r2,0(r2)
 42001bc:	10803fcc 	andi	r2,r2,255
 42001c0:	100b883a 	mov	r5,r2
 42001c4:	e13ffa17 	ldw	r4,-24(fp)
 42001c8:	42000e40 	call	42000e4 <snake_write_payload_byte>
    if (payload_len > SNAKE_MB_PAYLOAD_MAX)
    {
        payload_len = SNAKE_MB_PAYLOAD_MAX;
    }

    for (i = 0; i < payload_len; i++)
 42001cc:	e0bffa17 	ldw	r2,-24(fp)
 42001d0:	10800044 	addi	r2,r2,1
 42001d4:	e0bffa15 	stw	r2,-24(fp)
 42001d8:	e0fffa17 	ldw	r3,-24(fp)
 42001dc:	e0bffe17 	ldw	r2,-8(fp)
 42001e0:	18bff236 	bltu	r3,r2,42001ac <__alt_data_end+0xfff001ac>
    {
        snake_write_payload_byte(i, payload[i]);
    }

    seq++;
 42001e4:	d0a6d917 	ldw	r2,-25756(gp)
 42001e8:	10800044 	addi	r2,r2,1
 42001ec:	d0a6d915 	stw	r2,-25756(gp)

    IOWR_32DIRECT(SHARED_FLAGS_BASE, SNAKE_MB_TYPE, cmd_type);
 42001f0:	e0fffc17 	ldw	r3,-16(fp)
 42001f4:	00814874 	movhi	r2,1313
 42001f8:	10884304 	addi	r2,r2,8460
 42001fc:	10c00035 	stwio	r3,0(r2)
    IOWR_32DIRECT(SHARED_FLAGS_BASE, SNAKE_MB_COUNT, count);
 4200200:	e0fffd17 	ldw	r3,-12(fp)
 4200204:	00814874 	movhi	r2,1313
 4200208:	10884404 	addi	r2,r2,8464
 420020c:	10c00035 	stwio	r3,0(r2)
    IOWR_32DIRECT(SHARED_FLAGS_BASE, SNAKE_MB_PAYLOAD_LEN, payload_len);
 4200210:	e0fffe17 	ldw	r3,-8(fp)
 4200214:	00814874 	movhi	r2,1313
 4200218:	10884604 	addi	r2,r2,8472
 420021c:	10c00035 	stwio	r3,0(r2)
    IOWR_32DIRECT(SHARED_FLAGS_BASE, SNAKE_MB_ACK, 0);
 4200220:	0007883a 	mov	r3,zero
 4200224:	00814874 	movhi	r2,1313
 4200228:	10884104 	addi	r2,r2,8452
 420022c:	10c00035 	stwio	r3,0(r2)
    IOWR_32DIRECT(SHARED_FLAGS_BASE, SNAKE_MB_SEQ, seq);
 4200230:	d0a6d917 	ldw	r2,-25756(gp)
 4200234:	1007883a 	mov	r3,r2
 4200238:	00814874 	movhi	r2,1313
 420023c:	10884204 	addi	r2,r2,8456
 4200240:	10c00035 	stwio	r3,0(r2)

    /*
       READY must be written last.
    */
    IOWR_32DIRECT(SHARED_FLAGS_BASE, SNAKE_MB_READY, 1);
 4200244:	00c00044 	movi	r3,1
 4200248:	00814874 	movhi	r2,1313
 420024c:	10884004 	addi	r2,r2,8448
 4200250:	10c00035 	stwio	r3,0(r2)

    return DECODER_OK_SENT;
 4200254:	00800044 	movi	r2,1
}
 4200258:	e037883a 	mov	sp,fp
 420025c:	dfc00117 	ldw	ra,4(sp)
 4200260:	df000017 	ldw	fp,0(sp)
 4200264:	dec00204 	addi	sp,sp,8
 4200268:	f800283a 	ret

0420026c <parse_number_range>:
    const char *buf,
    unsigned int *pos,
    unsigned int end,
    int *out_value
)
{
 420026c:	defff904 	addi	sp,sp,-28
 4200270:	df000615 	stw	fp,24(sp)
 4200274:	df000604 	addi	fp,sp,24
 4200278:	e13ffc15 	stw	r4,-16(fp)
 420027c:	e17ffd15 	stw	r5,-12(fp)
 4200280:	e1bffe15 	stw	r6,-8(fp)
 4200284:	e1ffff15 	stw	r7,-4(fp)
    int value = 0;
 4200288:	e03ffa15 	stw	zero,-24(fp)
    int found_digit = 0;
 420028c:	e03ffb15 	stw	zero,-20(fp)

    while (*pos < end && buf[*pos] >= '0' && buf[*pos] <= '9')
 4200290:	00001406 	br	42002e4 <parse_number_range+0x78>
    {
        found_digit = 1;
 4200294:	00800044 	movi	r2,1
 4200298:	e0bffb15 	stw	r2,-20(fp)
        value = value * 10 + (buf[*pos] - '0');
 420029c:	e0bffa17 	ldw	r2,-24(fp)
 42002a0:	10c002a4 	muli	r3,r2,10
 42002a4:	e0bffd17 	ldw	r2,-12(fp)
 42002a8:	10800017 	ldw	r2,0(r2)
 42002ac:	e13ffc17 	ldw	r4,-16(fp)
 42002b0:	2085883a 	add	r2,r4,r2
 42002b4:	10800003 	ldbu	r2,0(r2)
 42002b8:	10803fcc 	andi	r2,r2,255
 42002bc:	1080201c 	xori	r2,r2,128
 42002c0:	10bfe004 	addi	r2,r2,-128
 42002c4:	10bff404 	addi	r2,r2,-48
 42002c8:	1885883a 	add	r2,r3,r2
 42002cc:	e0bffa15 	stw	r2,-24(fp)
        (*pos)++;
 42002d0:	e0bffd17 	ldw	r2,-12(fp)
 42002d4:	10800017 	ldw	r2,0(r2)
 42002d8:	10c00044 	addi	r3,r2,1
 42002dc:	e0bffd17 	ldw	r2,-12(fp)
 42002e0:	10c00015 	stw	r3,0(r2)
)
{
    int value = 0;
    int found_digit = 0;

    while (*pos < end && buf[*pos] >= '0' && buf[*pos] <= '9')
 42002e4:	e0bffd17 	ldw	r2,-12(fp)
 42002e8:	10c00017 	ldw	r3,0(r2)
 42002ec:	e0bffe17 	ldw	r2,-8(fp)
 42002f0:	1880142e 	bgeu	r3,r2,4200344 <parse_number_range+0xd8>
 42002f4:	e0bffd17 	ldw	r2,-12(fp)
 42002f8:	10800017 	ldw	r2,0(r2)
 42002fc:	e0fffc17 	ldw	r3,-16(fp)
 4200300:	1885883a 	add	r2,r3,r2
 4200304:	10800003 	ldbu	r2,0(r2)
 4200308:	10803fcc 	andi	r2,r2,255
 420030c:	1080201c 	xori	r2,r2,128
 4200310:	10bfe004 	addi	r2,r2,-128
 4200314:	10800c10 	cmplti	r2,r2,48
 4200318:	10000a1e 	bne	r2,zero,4200344 <parse_number_range+0xd8>
 420031c:	e0bffd17 	ldw	r2,-12(fp)
 4200320:	10800017 	ldw	r2,0(r2)
 4200324:	e0fffc17 	ldw	r3,-16(fp)
 4200328:	1885883a 	add	r2,r3,r2
 420032c:	10800003 	ldbu	r2,0(r2)
 4200330:	10803fcc 	andi	r2,r2,255
 4200334:	1080201c 	xori	r2,r2,128
 4200338:	10bfe004 	addi	r2,r2,-128
 420033c:	10800e90 	cmplti	r2,r2,58
 4200340:	103fd41e 	bne	r2,zero,4200294 <__alt_data_end+0xfff00294>
        found_digit = 1;
        value = value * 10 + (buf[*pos] - '0');
        (*pos)++;
    }

    if (!found_digit)
 4200344:	e0bffb17 	ldw	r2,-20(fp)
 4200348:	1000021e 	bne	r2,zero,4200354 <parse_number_range+0xe8>
    {
        return 0;
 420034c:	0005883a 	mov	r2,zero
 4200350:	00000406 	br	4200364 <parse_number_range+0xf8>
    }

    *out_value = value;
 4200354:	e0bfff17 	ldw	r2,-4(fp)
 4200358:	e0fffa17 	ldw	r3,-24(fp)
 420035c:	10c00015 	stw	r3,0(r2)
    return 1;
 4200360:	00800044 	movi	r2,1
}
 4200364:	e037883a 	mov	sp,fp
 4200368:	df000017 	ldw	fp,0(sp)
 420036c:	dec00104 	addi	sp,sp,4
 4200370:	f800283a 	ret

04200374 <parse_xy_pairs_range>:
    unsigned char *payload,
    unsigned int max_payload_len,
    unsigned int *out_count,
    unsigned int *out_payload_len
)
{
 4200374:	defff404 	addi	sp,sp,-48
 4200378:	dfc00b15 	stw	ra,44(sp)
 420037c:	df000a15 	stw	fp,40(sp)
 4200380:	df000a04 	addi	fp,sp,40
 4200384:	e13ffc15 	stw	r4,-16(fp)
 4200388:	e17ffd15 	stw	r5,-12(fp)
 420038c:	e1bffe15 	stw	r6,-8(fp)
 4200390:	e1ffff15 	stw	r7,-4(fp)
    unsigned int pos = start;
 4200394:	e0bffd17 	ldw	r2,-12(fp)
 4200398:	e0bff915 	stw	r2,-28(fp)
    unsigned int count = 0;
 420039c:	e03ff615 	stw	zero,-40(fp)
    unsigned int payload_len = 0;
 42003a0:	e03ff715 	stw	zero,-36(fp)

    while (pos < end)
 42003a4:	00006206 	br	4200530 <parse_xy_pairs_range+0x1bc>
    {
        unsigned int pair_start = pos;
 42003a8:	e0bff917 	ldw	r2,-28(fp)
 42003ac:	e0bff815 	stw	r2,-32(fp)
        int x;
        int y;

        if (buf[pos] != 'X')
 42003b0:	e0bff917 	ldw	r2,-28(fp)
 42003b4:	e0fffc17 	ldw	r3,-16(fp)
 42003b8:	1885883a 	add	r2,r3,r2
 42003bc:	10800003 	ldbu	r2,0(r2)
 42003c0:	10803fcc 	andi	r2,r2,255
 42003c4:	1080201c 	xori	r2,r2,128
 42003c8:	10bfe004 	addi	r2,r2,-128
 42003cc:	10801620 	cmpeqi	r2,r2,88
 42003d0:	1000101e 	bne	r2,zero,4200414 <parse_xy_pairs_range+0xa0>
        {
            if ((end - pos) >= 5 && strncmp(&buf[pos], "SNAKE", 5) == 0)
 42003d4:	e0bff917 	ldw	r2,-28(fp)
 42003d8:	e0fffe17 	ldw	r3,-8(fp)
 42003dc:	1885c83a 	sub	r2,r3,r2
 42003e0:	10800170 	cmpltui	r2,r2,5
 42003e4:	1000091e 	bne	r2,zero,420040c <parse_xy_pairs_range+0x98>
 42003e8:	e0bff917 	ldw	r2,-28(fp)
 42003ec:	e0fffc17 	ldw	r3,-16(fp)
 42003f0:	1885883a 	add	r2,r3,r2
 42003f4:	01800144 	movi	r6,5
 42003f8:	01410874 	movhi	r5,1057
 42003fc:	29479404 	addi	r5,r5,7760
 4200400:	1009883a 	mov	r4,r2
 4200404:	42042c80 	call	42042c8 <strncmp>
 4200408:	10004d26 	beq	r2,zero,4200540 <parse_xy_pairs_range+0x1cc>
            {
                break;
            }

            return DECODER_ERR_BAD_FORMAT;
 420040c:	00bfffc4 	movi	r2,-1
 4200410:	00005706 	br	4200570 <parse_xy_pairs_range+0x1fc>
        }

        pos++;
 4200414:	e0bff917 	ldw	r2,-28(fp)
 4200418:	10800044 	addi	r2,r2,1
 420041c:	e0bff915 	stw	r2,-28(fp)

        if (!parse_number_range(buf, &pos, end, &x))
 4200420:	e0fffa04 	addi	r3,fp,-24
 4200424:	e0bff904 	addi	r2,fp,-28
 4200428:	180f883a 	mov	r7,r3
 420042c:	e1bffe17 	ldw	r6,-8(fp)
 4200430:	100b883a 	mov	r5,r2
 4200434:	e13ffc17 	ldw	r4,-16(fp)
 4200438:	420026c0 	call	420026c <parse_number_range>
 420043c:	10004226 	beq	r2,zero,4200548 <parse_xy_pairs_range+0x1d4>
        {
            break;
        }

        if (pos >= end)
 4200440:	e0fff917 	ldw	r3,-28(fp)
 4200444:	e0bffe17 	ldw	r2,-8(fp)
 4200448:	18800336 	bltu	r3,r2,4200458 <parse_xy_pairs_range+0xe4>
        {
            pos = pair_start;
 420044c:	e0bff817 	ldw	r2,-32(fp)
 4200450:	e0bff915 	stw	r2,-28(fp)
            break;
 4200454:	00003f06 	br	4200554 <parse_xy_pairs_range+0x1e0>
        }

        if (buf[pos] != 'Y')
 4200458:	e0bff917 	ldw	r2,-28(fp)
 420045c:	e0fffc17 	ldw	r3,-16(fp)
 4200460:	1885883a 	add	r2,r3,r2
 4200464:	10800003 	ldbu	r2,0(r2)
 4200468:	10803fcc 	andi	r2,r2,255
 420046c:	1080201c 	xori	r2,r2,128
 4200470:	10bfe004 	addi	r2,r2,-128
 4200474:	10801660 	cmpeqi	r2,r2,89
 4200478:	1000021e 	bne	r2,zero,4200484 <parse_xy_pairs_range+0x110>
        {
            return DECODER_ERR_BAD_FORMAT;
 420047c:	00bfffc4 	movi	r2,-1
 4200480:	00003b06 	br	4200570 <parse_xy_pairs_range+0x1fc>
        }

        pos++;
 4200484:	e0bff917 	ldw	r2,-28(fp)
 4200488:	10800044 	addi	r2,r2,1
 420048c:	e0bff915 	stw	r2,-28(fp)

        if (!parse_number_range(buf, &pos, end, &y))
 4200490:	e0fffb04 	addi	r3,fp,-20
 4200494:	e0bff904 	addi	r2,fp,-28
 4200498:	180f883a 	mov	r7,r3
 420049c:	e1bffe17 	ldw	r6,-8(fp)
 42004a0:	100b883a 	mov	r5,r2
 42004a4:	e13ffc17 	ldw	r4,-16(fp)
 42004a8:	420026c0 	call	420026c <parse_number_range>
 42004ac:	1000031e 	bne	r2,zero,42004bc <parse_xy_pairs_range+0x148>
        {
            pos = pair_start;
 42004b0:	e0bff817 	ldw	r2,-32(fp)
 42004b4:	e0bff915 	stw	r2,-28(fp)
            break;
 42004b8:	00002606 	br	4200554 <parse_xy_pairs_range+0x1e0>
        }

        if (!coord_valid(x, y))
 42004bc:	e0bffa17 	ldw	r2,-24(fp)
 42004c0:	e0fffb17 	ldw	r3,-20(fp)
 42004c4:	180b883a 	mov	r5,r3
 42004c8:	1009883a 	mov	r4,r2
 42004cc:	42000840 	call	4200084 <coord_valid>
 42004d0:	1000021e 	bne	r2,zero,42004dc <parse_xy_pairs_range+0x168>
        {
            return DECODER_ERR_OUT_OF_RANGE;
 42004d4:	00bfff84 	movi	r2,-2
 42004d8:	00002506 	br	4200570 <parse_xy_pairs_range+0x1fc>
        }

        if (payload_len + 2 > max_payload_len)
 42004dc:	e0bff717 	ldw	r2,-36(fp)
 42004e0:	10800084 	addi	r2,r2,2
 42004e4:	e0c00217 	ldw	r3,8(fp)
 42004e8:	18801936 	bltu	r3,r2,4200550 <parse_xy_pairs_range+0x1dc>
        {
            break;
        }

        payload[payload_len++] = (unsigned char)x;
 42004ec:	e0bff717 	ldw	r2,-36(fp)
 42004f0:	10c00044 	addi	r3,r2,1
 42004f4:	e0fff715 	stw	r3,-36(fp)
 42004f8:	e0ffff17 	ldw	r3,-4(fp)
 42004fc:	1885883a 	add	r2,r3,r2
 4200500:	e0fffa17 	ldw	r3,-24(fp)
 4200504:	10c00005 	stb	r3,0(r2)
        payload[payload_len++] = (unsigned char)y;
 4200508:	e0bff717 	ldw	r2,-36(fp)
 420050c:	10c00044 	addi	r3,r2,1
 4200510:	e0fff715 	stw	r3,-36(fp)
 4200514:	e0ffff17 	ldw	r3,-4(fp)
 4200518:	1885883a 	add	r2,r3,r2
 420051c:	e0fffb17 	ldw	r3,-20(fp)
 4200520:	10c00005 	stb	r3,0(r2)
        count++;
 4200524:	e0bff617 	ldw	r2,-40(fp)
 4200528:	10800044 	addi	r2,r2,1
 420052c:	e0bff615 	stw	r2,-40(fp)
{
    unsigned int pos = start;
    unsigned int count = 0;
    unsigned int payload_len = 0;

    while (pos < end)
 4200530:	e0fff917 	ldw	r3,-28(fp)
 4200534:	e0bffe17 	ldw	r2,-8(fp)
 4200538:	18bf9b36 	bltu	r3,r2,42003a8 <__alt_data_end+0xfff003a8>
 420053c:	00000506 	br	4200554 <parse_xy_pairs_range+0x1e0>

        if (buf[pos] != 'X')
        {
            if ((end - pos) >= 5 && strncmp(&buf[pos], "SNAKE", 5) == 0)
            {
                break;
 4200540:	0001883a 	nop
 4200544:	00000306 	br	4200554 <parse_xy_pairs_range+0x1e0>

        pos++;

        if (!parse_number_range(buf, &pos, end, &x))
        {
            break;
 4200548:	0001883a 	nop
 420054c:	00000106 	br	4200554 <parse_xy_pairs_range+0x1e0>
            return DECODER_ERR_OUT_OF_RANGE;
        }

        if (payload_len + 2 > max_payload_len)
        {
            break;
 4200550:	0001883a 	nop
        payload[payload_len++] = (unsigned char)x;
        payload[payload_len++] = (unsigned char)y;
        count++;
    }

    *out_count = count;
 4200554:	e0800317 	ldw	r2,12(fp)
 4200558:	e0fff617 	ldw	r3,-40(fp)
 420055c:	10c00015 	stw	r3,0(r2)
    *out_payload_len = payload_len;
 4200560:	e0800417 	ldw	r2,16(fp)
 4200564:	e0fff717 	ldw	r3,-36(fp)
 4200568:	10c00015 	stw	r3,0(r2)

    return DECODER_OK_SENT;
 420056c:	00800044 	movi	r2,1
}
 4200570:	e037883a 	mov	sp,fp
 4200574:	dfc00117 	ldw	ra,4(sp)
 4200578:	df000017 	ldw	fp,0(sp)
 420057c:	dec00204 	addi	sp,sp,8
 4200580:	f800283a 	ret

04200584 <starts_with_at>:
/* ============================================================
   STREAM HELPERS
   ============================================================ */

static int starts_with_at(const char *buf, unsigned int pos, const char *prefix)
{
 4200584:	defffa04 	addi	sp,sp,-24
 4200588:	dfc00515 	stw	ra,20(sp)
 420058c:	df000415 	stw	fp,16(sp)
 4200590:	df000404 	addi	fp,sp,16
 4200594:	e13ffd15 	stw	r4,-12(fp)
 4200598:	e17ffe15 	stw	r5,-8(fp)
 420059c:	e1bfff15 	stw	r6,-4(fp)
    unsigned int prefix_len;

    prefix_len = (unsigned int)strlen(prefix);
 42005a0:	e13fff17 	ldw	r4,-4(fp)
 42005a4:	42042300 	call	4204230 <strlen>
 42005a8:	e0bffc15 	stw	r2,-16(fp)

    if (pos + prefix_len > stream_len)
 42005ac:	e0fffe17 	ldw	r3,-8(fp)
 42005b0:	e0bffc17 	ldw	r2,-16(fp)
 42005b4:	1885883a 	add	r2,r3,r2
 42005b8:	d0e6d517 	ldw	r3,-25772(gp)
 42005bc:	1880022e 	bgeu	r3,r2,42005c8 <starts_with_at+0x44>
    {
        return 0;
 42005c0:	0005883a 	mov	r2,zero
 42005c4:	00000906 	br	42005ec <starts_with_at+0x68>
    }

    return strncmp(&buf[pos], prefix, prefix_len) == 0;
 42005c8:	e0fffd17 	ldw	r3,-12(fp)
 42005cc:	e0bffe17 	ldw	r2,-8(fp)
 42005d0:	1885883a 	add	r2,r3,r2
 42005d4:	e1bffc17 	ldw	r6,-16(fp)
 42005d8:	e17fff17 	ldw	r5,-4(fp)
 42005dc:	1009883a 	mov	r4,r2
 42005e0:	42042c80 	call	42042c8 <strncmp>
 42005e4:	1005003a 	cmpeq	r2,r2,zero
 42005e8:	10803fcc 	andi	r2,r2,255
}
 42005ec:	e037883a 	mov	sp,fp
 42005f0:	dfc00117 	ldw	ra,4(sp)
 42005f4:	df000017 	ldw	fp,0(sp)
 42005f8:	dec00204 	addi	sp,sp,8
 42005fc:	f800283a 	ret

04200600 <find_token_from>:

static int find_token_from(unsigned int start, const char *token)
{
 4200600:	defffa04 	addi	sp,sp,-24
 4200604:	dfc00515 	stw	ra,20(sp)
 4200608:	df000415 	stw	fp,16(sp)
 420060c:	df000404 	addi	fp,sp,16
 4200610:	e13ffe15 	stw	r4,-8(fp)
 4200614:	e17fff15 	stw	r5,-4(fp)
    unsigned int i;
    unsigned int token_len;

    token_len = (unsigned int)strlen(token);
 4200618:	e13fff17 	ldw	r4,-4(fp)
 420061c:	42042300 	call	4204230 <strlen>
 4200620:	e0bffd15 	stw	r2,-12(fp)

    if (token_len == 0 || stream_len < token_len)
 4200624:	e0bffd17 	ldw	r2,-12(fp)
 4200628:	10000326 	beq	r2,zero,4200638 <find_token_from+0x38>
 420062c:	d0e6d517 	ldw	r3,-25772(gp)
 4200630:	e0bffd17 	ldw	r2,-12(fp)
 4200634:	1880022e 	bgeu	r3,r2,4200640 <find_token_from+0x40>
    {
        return -1;
 4200638:	00bfffc4 	movi	r2,-1
 420063c:	00001706 	br	420069c <find_token_from+0x9c>
    }

    for (i = start; i + token_len <= stream_len; i++)
 4200640:	e0bffe17 	ldw	r2,-8(fp)
 4200644:	e0bffc15 	stw	r2,-16(fp)
 4200648:	00000e06 	br	4200684 <find_token_from+0x84>
    {
        if (strncmp(&stream_buf[i], token, token_len) == 0)
 420064c:	e0fffc17 	ldw	r3,-16(fp)
 4200650:	00810874 	movhi	r2,1057
 4200654:	10984104 	addi	r2,r2,24836
 4200658:	1885883a 	add	r2,r3,r2
 420065c:	e1bffd17 	ldw	r6,-12(fp)
 4200660:	e17fff17 	ldw	r5,-4(fp)
 4200664:	1009883a 	mov	r4,r2
 4200668:	42042c80 	call	42042c8 <strncmp>
 420066c:	1000021e 	bne	r2,zero,4200678 <find_token_from+0x78>
        {
            return (int)i;
 4200670:	e0bffc17 	ldw	r2,-16(fp)
 4200674:	00000906 	br	420069c <find_token_from+0x9c>
    if (token_len == 0 || stream_len < token_len)
    {
        return -1;
    }

    for (i = start; i + token_len <= stream_len; i++)
 4200678:	e0bffc17 	ldw	r2,-16(fp)
 420067c:	10800044 	addi	r2,r2,1
 4200680:	e0bffc15 	stw	r2,-16(fp)
 4200684:	e0fffc17 	ldw	r3,-16(fp)
 4200688:	e0bffd17 	ldw	r2,-12(fp)
 420068c:	1885883a 	add	r2,r3,r2
 4200690:	d0e6d517 	ldw	r3,-25772(gp)
 4200694:	18bfed2e 	bgeu	r3,r2,420064c <__alt_data_end+0xfff0064c>
        {
            return (int)i;
        }
    }

    return -1;
 4200698:	00bfffc4 	movi	r2,-1
}
 420069c:	e037883a 	mov	sp,fp
 42006a0:	dfc00117 	ldw	ra,4(sp)
 42006a4:	df000017 	ldw	fp,0(sp)
 42006a8:	dec00204 	addi	sp,sp,8
 42006ac:	f800283a 	ret

042006b0 <find_next_snake>:

static int find_next_snake(unsigned int start)
{
 42006b0:	defffd04 	addi	sp,sp,-12
 42006b4:	dfc00215 	stw	ra,8(sp)
 42006b8:	df000115 	stw	fp,4(sp)
 42006bc:	df000104 	addi	fp,sp,4
 42006c0:	e13fff15 	stw	r4,-4(fp)
    return find_token_from(start, "SNAKE");
 42006c4:	01410874 	movhi	r5,1057
 42006c8:	29479404 	addi	r5,r5,7760
 42006cc:	e13fff17 	ldw	r4,-4(fp)
 42006d0:	42006000 	call	4200600 <find_token_from>
}
 42006d4:	e037883a 	mov	sp,fp
 42006d8:	dfc00117 	ldw	ra,4(sp)
 42006dc:	df000017 	ldw	fp,0(sp)
 42006e0:	dec00204 	addi	sp,sp,8
 42006e4:	f800283a 	ret

042006e8 <remove_stream_prefix>:

static void remove_stream_prefix(unsigned int count)
{
 42006e8:	defffd04 	addi	sp,sp,-12
 42006ec:	df000215 	stw	fp,8(sp)
 42006f0:	df000204 	addi	fp,sp,8
 42006f4:	e13fff15 	stw	r4,-4(fp)
    unsigned int i;

    if (count == 0)
 42006f8:	e0bfff17 	ldw	r2,-4(fp)
 42006fc:	10002826 	beq	r2,zero,42007a0 <remove_stream_prefix+0xb8>
    {
        return;
    }

    if (count >= stream_len)
 4200700:	d0a6d517 	ldw	r2,-25772(gp)
 4200704:	e0ffff17 	ldw	r3,-4(fp)
 4200708:	18800536 	bltu	r3,r2,4200720 <remove_stream_prefix+0x38>
    {
        stream_len = 0;
 420070c:	d026d515 	stw	zero,-25772(gp)
        stream_buf[0] = '\0';
 4200710:	00810874 	movhi	r2,1057
 4200714:	10984104 	addi	r2,r2,24836
 4200718:	10000005 	stb	zero,0(r2)
        return;
 420071c:	00002106 	br	42007a4 <remove_stream_prefix+0xbc>
    }

    for (i = 0; i < stream_len - count; i++)
 4200720:	e03ffe15 	stw	zero,-8(fp)
 4200724:	00000f06 	br	4200764 <remove_stream_prefix+0x7c>
    {
        stream_buf[i] = stream_buf[i + count];
 4200728:	e0fffe17 	ldw	r3,-8(fp)
 420072c:	e0bfff17 	ldw	r2,-4(fp)
 4200730:	1887883a 	add	r3,r3,r2
 4200734:	00810874 	movhi	r2,1057
 4200738:	10984104 	addi	r2,r2,24836
 420073c:	10c5883a 	add	r2,r2,r3
 4200740:	10c00003 	ldbu	r3,0(r2)
 4200744:	00810874 	movhi	r2,1057
 4200748:	10984104 	addi	r2,r2,24836
 420074c:	e13ffe17 	ldw	r4,-8(fp)
 4200750:	1105883a 	add	r2,r2,r4
 4200754:	10c00005 	stb	r3,0(r2)
        stream_len = 0;
        stream_buf[0] = '\0';
        return;
    }

    for (i = 0; i < stream_len - count; i++)
 4200758:	e0bffe17 	ldw	r2,-8(fp)
 420075c:	10800044 	addi	r2,r2,1
 4200760:	e0bffe15 	stw	r2,-8(fp)
 4200764:	d0e6d517 	ldw	r3,-25772(gp)
 4200768:	e0bfff17 	ldw	r2,-4(fp)
 420076c:	1885c83a 	sub	r2,r3,r2
 4200770:	e0fffe17 	ldw	r3,-8(fp)
 4200774:	18bfec36 	bltu	r3,r2,4200728 <__alt_data_end+0xfff00728>
    {
        stream_buf[i] = stream_buf[i + count];
    }

    stream_len -= count;
 4200778:	d0e6d517 	ldw	r3,-25772(gp)
 420077c:	e0bfff17 	ldw	r2,-4(fp)
 4200780:	1885c83a 	sub	r2,r3,r2
 4200784:	d0a6d515 	stw	r2,-25772(gp)
    stream_buf[stream_len] = '\0';
 4200788:	d0e6d517 	ldw	r3,-25772(gp)
 420078c:	00810874 	movhi	r2,1057
 4200790:	10984104 	addi	r2,r2,24836
 4200794:	10c5883a 	add	r2,r2,r3
 4200798:	10000005 	stb	zero,0(r2)
 420079c:	00000106 	br	42007a4 <remove_stream_prefix+0xbc>
{
    unsigned int i;

    if (count == 0)
    {
        return;
 42007a0:	0001883a 	nop
        stream_buf[i] = stream_buf[i + count];
    }

    stream_len -= count;
    stream_buf[stream_len] = '\0';
}
 42007a4:	e037883a 	mov	sp,fp
 42007a8:	df000017 	ldw	fp,0(sp)
 42007ac:	dec00104 	addi	sp,sp,4
 42007b0:	f800283a 	ret

042007b4 <repair_common_ocr_errors>:
       SNAKEAPP

   This repair inserts missing N in SAKE...
*/
static void repair_common_ocr_errors(void)
{
 42007b4:	defffc04 	addi	sp,sp,-16
 42007b8:	dfc00315 	stw	ra,12(sp)
 42007bc:	df000215 	stw	fp,8(sp)
 42007c0:	df000204 	addi	fp,sp,8
    unsigned int i;

    i = 0;
 42007c4:	e03ffe15 	stw	zero,-8(fp)

    while (i + 4 <= stream_len)
 42007c8:	00003a06 	br	42008b4 <repair_common_ocr_errors+0x100>
    {
        if (strncmp(&stream_buf[i], "SAKE", 4) == 0)
 42007cc:	e0fffe17 	ldw	r3,-8(fp)
 42007d0:	00810874 	movhi	r2,1057
 42007d4:	10984104 	addi	r2,r2,24836
 42007d8:	1885883a 	add	r2,r3,r2
 42007dc:	01800104 	movi	r6,4
 42007e0:	01410874 	movhi	r5,1057
 42007e4:	29479604 	addi	r5,r5,7768
 42007e8:	1009883a 	mov	r4,r2
 42007ec:	42042c80 	call	42042c8 <strncmp>
 42007f0:	10002d1e 	bne	r2,zero,42008a8 <repair_common_ocr_errors+0xf4>
        {
            unsigned int j;

            if (stream_len + 1 < DECODER_STREAM_MAX)
 42007f4:	d0a6d517 	ldw	r2,-25772(gp)
 42007f8:	10800044 	addi	r2,r2,1
 42007fc:	10808028 	cmpgeui	r2,r2,512
 4200800:	1000291e 	bne	r2,zero,42008a8 <repair_common_ocr_errors+0xf4>
            {
                for (j = stream_len + 1; j > i + 1; j--)
 4200804:	d0a6d517 	ldw	r2,-25772(gp)
 4200808:	10800044 	addi	r2,r2,1
 420080c:	e0bfff15 	stw	r2,-4(fp)
 4200810:	00000e06 	br	420084c <repair_common_ocr_errors+0x98>
                {
                    stream_buf[j] = stream_buf[j - 1];
 4200814:	e0bfff17 	ldw	r2,-4(fp)
 4200818:	10ffffc4 	addi	r3,r2,-1
 420081c:	00810874 	movhi	r2,1057
 4200820:	10984104 	addi	r2,r2,24836
 4200824:	10c5883a 	add	r2,r2,r3
 4200828:	10c00003 	ldbu	r3,0(r2)
 420082c:	00810874 	movhi	r2,1057
 4200830:	10984104 	addi	r2,r2,24836
 4200834:	e13fff17 	ldw	r4,-4(fp)
 4200838:	1105883a 	add	r2,r2,r4
 420083c:	10c00005 	stb	r3,0(r2)
        {
            unsigned int j;

            if (stream_len + 1 < DECODER_STREAM_MAX)
            {
                for (j = stream_len + 1; j > i + 1; j--)
 4200840:	e0bfff17 	ldw	r2,-4(fp)
 4200844:	10bfffc4 	addi	r2,r2,-1
 4200848:	e0bfff15 	stw	r2,-4(fp)
 420084c:	e0bffe17 	ldw	r2,-8(fp)
 4200850:	10c00044 	addi	r3,r2,1
 4200854:	e0bfff17 	ldw	r2,-4(fp)
 4200858:	18bfee36 	bltu	r3,r2,4200814 <__alt_data_end+0xfff00814>
                {
                    stream_buf[j] = stream_buf[j - 1];
                }

                stream_buf[i + 1] = 'N';
 420085c:	e0bffe17 	ldw	r2,-8(fp)
 4200860:	10c00044 	addi	r3,r2,1
 4200864:	00810874 	movhi	r2,1057
 4200868:	10984104 	addi	r2,r2,24836
 420086c:	10c5883a 	add	r2,r2,r3
 4200870:	00c01384 	movi	r3,78
 4200874:	10c00005 	stb	r3,0(r2)
                stream_len++;
 4200878:	d0a6d517 	ldw	r2,-25772(gp)
 420087c:	10800044 	addi	r2,r2,1
 4200880:	d0a6d515 	stw	r2,-25772(gp)
                stream_buf[stream_len] = '\0';
 4200884:	d0e6d517 	ldw	r3,-25772(gp)
 4200888:	00810874 	movhi	r2,1057
 420088c:	10984104 	addi	r2,r2,24836
 4200890:	10c5883a 	add	r2,r2,r3
 4200894:	10000005 	stb	zero,0(r2)

                i += 5;
 4200898:	e0bffe17 	ldw	r2,-8(fp)
 420089c:	10800144 	addi	r2,r2,5
 42008a0:	e0bffe15 	stw	r2,-8(fp)
                continue;
 42008a4:	00000306 	br	42008b4 <repair_common_ocr_errors+0x100>
            }
        }

        i++;
 42008a8:	e0bffe17 	ldw	r2,-8(fp)
 42008ac:	10800044 	addi	r2,r2,1
 42008b0:	e0bffe15 	stw	r2,-8(fp)
{
    unsigned int i;

    i = 0;

    while (i + 4 <= stream_len)
 42008b4:	e0bffe17 	ldw	r2,-8(fp)
 42008b8:	10800104 	addi	r2,r2,4
 42008bc:	d0e6d517 	ldw	r3,-25772(gp)
 42008c0:	18bfc22e 	bgeu	r3,r2,42007cc <__alt_data_end+0xfff007cc>
            }
        }

        i++;
    }
}
 42008c4:	0001883a 	nop
 42008c8:	e037883a 	mov	sp,fp
 42008cc:	dfc00117 	ldw	ra,4(sp)
 42008d0:	df000017 	ldw	fp,0(sp)
 42008d4:	dec00204 	addi	sp,sp,8
 42008d8:	f800283a 	ret

042008dc <append_normalized_chunk>:

static void append_normalized_chunk(const char *text, unsigned int len)
{
 42008dc:	defff804 	addi	sp,sp,-32
 42008e0:	dfc00715 	stw	ra,28(sp)
 42008e4:	df000615 	stw	fp,24(sp)
 42008e8:	df000604 	addi	fp,sp,24
 42008ec:	e13ffe15 	stw	r4,-8(fp)
 42008f0:	e17fff15 	stw	r5,-4(fp)
    unsigned int i;

    for (i = 0; i < len; i++)
 42008f4:	e03ffa15 	stw	zero,-24(fp)
 42008f8:	00004306 	br	4200a08 <append_normalized_chunk+0x12c>
    {
        unsigned char c;

        c = (unsigned char)text[i];
 42008fc:	e0fffe17 	ldw	r3,-8(fp)
 4200900:	e0bffa17 	ldw	r2,-24(fp)
 4200904:	1885883a 	add	r2,r3,r2
 4200908:	10800003 	ldbu	r2,0(r2)
 420090c:	e0bffb05 	stb	r2,-20(fp)

        if (c == '\0')
 4200910:	e0bffb03 	ldbu	r2,-20(fp)
 4200914:	10004026 	beq	r2,zero,4200a18 <append_normalized_chunk+0x13c>

        /*
           Keep only letters and numbers.
           Removes spaces/newlines from fixed-column output.
        */
        if (isalnum(c))
 4200918:	d0e00017 	ldw	r3,-32768(gp)
 420091c:	e0bffb03 	ldbu	r2,-20(fp)
 4200920:	10800044 	addi	r2,r2,1
 4200924:	1885883a 	add	r2,r3,r2
 4200928:	10800003 	ldbu	r2,0(r2)
 420092c:	10803fcc 	andi	r2,r2,255
 4200930:	108001cc 	andi	r2,r2,7
 4200934:	10003126 	beq	r2,zero,42009fc <append_normalized_chunk+0x120>
        {
            if (stream_len + 1 >= DECODER_STREAM_MAX)
 4200938:	d0a6d517 	ldw	r2,-25772(gp)
 420093c:	10800044 	addi	r2,r2,1
 4200940:	10808030 	cmpltui	r2,r2,512
 4200944:	10000d1e 	bne	r2,zero,420097c <append_normalized_chunk+0xa0>
            {
                int first_snake;

                first_snake = find_next_snake(0);
 4200948:	0009883a 	mov	r4,zero
 420094c:	42006b00 	call	42006b0 <find_next_snake>
 4200950:	e0bffc15 	stw	r2,-16(fp)

                if (first_snake > 0)
 4200954:	e0bffc17 	ldw	r2,-16(fp)
 4200958:	0080040e 	bge	zero,r2,420096c <append_normalized_chunk+0x90>
                {
                    remove_stream_prefix((unsigned int)first_snake);
 420095c:	e0bffc17 	ldw	r2,-16(fp)
 4200960:	1009883a 	mov	r4,r2
 4200964:	42006e80 	call	42006e8 <remove_stream_prefix>
 4200968:	00000406 	br	420097c <append_normalized_chunk+0xa0>
                }
                else
                {
                    stream_len = 0;
 420096c:	d026d515 	stw	zero,-25772(gp)
                    stream_buf[0] = '\0';
 4200970:	00810874 	movhi	r2,1057
 4200974:	10984104 	addi	r2,r2,24836
 4200978:	10000005 	stb	zero,0(r2)
                }
            }

            if (stream_len + 1 < DECODER_STREAM_MAX)
 420097c:	d0a6d517 	ldw	r2,-25772(gp)
 4200980:	10800044 	addi	r2,r2,1
 4200984:	10808028 	cmpgeui	r2,r2,512
 4200988:	10001c1e 	bne	r2,zero,42009fc <append_normalized_chunk+0x120>
            {
                stream_buf[stream_len++] = (char)toupper(c);
 420098c:	d0e6d517 	ldw	r3,-25772(gp)
 4200990:	18800044 	addi	r2,r3,1
 4200994:	d0a6d515 	stw	r2,-25772(gp)
 4200998:	e0bffb03 	ldbu	r2,-20(fp)
 420099c:	e0bffd05 	stb	r2,-12(fp)
 42009a0:	d1200017 	ldw	r4,-32768(gp)
 42009a4:	e0bffd03 	ldbu	r2,-12(fp)
 42009a8:	10800044 	addi	r2,r2,1
 42009ac:	2085883a 	add	r2,r4,r2
 42009b0:	10800003 	ldbu	r2,0(r2)
 42009b4:	10803fcc 	andi	r2,r2,255
 42009b8:	108000cc 	andi	r2,r2,3
 42009bc:	10800098 	cmpnei	r2,r2,2
 42009c0:	1000031e 	bne	r2,zero,42009d0 <append_normalized_chunk+0xf4>
 42009c4:	e0bffd03 	ldbu	r2,-12(fp)
 42009c8:	10bff804 	addi	r2,r2,-32
 42009cc:	00000106 	br	42009d4 <append_normalized_chunk+0xf8>
 42009d0:	e0bffd03 	ldbu	r2,-12(fp)
 42009d4:	1009883a 	mov	r4,r2
 42009d8:	00810874 	movhi	r2,1057
 42009dc:	10984104 	addi	r2,r2,24836
 42009e0:	10c5883a 	add	r2,r2,r3
 42009e4:	11000005 	stb	r4,0(r2)
                stream_buf[stream_len] = '\0';
 42009e8:	d0e6d517 	ldw	r3,-25772(gp)
 42009ec:	00810874 	movhi	r2,1057
 42009f0:	10984104 	addi	r2,r2,24836
 42009f4:	10c5883a 	add	r2,r2,r3
 42009f8:	10000005 	stb	zero,0(r2)

static void append_normalized_chunk(const char *text, unsigned int len)
{
    unsigned int i;

    for (i = 0; i < len; i++)
 42009fc:	e0bffa17 	ldw	r2,-24(fp)
 4200a00:	10800044 	addi	r2,r2,1
 4200a04:	e0bffa15 	stw	r2,-24(fp)
 4200a08:	e0fffa17 	ldw	r3,-24(fp)
 4200a0c:	e0bfff17 	ldw	r2,-4(fp)
 4200a10:	18bfba36 	bltu	r3,r2,42008fc <__alt_data_end+0xfff008fc>
 4200a14:	00000106 	br	4200a1c <append_normalized_chunk+0x140>

        c = (unsigned char)text[i];

        if (c == '\0')
        {
            break;
 4200a18:	0001883a 	nop
                stream_buf[stream_len] = '\0';
            }
        }
    }

    repair_common_ocr_errors();
 4200a1c:	42007b40 	call	42007b4 <repair_common_ocr_errors>
}
 4200a20:	0001883a 	nop
 4200a24:	e037883a 	mov	sp,fp
 4200a28:	dfc00117 	ldw	ra,4(sp)
 4200a2c:	df000017 	ldw	fp,0(sp)
 4200a30:	dec00204 	addi	sp,sp,8
 4200a34:	f800283a 	ret

04200a38 <drop_junk_before_command>:

static void drop_junk_before_command(void)
{
 4200a38:	defffb04 	addi	sp,sp,-20
 4200a3c:	dfc00415 	stw	ra,16(sp)
 4200a40:	df000315 	stw	fp,12(sp)
 4200a44:	df000304 	addi	fp,sp,12
    int first_snake;
    int first_sake;
    int first;

    first_snake = find_token_from(0, "SNAKE");
 4200a48:	01410874 	movhi	r5,1057
 4200a4c:	29479404 	addi	r5,r5,7760
 4200a50:	0009883a 	mov	r4,zero
 4200a54:	42006000 	call	4200600 <find_token_from>
 4200a58:	e0bffe15 	stw	r2,-8(fp)
    first_sake = find_token_from(0, "SAKE");
 4200a5c:	01410874 	movhi	r5,1057
 4200a60:	29479604 	addi	r5,r5,7768
 4200a64:	0009883a 	mov	r4,zero
 4200a68:	42006000 	call	4200600 <find_token_from>
 4200a6c:	e0bfff15 	stw	r2,-4(fp)

    if (first_snake < 0 && first_sake < 0)
 4200a70:	e0bffe17 	ldw	r2,-8(fp)
 4200a74:	10000a0e 	bge	r2,zero,4200aa0 <drop_junk_before_command+0x68>
 4200a78:	e0bfff17 	ldw	r2,-4(fp)
 4200a7c:	1000080e 	bge	r2,zero,4200aa0 <drop_junk_before_command+0x68>
    {
        /*
           Keep a small suffix in case next chunk completes SNAKE.
        */
        if (stream_len > 8)
 4200a80:	d0a6d517 	ldw	r2,-25772(gp)
 4200a84:	10800270 	cmpltui	r2,r2,9
 4200a88:	10001b1e 	bne	r2,zero,4200af8 <drop_junk_before_command+0xc0>
        {
            remove_stream_prefix(stream_len - 8);
 4200a8c:	d0a6d517 	ldw	r2,-25772(gp)
 4200a90:	10bffe04 	addi	r2,r2,-8
 4200a94:	1009883a 	mov	r4,r2
 4200a98:	42006e80 	call	42006e8 <remove_stream_prefix>
        }
        return;
 4200a9c:	00001606 	br	4200af8 <drop_junk_before_command+0xc0>
    }

    if (first_snake < 0)
 4200aa0:	e0bffe17 	ldw	r2,-8(fp)
 4200aa4:	1000030e 	bge	r2,zero,4200ab4 <drop_junk_before_command+0x7c>
    {
        first = first_sake;
 4200aa8:	e0bfff17 	ldw	r2,-4(fp)
 4200aac:	e0bffd15 	stw	r2,-12(fp)
 4200ab0:	00000a06 	br	4200adc <drop_junk_before_command+0xa4>
    }
    else if (first_sake < 0)
 4200ab4:	e0bfff17 	ldw	r2,-4(fp)
 4200ab8:	1000030e 	bge	r2,zero,4200ac8 <drop_junk_before_command+0x90>
    {
        first = first_snake;
 4200abc:	e0bffe17 	ldw	r2,-8(fp)
 4200ac0:	e0bffd15 	stw	r2,-12(fp)
 4200ac4:	00000506 	br	4200adc <drop_junk_before_command+0xa4>
    }
    else
    {
        first = (first_snake < first_sake) ? first_snake : first_sake;
 4200ac8:	e0fffe17 	ldw	r3,-8(fp)
 4200acc:	e0bfff17 	ldw	r2,-4(fp)
 4200ad0:	1880010e 	bge	r3,r2,4200ad8 <drop_junk_before_command+0xa0>
 4200ad4:	1805883a 	mov	r2,r3
 4200ad8:	e0bffd15 	stw	r2,-12(fp)
    }

    if (first > 0)
 4200adc:	e0bffd17 	ldw	r2,-12(fp)
 4200ae0:	0080030e 	bge	zero,r2,4200af0 <drop_junk_before_command+0xb8>
    {
        remove_stream_prefix((unsigned int)first);
 4200ae4:	e0bffd17 	ldw	r2,-12(fp)
 4200ae8:	1009883a 	mov	r4,r2
 4200aec:	42006e80 	call	42006e8 <remove_stream_prefix>
    }

    repair_common_ocr_errors();
 4200af0:	42007b40 	call	42007b4 <repair_common_ocr_errors>
 4200af4:	00000106 	br	4200afc <drop_junk_before_command+0xc4>
        */
        if (stream_len > 8)
        {
            remove_stream_prefix(stream_len - 8);
        }
        return;
 4200af8:	0001883a 	nop
    {
        remove_stream_prefix((unsigned int)first);
    }

    repair_common_ocr_errors();
}
 4200afc:	e037883a 	mov	sp,fp
 4200b00:	dfc00117 	ldw	ra,4(sp)
 4200b04:	df000017 	ldw	fp,0(sp)
 4200b08:	dec00204 	addi	sp,sp,8
 4200b0c:	f800283a 	ret

04200b10 <send_apple_from_segment>:
/* ============================================================
   COMMAND SEND HELPERS
   ============================================================ */

static int send_apple_from_segment(unsigned int data_start, unsigned int data_end)
{
 4200b10:	defff504 	addi	sp,sp,-44
 4200b14:	dfc00a15 	stw	ra,40(sp)
 4200b18:	df000915 	stw	fp,36(sp)
 4200b1c:	df000904 	addi	fp,sp,36
 4200b20:	e13ffe15 	stw	r4,-8(fp)
 4200b24:	e17fff15 	stw	r5,-4(fp)
    unsigned char payload[2];
    unsigned int count;
    unsigned int payload_len;
    int result;

    result = parse_xy_pairs_range(
 4200b28:	e0fffb04 	addi	r3,fp,-20
 4200b2c:	e0bffd04 	addi	r2,fp,-12
 4200b30:	d8800215 	stw	r2,8(sp)
 4200b34:	e0bffc04 	addi	r2,fp,-16
 4200b38:	d8800115 	stw	r2,4(sp)
 4200b3c:	00800084 	movi	r2,2
 4200b40:	d8800015 	stw	r2,0(sp)
 4200b44:	180f883a 	mov	r7,r3
 4200b48:	e1bfff17 	ldw	r6,-4(fp)
 4200b4c:	e17ffe17 	ldw	r5,-8(fp)
 4200b50:	01010874 	movhi	r4,1057
 4200b54:	21184104 	addi	r4,r4,24836
 4200b58:	42003740 	call	4200374 <parse_xy_pairs_range>
 4200b5c:	e0bffa15 	stw	r2,-24(fp)
        sizeof(payload),
        &count,
        &payload_len
    );

    if (result < 0)
 4200b60:	e0bffa17 	ldw	r2,-24(fp)
 4200b64:	1000020e 	bge	r2,zero,4200b70 <send_apple_from_segment+0x60>
    {
        return result;
 4200b68:	e0bffa17 	ldw	r2,-24(fp)
 4200b6c:	00000d06 	br	4200ba4 <send_apple_from_segment+0x94>
    }

    if (count < 1 || payload_len < 2)
 4200b70:	e0bffc17 	ldw	r2,-16(fp)
 4200b74:	10000326 	beq	r2,zero,4200b84 <send_apple_from_segment+0x74>
 4200b78:	e0bffd17 	ldw	r2,-12(fp)
 4200b7c:	108000a8 	cmpgeui	r2,r2,2
 4200b80:	1000021e 	bne	r2,zero,4200b8c <send_apple_from_segment+0x7c>
    {
        return DECODER_NO_COMMAND;
 4200b84:	0005883a 	mov	r2,zero
 4200b88:	00000606 	br	4200ba4 <send_apple_from_segment+0x94>

    /*
       Snake mailbox expects one apple.
       If multiple apples appear, use the first one.
    */
    return snake_send_mailbox_command(
 4200b8c:	e0bffb04 	addi	r2,fp,-20
 4200b90:	100f883a 	mov	r7,r2
 4200b94:	01800084 	movi	r6,2
 4200b98:	01400044 	movi	r5,1
 4200b9c:	01000044 	movi	r4,1
 4200ba0:	42001300 	call	4200130 <snake_send_mailbox_command>
        SNAKE_CMD_SET_APPLE,
        1,
        2,
        payload
    );
}
 4200ba4:	e037883a 	mov	sp,fp
 4200ba8:	dfc00117 	ldw	ra,4(sp)
 4200bac:	df000017 	ldw	fp,0(sp)
 4200bb0:	dec00204 	addi	sp,sp,8
 4200bb4:	f800283a 	ret

04200bb8 <send_walls_from_segment>:

static int send_walls_from_segment(unsigned int data_start, unsigned int data_end)
{
 4200bb8:	deffb604 	addi	sp,sp,-296
 4200bbc:	dfc04915 	stw	ra,292(sp)
 4200bc0:	df004815 	stw	fp,288(sp)
 4200bc4:	df004804 	addi	fp,sp,288
 4200bc8:	e13ffe15 	stw	r4,-8(fp)
 4200bcc:	e17fff15 	stw	r5,-4(fp)
    unsigned char payload[SNAKE_MB_PAYLOAD_MAX];
    unsigned int count;
    unsigned int payload_len;
    int result;

    result = parse_xy_pairs_range(
 4200bd0:	e0ffbc04 	addi	r3,fp,-272
 4200bd4:	e0bffd04 	addi	r2,fp,-12
 4200bd8:	d8800215 	stw	r2,8(sp)
 4200bdc:	e0bffc04 	addi	r2,fp,-16
 4200be0:	d8800115 	stw	r2,4(sp)
 4200be4:	00804004 	movi	r2,256
 4200be8:	d8800015 	stw	r2,0(sp)
 4200bec:	180f883a 	mov	r7,r3
 4200bf0:	e1bfff17 	ldw	r6,-4(fp)
 4200bf4:	e17ffe17 	ldw	r5,-8(fp)
 4200bf8:	01010874 	movhi	r4,1057
 4200bfc:	21184104 	addi	r4,r4,24836
 4200c00:	42003740 	call	4200374 <parse_xy_pairs_range>
 4200c04:	e0bfbb15 	stw	r2,-276(fp)
        sizeof(payload),
        &count,
        &payload_len
    );

    if (result < 0)
 4200c08:	e0bfbb17 	ldw	r2,-276(fp)
 4200c0c:	1000020e 	bge	r2,zero,4200c18 <send_walls_from_segment+0x60>
    {
        return result;
 4200c10:	e0bfbb17 	ldw	r2,-276(fp)
 4200c14:	00000e06 	br	4200c50 <send_walls_from_segment+0x98>
    }

    if (count == 0 || payload_len == 0)
 4200c18:	e0bffc17 	ldw	r2,-16(fp)
 4200c1c:	10000226 	beq	r2,zero,4200c28 <send_walls_from_segment+0x70>
 4200c20:	e0bffd17 	ldw	r2,-12(fp)
 4200c24:	1000021e 	bne	r2,zero,4200c30 <send_walls_from_segment+0x78>
    {
        return DECODER_NO_COMMAND;
 4200c28:	0005883a 	mov	r2,zero
 4200c2c:	00000806 	br	4200c50 <send_walls_from_segment+0x98>
           Y16X8Y16
           X10Y16X1
           2Y16X14Y
           16X16Y16
    */
    return snake_send_mailbox_command(
 4200c30:	e0bffc17 	ldw	r2,-16(fp)
 4200c34:	e0fffd17 	ldw	r3,-12(fp)
 4200c38:	e13fbc04 	addi	r4,fp,-272
 4200c3c:	200f883a 	mov	r7,r4
 4200c40:	180d883a 	mov	r6,r3
 4200c44:	100b883a 	mov	r5,r2
 4200c48:	01000084 	movi	r4,2
 4200c4c:	42001300 	call	4200130 <snake_send_mailbox_command>
        SNAKE_CMD_SET_WALLS,
        count,
        payload_len,
        payload
    );
}
 4200c50:	e037883a 	mov	sp,fp
 4200c54:	dfc00117 	ldw	ra,4(sp)
 4200c58:	df000017 	ldw	fp,0(sp)
 4200c5c:	dec00204 	addi	sp,sp,8
 4200c60:	f800283a 	ret

04200c64 <send_add_walls_from_segment>:

static int send_add_walls_from_segment(unsigned int data_start, unsigned int data_end)
{
 4200c64:	deffb604 	addi	sp,sp,-296
 4200c68:	dfc04915 	stw	ra,292(sp)
 4200c6c:	df004815 	stw	fp,288(sp)
 4200c70:	df004804 	addi	fp,sp,288
 4200c74:	e13ffe15 	stw	r4,-8(fp)
 4200c78:	e17fff15 	stw	r5,-4(fp)
    unsigned char payload[SNAKE_MB_PAYLOAD_MAX];
    unsigned int count;
    unsigned int payload_len;
    int result;

    result = parse_xy_pairs_range(
 4200c7c:	e0ffbc04 	addi	r3,fp,-272
 4200c80:	e0bffd04 	addi	r2,fp,-12
 4200c84:	d8800215 	stw	r2,8(sp)
 4200c88:	e0bffc04 	addi	r2,fp,-16
 4200c8c:	d8800115 	stw	r2,4(sp)
 4200c90:	00804004 	movi	r2,256
 4200c94:	d8800015 	stw	r2,0(sp)
 4200c98:	180f883a 	mov	r7,r3
 4200c9c:	e1bfff17 	ldw	r6,-4(fp)
 4200ca0:	e17ffe17 	ldw	r5,-8(fp)
 4200ca4:	01010874 	movhi	r4,1057
 4200ca8:	21184104 	addi	r4,r4,24836
 4200cac:	42003740 	call	4200374 <parse_xy_pairs_range>
 4200cb0:	e0bfbb15 	stw	r2,-276(fp)
        sizeof(payload),
        &count,
        &payload_len
    );

    if (result < 0)
 4200cb4:	e0bfbb17 	ldw	r2,-276(fp)
 4200cb8:	1000020e 	bge	r2,zero,4200cc4 <send_add_walls_from_segment+0x60>
    {
        return result;
 4200cbc:	e0bfbb17 	ldw	r2,-276(fp)
 4200cc0:	00000e06 	br	4200cfc <send_add_walls_from_segment+0x98>
    }

    if (count == 0 || payload_len == 0)
 4200cc4:	e0bffc17 	ldw	r2,-16(fp)
 4200cc8:	10000226 	beq	r2,zero,4200cd4 <send_add_walls_from_segment+0x70>
 4200ccc:	e0bffd17 	ldw	r2,-12(fp)
 4200cd0:	1000021e 	bne	r2,zero,4200cdc <send_add_walls_from_segment+0x78>
    {
        return DECODER_NO_COMMAND;
 4200cd4:	0005883a 	mov	r2,zero
 4200cd8:	00000806 	br	4200cfc <send_add_walls_from_segment+0x98>
    }

    return snake_send_mailbox_command(
 4200cdc:	e0bffc17 	ldw	r2,-16(fp)
 4200ce0:	e0fffd17 	ldw	r3,-12(fp)
 4200ce4:	e13fbc04 	addi	r4,fp,-272
 4200ce8:	200f883a 	mov	r7,r4
 4200cec:	180d883a 	mov	r6,r3
 4200cf0:	100b883a 	mov	r5,r2
 4200cf4:	010000c4 	movi	r4,3
 4200cf8:	42001300 	call	4200130 <snake_send_mailbox_command>
        SNAKE_CMD_ADD_WALLS,
        count,
        payload_len,
        payload
    );
}
 4200cfc:	e037883a 	mov	sp,fp
 4200d00:	dfc00117 	ldw	ra,4(sp)
 4200d04:	df000017 	ldw	fp,0(sp)
 4200d08:	dec00204 	addi	sp,sp,8
 4200d0c:	f800283a 	ret

04200d10 <send_portal_a_from_segment>:

static int send_portal_a_from_segment(unsigned int data_start, unsigned int data_end)
{
 4200d10:	defff404 	addi	sp,sp,-48
 4200d14:	dfc00b15 	stw	ra,44(sp)
 4200d18:	df000a15 	stw	fp,40(sp)
 4200d1c:	df000a04 	addi	fp,sp,40
 4200d20:	e13ffe15 	stw	r4,-8(fp)
 4200d24:	e17fff15 	stw	r5,-4(fp)
    unsigned char payload[2];
    unsigned int count;
    unsigned int payload_len;
    int result;

    result = parse_xy_pairs_range(
 4200d28:	e0fffa04 	addi	r3,fp,-24
 4200d2c:	e0bffc04 	addi	r2,fp,-16
 4200d30:	d8800215 	stw	r2,8(sp)
 4200d34:	e0bffb04 	addi	r2,fp,-20
 4200d38:	d8800115 	stw	r2,4(sp)
 4200d3c:	00800084 	movi	r2,2
 4200d40:	d8800015 	stw	r2,0(sp)
 4200d44:	180f883a 	mov	r7,r3
 4200d48:	e1bfff17 	ldw	r6,-4(fp)
 4200d4c:	e17ffe17 	ldw	r5,-8(fp)
 4200d50:	01010874 	movhi	r4,1057
 4200d54:	21184104 	addi	r4,r4,24836
 4200d58:	42003740 	call	4200374 <parse_xy_pairs_range>
 4200d5c:	e0bff915 	stw	r2,-28(fp)
        sizeof(payload),
        &count,
        &payload_len
    );

    if (result < 0)
 4200d60:	e0bff917 	ldw	r2,-28(fp)
 4200d64:	1000020e 	bge	r2,zero,4200d70 <send_portal_a_from_segment+0x60>
    {
        return result;
 4200d68:	e0bff917 	ldw	r2,-28(fp)
 4200d6c:	00001f06 	br	4200dec <send_portal_a_from_segment+0xdc>
    }

    if (count < 1 || payload_len < 2)
 4200d70:	e0bffb17 	ldw	r2,-20(fp)
 4200d74:	10000326 	beq	r2,zero,4200d84 <send_portal_a_from_segment+0x74>
 4200d78:	e0bffc17 	ldw	r2,-16(fp)
 4200d7c:	108000a8 	cmpgeui	r2,r2,2
 4200d80:	1000021e 	bne	r2,zero,4200d8c <send_portal_a_from_segment+0x7c>
    {
        return DECODER_NO_COMMAND;
 4200d84:	0005883a 	mov	r2,zero
 4200d88:	00001806 	br	4200dec <send_portal_a_from_segment+0xdc>
    }

    portal_ax = payload[0];
 4200d8c:	e0bffa03 	ldbu	r2,-24(fp)
 4200d90:	d0a6d805 	stb	r2,-25760(gp)
    portal_ay = payload[1];
 4200d94:	e0bffa43 	ldbu	r2,-23(fp)
 4200d98:	d0a6d845 	stb	r2,-25759(gp)
    portal_a_valid = 1;
 4200d9c:	00800044 	movi	r2,1
 4200da0:	d0a6d615 	stw	r2,-25768(gp)

    if (portal_b_valid)
 4200da4:	d0a6d717 	ldw	r2,-25764(gp)
 4200da8:	10000f26 	beq	r2,zero,4200de8 <send_portal_a_from_segment+0xd8>
    {
        unsigned char portal_payload[4];

        portal_payload[0] = portal_ax;
 4200dac:	d0a6d803 	ldbu	r2,-25760(gp)
 4200db0:	e0bffd05 	stb	r2,-12(fp)
        portal_payload[1] = portal_ay;
 4200db4:	d0a6d843 	ldbu	r2,-25759(gp)
 4200db8:	e0bffd45 	stb	r2,-11(fp)
        portal_payload[2] = portal_bx;
 4200dbc:	d0a6d883 	ldbu	r2,-25758(gp)
 4200dc0:	e0bffd85 	stb	r2,-10(fp)
        portal_payload[3] = portal_by;
 4200dc4:	d0a6d8c3 	ldbu	r2,-25757(gp)
 4200dc8:	e0bffdc5 	stb	r2,-9(fp)

        return snake_send_mailbox_command(
 4200dcc:	e0bffd04 	addi	r2,fp,-12
 4200dd0:	100f883a 	mov	r7,r2
 4200dd4:	01800104 	movi	r6,4
 4200dd8:	01400084 	movi	r5,2
 4200ddc:	01000104 	movi	r4,4
 4200de0:	42001300 	call	4200130 <snake_send_mailbox_command>
 4200de4:	00000106 	br	4200dec <send_portal_a_from_segment+0xdc>
            4,
            portal_payload
        );
    }

    return DECODER_OK_WAITING_PORTAL;
 4200de8:	00800084 	movi	r2,2
}
 4200dec:	e037883a 	mov	sp,fp
 4200df0:	dfc00117 	ldw	ra,4(sp)
 4200df4:	df000017 	ldw	fp,0(sp)
 4200df8:	dec00204 	addi	sp,sp,8
 4200dfc:	f800283a 	ret

04200e00 <send_portal_b_from_segment>:

static int send_portal_b_from_segment(unsigned int data_start, unsigned int data_end)
{
 4200e00:	defff404 	addi	sp,sp,-48
 4200e04:	dfc00b15 	stw	ra,44(sp)
 4200e08:	df000a15 	stw	fp,40(sp)
 4200e0c:	df000a04 	addi	fp,sp,40
 4200e10:	e13ffe15 	stw	r4,-8(fp)
 4200e14:	e17fff15 	stw	r5,-4(fp)
    unsigned char payload[2];
    unsigned int count;
    unsigned int payload_len;
    int result;

    result = parse_xy_pairs_range(
 4200e18:	e0fffa04 	addi	r3,fp,-24
 4200e1c:	e0bffc04 	addi	r2,fp,-16
 4200e20:	d8800215 	stw	r2,8(sp)
 4200e24:	e0bffb04 	addi	r2,fp,-20
 4200e28:	d8800115 	stw	r2,4(sp)
 4200e2c:	00800084 	movi	r2,2
 4200e30:	d8800015 	stw	r2,0(sp)
 4200e34:	180f883a 	mov	r7,r3
 4200e38:	e1bfff17 	ldw	r6,-4(fp)
 4200e3c:	e17ffe17 	ldw	r5,-8(fp)
 4200e40:	01010874 	movhi	r4,1057
 4200e44:	21184104 	addi	r4,r4,24836
 4200e48:	42003740 	call	4200374 <parse_xy_pairs_range>
 4200e4c:	e0bff915 	stw	r2,-28(fp)
        sizeof(payload),
        &count,
        &payload_len
    );

    if (result < 0)
 4200e50:	e0bff917 	ldw	r2,-28(fp)
 4200e54:	1000020e 	bge	r2,zero,4200e60 <send_portal_b_from_segment+0x60>
    {
        return result;
 4200e58:	e0bff917 	ldw	r2,-28(fp)
 4200e5c:	00001f06 	br	4200edc <send_portal_b_from_segment+0xdc>
    }

    if (count < 1 || payload_len < 2)
 4200e60:	e0bffb17 	ldw	r2,-20(fp)
 4200e64:	10000326 	beq	r2,zero,4200e74 <send_portal_b_from_segment+0x74>
 4200e68:	e0bffc17 	ldw	r2,-16(fp)
 4200e6c:	108000a8 	cmpgeui	r2,r2,2
 4200e70:	1000021e 	bne	r2,zero,4200e7c <send_portal_b_from_segment+0x7c>
    {
        return DECODER_NO_COMMAND;
 4200e74:	0005883a 	mov	r2,zero
 4200e78:	00001806 	br	4200edc <send_portal_b_from_segment+0xdc>
    }

    portal_bx = payload[0];
 4200e7c:	e0bffa03 	ldbu	r2,-24(fp)
 4200e80:	d0a6d885 	stb	r2,-25758(gp)
    portal_by = payload[1];
 4200e84:	e0bffa43 	ldbu	r2,-23(fp)
 4200e88:	d0a6d8c5 	stb	r2,-25757(gp)
    portal_b_valid = 1;
 4200e8c:	00800044 	movi	r2,1
 4200e90:	d0a6d715 	stw	r2,-25764(gp)

    if (portal_a_valid)
 4200e94:	d0a6d617 	ldw	r2,-25768(gp)
 4200e98:	10000f26 	beq	r2,zero,4200ed8 <send_portal_b_from_segment+0xd8>
    {
        unsigned char portal_payload[4];

        portal_payload[0] = portal_ax;
 4200e9c:	d0a6d803 	ldbu	r2,-25760(gp)
 4200ea0:	e0bffd05 	stb	r2,-12(fp)
        portal_payload[1] = portal_ay;
 4200ea4:	d0a6d843 	ldbu	r2,-25759(gp)
 4200ea8:	e0bffd45 	stb	r2,-11(fp)
        portal_payload[2] = portal_bx;
 4200eac:	d0a6d883 	ldbu	r2,-25758(gp)
 4200eb0:	e0bffd85 	stb	r2,-10(fp)
        portal_payload[3] = portal_by;
 4200eb4:	d0a6d8c3 	ldbu	r2,-25757(gp)
 4200eb8:	e0bffdc5 	stb	r2,-9(fp)

        return snake_send_mailbox_command(
 4200ebc:	e0bffd04 	addi	r2,fp,-12
 4200ec0:	100f883a 	mov	r7,r2
 4200ec4:	01800104 	movi	r6,4
 4200ec8:	01400084 	movi	r5,2
 4200ecc:	01000104 	movi	r4,4
 4200ed0:	42001300 	call	4200130 <snake_send_mailbox_command>
 4200ed4:	00000106 	br	4200edc <send_portal_b_from_segment+0xdc>
            4,
            portal_payload
        );
    }

    return DECODER_OK_WAITING_PORTAL;
 4200ed8:	00800084 	movi	r2,2
}
 4200edc:	e037883a 	mov	sp,fp
 4200ee0:	dfc00117 	ldw	ra,4(sp)
 4200ee4:	df000017 	ldw	fp,0(sp)
 4200ee8:	dec00204 	addi	sp,sp,8
 4200eec:	f800283a 	ret

04200ef0 <send_clear_arena>:

static int send_clear_arena(void)
{
 4200ef0:	defffe04 	addi	sp,sp,-8
 4200ef4:	dfc00115 	stw	ra,4(sp)
 4200ef8:	df000015 	stw	fp,0(sp)
 4200efc:	d839883a 	mov	fp,sp
    return snake_send_mailbox_command(
 4200f00:	000f883a 	mov	r7,zero
 4200f04:	000d883a 	mov	r6,zero
 4200f08:	000b883a 	mov	r5,zero
 4200f0c:	01000144 	movi	r4,5
 4200f10:	42001300 	call	4200130 <snake_send_mailbox_command>
        SNAKE_CMD_CLEAR_ARENA,
        0,
        0,
        0
    );
}
 4200f14:	e037883a 	mov	sp,fp
 4200f18:	dfc00117 	ldw	ra,4(sp)
 4200f1c:	df000017 	ldw	fp,0(sp)
 4200f20:	dec00204 	addi	sp,sp,8
 4200f24:	f800283a 	ret

04200f28 <send_clear_walls>:

static int send_clear_walls(void)
{
 4200f28:	defffe04 	addi	sp,sp,-8
 4200f2c:	dfc00115 	stw	ra,4(sp)
 4200f30:	df000015 	stw	fp,0(sp)
 4200f34:	d839883a 	mov	fp,sp
    return snake_send_mailbox_command(
 4200f38:	000f883a 	mov	r7,zero
 4200f3c:	000d883a 	mov	r6,zero
 4200f40:	000b883a 	mov	r5,zero
 4200f44:	01000184 	movi	r4,6
 4200f48:	42001300 	call	4200130 <snake_send_mailbox_command>
        SNAKE_CMD_CLEAR_WALLS,
        0,
        0,
        0
    );
}
 4200f4c:	e037883a 	mov	sp,fp
 4200f50:	dfc00117 	ldw	ra,4(sp)
 4200f54:	df000017 	ldw	fp,0(sp)
 4200f58:	dec00204 	addi	sp,sp,8
 4200f5c:	f800283a 	ret

04200f60 <process_stream>:
/* ============================================================
   STREAM PROCESSOR
   ============================================================ */

static int process_stream(void)
{
 4200f60:	defff804 	addi	sp,sp,-32
 4200f64:	dfc00715 	stw	ra,28(sp)
 4200f68:	df000615 	stw	fp,24(sp)
 4200f6c:	df000604 	addi	fp,sp,24
    int any_sent;
    int last_result;

    any_sent = 0;
 4200f70:	e03ffa15 	stw	zero,-24(fp)
    last_result = DECODER_NO_COMMAND;
 4200f74:	e03ffb15 	stw	zero,-20(fp)

    while (stream_len > 0)
 4200f78:	0000af06 	br	4201238 <process_stream+0x2d8>
        int next_snake;
        unsigned int cmd_end;
        unsigned int remove_after_send;
        int result;

        drop_junk_before_command();
 4200f7c:	4200a380 	call	4200a38 <drop_junk_before_command>

        if (stream_len < 5)
 4200f80:	d0a6d517 	ldw	r2,-25772(gp)
 4200f84:	10800168 	cmpgeui	r2,r2,5
 4200f88:	1000ae26 	beq	r2,zero,4201244 <process_stream+0x2e4>
        {
            break;
        }

        if (strncmp(stream_buf, "SNAKE", 5) != 0)
 4200f8c:	01800144 	movi	r6,5
 4200f90:	01410874 	movhi	r5,1057
 4200f94:	29479404 	addi	r5,r5,7760
 4200f98:	01010874 	movhi	r4,1057
 4200f9c:	21184104 	addi	r4,r4,24836
 4200fa0:	42042c80 	call	42042c8 <strncmp>
 4200fa4:	1000a91e 	bne	r2,zero,420124c <process_stream+0x2ec>
        {
            break;
        }

        next_snake = find_next_snake(5);
 4200fa8:	01000144 	movi	r4,5
 4200fac:	42006b00 	call	42006b0 <find_next_snake>
 4200fb0:	e0bfff15 	stw	r2,-4(fp)

        if (next_snake > 0)
 4200fb4:	e0bfff17 	ldw	r2,-4(fp)
 4200fb8:	0080030e 	bge	zero,r2,4200fc8 <process_stream+0x68>
        {
            cmd_end = (unsigned int)next_snake;
 4200fbc:	e0bfff17 	ldw	r2,-4(fp)
 4200fc0:	e0bffc15 	stw	r2,-16(fp)
 4200fc4:	00000206 	br	4200fd0 <process_stream+0x70>
        }
        else
        {
            cmd_end = stream_len;
 4200fc8:	d0a6d517 	ldw	r2,-25772(gp)
 4200fcc:	e0bffc15 	stw	r2,-16(fp)
        }

        result = DECODER_NO_COMMAND;
 4200fd0:	e03ffe15 	stw	zero,-8(fp)
        remove_after_send = 0;
 4200fd4:	e03ffd15 	stw	zero,-12(fp)

        if (starts_with_at(stream_buf, 0, "SNAKEAPPLE"))
 4200fd8:	01810874 	movhi	r6,1057
 4200fdc:	31879804 	addi	r6,r6,7776
 4200fe0:	000b883a 	mov	r5,zero
 4200fe4:	01010874 	movhi	r4,1057
 4200fe8:	21184104 	addi	r4,r4,24836
 4200fec:	42005840 	call	4200584 <starts_with_at>
 4200ff0:	10000a26 	beq	r2,zero,420101c <process_stream+0xbc>
        {
            result = send_apple_from_segment(
 4200ff4:	e17ffc17 	ldw	r5,-16(fp)
 4200ff8:	01000284 	movi	r4,10
 4200ffc:	4200b100 	call	4200b10 <send_apple_from_segment>
 4201000:	e0bffe15 	stw	r2,-8(fp)
                (unsigned int)strlen("SNAKEAPPLE"),
                cmd_end
            );

            if (result == DECODER_OK_SENT)
 4201004:	e0bffe17 	ldw	r2,-8(fp)
 4201008:	10800058 	cmpnei	r2,r2,1
 420100c:	1000771e 	bne	r2,zero,42011ec <process_stream+0x28c>
            {
                remove_after_send = cmd_end;
 4201010:	e0bffc17 	ldw	r2,-16(fp)
 4201014:	e0bffd15 	stw	r2,-12(fp)
 4201018:	00007406 	br	42011ec <process_stream+0x28c>
            }
        }
        else if (starts_with_at(stream_buf, 0, "SNAKEADDWALL"))
 420101c:	01810874 	movhi	r6,1057
 4201020:	31879b04 	addi	r6,r6,7788
 4201024:	000b883a 	mov	r5,zero
 4201028:	01010874 	movhi	r4,1057
 420102c:	21184104 	addi	r4,r4,24836
 4201030:	42005840 	call	4200584 <starts_with_at>
 4201034:	10000b26 	beq	r2,zero,4201064 <process_stream+0x104>
        {
            result = send_add_walls_from_segment(
 4201038:	e17ffc17 	ldw	r5,-16(fp)
 420103c:	01000304 	movi	r4,12
 4201040:	4200c640 	call	4200c64 <send_add_walls_from_segment>
 4201044:	e0bffe15 	stw	r2,-8(fp)
                (unsigned int)strlen("SNAKEADDWALL"),
                cmd_end
            );

            if (next_snake > 0 && result >= 0)
 4201048:	e0bfff17 	ldw	r2,-4(fp)
 420104c:	0080670e 	bge	zero,r2,42011ec <process_stream+0x28c>
 4201050:	e0bffe17 	ldw	r2,-8(fp)
 4201054:	10006516 	blt	r2,zero,42011ec <process_stream+0x28c>
            {
                remove_after_send = cmd_end;
 4201058:	e0bffc17 	ldw	r2,-16(fp)
 420105c:	e0bffd15 	stw	r2,-12(fp)
 4201060:	00006206 	br	42011ec <process_stream+0x28c>
            }
        }
        else if (starts_with_at(stream_buf, 0, "SNAKEWALL"))
 4201064:	01810874 	movhi	r6,1057
 4201068:	31879f04 	addi	r6,r6,7804
 420106c:	000b883a 	mov	r5,zero
 4201070:	01010874 	movhi	r4,1057
 4201074:	21184104 	addi	r4,r4,24836
 4201078:	42005840 	call	4200584 <starts_with_at>
 420107c:	10000b26 	beq	r2,zero,42010ac <process_stream+0x14c>
        {
            result = send_walls_from_segment(
 4201080:	e17ffc17 	ldw	r5,-16(fp)
 4201084:	01000244 	movi	r4,9
 4201088:	4200bb80 	call	4200bb8 <send_walls_from_segment>
 420108c:	e0bffe15 	stw	r2,-8(fp)

            /*
               If another SNAKE command has started, remove this command.
               If no next SNAKE yet, keep it so later chunks can extend it.
            */
            if (next_snake > 0 && result >= 0)
 4201090:	e0bfff17 	ldw	r2,-4(fp)
 4201094:	0080550e 	bge	zero,r2,42011ec <process_stream+0x28c>
 4201098:	e0bffe17 	ldw	r2,-8(fp)
 420109c:	10005316 	blt	r2,zero,42011ec <process_stream+0x28c>
            {
                remove_after_send = cmd_end;
 42010a0:	e0bffc17 	ldw	r2,-16(fp)
 42010a4:	e0bffd15 	stw	r2,-12(fp)
 42010a8:	00005006 	br	42011ec <process_stream+0x28c>
            }
        }
        else if (starts_with_at(stream_buf, 0, "SNAKEPORTALA"))
 42010ac:	01810874 	movhi	r6,1057
 42010b0:	3187a204 	addi	r6,r6,7816
 42010b4:	000b883a 	mov	r5,zero
 42010b8:	01010874 	movhi	r4,1057
 42010bc:	21184104 	addi	r4,r4,24836
 42010c0:	42005840 	call	4200584 <starts_with_at>
 42010c4:	10000d26 	beq	r2,zero,42010fc <process_stream+0x19c>
        {
            result = send_portal_a_from_segment(
 42010c8:	e17ffc17 	ldw	r5,-16(fp)
 42010cc:	01000304 	movi	r4,12
 42010d0:	4200d100 	call	4200d10 <send_portal_a_from_segment>
 42010d4:	e0bffe15 	stw	r2,-8(fp)
                (unsigned int)strlen("SNAKEPORTALA"),
                cmd_end
            );

            if (result == DECODER_OK_SENT || result == DECODER_OK_WAITING_PORTAL)
 42010d8:	e0bffe17 	ldw	r2,-8(fp)
 42010dc:	10800060 	cmpeqi	r2,r2,1
 42010e0:	1000031e 	bne	r2,zero,42010f0 <process_stream+0x190>
 42010e4:	e0bffe17 	ldw	r2,-8(fp)
 42010e8:	10800098 	cmpnei	r2,r2,2
 42010ec:	10003f1e 	bne	r2,zero,42011ec <process_stream+0x28c>
            {
                remove_after_send = cmd_end;
 42010f0:	e0bffc17 	ldw	r2,-16(fp)
 42010f4:	e0bffd15 	stw	r2,-12(fp)
 42010f8:	00003c06 	br	42011ec <process_stream+0x28c>
            }
        }
        else if (starts_with_at(stream_buf, 0, "SNAKEPORTALB"))
 42010fc:	01810874 	movhi	r6,1057
 4201100:	3187a604 	addi	r6,r6,7832
 4201104:	000b883a 	mov	r5,zero
 4201108:	01010874 	movhi	r4,1057
 420110c:	21184104 	addi	r4,r4,24836
 4201110:	42005840 	call	4200584 <starts_with_at>
 4201114:	10000d26 	beq	r2,zero,420114c <process_stream+0x1ec>
        {
            result = send_portal_b_from_segment(
 4201118:	e17ffc17 	ldw	r5,-16(fp)
 420111c:	01000304 	movi	r4,12
 4201120:	4200e000 	call	4200e00 <send_portal_b_from_segment>
 4201124:	e0bffe15 	stw	r2,-8(fp)
                (unsigned int)strlen("SNAKEPORTALB"),
                cmd_end
            );

            if (result == DECODER_OK_SENT || result == DECODER_OK_WAITING_PORTAL)
 4201128:	e0bffe17 	ldw	r2,-8(fp)
 420112c:	10800060 	cmpeqi	r2,r2,1
 4201130:	1000031e 	bne	r2,zero,4201140 <process_stream+0x1e0>
 4201134:	e0bffe17 	ldw	r2,-8(fp)
 4201138:	10800098 	cmpnei	r2,r2,2
 420113c:	10002b1e 	bne	r2,zero,42011ec <process_stream+0x28c>
            {
                remove_after_send = cmd_end;
 4201140:	e0bffc17 	ldw	r2,-16(fp)
 4201144:	e0bffd15 	stw	r2,-12(fp)
 4201148:	00002806 	br	42011ec <process_stream+0x28c>
            }
        }
        else if (starts_with_at(stream_buf, 0, "SNAKECLEARARENA"))
 420114c:	01810874 	movhi	r6,1057
 4201150:	3187aa04 	addi	r6,r6,7848
 4201154:	000b883a 	mov	r5,zero
 4201158:	01010874 	movhi	r4,1057
 420115c:	21184104 	addi	r4,r4,24836
 4201160:	42005840 	call	4200584 <starts_with_at>
 4201164:	10000826 	beq	r2,zero,4201188 <process_stream+0x228>
        {
            result = send_clear_arena();
 4201168:	4200ef00 	call	4200ef0 <send_clear_arena>
 420116c:	e0bffe15 	stw	r2,-8(fp)

            if (result == DECODER_OK_SENT)
 4201170:	e0bffe17 	ldw	r2,-8(fp)
 4201174:	10800058 	cmpnei	r2,r2,1
 4201178:	10001c1e 	bne	r2,zero,42011ec <process_stream+0x28c>
            {
                remove_after_send = (unsigned int)strlen("SNAKECLEARARENA");
 420117c:	008003c4 	movi	r2,15
 4201180:	e0bffd15 	stw	r2,-12(fp)
 4201184:	00001906 	br	42011ec <process_stream+0x28c>
            }
        }
        else if (starts_with_at(stream_buf, 0, "SNAKECLEARWALLS"))
 4201188:	01810874 	movhi	r6,1057
 420118c:	3187ae04 	addi	r6,r6,7864
 4201190:	000b883a 	mov	r5,zero
 4201194:	01010874 	movhi	r4,1057
 4201198:	21184104 	addi	r4,r4,24836
 420119c:	42005840 	call	4200584 <starts_with_at>
 42011a0:	10000826 	beq	r2,zero,42011c4 <process_stream+0x264>
        {
            result = send_clear_walls();
 42011a4:	4200f280 	call	4200f28 <send_clear_walls>
 42011a8:	e0bffe15 	stw	r2,-8(fp)

            if (result == DECODER_OK_SENT)
 42011ac:	e0bffe17 	ldw	r2,-8(fp)
 42011b0:	10800058 	cmpnei	r2,r2,1
 42011b4:	10000d1e 	bne	r2,zero,42011ec <process_stream+0x28c>
            {
                remove_after_send = (unsigned int)strlen("SNAKECLEARWALLS");
 42011b8:	008003c4 	movi	r2,15
 42011bc:	e0bffd15 	stw	r2,-12(fp)
 42011c0:	00000a06 	br	42011ec <process_stream+0x28c>
            }
        }
        else if (starts_with_at(stream_buf, 0, "SNAKEEMPTY"))
 42011c4:	01810874 	movhi	r6,1057
 42011c8:	3187b204 	addi	r6,r6,7880
 42011cc:	000b883a 	mov	r5,zero
 42011d0:	01010874 	movhi	r4,1057
 42011d4:	21184104 	addi	r4,r4,24836
 42011d8:	42005840 	call	4200584 <starts_with_at>
 42011dc:	10001d26 	beq	r2,zero,4201254 <process_stream+0x2f4>
        {
            remove_after_send = (unsigned int)strlen("SNAKEEMPTY");
 42011e0:	00800284 	movi	r2,10
 42011e4:	e0bffd15 	stw	r2,-12(fp)
            result = DECODER_NO_COMMAND;
 42011e8:	e03ffe15 	stw	zero,-8(fp)
               Not enough chars yet.
            */
            break;
        }

        if (result < 0)
 42011ec:	e0bffe17 	ldw	r2,-8(fp)
 42011f0:	1000020e 	bge	r2,zero,42011fc <process_stream+0x29c>
        {
            return result;
 42011f4:	e0bffe17 	ldw	r2,-8(fp)
 42011f8:	00001e06 	br	4201274 <process_stream+0x314>
        }

        if (result == DECODER_OK_SENT || result == DECODER_OK_WAITING_PORTAL)
 42011fc:	e0bffe17 	ldw	r2,-8(fp)
 4201200:	10800060 	cmpeqi	r2,r2,1
 4201204:	1000031e 	bne	r2,zero,4201214 <process_stream+0x2b4>
 4201208:	e0bffe17 	ldw	r2,-8(fp)
 420120c:	10800098 	cmpnei	r2,r2,2
 4201210:	1000041e 	bne	r2,zero,4201224 <process_stream+0x2c4>
        {
            any_sent = 1;
 4201214:	00800044 	movi	r2,1
 4201218:	e0bffa15 	stw	r2,-24(fp)
            last_result = result;
 420121c:	e0bffe17 	ldw	r2,-8(fp)
 4201220:	e0bffb15 	stw	r2,-20(fp)
        }

        if (remove_after_send > 0)
 4201224:	e0bffd17 	ldw	r2,-12(fp)
 4201228:	10000c26 	beq	r2,zero,420125c <process_stream+0x2fc>
        {
            remove_stream_prefix(remove_after_send);
 420122c:	e13ffd17 	ldw	r4,-12(fp)
 4201230:	42006e80 	call	42006e8 <remove_stream_prefix>
            continue;
 4201234:	0001883a 	nop
    int last_result;

    any_sent = 0;
    last_result = DECODER_NO_COMMAND;

    while (stream_len > 0)
 4201238:	d0a6d517 	ldw	r2,-25772(gp)
 420123c:	103f4f1e 	bne	r2,zero,4200f7c <__alt_data_end+0xfff00f7c>
 4201240:	00000706 	br	4201260 <process_stream+0x300>

        drop_junk_before_command();

        if (stream_len < 5)
        {
            break;
 4201244:	0001883a 	nop
 4201248:	00000506 	br	4201260 <process_stream+0x300>
        }

        if (strncmp(stream_buf, "SNAKE", 5) != 0)
        {
            break;
 420124c:	0001883a 	nop
 4201250:	00000306 	br	4201260 <process_stream+0x300>
               Example:
                   SNAKEWAL
                   SNAKEAPP
               Not enough chars yet.
            */
            break;
 4201254:	0001883a 	nop
 4201258:	00000106 	br	4201260 <process_stream+0x300>
        }

        /*
           No removal means wait for more chunks.
        */
        break;
 420125c:	0001883a 	nop
    }

    if (any_sent)
 4201260:	e0bffa17 	ldw	r2,-24(fp)
 4201264:	10000226 	beq	r2,zero,4201270 <process_stream+0x310>
    {
        return last_result;
 4201268:	e0bffb17 	ldw	r2,-20(fp)
 420126c:	00000106 	br	4201274 <process_stream+0x314>
    }

    return DECODER_NO_COMMAND;
 4201270:	0005883a 	mov	r2,zero
}
 4201274:	e037883a 	mov	sp,fp
 4201278:	dfc00117 	ldw	ra,4(sp)
 420127c:	df000017 	ldw	fp,0(sp)
 4201280:	dec00204 	addi	sp,sp,8
 4201284:	f800283a 	ret

04201288 <decoder_decode_and_store_snake_command_len>:
/* ============================================================
   PUBLIC API
   ============================================================ */

int decoder_decode_and_store_snake_command_len(const char *text, unsigned int len)
{
 4201288:	defffc04 	addi	sp,sp,-16
 420128c:	dfc00315 	stw	ra,12(sp)
 4201290:	df000215 	stw	fp,8(sp)
 4201294:	df000204 	addi	fp,sp,8
 4201298:	e13ffe15 	stw	r4,-8(fp)
 420129c:	e17fff15 	stw	r5,-4(fp)
    if (text == 0 || len == 0)
 42012a0:	e0bffe17 	ldw	r2,-8(fp)
 42012a4:	10000226 	beq	r2,zero,42012b0 <decoder_decode_and_store_snake_command_len+0x28>
 42012a8:	e0bfff17 	ldw	r2,-4(fp)
 42012ac:	1000021e 	bne	r2,zero,42012b8 <decoder_decode_and_store_snake_command_len+0x30>
    {
        return DECODER_NO_COMMAND;
 42012b0:	0005883a 	mov	r2,zero
 42012b4:	00000406 	br	42012c8 <decoder_decode_and_store_snake_command_len+0x40>
    }

    append_normalized_chunk(text, len);
 42012b8:	e17fff17 	ldw	r5,-4(fp)
 42012bc:	e13ffe17 	ldw	r4,-8(fp)
 42012c0:	42008dc0 	call	42008dc <append_normalized_chunk>

    return process_stream();
 42012c4:	4200f600 	call	4200f60 <process_stream>
}
 42012c8:	e037883a 	mov	sp,fp
 42012cc:	dfc00117 	ldw	ra,4(sp)
 42012d0:	df000017 	ldw	fp,0(sp)
 42012d4:	dec00204 	addi	sp,sp,8
 42012d8:	f800283a 	ret

042012dc <decoder_decode_and_store_snake_command>:

int decoder_decode_and_store_snake_command(const char *text)
{
 42012dc:	defffd04 	addi	sp,sp,-12
 42012e0:	dfc00215 	stw	ra,8(sp)
 42012e4:	df000115 	stw	fp,4(sp)
 42012e8:	df000104 	addi	fp,sp,4
 42012ec:	e13fff15 	stw	r4,-4(fp)
    if (text == 0)
 42012f0:	e0bfff17 	ldw	r2,-4(fp)
 42012f4:	1000021e 	bne	r2,zero,4201300 <decoder_decode_and_store_snake_command+0x24>
    {
        return DECODER_NO_COMMAND;
 42012f8:	0005883a 	mov	r2,zero
 42012fc:	00000506 	br	4201314 <decoder_decode_and_store_snake_command+0x38>
    }

    return decoder_decode_and_store_snake_command_len(
        text,
        (unsigned int)strlen(text)
 4201300:	e13fff17 	ldw	r4,-4(fp)
 4201304:	42042300 	call	4204230 <strlen>
    if (text == 0)
    {
        return DECODER_NO_COMMAND;
    }

    return decoder_decode_and_store_snake_command_len(
 4201308:	100b883a 	mov	r5,r2
 420130c:	e13fff17 	ldw	r4,-4(fp)
 4201310:	42012880 	call	4201288 <decoder_decode_and_store_snake_command_len>
        text,
        (unsigned int)strlen(text)
    );
}
 4201314:	e037883a 	mov	sp,fp
 4201318:	dfc00117 	ldw	ra,4(sp)
 420131c:	df000017 	ldw	fp,0(sp)
 4201320:	dec00204 	addi	sp,sp,8
 4201324:	f800283a 	ret

04201328 <print_decoder_result>:
/* ============================================================
   DECODER RESULT PRINT
   ============================================================ */

static void print_decoder_result(int result)
{
 4201328:	defffd04 	addi	sp,sp,-12
 420132c:	dfc00215 	stw	ra,8(sp)
 4201330:	df000115 	stw	fp,4(sp)
 4201334:	df000104 	addi	fp,sp,4
 4201338:	e13fff15 	stw	r4,-4(fp)
#if DEBUG_DECODER_PRINT
    if (result == DECODER_OK_SENT)
 420133c:	e0bfff17 	ldw	r2,-4(fp)
 4201340:	10800058 	cmpnei	r2,r2,1
 4201344:	1000041e 	bne	r2,zero,4201358 <print_decoder_result+0x30>
    {
        printf("Decoder: snake command sent to SDRAM mailbox\n");
 4201348:	01010874 	movhi	r4,1057
 420134c:	2107b504 	addi	r4,r4,7892
 4201350:	420408c0 	call	420408c <puts>
        printf("Decoder error: unknown result %d\n", result);
    }
#else
    (void)result;
#endif
}
 4201354:	00002606 	br	42013f0 <print_decoder_result+0xc8>
#if DEBUG_DECODER_PRINT
    if (result == DECODER_OK_SENT)
    {
        printf("Decoder: snake command sent to SDRAM mailbox\n");
    }
    else if (result == DECODER_OK_WAITING_PORTAL)
 4201358:	e0bfff17 	ldw	r2,-4(fp)
 420135c:	10800098 	cmpnei	r2,r2,2
 4201360:	1000041e 	bne	r2,zero,4201374 <print_decoder_result+0x4c>
    {
        printf("Decoder: portal stored, waiting for other portal\n");
 4201364:	01010874 	movhi	r4,1057
 4201368:	2107c104 	addi	r4,r4,7940
 420136c:	420408c0 	call	420408c <puts>
        printf("Decoder error: unknown result %d\n", result);
    }
#else
    (void)result;
#endif
}
 4201370:	00001f06 	br	42013f0 <print_decoder_result+0xc8>
    }
    else if (result == DECODER_OK_WAITING_PORTAL)
    {
        printf("Decoder: portal stored, waiting for other portal\n");
    }
    else if (result == DECODER_NO_COMMAND)
 4201374:	e0bfff17 	ldw	r2,-4(fp)
 4201378:	1000041e 	bne	r2,zero,420138c <print_decoder_result+0x64>
    {
        printf("Decoder: no snake command detected\n");
 420137c:	01010874 	movhi	r4,1057
 4201380:	2107ce04 	addi	r4,r4,7992
 4201384:	420408c0 	call	420408c <puts>
        printf("Decoder error: unknown result %d\n", result);
    }
#else
    (void)result;
#endif
}
 4201388:	00001906 	br	42013f0 <print_decoder_result+0xc8>
    }
    else if (result == DECODER_NO_COMMAND)
    {
        printf("Decoder: no snake command detected\n");
    }
    else if (result == DECODER_ERR_BAD_FORMAT)
 420138c:	e0bfff17 	ldw	r2,-4(fp)
 4201390:	10bfffd8 	cmpnei	r2,r2,-1
 4201394:	1000041e 	bne	r2,zero,42013a8 <print_decoder_result+0x80>
    {
        printf("Decoder error: bad command format\n");
 4201398:	01010874 	movhi	r4,1057
 420139c:	2107d704 	addi	r4,r4,8028
 42013a0:	420408c0 	call	420408c <puts>
        printf("Decoder error: unknown result %d\n", result);
    }
#else
    (void)result;
#endif
}
 42013a4:	00001206 	br	42013f0 <print_decoder_result+0xc8>
    }
    else if (result == DECODER_ERR_BAD_FORMAT)
    {
        printf("Decoder error: bad command format\n");
    }
    else if (result == DECODER_ERR_OUT_OF_RANGE)
 42013a8:	e0bfff17 	ldw	r2,-4(fp)
 42013ac:	10bfff98 	cmpnei	r2,r2,-2
 42013b0:	1000041e 	bne	r2,zero,42013c4 <print_decoder_result+0x9c>
    {
        printf("Decoder error: coordinate out of snake grid range\n");
 42013b4:	01010874 	movhi	r4,1057
 42013b8:	2107e004 	addi	r4,r4,8064
 42013bc:	420408c0 	call	420408c <puts>
        printf("Decoder error: unknown result %d\n", result);
    }
#else
    (void)result;
#endif
}
 42013c0:	00000b06 	br	42013f0 <print_decoder_result+0xc8>
    }
    else if (result == DECODER_ERR_OUT_OF_RANGE)
    {
        printf("Decoder error: coordinate out of snake grid range\n");
    }
    else if (result == DECODER_ERR_MAILBOX_BUSY)
 42013c4:	e0bfff17 	ldw	r2,-4(fp)
 42013c8:	10bfff58 	cmpnei	r2,r2,-3
 42013cc:	1000041e 	bne	r2,zero,42013e0 <print_decoder_result+0xb8>
    {
        printf("Decoder error: snake mailbox busy\n");
 42013d0:	01010874 	movhi	r4,1057
 42013d4:	2107ed04 	addi	r4,r4,8116
 42013d8:	420408c0 	call	420408c <puts>
        printf("Decoder error: unknown result %d\n", result);
    }
#else
    (void)result;
#endif
}
 42013dc:	00000406 	br	42013f0 <print_decoder_result+0xc8>
    {
        printf("Decoder error: snake mailbox busy\n");
    }
    else
    {
        printf("Decoder error: unknown result %d\n", result);
 42013e0:	e17fff17 	ldw	r5,-4(fp)
 42013e4:	01010874 	movhi	r4,1057
 42013e8:	2107f604 	addi	r4,r4,8152
 42013ec:	4203f900 	call	4203f90 <printf>
    }
#else
    (void)result;
#endif
}
 42013f0:	0001883a 	nop
 42013f4:	e037883a 	mov	sp,fp
 42013f8:	dfc00117 	ldw	ra,4(sp)
 42013fc:	df000017 	ldw	fp,0(sp)
 4201400:	dec00204 	addi	sp,sp,8
 4201404:	f800283a 	ret

04201408 <session_button_isr>:
   SESSION START BUTTON IRQ
   IMG_IRQ_RX is used as the session-start button.
   ============================================================ */

static void session_button_isr(void *context)
{
 4201408:	defffe04 	addi	sp,sp,-8
 420140c:	df000115 	stw	fp,4(sp)
 4201410:	df000104 	addi	fp,sp,4
 4201414:	e13fff15 	stw	r4,-4(fp)
    (void)context;

    IOWR_ALTERA_AVALON_PIO_EDGE_CAP(
 4201418:	00c00044 	movi	r3,1
 420141c:	00a42714 	movui	r2,37020
 4201420:	10c00035 	stwio	r3,0(r2)

    /*
       Only first button press matters.
       After session_started = 1, ignore button.
    */
    if (!session_started)
 4201424:	d0a6dc17 	ldw	r2,-25744(gp)
 4201428:	1000021e 	bne	r2,zero,4201434 <session_button_isr+0x2c>
    {
        session_button_pending = 1;
 420142c:	00800044 	movi	r2,1
 4201430:	d0a6da15 	stw	r2,-25752(gp)
    }
}
 4201434:	0001883a 	nop
 4201438:	e037883a 	mov	sp,fp
 420143c:	df000017 	ldw	fp,0(sp)
 4201440:	dec00104 	addi	sp,sp,4
 4201444:	f800283a 	ret

04201448 <session_button_setup>:

static void session_button_setup(void)
{
 4201448:	defffd04 	addi	sp,sp,-12
 420144c:	dfc00215 	stw	ra,8(sp)
 4201450:	df000115 	stw	fp,4(sp)
 4201454:	df000104 	addi	fp,sp,4
    IOWR_ALTERA_AVALON_PIO_IRQ_MASK(
 4201458:	0007883a 	mov	r3,zero
 420145c:	00a42614 	movui	r2,37016
 4201460:	10c00035 	stwio	r3,0(r2)
        IMG_IRQ_RX_BASE,
        0x0
    );

    IOWR_ALTERA_AVALON_PIO_EDGE_CAP(
 4201464:	00c00044 	movi	r3,1
 4201468:	00a42714 	movui	r2,37020
 420146c:	10c00035 	stwio	r3,0(r2)
        IMG_IRQ_RX_BASE,
        SESSION_BUTTON_MASK
    );

#if defined(IMG_IRQ_RX_IRQ) && defined(IMG_IRQ_RX_IRQ_INTERRUPT_CONTROLLER_ID)
    alt_ic_isr_register(
 4201470:	d8000015 	stw	zero,0(sp)
 4201474:	000f883a 	mov	r7,zero
 4201478:	01810834 	movhi	r6,1056
 420147c:	31850204 	addi	r6,r6,5128
 4201480:	01400104 	movi	r5,4
 4201484:	0009883a 	mov	r4,zero
 4201488:	420f4880 	call	420f488 <alt_ic_isr_register>
        NULL,
        session_button_isr
    );
#endif

    IOWR_ALTERA_AVALON_PIO_EDGE_CAP(
 420148c:	00c00044 	movi	r3,1
 4201490:	00a42714 	movui	r2,37020
 4201494:	10c00035 	stwio	r3,0(r2)
        IMG_IRQ_RX_BASE,
        SESSION_BUTTON_MASK
    );

    IOWR_ALTERA_AVALON_PIO_IRQ_MASK(
 4201498:	00c00044 	movi	r3,1
 420149c:	00a42614 	movui	r2,37016
 42014a0:	10c00035 	stwio	r3,0(r2)
        IMG_IRQ_RX_BASE,
        SESSION_BUTTON_MASK
    );
}
 42014a4:	0001883a 	nop
 42014a8:	e037883a 	mov	sp,fp
 42014ac:	dfc00117 	ldw	ra,4(sp)
 42014b0:	df000017 	ldw	fp,0(sp)
 42014b4:	dec00204 	addi	sp,sp,8
 42014b8:	f800283a 	ret

042014bc <session_button_is_high>:

static int session_button_is_high(void)
{
 42014bc:	deffff04 	addi	sp,sp,-4
 42014c0:	df000015 	stw	fp,0(sp)
 42014c4:	d839883a 	mov	fp,sp
    return (
        IORD_ALTERA_AVALON_PIO_DATA(IMG_IRQ_RX_BASE)
 42014c8:	00a42414 	movui	r2,37008
 42014cc:	10800037 	ldwio	r2,0(r2)
        & SESSION_BUTTON_MASK
 42014d0:	1080004c 	andi	r2,r2,1
    ) != 0;
 42014d4:	1004c03a 	cmpne	r2,r2,zero
    );
}

static int session_button_is_high(void)
{
    return (
 42014d8:	10803fcc 	andi	r2,r2,255
        IORD_ALTERA_AVALON_PIO_DATA(IMG_IRQ_RX_BASE)
        & SESSION_BUTTON_MASK
    ) != 0;
}
 42014dc:	e037883a 	mov	sp,fp
 42014e0:	df000017 	ldw	fp,0(sp)
 42014e4:	dec00104 	addi	sp,sp,4
 42014e8:	f800283a 	ret

042014ec <esp_data_ready_isr>:
   ESP DATA READY IRQ
   ESP_DATA_READY is ESP -> FPGA packet-ready signal.
   ============================================================ */

static void esp_data_ready_isr(void *context)
{
 42014ec:	defffe04 	addi	sp,sp,-8
 42014f0:	df000115 	stw	fp,4(sp)
 42014f4:	df000104 	addi	fp,sp,4
 42014f8:	e13fff15 	stw	r4,-4(fp)
    (void)context;

    IOWR_ALTERA_AVALON_PIO_EDGE_CAP(
 42014fc:	00c00044 	movi	r3,1
 4201500:	00a42314 	movui	r2,37004
 4201504:	10c00035 	stwio	r3,0(r2)
    );

    /*
       Only accept packet-ready edges after session starts.
    */
    if (session_started)
 4201508:	d0a6dc17 	ldw	r2,-25744(gp)
 420150c:	10000226 	beq	r2,zero,4201518 <esp_data_ready_isr+0x2c>
    {
        esp_data_ready_pending = 1;
 4201510:	00800044 	movi	r2,1
 4201514:	d0a6db15 	stw	r2,-25748(gp)
    }
}
 4201518:	0001883a 	nop
 420151c:	e037883a 	mov	sp,fp
 4201520:	df000017 	ldw	fp,0(sp)
 4201524:	dec00104 	addi	sp,sp,4
 4201528:	f800283a 	ret

0420152c <esp_data_ready_setup>:

static void esp_data_ready_setup(void)
{
 420152c:	defffd04 	addi	sp,sp,-12
 4201530:	dfc00215 	stw	ra,8(sp)
 4201534:	df000115 	stw	fp,4(sp)
 4201538:	df000104 	addi	fp,sp,4
    IOWR_ALTERA_AVALON_PIO_IRQ_MASK(
 420153c:	0007883a 	mov	r3,zero
 4201540:	00a42214 	movui	r2,37000
 4201544:	10c00035 	stwio	r3,0(r2)
        ESP_DATA_READY_BASE,
        0x0
    );

    IOWR_ALTERA_AVALON_PIO_EDGE_CAP(
 4201548:	00c00044 	movi	r3,1
 420154c:	00a42314 	movui	r2,37004
 4201550:	10c00035 	stwio	r3,0(r2)
        ESP_DATA_READY_BASE,
        ESP_DATA_READY_ACTIVE_MASK
    );

#if defined(ESP_DATA_READY_IRQ) && defined(ESP_DATA_READY_IRQ_INTERRUPT_CONTROLLER_ID)
    alt_ic_isr_register(
 4201554:	d8000015 	stw	zero,0(sp)
 4201558:	000f883a 	mov	r7,zero
 420155c:	01810834 	movhi	r6,1056
 4201560:	31853b04 	addi	r6,r6,5356
 4201564:	01400084 	movi	r5,2
 4201568:	0009883a 	mov	r4,zero
 420156c:	420f4880 	call	420f488 <alt_ic_isr_register>
        NULL,
        esp_data_ready_isr
    );
#endif

    IOWR_ALTERA_AVALON_PIO_EDGE_CAP(
 4201570:	00c00044 	movi	r3,1
 4201574:	00a42314 	movui	r2,37004
 4201578:	10c00035 	stwio	r3,0(r2)
        ESP_DATA_READY_BASE,
        ESP_DATA_READY_ACTIVE_MASK
    );

    IOWR_ALTERA_AVALON_PIO_IRQ_MASK(
 420157c:	00c00044 	movi	r3,1
 4201580:	00a42214 	movui	r2,37000
 4201584:	10c00035 	stwio	r3,0(r2)
        ESP_DATA_READY_BASE,
        ESP_DATA_READY_ACTIVE_MASK
    );
}
 4201588:	0001883a 	nop
 420158c:	e037883a 	mov	sp,fp
 4201590:	dfc00117 	ldw	ra,4(sp)
 4201594:	df000017 	ldw	fp,0(sp)
 4201598:	dec00204 	addi	sp,sp,8
 420159c:	f800283a 	ret

042015a0 <esp_data_ready_is_high>:

static int esp_data_ready_is_high(void)
{
 42015a0:	deffff04 	addi	sp,sp,-4
 42015a4:	df000015 	stw	fp,0(sp)
 42015a8:	d839883a 	mov	fp,sp
    return (
        IORD_ALTERA_AVALON_PIO_DATA(ESP_DATA_READY_BASE)
 42015ac:	00a42014 	movui	r2,36992
 42015b0:	10800037 	ldwio	r2,0(r2)
        & ESP_DATA_READY_ACTIVE_MASK
 42015b4:	1080004c 	andi	r2,r2,1
    ) != 0;
 42015b8:	1004c03a 	cmpne	r2,r2,zero
    );
}

static int esp_data_ready_is_high(void)
{
    return (
 42015bc:	10803fcc 	andi	r2,r2,255
        IORD_ALTERA_AVALON_PIO_DATA(ESP_DATA_READY_BASE)
        & ESP_DATA_READY_ACTIVE_MASK
    ) != 0;
}
 42015c0:	e037883a 	mov	sp,fp
 42015c4:	df000017 	ldw	fp,0(sp)
 42015c8:	dec00104 	addi	sp,sp,4
 42015cc:	f800283a 	ret

042015d0 <img_irq_tx_set_true>:
/* ============================================================
   FPGA -> VGA / OLD ACK LINE
   ============================================================ */

static void img_irq_tx_set_true(void)
{
 42015d0:	deffff04 	addi	sp,sp,-4
 42015d4:	df000015 	stw	fp,0(sp)
 42015d8:	d839883a 	mov	fp,sp
#ifdef IMG_IRQ_TX_BASE
    IOWR_ALTERA_AVALON_PIO_DATA(IMG_IRQ_TX_BASE, 1);
 42015dc:	00c00044 	movi	r3,1
 42015e0:	00a42814 	movui	r2,37024
 42015e4:	10c00035 	stwio	r3,0(r2)
#endif
}
 42015e8:	0001883a 	nop
 42015ec:	e037883a 	mov	sp,fp
 42015f0:	df000017 	ldw	fp,0(sp)
 42015f4:	dec00104 	addi	sp,sp,4
 42015f8:	f800283a 	ret

042015fc <img_irq_tx_set_false>:

static void img_irq_tx_set_false(void)
{
 42015fc:	deffff04 	addi	sp,sp,-4
 4201600:	df000015 	stw	fp,0(sp)
 4201604:	d839883a 	mov	fp,sp
#ifdef IMG_IRQ_TX_BASE
    IOWR_ALTERA_AVALON_PIO_DATA(IMG_IRQ_TX_BASE, 0);
 4201608:	0007883a 	mov	r3,zero
 420160c:	00a42814 	movui	r2,37024
 4201610:	10c00035 	stwio	r3,0(r2)
#endif
}
 4201614:	0001883a 	nop
 4201618:	e037883a 	mov	sp,fp
 420161c:	df000017 	ldw	fp,0(sp)
 4201620:	dec00104 	addi	sp,sp,4
 4201624:	f800283a 	ret

04201628 <main>:
/* ============================================================
   MAIN
   ============================================================ */

int main(void)
{
 4201628:	defffb04 	addi	sp,sp,-20
 420162c:	dfc00415 	stw	ra,16(sp)
 4201630:	df000315 	stw	fp,12(sp)
 4201634:	df000304 	addi	fp,sp,12
    const char *rx_text;
    uint32_t packet_len;
    int decoder_result;

    printf("========== IMAGE PROCESSOR MAIN ==========\n");
 4201638:	01010874 	movhi	r4,1057
 420163c:	2107ff04 	addi	r4,r4,8188
 4201640:	420408c0 	call	420408c <puts>
    printf("SPI packet receive + streaming snake decoder enabled\n");
 4201644:	01010874 	movhi	r4,1057
 4201648:	21080a04 	addi	r4,r4,8232
 420164c:	420408c0 	call	420408c <puts>
    printf("IMG_IRQ_RX = session start button\n");
 4201650:	01010874 	movhi	r4,1057
 4201654:	21081804 	addi	r4,r4,8288
 4201658:	420408c0 	call	420408c <puts>
    printf("ESP_DATA_READY = packet ready interrupt\n");
 420165c:	01010874 	movhi	r4,1057
 4201660:	21082104 	addi	r4,r4,8324
 4201664:	420408c0 	call	420408c <puts>
    printf("==========================================\n");
 4201668:	01010874 	movhi	r4,1057
 420166c:	21082b04 	addi	r4,r4,8364
 4201670:	420408c0 	call	420408c <puts>
    fflush(stdout);
 4201674:	d0a00217 	ldw	r2,-32760(gp)
 4201678:	10800217 	ldw	r2,8(r2)
 420167c:	1009883a 	mov	r4,r2
 4201680:	4202ca00 	call	4202ca0 <fflush>

    /*
       Init SPI and clear SDRAM text/image/status buffers.
    */
    spi_init_manual();
 4201684:	4201df40 	call	4201df4 <spi_init_manual>

    /*
       Clear output IRQ / ACK line.
    */
    img_irq_tx_set_false();
 4201688:	42015fc0 	call	42015fc <img_irq_tx_set_false>

    /*
       Optional: reset decoder stream at boot.
    */
    decoder_reset_stream();
 420168c:	420004c0 	call	420004c <decoder_reset_stream>

    /*
       Setup both interrupts.
    */
    session_button_setup();
 4201690:	42014480 	call	4201448 <session_button_setup>
    esp_data_ready_setup();
 4201694:	420152c0 	call	420152c <esp_data_ready_setup>

    printf("Image processor ready - press IMG_IRQ_RX button once to start ESP session\n");
 4201698:	01010874 	movhi	r4,1057
 420169c:	21083604 	addi	r4,r4,8408
 42016a0:	420408c0 	call	420408c <puts>
    fflush(stdout);
 42016a4:	d0a00217 	ldw	r2,-32760(gp)
 42016a8:	10800217 	ldw	r2,8(r2)
 42016ac:	1009883a 	mov	r4,r2
 42016b0:	4202ca00 	call	4202ca0 <fflush>
    {
        /*
           First button press starts realtime session.
           This sends 0x5F to ESP once.
        */
        if (session_button_pending && !session_started)
 42016b4:	d0a6da17 	ldw	r2,-25752(gp)
 42016b8:	10001f26 	beq	r2,zero,4201738 <main+0x110>
 42016bc:	d0a6dc17 	ldw	r2,-25744(gp)
 42016c0:	10001d1e 	bne	r2,zero,4201738 <main+0x110>
        {
            session_button_pending = 0;
 42016c4:	d026da15 	stw	zero,-25752(gp)
            session_started = 1;
 42016c8:	00800044 	movi	r2,1
 42016cc:	d0a6dc15 	stw	r2,-25744(gp)

            printf("SESSION START button received. Sending 0x5F to ESP...\n");
 42016d0:	01010874 	movhi	r4,1057
 42016d4:	21084904 	addi	r4,r4,8484
 42016d8:	420408c0 	call	420408c <puts>
            fflush(stdout);
 42016dc:	d0a00217 	ldw	r2,-32760(gp)
 42016e0:	10800217 	ldw	r2,8(r2)
 42016e4:	1009883a 	mov	r4,r2
 42016e8:	4202ca00 	call	4202ca0 <fflush>

            spi_send_session_start();
 42016ec:	42023600 	call	4202360 <spi_send_session_start>

            printf("ESP session start command sent. Waiting for ESP_DATA_READY edges.\n");
 42016f0:	01010874 	movhi	r4,1057
 42016f4:	21085704 	addi	r4,r4,8540
 42016f8:	420408c0 	call	420408c <puts>
            fflush(stdout);
 42016fc:	d0a00217 	ldw	r2,-32760(gp)
 4201700:	10800217 	ldw	r2,8(r2)
 4201704:	1009883a 	mov	r4,r2
 4201708:	4202ca00 	call	4202ca0 <fflush>

            /*
               Wait for button signal to release so old edges do not retrigger.
            */
            while (session_button_is_high())
 420170c:	00000206 	br	4201718 <main+0xf0>
            {
                usleep(1000);
 4201710:	0100fa04 	movi	r4,1000
 4201714:	420fd140 	call	420fd14 <usleep>
            fflush(stdout);

            /*
               Wait for button signal to release so old edges do not retrigger.
            */
            while (session_button_is_high())
 4201718:	42014bc0 	call	42014bc <session_button_is_high>
 420171c:	103ffc1e 	bne	r2,zero,4201710 <__alt_data_end+0xfff01710>
            {
                usleep(1000);
            }

            IOWR_ALTERA_AVALON_PIO_EDGE_CAP(
 4201720:	00c00044 	movi	r3,1
 4201724:	00a42714 	movui	r2,37020
 4201728:	10c00035 	stwio	r3,0(r2)
                IMG_IRQ_RX_BASE,
                SESSION_BUTTON_MASK
            );

            IOWR_ALTERA_AVALON_PIO_EDGE_CAP(
 420172c:	00c00044 	movi	r3,1
 4201730:	00a42314 	movui	r2,37004
 4201734:	10c00035 	stwio	r3,0(r2)

        /*
           After session start:
           ESP_DATA_READY rising edge means one packet is ready.
        */
        if (session_started && esp_data_ready_pending)
 4201738:	d0a6dc17 	ldw	r2,-25744(gp)
 420173c:	10005626 	beq	r2,zero,4201898 <main+0x270>
 4201740:	d0a6db17 	ldw	r2,-25748(gp)
 4201744:	10005426 	beq	r2,zero,4201898 <main+0x270>
        {
            esp_data_ready_pending = 0;
 4201748:	d026db15 	stw	zero,-25748(gp)

            /*
               If signal is already low, ignore this stale edge.
            */
            if (!esp_data_ready_is_high())
 420174c:	42015a00 	call	42015a0 <esp_data_ready_is_high>
 4201750:	1000061e 	bne	r2,zero,420176c <main+0x144>
            {
                IOWR_ALTERA_AVALON_PIO_EDGE_CAP(
 4201754:	00c00044 	movi	r3,1
 4201758:	00a42314 	movui	r2,37004
 420175c:	10c00035 	stwio	r3,0(r2)
                    ESP_DATA_READY_BASE,
                    ESP_DATA_READY_ACTIVE_MASK
                );

                usleep(1000);
 4201760:	0100fa04 	movi	r4,1000
 4201764:	420fd140 	call	420fd14 <usleep>
                continue;
 4201768:	00004d06 	br	42018a0 <main+0x278>
            }

            printf("ESP_DATA_READY edge received, reading one SPI packet\n");
 420176c:	01010874 	movhi	r4,1057
 4201770:	21086804 	addi	r4,r4,8608
 4201774:	420408c0 	call	420408c <puts>
            fflush(stdout);
 4201778:	d0a00217 	ldw	r2,-32760(gp)
 420177c:	10800217 	ldw	r2,8(r2)
 4201780:	1009883a 	mov	r4,r2
 4201784:	4202ca00 	call	4202ca0 <fflush>

            img_irq_tx_set_false();
 4201788:	42015fc0 	call	42015fc <img_irq_tx_set_false>
                   3. send 0xA2 packet request
                   4. read packet bytes
                   5. store text/image/status into SDRAM
                   6. update spi_get_latest_text()
            */
            spi_request_text_from_esp();
 420178c:	42026980 	call	4202698 <spi_request_text_from_esp>

            packet_len = spi_get_latest_packet_length();
 4201790:	42028540 	call	4202854 <spi_get_latest_packet_length>
 4201794:	e0bffd15 	stw	r2,-12(fp)

            if (packet_len == 0)
 4201798:	e0bffd17 	ldw	r2,-12(fp)
 420179c:	10000d1e 	bne	r2,zero,42017d4 <main+0x1ac>
            {
                printf("SPI read failed; waiting for next ESP_DATA_READY edge\n");
 42017a0:	01010874 	movhi	r4,1057
 42017a4:	21087604 	addi	r4,r4,8664
 42017a8:	420408c0 	call	420408c <puts>
                fflush(stdout);
 42017ac:	d0a00217 	ldw	r2,-32760(gp)
 42017b0:	10800217 	ldw	r2,8(r2)
 42017b4:	1009883a 	mov	r4,r2
 42017b8:	4202ca00 	call	4202ca0 <fflush>

                IOWR_ALTERA_AVALON_PIO_EDGE_CAP(
 42017bc:	00c00044 	movi	r3,1
 42017c0:	00a42314 	movui	r2,37004
 42017c4:	10c00035 	stwio	r3,0(r2)
                    ESP_DATA_READY_BASE,
                    ESP_DATA_READY_ACTIVE_MASK
                );

                usleep(50000);
 42017c8:	0130d414 	movui	r4,50000
 42017cc:	420fd140 	call	420fd14 <usleep>
                continue;
 42017d0:	00003306 	br	42018a0 <main+0x278>
            }

            rx_text = spi_get_latest_text();
 42017d4:	42028300 	call	4202830 <spi_get_latest_text>
 42017d8:	e0bffe15 	stw	r2,-8(fp)

            if (rx_text == NULL || rx_text[0] == '\0')
 42017dc:	e0bffe17 	ldw	r2,-8(fp)
 42017e0:	10000626 	beq	r2,zero,42017fc <main+0x1d4>
 42017e4:	e0bffe17 	ldw	r2,-8(fp)
 42017e8:	10800003 	ldbu	r2,0(r2)
 42017ec:	10803fcc 	andi	r2,r2,255
 42017f0:	1080201c 	xori	r2,r2,128
 42017f4:	10bfe004 	addi	r2,r2,-128
 42017f8:	10000f1e 	bne	r2,zero,4201838 <main+0x210>
            {
                printf("SPI read OK, packet_len=%lu, text empty\n",
 42017fc:	e17ffd17 	ldw	r5,-12(fp)
 4201800:	01010874 	movhi	r4,1057
 4201804:	21088404 	addi	r4,r4,8720
 4201808:	4203f900 	call	4203f90 <printf>
                       (unsigned long)packet_len);
                fflush(stdout);
 420180c:	d0a00217 	ldw	r2,-32760(gp)
 4201810:	10800217 	ldw	r2,8(r2)
 4201814:	1009883a 	mov	r4,r2
 4201818:	4202ca00 	call	4202ca0 <fflush>

                img_irq_tx_set_true();
 420181c:	42015d00 	call	42015d0 <img_irq_tx_set_true>

                IOWR_ALTERA_AVALON_PIO_EDGE_CAP(
 4201820:	00c00044 	movi	r3,1
 4201824:	00a42314 	movui	r2,37004
 4201828:	10c00035 	stwio	r3,0(r2)
                    ESP_DATA_READY_BASE,
                    ESP_DATA_READY_ACTIVE_MASK
                );

                usleep(50000);
 420182c:	0130d414 	movui	r4,50000
 4201830:	420fd140 	call	420fd14 <usleep>
                continue;
 4201834:	00001a06 	br	42018a0 <main+0x278>
            }

            printf("SPI read OK, packet_len=%lu, text=[%s]\n",
 4201838:	e1bffe17 	ldw	r6,-8(fp)
 420183c:	e17ffd17 	ldw	r5,-12(fp)
 4201840:	01010874 	movhi	r4,1057
 4201844:	21088f04 	addi	r4,r4,8764
 4201848:	4203f900 	call	4203f90 <printf>
                   (unsigned long)packet_len,
                   rx_text);
            fflush(stdout);
 420184c:	d0a00217 	ldw	r2,-32760(gp)
 4201850:	10800217 	ldw	r2,8(r2)
 4201854:	1009883a 	mov	r4,r2
 4201858:	4202ca00 	call	4202ca0 <fflush>
                   y10x5y18

               It accumulates them into:
                   SNAKEAPPLEX5Y2XY10X5Y18
            */
            decoder_result = decoder_decode_and_store_snake_command(rx_text);
 420185c:	e13ffe17 	ldw	r4,-8(fp)
 4201860:	42012dc0 	call	42012dc <decoder_decode_and_store_snake_command>
 4201864:	e0bfff15 	stw	r2,-4(fp)

            print_decoder_result(decoder_result);
 4201868:	e13fff17 	ldw	r4,-4(fp)
 420186c:	42013280 	call	4201328 <print_decoder_result>

            /*
               Notify/ACK after handling packet.
            */
            img_irq_tx_set_true();
 4201870:	42015d00 	call	42015d0 <img_irq_tx_set_true>

            IOWR_ALTERA_AVALON_PIO_EDGE_CAP(
 4201874:	00c00044 	movi	r3,1
 4201878:	00a42314 	movui	r2,37004
 420187c:	10c00035 	stwio	r3,0(r2)
                ESP_DATA_READY_BASE,
                ESP_DATA_READY_ACTIVE_MASK
            );

            fflush(stdout);
 4201880:	d0a00217 	ldw	r2,-32760(gp)
 4201884:	10800217 	ldw	r2,8(r2)
 4201888:	1009883a 	mov	r4,r2
 420188c:	4202ca00 	call	4202ca0 <fflush>
            usleep(50000);
 4201890:	0130d414 	movui	r4,50000
 4201894:	420fd140 	call	420fd14 <usleep>
        }

        usleep(1000);
 4201898:	0100fa04 	movi	r4,1000
 420189c:	420fd140 	call	420fd14 <usleep>
    }
 42018a0:	003f8406 	br	42016b4 <__alt_data_end+0xfff016b4>

042018a4 <read_u16_le>:
/* =========================
   Little endian helpers
   ========================= */

static uint16_t read_u16_le(const uint8_t *p)
{
 42018a4:	defffe04 	addi	sp,sp,-8
 42018a8:	df000115 	stw	fp,4(sp)
 42018ac:	df000104 	addi	fp,sp,4
 42018b0:	e13fff15 	stw	r4,-4(fp)
    return ((uint16_t)p[0]) |
 42018b4:	e0bfff17 	ldw	r2,-4(fp)
 42018b8:	10800003 	ldbu	r2,0(r2)
 42018bc:	10803fcc 	andi	r2,r2,255
           ((uint16_t)p[1] << 8);
 42018c0:	e0ffff17 	ldw	r3,-4(fp)
 42018c4:	18c00044 	addi	r3,r3,1
 42018c8:	18c00003 	ldbu	r3,0(r3)
 42018cc:	18c03fcc 	andi	r3,r3,255
 42018d0:	1806923a 	slli	r3,r3,8
   Little endian helpers
   ========================= */

static uint16_t read_u16_le(const uint8_t *p)
{
    return ((uint16_t)p[0]) |
 42018d4:	10c4b03a 	or	r2,r2,r3
           ((uint16_t)p[1] << 8);
}
 42018d8:	e037883a 	mov	sp,fp
 42018dc:	df000017 	ldw	fp,0(sp)
 42018e0:	dec00104 	addi	sp,sp,4
 42018e4:	f800283a 	ret

042018e8 <read_u32_le>:

static uint32_t read_u32_le(const uint8_t *p)
{
 42018e8:	defffe04 	addi	sp,sp,-8
 42018ec:	df000115 	stw	fp,4(sp)
 42018f0:	df000104 	addi	fp,sp,4
 42018f4:	e13fff15 	stw	r4,-4(fp)
    return ((uint32_t)p[0]) |
 42018f8:	e0bfff17 	ldw	r2,-4(fp)
 42018fc:	10800003 	ldbu	r2,0(r2)
 4201900:	10c03fcc 	andi	r3,r2,255
           ((uint32_t)p[1] << 8) |
 4201904:	e0bfff17 	ldw	r2,-4(fp)
 4201908:	10800044 	addi	r2,r2,1
 420190c:	10800003 	ldbu	r2,0(r2)
 4201910:	10803fcc 	andi	r2,r2,255
 4201914:	1004923a 	slli	r2,r2,8
           ((uint16_t)p[1] << 8);
}

static uint32_t read_u32_le(const uint8_t *p)
{
    return ((uint32_t)p[0]) |
 4201918:	1886b03a 	or	r3,r3,r2
           ((uint32_t)p[1] << 8) |
           ((uint32_t)p[2] << 16) |
 420191c:	e0bfff17 	ldw	r2,-4(fp)
 4201920:	10800084 	addi	r2,r2,2
 4201924:	10800003 	ldbu	r2,0(r2)
 4201928:	10803fcc 	andi	r2,r2,255
 420192c:	1004943a 	slli	r2,r2,16
}

static uint32_t read_u32_le(const uint8_t *p)
{
    return ((uint32_t)p[0]) |
           ((uint32_t)p[1] << 8) |
 4201930:	1886b03a 	or	r3,r3,r2
           ((uint32_t)p[2] << 16) |
           ((uint32_t)p[3] << 24);
 4201934:	e0bfff17 	ldw	r2,-4(fp)
 4201938:	108000c4 	addi	r2,r2,3
 420193c:	10800003 	ldbu	r2,0(r2)
 4201940:	10803fcc 	andi	r2,r2,255
 4201944:	1004963a 	slli	r2,r2,24
           ((uint16_t)p[1] << 8);
}

static uint32_t read_u32_le(const uint8_t *p)
{
    return ((uint32_t)p[0]) |
 4201948:	1884b03a 	or	r2,r3,r2
           ((uint32_t)p[1] << 8) |
           ((uint32_t)p[2] << 16) |
           ((uint32_t)p[3] << 24);
}
 420194c:	e037883a 	mov	sp,fp
 4201950:	df000017 	ldw	fp,0(sp)
 4201954:	dec00104 	addi	sp,sp,4
 4201958:	f800283a 	ret

0420195c <round_up_4>:

static uint32_t round_up_4(uint32_t value)
{
 420195c:	defffe04 	addi	sp,sp,-8
 4201960:	df000115 	stw	fp,4(sp)
 4201964:	df000104 	addi	fp,sp,4
 4201968:	e13fff15 	stw	r4,-4(fp)
    return (value + 3u) & ~3u;
 420196c:	e0bfff17 	ldw	r2,-4(fp)
 4201970:	10c000c4 	addi	r3,r2,3
 4201974:	00bfff04 	movi	r2,-4
 4201978:	1884703a 	and	r2,r3,r2
}
 420197c:	e037883a 	mov	sp,fp
 4201980:	df000017 	ldw	fp,0(sp)
 4201984:	dec00104 	addi	sp,sp,4
 4201988:	f800283a 	ret

0420198c <sdram_write_status>:
/* =========================
   SDRAM helpers
   ========================= */

static void sdram_write_status(uint32_t offset, uint32_t value)
{
 420198c:	defffd04 	addi	sp,sp,-12
 4201990:	df000215 	stw	fp,8(sp)
 4201994:	df000204 	addi	fp,sp,8
 4201998:	e13ffe15 	stw	r4,-8(fp)
 420199c:	e17fff15 	stw	r5,-4(fp)
    /* Internal 32-bit status registers live at STATUS_REG_BASE. */
    IOWR_32DIRECT(STATUS_REG_BASE, offset, value);
 42019a0:	e0fffe17 	ldw	r3,-8(fp)
 42019a4:	00814834 	movhi	r2,1312
 42019a8:	10840004 	addi	r2,r2,4096
 42019ac:	1885883a 	add	r2,r3,r2
 42019b0:	e0ffff17 	ldw	r3,-4(fp)
 42019b4:	10c00035 	stwio	r3,0(r2)
}
 42019b8:	0001883a 	nop
 42019bc:	e037883a 	mov	sp,fp
 42019c0:	df000017 	ldw	fp,0(sp)
 42019c4:	dec00104 	addi	sp,sp,4
 42019c8:	f800283a 	ret

042019cc <sdram_clear_text>:

static void sdram_clear_text(void)
{
 42019cc:	defffe04 	addi	sp,sp,-8
 42019d0:	df000115 	stw	fp,4(sp)
 42019d4:	df000104 	addi	fp,sp,4
    uint32_t i;

    for (i = 0; i < TEXT_BUFFER_SIZE; i++) {
 42019d8:	e03fff15 	stw	zero,-4(fp)
 42019dc:	00000d06 	br	4201a14 <sdram_clear_text+0x48>
        IOWR_8DIRECT(TEXT_BUFFER_BASE, i, 0);
 42019e0:	e0ffff17 	ldw	r3,-4(fp)
 42019e4:	00814834 	movhi	r2,1312
 42019e8:	1885883a 	add	r2,r3,r2
 42019ec:	0007883a 	mov	r3,zero
 42019f0:	10c00025 	stbio	r3,0(r2)
        spi_rx_text[i] = '\0';
 42019f4:	00810874 	movhi	r2,1057
 42019f8:	1098c104 	addi	r2,r2,25348
 42019fc:	e0ffff17 	ldw	r3,-4(fp)
 4201a00:	10c5883a 	add	r2,r2,r3
 4201a04:	10000005 	stb	zero,0(r2)

static void sdram_clear_text(void)
{
    uint32_t i;

    for (i = 0; i < TEXT_BUFFER_SIZE; i++) {
 4201a08:	e0bfff17 	ldw	r2,-4(fp)
 4201a0c:	10800044 	addi	r2,r2,1
 4201a10:	e0bfff15 	stw	r2,-4(fp)
 4201a14:	e0bfff17 	ldw	r2,-4(fp)
 4201a18:	10840030 	cmpltui	r2,r2,4096
 4201a1c:	103ff01e 	bne	r2,zero,42019e0 <__alt_data_end+0xfff019e0>
        IOWR_8DIRECT(TEXT_BUFFER_BASE, i, 0);
        spi_rx_text[i] = '\0';
    }
}
 4201a20:	0001883a 	nop
 4201a24:	e037883a 	mov	sp,fp
 4201a28:	df000017 	ldw	fp,0(sp)
 4201a2c:	dec00104 	addi	sp,sp,4
 4201a30:	f800283a 	ret

04201a34 <sdram_store_text_from_packet>:

static void sdram_store_text_from_packet(uint32_t text_src_offset, uint16_t text_len)
{
 4201a34:	defffa04 	addi	sp,sp,-24
 4201a38:	dfc00515 	stw	ra,20(sp)
 4201a3c:	df000415 	stw	fp,16(sp)
 4201a40:	df000404 	addi	fp,sp,16
 4201a44:	e13ffe15 	stw	r4,-8(fp)
 4201a48:	2805883a 	mov	r2,r5
 4201a4c:	e0bfff0d 	sth	r2,-4(fp)
    uint32_t i;

    sdram_clear_text();
 4201a50:	42019cc0 	call	42019cc <sdram_clear_text>

    if (text_len >= TEXT_BUFFER_SIZE) {
 4201a54:	e0bfff0b 	ldhu	r2,-4(fp)
 4201a58:	10840030 	cmpltui	r2,r2,4096
 4201a5c:	1000021e 	bne	r2,zero,4201a68 <sdram_store_text_from_packet+0x34>
        text_len = TEXT_BUFFER_SIZE - 1;
 4201a60:	0083ffc4 	movi	r2,4095
 4201a64:	e0bfff0d 	sth	r2,-4(fp)
    }

    for (i = 0; i < text_len; i++) {
 4201a68:	e03ffc15 	stw	zero,-16(fp)
 4201a6c:	00002a06 	br	4201b18 <sdram_store_text_from_packet+0xe4>
        char c = (char)sdram_read_packet_byte(text_src_offset + i);
 4201a70:	e0fffe17 	ldw	r3,-8(fp)
 4201a74:	e0bffc17 	ldw	r2,-16(fp)
 4201a78:	1885883a 	add	r2,r3,r2
 4201a7c:	1009883a 	mov	r4,r2
 4201a80:	4201bd00 	call	4201bd0 <sdram_read_packet_byte>
 4201a84:	e0bffd05 	stb	r2,-12(fp)

        /* Store display-safe text only. */
        if (c == '\0' || c == '\r' || c == '\n' || c == '\t') {
 4201a88:	e0bffd07 	ldb	r2,-12(fp)
 4201a8c:	10000926 	beq	r2,zero,4201ab4 <sdram_store_text_from_packet+0x80>
 4201a90:	e0bffd07 	ldb	r2,-12(fp)
 4201a94:	10800360 	cmpeqi	r2,r2,13
 4201a98:	1000061e 	bne	r2,zero,4201ab4 <sdram_store_text_from_packet+0x80>
 4201a9c:	e0bffd07 	ldb	r2,-12(fp)
 4201aa0:	108002a0 	cmpeqi	r2,r2,10
 4201aa4:	1000031e 	bne	r2,zero,4201ab4 <sdram_store_text_from_packet+0x80>
 4201aa8:	e0bffd07 	ldb	r2,-12(fp)
 4201aac:	10800258 	cmpnei	r2,r2,9
 4201ab0:	1000021e 	bne	r2,zero,4201abc <sdram_store_text_from_packet+0x88>
            c = ' ';
 4201ab4:	00800804 	movi	r2,32
 4201ab8:	e0bffd05 	stb	r2,-12(fp)
        }
        if (c < 32 || c > 126) {
 4201abc:	e0bffd07 	ldb	r2,-12(fp)
 4201ac0:	10800810 	cmplti	r2,r2,32
 4201ac4:	1000031e 	bne	r2,zero,4201ad4 <sdram_store_text_from_packet+0xa0>
 4201ac8:	e0bffd07 	ldb	r2,-12(fp)
 4201acc:	10801fd8 	cmpnei	r2,r2,127
 4201ad0:	1000021e 	bne	r2,zero,4201adc <sdram_store_text_from_packet+0xa8>
            c = ' ';
 4201ad4:	00800804 	movi	r2,32
 4201ad8:	e0bffd05 	stb	r2,-12(fp)
        }

        IOWR_8DIRECT(TEXT_BUFFER_BASE, i, (uint8_t)c);
 4201adc:	e0fffc17 	ldw	r3,-16(fp)
 4201ae0:	00814834 	movhi	r2,1312
 4201ae4:	1885883a 	add	r2,r3,r2
 4201ae8:	e0fffd03 	ldbu	r3,-12(fp)
 4201aec:	18c03fcc 	andi	r3,r3,255
 4201af0:	10c00025 	stbio	r3,0(r2)
        spi_rx_text[i] = c;
 4201af4:	00810874 	movhi	r2,1057
 4201af8:	1098c104 	addi	r2,r2,25348
 4201afc:	e0fffc17 	ldw	r3,-16(fp)
 4201b00:	10c5883a 	add	r2,r2,r3
 4201b04:	e0fffd03 	ldbu	r3,-12(fp)
 4201b08:	10c00005 	stb	r3,0(r2)

    if (text_len >= TEXT_BUFFER_SIZE) {
        text_len = TEXT_BUFFER_SIZE - 1;
    }

    for (i = 0; i < text_len; i++) {
 4201b0c:	e0bffc17 	ldw	r2,-16(fp)
 4201b10:	10800044 	addi	r2,r2,1
 4201b14:	e0bffc15 	stw	r2,-16(fp)
 4201b18:	e0bfff0b 	ldhu	r2,-4(fp)
 4201b1c:	e0fffc17 	ldw	r3,-16(fp)
 4201b20:	18bfd336 	bltu	r3,r2,4201a70 <__alt_data_end+0xfff01a70>

        IOWR_8DIRECT(TEXT_BUFFER_BASE, i, (uint8_t)c);
        spi_rx_text[i] = c;
    }

    IOWR_8DIRECT(TEXT_BUFFER_BASE, text_len, 0);
 4201b24:	e0ffff0b 	ldhu	r3,-4(fp)
 4201b28:	00814834 	movhi	r2,1312
 4201b2c:	1885883a 	add	r2,r3,r2
 4201b30:	0007883a 	mov	r3,zero
 4201b34:	10c00025 	stbio	r3,0(r2)
    spi_rx_text[text_len] = '\0';
 4201b38:	e0ffff0b 	ldhu	r3,-4(fp)
 4201b3c:	00810874 	movhi	r2,1057
 4201b40:	1098c104 	addi	r2,r2,25348
 4201b44:	10c5883a 	add	r2,r2,r3
 4201b48:	10000005 	stb	zero,0(r2)

    sdram_write_status(STATUS_SPI_RX_COUNT, (uint32_t)text_len);
 4201b4c:	e0bfff0b 	ldhu	r2,-4(fp)
 4201b50:	100b883a 	mov	r5,r2
 4201b54:	01000304 	movi	r4,12
 4201b58:	420198c0 	call	420198c <sdram_write_status>
    sdram_write_status(STATUS_TEXT_READY, text_len > 0 ? 1 : 0);
 4201b5c:	e0bfff0b 	ldhu	r2,-4(fp)
 4201b60:	1004c03a 	cmpne	r2,r2,zero
 4201b64:	10803fcc 	andi	r2,r2,255
 4201b68:	100b883a 	mov	r5,r2
 4201b6c:	0009883a 	mov	r4,zero
 4201b70:	420198c0 	call	420198c <sdram_write_status>
}
 4201b74:	0001883a 	nop
 4201b78:	e037883a 	mov	sp,fp
 4201b7c:	dfc00117 	ldw	ra,4(sp)
 4201b80:	df000017 	ldw	fp,0(sp)
 4201b84:	dec00204 	addi	sp,sp,8
 4201b88:	f800283a 	ret

04201b8c <sdram_store_packet_byte>:

static void sdram_store_packet_byte(uint32_t index, uint8_t value)
{
 4201b8c:	defffd04 	addi	sp,sp,-12
 4201b90:	df000215 	stw	fp,8(sp)
 4201b94:	df000204 	addi	fp,sp,8
 4201b98:	e13ffe15 	stw	r4,-8(fp)
 4201b9c:	2805883a 	mov	r2,r5
 4201ba0:	e0bfff05 	stb	r2,-4(fp)
    IOWR_8DIRECT(SPI_PACKET_BASE, index, value);
 4201ba4:	e0fffe17 	ldw	r3,-8(fp)
 4201ba8:	00814834 	movhi	r2,1312
 4201bac:	10880004 	addi	r2,r2,8192
 4201bb0:	1885883a 	add	r2,r3,r2
 4201bb4:	e0ffff03 	ldbu	r3,-4(fp)
 4201bb8:	10c00025 	stbio	r3,0(r2)
}
 4201bbc:	0001883a 	nop
 4201bc0:	e037883a 	mov	sp,fp
 4201bc4:	df000017 	ldw	fp,0(sp)
 4201bc8:	dec00104 	addi	sp,sp,4
 4201bcc:	f800283a 	ret

04201bd0 <sdram_read_packet_byte>:

static uint8_t sdram_read_packet_byte(uint32_t index)
{
 4201bd0:	defffe04 	addi	sp,sp,-8
 4201bd4:	df000115 	stw	fp,4(sp)
 4201bd8:	df000104 	addi	fp,sp,4
 4201bdc:	e13fff15 	stw	r4,-4(fp)
    return (uint8_t)(IORD_8DIRECT(SPI_PACKET_BASE, index) & 0xFF);
 4201be0:	e0ffff17 	ldw	r3,-4(fp)
 4201be4:	00814834 	movhi	r2,1312
 4201be8:	10880004 	addi	r2,r2,8192
 4201bec:	1885883a 	add	r2,r3,r2
 4201bf0:	10800023 	ldbuio	r2,0(r2)
 4201bf4:	10803fcc 	andi	r2,r2,255
}
 4201bf8:	e037883a 	mov	sp,fp
 4201bfc:	df000017 	ldw	fp,0(sp)
 4201c00:	dec00104 	addi	sp,sp,4
 4201c04:	f800283a 	ret

04201c08 <sdram_clear_packet_region>:

static void sdram_clear_packet_region(uint32_t count)
{
 4201c08:	defffd04 	addi	sp,sp,-12
 4201c0c:	df000215 	stw	fp,8(sp)
 4201c10:	df000204 	addi	fp,sp,8
 4201c14:	e13fff15 	stw	r4,-4(fp)
    uint32_t i;

    if (count > SPI_PACKET_MAX_SIZE) {
 4201c18:	e0bfff17 	ldw	r2,-4(fp)
 4201c1c:	109c0070 	cmpltui	r2,r2,28673
 4201c20:	1000021e 	bne	r2,zero,4201c2c <sdram_clear_packet_region+0x24>
        count = SPI_PACKET_MAX_SIZE;
 4201c24:	009c0004 	movi	r2,28672
 4201c28:	e0bfff15 	stw	r2,-4(fp)
    }

    for (i = 0; i < count; i++) {
 4201c2c:	e03ffe15 	stw	zero,-8(fp)
 4201c30:	00000906 	br	4201c58 <sdram_clear_packet_region+0x50>
        IOWR_8DIRECT(SPI_PACKET_BASE, i, 0);
 4201c34:	e0fffe17 	ldw	r3,-8(fp)
 4201c38:	00814834 	movhi	r2,1312
 4201c3c:	10880004 	addi	r2,r2,8192
 4201c40:	1885883a 	add	r2,r3,r2
 4201c44:	0007883a 	mov	r3,zero
 4201c48:	10c00025 	stbio	r3,0(r2)

    if (count > SPI_PACKET_MAX_SIZE) {
        count = SPI_PACKET_MAX_SIZE;
    }

    for (i = 0; i < count; i++) {
 4201c4c:	e0bffe17 	ldw	r2,-8(fp)
 4201c50:	10800044 	addi	r2,r2,1
 4201c54:	e0bffe15 	stw	r2,-8(fp)
 4201c58:	e0fffe17 	ldw	r3,-8(fp)
 4201c5c:	e0bfff17 	ldw	r2,-4(fp)
 4201c60:	18bff436 	bltu	r3,r2,4201c34 <__alt_data_end+0xfff01c34>
        IOWR_8DIRECT(SPI_PACKET_BASE, i, 0);
    }
}
 4201c64:	0001883a 	nop
 4201c68:	e037883a 	mov	sp,fp
 4201c6c:	df000017 	ldw	fp,0(sp)
 4201c70:	dec00104 	addi	sp,sp,4
 4201c74:	f800283a 	ret

04201c78 <sdram_clear_status_header>:

static void sdram_clear_status_header(void)
{
 4201c78:	defffe04 	addi	sp,sp,-8
 4201c7c:	df000115 	stw	fp,4(sp)
 4201c80:	df000104 	addi	fp,sp,4
    uint32_t i;

    for (i = 0; i < SPI_PACKET_HEADER_SIZE; i++) {
 4201c84:	e03fff15 	stw	zero,-4(fp)
 4201c88:	00000906 	br	4201cb0 <sdram_clear_status_header+0x38>
        IOWR_8DIRECT(STATUS_BASE, i, 0);
 4201c8c:	e0ffff17 	ldw	r3,-4(fp)
 4201c90:	00814874 	movhi	r2,1313
 4201c94:	10a40004 	addi	r2,r2,-28672
 4201c98:	1885883a 	add	r2,r3,r2
 4201c9c:	0007883a 	mov	r3,zero
 4201ca0:	10c00025 	stbio	r3,0(r2)

static void sdram_clear_status_header(void)
{
    uint32_t i;

    for (i = 0; i < SPI_PACKET_HEADER_SIZE; i++) {
 4201ca4:	e0bfff17 	ldw	r2,-4(fp)
 4201ca8:	10800044 	addi	r2,r2,1
 4201cac:	e0bfff15 	stw	r2,-4(fp)
 4201cb0:	e0bfff17 	ldw	r2,-4(fp)
 4201cb4:	10800630 	cmpltui	r2,r2,24
 4201cb8:	103ff41e 	bne	r2,zero,4201c8c <__alt_data_end+0xfff01c8c>
        IOWR_8DIRECT(STATUS_BASE, i, 0);
    }
}
 4201cbc:	0001883a 	nop
 4201cc0:	e037883a 	mov	sp,fp
 4201cc4:	df000017 	ldw	fp,0(sp)
 4201cc8:	dec00104 	addi	sp,sp,4
 4201ccc:	f800283a 	ret

04201cd0 <sdram_store_status_header_from_packet>:

static void sdram_store_status_header_from_packet(void)
{
 4201cd0:	defffc04 	addi	sp,sp,-16
 4201cd4:	dfc00315 	stw	ra,12(sp)
 4201cd8:	df000215 	stw	fp,8(sp)
 4201cdc:	dc000115 	stw	r16,4(sp)
 4201ce0:	df000204 	addi	fp,sp,8
    uint32_t i;

    for (i = 0; i < SPI_PACKET_HEADER_SIZE; i++) {
 4201ce4:	e03ffe15 	stw	zero,-8(fp)
 4201ce8:	00000b06 	br	4201d18 <sdram_store_status_header_from_packet+0x48>
        IOWR_8DIRECT(STATUS_BASE, i, sdram_read_packet_byte(i));
 4201cec:	e0fffe17 	ldw	r3,-8(fp)
 4201cf0:	00814874 	movhi	r2,1313
 4201cf4:	10a40004 	addi	r2,r2,-28672
 4201cf8:	18a1883a 	add	r16,r3,r2
 4201cfc:	e13ffe17 	ldw	r4,-8(fp)
 4201d00:	4201bd00 	call	4201bd0 <sdram_read_packet_byte>
 4201d04:	10803fcc 	andi	r2,r2,255
 4201d08:	80800025 	stbio	r2,0(r16)

static void sdram_store_status_header_from_packet(void)
{
    uint32_t i;

    for (i = 0; i < SPI_PACKET_HEADER_SIZE; i++) {
 4201d0c:	e0bffe17 	ldw	r2,-8(fp)
 4201d10:	10800044 	addi	r2,r2,1
 4201d14:	e0bffe15 	stw	r2,-8(fp)
 4201d18:	e0bffe17 	ldw	r2,-8(fp)
 4201d1c:	10800630 	cmpltui	r2,r2,24
 4201d20:	103ff21e 	bne	r2,zero,4201cec <__alt_data_end+0xfff01cec>
        IOWR_8DIRECT(STATUS_BASE, i, sdram_read_packet_byte(i));
    }
}
 4201d24:	0001883a 	nop
 4201d28:	e6ffff04 	addi	sp,fp,-4
 4201d2c:	dfc00217 	ldw	ra,8(sp)
 4201d30:	df000117 	ldw	fp,4(sp)
 4201d34:	dc000017 	ldw	r16,0(sp)
 4201d38:	dec00304 	addi	sp,sp,12
 4201d3c:	f800283a 	ret

04201d40 <sdram_store_image_byte>:

static void sdram_store_image_byte(uint32_t index, uint8_t value)
{
 4201d40:	defffd04 	addi	sp,sp,-12
 4201d44:	df000215 	stw	fp,8(sp)
 4201d48:	df000204 	addi	fp,sp,8
 4201d4c:	e13ffe15 	stw	r4,-8(fp)
 4201d50:	2805883a 	mov	r2,r5
 4201d54:	e0bfff05 	stb	r2,-4(fp)
    IOWR_8DIRECT(IMAGE_BUFFER_BASE, index, value);
 4201d58:	e0fffe17 	ldw	r3,-8(fp)
 4201d5c:	00814874 	movhi	r2,1313
 4201d60:	10a80004 	addi	r2,r2,-24576
 4201d64:	1885883a 	add	r2,r3,r2
 4201d68:	e0ffff03 	ldbu	r3,-4(fp)
 4201d6c:	10c00025 	stbio	r3,0(r2)
}
 4201d70:	0001883a 	nop
 4201d74:	e037883a 	mov	sp,fp
 4201d78:	df000017 	ldw	fp,0(sp)
 4201d7c:	dec00104 	addi	sp,sp,4
 4201d80:	f800283a 	ret

04201d84 <sdram_clear_image_region>:

static void sdram_clear_image_region(uint32_t count)
{
 4201d84:	defffd04 	addi	sp,sp,-12
 4201d88:	df000215 	stw	fp,8(sp)
 4201d8c:	df000204 	addi	fp,sp,8
 4201d90:	e13fff15 	stw	r4,-4(fp)
    uint32_t i;

    if (count > IMAGE_BUFFER_SIZE) {
 4201d94:	e0bfff17 	ldw	r2,-4(fp)
 4201d98:	10a00070 	cmpltui	r2,r2,32769
 4201d9c:	1000021e 	bne	r2,zero,4201da8 <sdram_clear_image_region+0x24>
        count = IMAGE_BUFFER_SIZE;
 4201da0:	00a00014 	movui	r2,32768
 4201da4:	e0bfff15 	stw	r2,-4(fp)
    }

    for (i = 0; i < count; i++) {
 4201da8:	e03ffe15 	stw	zero,-8(fp)
 4201dac:	00000906 	br	4201dd4 <sdram_clear_image_region+0x50>
        IOWR_8DIRECT(IMAGE_BUFFER_BASE, i, 0);
 4201db0:	e0fffe17 	ldw	r3,-8(fp)
 4201db4:	00814874 	movhi	r2,1313
 4201db8:	10a80004 	addi	r2,r2,-24576
 4201dbc:	1885883a 	add	r2,r3,r2
 4201dc0:	0007883a 	mov	r3,zero
 4201dc4:	10c00025 	stbio	r3,0(r2)

    if (count > IMAGE_BUFFER_SIZE) {
        count = IMAGE_BUFFER_SIZE;
    }

    for (i = 0; i < count; i++) {
 4201dc8:	e0bffe17 	ldw	r2,-8(fp)
 4201dcc:	10800044 	addi	r2,r2,1
 4201dd0:	e0bffe15 	stw	r2,-8(fp)
 4201dd4:	e0fffe17 	ldw	r3,-8(fp)
 4201dd8:	e0bfff17 	ldw	r2,-4(fp)
 4201ddc:	18bff436 	bltu	r3,r2,4201db0 <__alt_data_end+0xfff01db0>
        IOWR_8DIRECT(IMAGE_BUFFER_BASE, i, 0);
    }
}
 4201de0:	0001883a 	nop
 4201de4:	e037883a 	mov	sp,fp
 4201de8:	df000017 	ldw	fp,0(sp)
 4201dec:	dec00104 	addi	sp,sp,4
 4201df0:	f800283a 	ret

04201df4 <spi_init_manual>:
/* =========================
   Basic SPI helpers
   ========================= */

void spi_init_manual(void)
{
 4201df4:	defffe04 	addi	sp,sp,-8
 4201df8:	dfc00115 	stw	ra,4(sp)
 4201dfc:	df000015 	stw	fp,0(sp)
 4201e00:	d839883a 	mov	fp,sp
    IOWR_32DIRECT(SPI_BASE, SPI_SLAVESEL_OFS, SPI_SLAVE_0);
 4201e04:	00c00044 	movi	r3,1
 4201e08:	00a40d14 	movui	r2,36916
 4201e0c:	10c00035 	stwio	r3,0(r2)
    IOWR_32DIRECT(SPI_BASE, SPI_CONTROL_OFS, 0);
 4201e10:	0007883a 	mov	r3,zero
 4201e14:	00a40b14 	movui	r2,36908
 4201e18:	10c00035 	stwio	r3,0(r2)

    latest_packet_length = 0;
 4201e1c:	d026dd15 	stw	zero,-25740(gp)

    sdram_clear_text();
 4201e20:	42019cc0 	call	42019cc <sdram_clear_text>
    sdram_clear_packet_region(256);
 4201e24:	01004004 	movi	r4,256
 4201e28:	4201c080 	call	4201c08 <sdram_clear_packet_region>
    sdram_clear_status_header();
 4201e2c:	4201c780 	call	4201c78 <sdram_clear_status_header>
    sdram_clear_image_region(IMAGE_BUFFER_SIZE);
 4201e30:	01200014 	movui	r4,32768
 4201e34:	4201d840 	call	4201d84 <sdram_clear_image_region>

    sdram_write_status(STATUS_TEXT_READY, 0);
 4201e38:	000b883a 	mov	r5,zero
 4201e3c:	0009883a 	mov	r4,zero
 4201e40:	420198c0 	call	420198c <sdram_write_status>
    sdram_write_status(STATUS_CMD_READY, 0);
 4201e44:	000b883a 	mov	r5,zero
 4201e48:	01000104 	movi	r4,4
 4201e4c:	420198c0 	call	420198c <sdram_write_status>
    sdram_write_status(STATUS_CMD_ACK, 0);
 4201e50:	000b883a 	mov	r5,zero
 4201e54:	01000204 	movi	r4,8
 4201e58:	420198c0 	call	420198c <sdram_write_status>
    sdram_write_status(STATUS_SPI_RX_COUNT, 0);
 4201e5c:	000b883a 	mov	r5,zero
 4201e60:	01000304 	movi	r4,12
 4201e64:	420198c0 	call	420198c <sdram_write_status>
    sdram_write_status(STATUS_LAST_ERROR, 0);
 4201e68:	000b883a 	mov	r5,zero
 4201e6c:	01000404 	movi	r4,16
 4201e70:	420198c0 	call	420198c <sdram_write_status>
    sdram_write_status(STATUS_PACKET_READY, 0);
 4201e74:	000b883a 	mov	r5,zero
 4201e78:	01000504 	movi	r4,20
 4201e7c:	420198c0 	call	420198c <sdram_write_status>
    sdram_write_status(STATUS_PACKET_LENGTH, 0);
 4201e80:	000b883a 	mov	r5,zero
 4201e84:	01000604 	movi	r4,24
 4201e88:	420198c0 	call	420198c <sdram_write_status>
    sdram_write_status(STATUS_IMAGE_LENGTH, 0);
 4201e8c:	000b883a 	mov	r5,zero
 4201e90:	01000704 	movi	r4,28
 4201e94:	420198c0 	call	420198c <sdram_write_status>
    sdram_write_status(STATUS_TEXT_LENGTH, 0);
 4201e98:	000b883a 	mov	r5,zero
 4201e9c:	01000804 	movi	r4,32
 4201ea0:	420198c0 	call	420198c <sdram_write_status>
    sdram_write_status(STATUS_LINE_COUNT, 0);
 4201ea4:	000b883a 	mov	r5,zero
 4201ea8:	01000904 	movi	r4,36
 4201eac:	420198c0 	call	420198c <sdram_write_status>
    sdram_write_status(STATUS_IMAGE_WIDTH, 0);
 4201eb0:	000b883a 	mov	r5,zero
 4201eb4:	01000a04 	movi	r4,40
 4201eb8:	420198c0 	call	420198c <sdram_write_status>
    sdram_write_status(STATUS_IMAGE_HEIGHT, 0);
 4201ebc:	000b883a 	mov	r5,zero
 4201ec0:	01000b04 	movi	r4,44
 4201ec4:	420198c0 	call	420198c <sdram_write_status>
}
 4201ec8:	0001883a 	nop
 4201ecc:	e037883a 	mov	sp,fp
 4201ed0:	dfc00117 	ldw	ra,4(sp)
 4201ed4:	df000017 	ldw	fp,0(sp)
 4201ed8:	dec00204 	addi	sp,sp,8
 4201edc:	f800283a 	ret

04201ee0 <spi_begin_transaction>:

static void spi_begin_transaction(void)
{
 4201ee0:	deffff04 	addi	sp,sp,-4
 4201ee4:	df000015 	stw	fp,0(sp)
 4201ee8:	d839883a 	mov	fp,sp
    IOWR_32DIRECT(SPI_BASE, SPI_SLAVESEL_OFS, SPI_SLAVE_0);
 4201eec:	00c00044 	movi	r3,1
 4201ef0:	00a40d14 	movui	r2,36916
 4201ef4:	10c00035 	stwio	r3,0(r2)
    IOWR_32DIRECT(SPI_BASE, SPI_CONTROL_OFS, SPI_CONTROL_SSO);
 4201ef8:	00c10004 	movi	r3,1024
 4201efc:	00a40b14 	movui	r2,36908
 4201f00:	10c00035 	stwio	r3,0(r2)
}
 4201f04:	0001883a 	nop
 4201f08:	e037883a 	mov	sp,fp
 4201f0c:	df000017 	ldw	fp,0(sp)
 4201f10:	dec00104 	addi	sp,sp,4
 4201f14:	f800283a 	ret

04201f18 <spi_end_transaction>:

static void spi_end_transaction(void)
{
 4201f18:	deffff04 	addi	sp,sp,-4
 4201f1c:	df000015 	stw	fp,0(sp)
 4201f20:	d839883a 	mov	fp,sp
    IOWR_32DIRECT(SPI_BASE, SPI_CONTROL_OFS, 0);
 4201f24:	0007883a 	mov	r3,zero
 4201f28:	00a40b14 	movui	r2,36908
 4201f2c:	10c00035 	stwio	r3,0(r2)
}
 4201f30:	0001883a 	nop
 4201f34:	e037883a 	mov	sp,fp
 4201f38:	df000017 	ldw	fp,0(sp)
 4201f3c:	dec00104 	addi	sp,sp,4
 4201f40:	f800283a 	ret

04201f44 <spi_transfer_byte>:

static uint8_t spi_transfer_byte(uint8_t tx_byte)
{
 4201f44:	defffd04 	addi	sp,sp,-12
 4201f48:	df000215 	stw	fp,8(sp)
 4201f4c:	df000204 	addi	fp,sp,8
 4201f50:	2005883a 	mov	r2,r4
 4201f54:	e0bfff05 	stb	r2,-4(fp)
    uint8_t rx_byte;

    while (!(IORD_32DIRECT(SPI_BASE, SPI_STATUS_OFS) & SPI_STATUS_TRDY));
 4201f58:	0001883a 	nop
 4201f5c:	00a40a14 	movui	r2,36904
 4201f60:	10800037 	ldwio	r2,0(r2)
 4201f64:	1080100c 	andi	r2,r2,64
 4201f68:	103ffc26 	beq	r2,zero,4201f5c <__alt_data_end+0xfff01f5c>

    IOWR_32DIRECT(SPI_BASE, SPI_TXDATA_OFS, tx_byte);
 4201f6c:	e0ffff03 	ldbu	r3,-4(fp)
 4201f70:	00a40914 	movui	r2,36900
 4201f74:	10c00035 	stwio	r3,0(r2)

    while (!(IORD_32DIRECT(SPI_BASE, SPI_STATUS_OFS) & SPI_STATUS_RRDY));
 4201f78:	0001883a 	nop
 4201f7c:	00a40a14 	movui	r2,36904
 4201f80:	10800037 	ldwio	r2,0(r2)
 4201f84:	1080200c 	andi	r2,r2,128
 4201f88:	103ffc26 	beq	r2,zero,4201f7c <__alt_data_end+0xfff01f7c>

    rx_byte = (uint8_t)(IORD_32DIRECT(SPI_BASE, SPI_RXDATA_OFS) & 0xFF);
 4201f8c:	00a40814 	movui	r2,36896
 4201f90:	10800037 	ldwio	r2,0(r2)
 4201f94:	e0bffe05 	stb	r2,-8(fp)

    return rx_byte;
 4201f98:	e0bffe03 	ldbu	r2,-8(fp)
}
 4201f9c:	e037883a 	mov	sp,fp
 4201fa0:	df000017 	ldw	fp,0(sp)
 4201fa4:	dec00104 	addi	sp,sp,4
 4201fa8:	f800283a 	ret

04201fac <store_text_and_metadata_from_packet>:
/* =========================
   Packet metadata + text/image store
   ========================= */

static int store_text_and_metadata_from_packet(uint32_t packet_len)
{
 4201fac:	deffee04 	addi	sp,sp,-72
 4201fb0:	dfc01115 	stw	ra,68(sp)
 4201fb4:	df001015 	stw	fp,64(sp)
 4201fb8:	df001004 	addi	fp,sp,64
 4201fbc:	e13fff15 	stw	r4,-4(fp)
    uint16_t line_count;
    uint32_t image_len;
    uint16_t header_len;
    uint8_t status;

    if (packet_len < SPI_PACKET_HEADER_SIZE) {
 4201fc0:	e0bfff17 	ldw	r2,-4(fp)
 4201fc4:	10800628 	cmpgeui	r2,r2,24
 4201fc8:	1000081e 	bne	r2,zero,4201fec <store_text_and_metadata_from_packet+0x40>
        printf("SPI error: packet too short\n");
 4201fcc:	01010874 	movhi	r4,1057
 4201fd0:	21089904 	addi	r4,r4,8804
 4201fd4:	420408c0 	call	420408c <puts>
        sdram_write_status(STATUS_LAST_ERROR, 2);
 4201fd8:	01400084 	movi	r5,2
 4201fdc:	01000404 	movi	r4,16
 4201fe0:	420198c0 	call	420198c <sdram_write_status>
        return 0;
 4201fe4:	0005883a 	mov	r2,zero
 4201fe8:	0000bc06 	br	42022dc <store_text_and_metadata_from_packet+0x330>
    }

    for (i = 0; i < SPI_PACKET_HEADER_SIZE; i++) {
 4201fec:	e03ff015 	stw	zero,-64(fp)
 4201ff0:	00000a06 	br	420201c <store_text_and_metadata_from_packet+0x70>
        header[i] = sdram_read_packet_byte(i);
 4201ff4:	e13ff017 	ldw	r4,-64(fp)
 4201ff8:	4201bd00 	call	4201bd0 <sdram_read_packet_byte>
 4201ffc:	1009883a 	mov	r4,r2
 4202000:	e0fff904 	addi	r3,fp,-28
 4202004:	e0bff017 	ldw	r2,-64(fp)
 4202008:	1885883a 	add	r2,r3,r2
 420200c:	11000005 	stb	r4,0(r2)
        printf("SPI error: packet too short\n");
        sdram_write_status(STATUS_LAST_ERROR, 2);
        return 0;
    }

    for (i = 0; i < SPI_PACKET_HEADER_SIZE; i++) {
 4202010:	e0bff017 	ldw	r2,-64(fp)
 4202014:	10800044 	addi	r2,r2,1
 4202018:	e0bff015 	stw	r2,-64(fp)
 420201c:	e0bff017 	ldw	r2,-64(fp)
 4202020:	10800630 	cmpltui	r2,r2,24
 4202024:	103ff31e 	bne	r2,zero,4201ff4 <__alt_data_end+0xfff01ff4>
        header[i] = sdram_read_packet_byte(i);
    }

    if (header[0] != SPI_PACKET_MAGIC0 || header[1] != SPI_PACKET_MAGIC1) {
 4202028:	e0bff903 	ldbu	r2,-28(fp)
 420202c:	10803fcc 	andi	r2,r2,255
 4202030:	108011d8 	cmpnei	r2,r2,71
 4202034:	1000041e 	bne	r2,zero,4202048 <store_text_and_metadata_from_packet+0x9c>
 4202038:	e0bff943 	ldbu	r2,-27(fp)
 420203c:	10803fcc 	andi	r2,r2,255
 4202040:	108015a0 	cmpeqi	r2,r2,86
 4202044:	1000081e 	bne	r2,zero,4202068 <store_text_and_metadata_from_packet+0xbc>
        printf("SPI error: bad packet magic\n");
 4202048:	01010874 	movhi	r4,1057
 420204c:	2108a004 	addi	r4,r4,8832
 4202050:	420408c0 	call	420408c <puts>
        sdram_write_status(STATUS_LAST_ERROR, 3);
 4202054:	014000c4 	movi	r5,3
 4202058:	01000404 	movi	r4,16
 420205c:	420198c0 	call	420198c <sdram_write_status>
        return 0;
 4202060:	0005883a 	mov	r2,zero
 4202064:	00009d06 	br	42022dc <store_text_and_metadata_from_packet+0x330>
    }

    status     = header[3];
 4202068:	e0bff9c3 	ldbu	r2,-25(fp)
 420206c:	e0bff305 	stb	r2,-52(fp)
    total_len  = read_u32_le(&header[4]);
 4202070:	e0bff904 	addi	r2,fp,-28
 4202074:	10800104 	addi	r2,r2,4
 4202078:	1009883a 	mov	r4,r2
 420207c:	42018e80 	call	42018e8 <read_u32_le>
 4202080:	e0bff415 	stw	r2,-48(fp)
    text_len   = read_u16_le(&header[8]);
 4202084:	e0bff904 	addi	r2,fp,-28
 4202088:	10800204 	addi	r2,r2,8
 420208c:	1009883a 	mov	r4,r2
 4202090:	42018a40 	call	42018a4 <read_u16_le>
 4202094:	e0bff50d 	sth	r2,-44(fp)
    image_w    = read_u16_le(&header[10]);
 4202098:	e0bff904 	addi	r2,fp,-28
 420209c:	10800284 	addi	r2,r2,10
 42020a0:	1009883a 	mov	r4,r2
 42020a4:	42018a40 	call	42018a4 <read_u16_le>
 42020a8:	e0bff58d 	sth	r2,-42(fp)
    image_h    = read_u16_le(&header[12]);
 42020ac:	e0bff904 	addi	r2,fp,-28
 42020b0:	10800304 	addi	r2,r2,12
 42020b4:	1009883a 	mov	r4,r2
 42020b8:	42018a40 	call	42018a4 <read_u16_le>
 42020bc:	e0bff60d 	sth	r2,-40(fp)
    line_count = read_u16_le(&header[14]);
 42020c0:	e0bff904 	addi	r2,fp,-28
 42020c4:	10800384 	addi	r2,r2,14
 42020c8:	1009883a 	mov	r4,r2
 42020cc:	42018a40 	call	42018a4 <read_u16_le>
 42020d0:	e0bff68d 	sth	r2,-38(fp)
    image_len  = read_u32_le(&header[16]);
 42020d4:	e0bff904 	addi	r2,fp,-28
 42020d8:	10800404 	addi	r2,r2,16
 42020dc:	1009883a 	mov	r4,r2
 42020e0:	42018e80 	call	42018e8 <read_u32_le>
 42020e4:	e0bff715 	stw	r2,-36(fp)
    header_len = read_u16_le(&header[20]);
 42020e8:	e0bff904 	addi	r2,fp,-28
 42020ec:	10800504 	addi	r2,r2,20
 42020f0:	1009883a 	mov	r4,r2
 42020f4:	42018a40 	call	42018a4 <read_u16_le>
 42020f8:	e0bff10d 	sth	r2,-60(fp)

    if (header_len == 0) {
 42020fc:	e0bff10b 	ldhu	r2,-60(fp)
 4202100:	1000021e 	bne	r2,zero,420210c <store_text_and_metadata_from_packet+0x160>
        header_len = SPI_PACKET_HEADER_SIZE;
 4202104:	00800604 	movi	r2,24
 4202108:	e0bff10d 	sth	r2,-60(fp)
    }

    if (total_len != packet_len) {
 420210c:	e0fff417 	ldw	r3,-48(fp)
 4202110:	e0bfff17 	ldw	r2,-4(fp)
 4202114:	18800826 	beq	r3,r2,4202138 <store_text_and_metadata_from_packet+0x18c>
        printf("SPI error: packet length mismatch\n");
 4202118:	01010874 	movhi	r4,1057
 420211c:	2108a704 	addi	r4,r4,8860
 4202120:	420408c0 	call	420408c <puts>
        sdram_write_status(STATUS_LAST_ERROR, 4);
 4202124:	01400104 	movi	r5,4
 4202128:	01000404 	movi	r4,16
 420212c:	420198c0 	call	420198c <sdram_write_status>
        return 0;
 4202130:	0005883a 	mov	r2,zero
 4202134:	00006906 	br	42022dc <store_text_and_metadata_from_packet+0x330>
    }

    if ((uint32_t)header_len + (uint32_t)text_len + image_len > packet_len) {
 4202138:	e0fff10b 	ldhu	r3,-60(fp)
 420213c:	e0bff50b 	ldhu	r2,-44(fp)
 4202140:	1887883a 	add	r3,r3,r2
 4202144:	e0bff717 	ldw	r2,-36(fp)
 4202148:	1885883a 	add	r2,r3,r2
 420214c:	e0ffff17 	ldw	r3,-4(fp)
 4202150:	1880082e 	bgeu	r3,r2,4202174 <store_text_and_metadata_from_packet+0x1c8>
        printf("SPI error: invalid text/image length\n");
 4202154:	01010874 	movhi	r4,1057
 4202158:	2108b004 	addi	r4,r4,8896
 420215c:	420408c0 	call	420408c <puts>
        sdram_write_status(STATUS_LAST_ERROR, 5);
 4202160:	01400144 	movi	r5,5
 4202164:	01000404 	movi	r4,16
 4202168:	420198c0 	call	420198c <sdram_write_status>
        return 0;
 420216c:	0005883a 	mov	r2,zero
 4202170:	00005a06 	br	42022dc <store_text_and_metadata_from_packet+0x330>
    }

    /* Copy packet header for VGA/status readers. */
    sdram_store_status_header_from_packet();
 4202174:	4201cd00 	call	4201cd0 <sdram_store_status_header_from_packet>

    /* Store received sentence into TEXT_BUFFER_BASE. */
    sdram_store_text_from_packet(header_len, text_len);
 4202178:	e0bff10b 	ldhu	r2,-60(fp)
 420217c:	e0fff50b 	ldhu	r3,-44(fp)
 4202180:	180b883a 	mov	r5,r3
 4202184:	1009883a 	mov	r4,r2
 4202188:	4201a340 	call	4201a34 <sdram_store_text_from_packet>

    /* Store raw grayscale image into IMAGE_BUFFER_BASE. */
    sdram_clear_image_region(IMAGE_BUFFER_SIZE);
 420218c:	01200014 	movui	r4,32768
 4202190:	4201d840 	call	4201d84 <sdram_clear_image_region>

    if (image_len > 0) {
 4202194:	e0bff717 	ldw	r2,-36(fp)
 4202198:	10001c26 	beq	r2,zero,420220c <store_text_and_metadata_from_packet+0x260>
        uint32_t image_src_offset = (uint32_t)header_len + (uint32_t)text_len;
 420219c:	e0fff10b 	ldhu	r3,-60(fp)
 42021a0:	e0bff50b 	ldhu	r2,-44(fp)
 42021a4:	1885883a 	add	r2,r3,r2
 42021a8:	e0bff815 	stw	r2,-32(fp)
        uint32_t copy_len = image_len;
 42021ac:	e0bff717 	ldw	r2,-36(fp)
 42021b0:	e0bff215 	stw	r2,-56(fp)

        if (copy_len > IMAGE_BUFFER_SIZE) {
 42021b4:	e0bff217 	ldw	r2,-56(fp)
 42021b8:	10a00070 	cmpltui	r2,r2,32769
 42021bc:	1000021e 	bne	r2,zero,42021c8 <store_text_and_metadata_from_packet+0x21c>
            copy_len = IMAGE_BUFFER_SIZE;
 42021c0:	00a00014 	movui	r2,32768
 42021c4:	e0bff215 	stw	r2,-56(fp)
        }

        for (i = 0; i < copy_len; i++) {
 42021c8:	e03ff015 	stw	zero,-64(fp)
 42021cc:	00000c06 	br	4202200 <store_text_and_metadata_from_packet+0x254>
            sdram_store_image_byte(i, sdram_read_packet_byte(image_src_offset + i));
 42021d0:	e0fff817 	ldw	r3,-32(fp)
 42021d4:	e0bff017 	ldw	r2,-64(fp)
 42021d8:	1885883a 	add	r2,r3,r2
 42021dc:	1009883a 	mov	r4,r2
 42021e0:	4201bd00 	call	4201bd0 <sdram_read_packet_byte>
 42021e4:	10803fcc 	andi	r2,r2,255
 42021e8:	100b883a 	mov	r5,r2
 42021ec:	e13ff017 	ldw	r4,-64(fp)
 42021f0:	4201d400 	call	4201d40 <sdram_store_image_byte>

        if (copy_len > IMAGE_BUFFER_SIZE) {
            copy_len = IMAGE_BUFFER_SIZE;
        }

        for (i = 0; i < copy_len; i++) {
 42021f4:	e0bff017 	ldw	r2,-64(fp)
 42021f8:	10800044 	addi	r2,r2,1
 42021fc:	e0bff015 	stw	r2,-64(fp)
 4202200:	e0fff017 	ldw	r3,-64(fp)
 4202204:	e0bff217 	ldw	r2,-56(fp)
 4202208:	18bff136 	bltu	r3,r2,42021d0 <__alt_data_end+0xfff021d0>
            sdram_store_image_byte(i, sdram_read_packet_byte(image_src_offset + i));
        }
    }

    sdram_write_status(STATUS_PACKET_READY, 1);
 420220c:	01400044 	movi	r5,1
 4202210:	01000504 	movi	r4,20
 4202214:	420198c0 	call	420198c <sdram_write_status>
    sdram_write_status(STATUS_PACKET_LENGTH, packet_len);
 4202218:	e17fff17 	ldw	r5,-4(fp)
 420221c:	01000604 	movi	r4,24
 4202220:	420198c0 	call	420198c <sdram_write_status>
    sdram_write_status(STATUS_TEXT_LENGTH, text_len);
 4202224:	e0bff50b 	ldhu	r2,-44(fp)
 4202228:	100b883a 	mov	r5,r2
 420222c:	01000804 	movi	r4,32
 4202230:	420198c0 	call	420198c <sdram_write_status>
    sdram_write_status(STATUS_IMAGE_WIDTH, image_w);
 4202234:	e0bff58b 	ldhu	r2,-42(fp)
 4202238:	100b883a 	mov	r5,r2
 420223c:	01000a04 	movi	r4,40
 4202240:	420198c0 	call	420198c <sdram_write_status>
    sdram_write_status(STATUS_IMAGE_HEIGHT, image_h);
 4202244:	e0bff60b 	ldhu	r2,-40(fp)
 4202248:	100b883a 	mov	r5,r2
 420224c:	01000b04 	movi	r4,44
 4202250:	420198c0 	call	420198c <sdram_write_status>
    sdram_write_status(STATUS_LINE_COUNT, line_count);
 4202254:	e0bff68b 	ldhu	r2,-38(fp)
 4202258:	100b883a 	mov	r5,r2
 420225c:	01000904 	movi	r4,36
 4202260:	420198c0 	call	420198c <sdram_write_status>
    sdram_write_status(STATUS_IMAGE_LENGTH, image_len);
 4202264:	e17ff717 	ldw	r5,-36(fp)
 4202268:	01000704 	movi	r4,28
 420226c:	420198c0 	call	420198c <sdram_write_status>
    sdram_write_status(STATUS_LAST_ERROR, status == 1 ? 0 : status);
 4202270:	e0bff303 	ldbu	r2,-52(fp)
 4202274:	10800060 	cmpeqi	r2,r2,1
 4202278:	1000021e 	bne	r2,zero,4202284 <store_text_and_metadata_from_packet+0x2d8>
 420227c:	e0bff303 	ldbu	r2,-52(fp)
 4202280:	00000106 	br	4202288 <store_text_and_metadata_from_packet+0x2dc>
 4202284:	0005883a 	mov	r2,zero
 4202288:	100b883a 	mov	r5,r2
 420228c:	01000404 	movi	r4,16
 4202290:	420198c0 	call	420198c <sdram_write_status>

    printf("Received sentence: %s\n", spi_rx_text);
 4202294:	01410874 	movhi	r5,1057
 4202298:	2958c104 	addi	r5,r5,25348
 420229c:	01010874 	movhi	r4,1057
 42022a0:	2108ba04 	addi	r4,r4,8936
 42022a4:	4203f900 	call	4203f90 <printf>
    printf("Image stored: %ux%u, %lu bytes\n",
 42022a8:	e0bff58b 	ldhu	r2,-42(fp)
 42022ac:	e0fff60b 	ldhu	r3,-40(fp)
 42022b0:	e1fff717 	ldw	r7,-36(fp)
 42022b4:	180d883a 	mov	r6,r3
 42022b8:	100b883a 	mov	r5,r2
 42022bc:	01010874 	movhi	r4,1057
 42022c0:	2108c004 	addi	r4,r4,8960
 42022c4:	4203f900 	call	4203f90 <printf>
           image_w,
           image_h,
           (unsigned long)image_len);
    fflush(stdout);
 42022c8:	d0a00217 	ldw	r2,-32760(gp)
 42022cc:	10800217 	ldw	r2,8(r2)
 42022d0:	1009883a 	mov	r4,r2
 42022d4:	4202ca00 	call	4202ca0 <fflush>

    return 1;
 42022d8:	00800044 	movi	r2,1
}
 42022dc:	e037883a 	mov	sp,fp
 42022e0:	dfc00117 	ldw	ra,4(sp)
 42022e4:	df000017 	ldw	fp,0(sp)
 42022e8:	dec00204 	addi	sp,sp,8
 42022ec:	f800283a 	ret

042022f0 <spi_send_command4>:
#define SPI_LENGTH_RETRY_COUNT      5
#define SPI_LENGTH_RETRY_DELAY_US   20000
#define SPI_ESP_QUEUE_DELAY_US      50000

static void spi_send_command4(uint8_t cmd)
{
 42022f0:	defffc04 	addi	sp,sp,-16
 42022f4:	dfc00315 	stw	ra,12(sp)
 42022f8:	df000215 	stw	fp,8(sp)
 42022fc:	df000204 	addi	fp,sp,8
 4202300:	2005883a 	mov	r2,r4
 4202304:	e0bfff05 	stb	r2,-4(fp)
    uint32_t i;

    spi_begin_transaction();
 4202308:	4201ee00 	call	4201ee0 <spi_begin_transaction>
    spi_transfer_byte(cmd);
 420230c:	e0bfff03 	ldbu	r2,-4(fp)
 4202310:	1009883a 	mov	r4,r2
 4202314:	4201f440 	call	4201f44 <spi_transfer_byte>
    for (i = 1; i < SPI_COMMAND_BYTES; i++) {
 4202318:	00800044 	movi	r2,1
 420231c:	e0bffe15 	stw	r2,-8(fp)
 4202320:	00000506 	br	4202338 <spi_send_command4+0x48>
        spi_transfer_byte(SPI_DUMMY_BYTE);
 4202324:	0009883a 	mov	r4,zero
 4202328:	4201f440 	call	4201f44 <spi_transfer_byte>
{
    uint32_t i;

    spi_begin_transaction();
    spi_transfer_byte(cmd);
    for (i = 1; i < SPI_COMMAND_BYTES; i++) {
 420232c:	e0bffe17 	ldw	r2,-8(fp)
 4202330:	10800044 	addi	r2,r2,1
 4202334:	e0bffe15 	stw	r2,-8(fp)
 4202338:	e0bffe17 	ldw	r2,-8(fp)
 420233c:	10800130 	cmpltui	r2,r2,4
 4202340:	103ff81e 	bne	r2,zero,4202324 <__alt_data_end+0xfff02324>
        spi_transfer_byte(SPI_DUMMY_BYTE);
    }
    spi_end_transaction();
 4202344:	4201f180 	call	4201f18 <spi_end_transaction>
}
 4202348:	0001883a 	nop
 420234c:	e037883a 	mov	sp,fp
 4202350:	dfc00117 	ldw	ra,4(sp)
 4202354:	df000017 	ldw	fp,0(sp)
 4202358:	dec00204 	addi	sp,sp,8
 420235c:	f800283a 	ret

04202360 <spi_send_session_start>:

void spi_send_session_start(void)
{
 4202360:	defffe04 	addi	sp,sp,-8
 4202364:	dfc00115 	stw	ra,4(sp)
 4202368:	df000015 	stw	fp,0(sp)
 420236c:	d839883a 	mov	fp,sp
	printf("SPI debug: sending 0x5F session-start command to ESP");
 4202370:	01010874 	movhi	r4,1057
 4202374:	2108c804 	addi	r4,r4,8992
 4202378:	4203f900 	call	4203f90 <printf>
    spi_send_command4(SPI_CMD_SESSION_START);
 420237c:	010017c4 	movi	r4,95
 4202380:	42022f00 	call	42022f0 <spi_send_command4>

    /* Give ESP SPI task time to process the start command before packet IRQs. */
    usleep(SPI_ESP_QUEUE_DELAY_US);
 4202384:	0130d414 	movui	r4,50000
 4202388:	420fd140 	call	420fd14 <usleep>
}
 420238c:	0001883a 	nop
 4202390:	e037883a 	mov	sp,fp
 4202394:	dfc00117 	ldw	ra,4(sp)
 4202398:	df000017 	ldw	fp,0(sp)
 420239c:	dec00204 	addi	sp,sp,8
 42023a0:	f800283a 	ret

042023a4 <spi_read_packet_length_once>:

static uint32_t spi_read_packet_length_once(void)
{
 42023a4:	defff404 	addi	sp,sp,-48
 42023a8:	dfc00b15 	stw	ra,44(sp)
 42023ac:	df000a15 	stw	fp,40(sp)
 42023b0:	df000a04 	addi	fp,sp,40
    uint8_t len_bytes[SPI_LEN_READ_BYTES];
    uint32_t i;
    uint32_t len;

    for (i = 0; i < SPI_LEN_READ_BYTES; i++) {
 42023b4:	e03ffc15 	stw	zero,-16(fp)
 42023b8:	00000706 	br	42023d8 <spi_read_packet_length_once+0x34>
        len_bytes[i] = 0;
 42023bc:	e0fffe04 	addi	r3,fp,-8
 42023c0:	e0bffc17 	ldw	r2,-16(fp)
 42023c4:	1885883a 	add	r2,r3,r2
 42023c8:	10000005 	stb	zero,0(r2)
{
    uint8_t len_bytes[SPI_LEN_READ_BYTES];
    uint32_t i;
    uint32_t len;

    for (i = 0; i < SPI_LEN_READ_BYTES; i++) {
 42023cc:	e0bffc17 	ldw	r2,-16(fp)
 42023d0:	10800044 	addi	r2,r2,1
 42023d4:	e0bffc15 	stw	r2,-16(fp)
 42023d8:	e0bffc17 	ldw	r2,-16(fp)
 42023dc:	10800230 	cmpltui	r2,r2,8
 42023e0:	103ff61e 	bne	r2,zero,42023bc <__alt_data_end+0xfff023bc>

    /*
       Phase 1: send command only.
       The ESP receives 0xA1, then queues the length reply transaction.
    */
    spi_send_command4(SPI_CMD_READ_LENGTH);
 42023e4:	01002844 	movi	r4,161
 42023e8:	42022f00 	call	42022f0 <spi_send_command4>

    /*
       ESP32 SPI slave DMA needs time to finish the command transaction
       and queue the next DMA transaction. Too short gives 0xFFFFFFFF.
    */
    usleep(SPI_ESP_QUEUE_DELAY_US);
 42023ec:	0130d414 	movui	r4,50000
 42023f0:	420fd140 	call	420fd14 <usleep>

    /* Phase 2: clock the length reply. */
    spi_begin_transaction();
 42023f4:	4201ee00 	call	4201ee0 <spi_begin_transaction>
    for (i = 0; i < SPI_LEN_READ_BYTES; i++) {
 42023f8:	e03ffc15 	stw	zero,-16(fp)
 42023fc:	00000a06 	br	4202428 <spi_read_packet_length_once+0x84>
        len_bytes[i] = spi_transfer_byte(SPI_DUMMY_BYTE);
 4202400:	0009883a 	mov	r4,zero
 4202404:	4201f440 	call	4201f44 <spi_transfer_byte>
 4202408:	1009883a 	mov	r4,r2
 420240c:	e0fffe04 	addi	r3,fp,-8
 4202410:	e0bffc17 	ldw	r2,-16(fp)
 4202414:	1885883a 	add	r2,r3,r2
 4202418:	11000005 	stb	r4,0(r2)
    */
    usleep(SPI_ESP_QUEUE_DELAY_US);

    /* Phase 2: clock the length reply. */
    spi_begin_transaction();
    for (i = 0; i < SPI_LEN_READ_BYTES; i++) {
 420241c:	e0bffc17 	ldw	r2,-16(fp)
 4202420:	10800044 	addi	r2,r2,1
 4202424:	e0bffc15 	stw	r2,-16(fp)
 4202428:	e0bffc17 	ldw	r2,-16(fp)
 420242c:	10800230 	cmpltui	r2,r2,8
 4202430:	103ff31e 	bne	r2,zero,4202400 <__alt_data_end+0xfff02400>
        len_bytes[i] = spi_transfer_byte(SPI_DUMMY_BYTE);
    }
    spi_end_transaction();
 4202434:	4201f180 	call	4201f18 <spi_end_transaction>

    len = read_u32_le(len_bytes);
 4202438:	e0bffe04 	addi	r2,fp,-8
 420243c:	1009883a 	mov	r4,r2
 4202440:	42018e80 	call	42018e8 <read_u32_le>
 4202444:	e0bffd15 	stw	r2,-12(fp)

    printf("SPI debug: raw length bytes = %02X %02X %02X %02X %02X %02X %02X %02X, len=%lu\n",
           len_bytes[0], len_bytes[1], len_bytes[2], len_bytes[3],
 4202448:	e0bffe03 	ldbu	r2,-8(fp)
    }
    spi_end_transaction();

    len = read_u32_le(len_bytes);

    printf("SPI debug: raw length bytes = %02X %02X %02X %02X %02X %02X %02X %02X, len=%lu\n",
 420244c:	12003fcc 	andi	r8,r2,255
           len_bytes[0], len_bytes[1], len_bytes[2], len_bytes[3],
 4202450:	e0bffe43 	ldbu	r2,-7(fp)
    }
    spi_end_transaction();

    len = read_u32_le(len_bytes);

    printf("SPI debug: raw length bytes = %02X %02X %02X %02X %02X %02X %02X %02X, len=%lu\n",
 4202454:	12403fcc 	andi	r9,r2,255
           len_bytes[0], len_bytes[1], len_bytes[2], len_bytes[3],
 4202458:	e0bffe83 	ldbu	r2,-6(fp)
    }
    spi_end_transaction();

    len = read_u32_le(len_bytes);

    printf("SPI debug: raw length bytes = %02X %02X %02X %02X %02X %02X %02X %02X, len=%lu\n",
 420245c:	12803fcc 	andi	r10,r2,255
           len_bytes[0], len_bytes[1], len_bytes[2], len_bytes[3],
 4202460:	e0bffec3 	ldbu	r2,-5(fp)
    }
    spi_end_transaction();

    len = read_u32_le(len_bytes);

    printf("SPI debug: raw length bytes = %02X %02X %02X %02X %02X %02X %02X %02X, len=%lu\n",
 4202464:	10803fcc 	andi	r2,r2,255
           len_bytes[0], len_bytes[1], len_bytes[2], len_bytes[3],
           len_bytes[4], len_bytes[5], len_bytes[6], len_bytes[7],
 4202468:	e0ffff03 	ldbu	r3,-4(fp)
    }
    spi_end_transaction();

    len = read_u32_le(len_bytes);

    printf("SPI debug: raw length bytes = %02X %02X %02X %02X %02X %02X %02X %02X, len=%lu\n",
 420246c:	18c03fcc 	andi	r3,r3,255
           len_bytes[0], len_bytes[1], len_bytes[2], len_bytes[3],
           len_bytes[4], len_bytes[5], len_bytes[6], len_bytes[7],
 4202470:	e13fff43 	ldbu	r4,-3(fp)
    }
    spi_end_transaction();

    len = read_u32_le(len_bytes);

    printf("SPI debug: raw length bytes = %02X %02X %02X %02X %02X %02X %02X %02X, len=%lu\n",
 4202474:	21003fcc 	andi	r4,r4,255
           len_bytes[0], len_bytes[1], len_bytes[2], len_bytes[3],
           len_bytes[4], len_bytes[5], len_bytes[6], len_bytes[7],
 4202478:	e17fff83 	ldbu	r5,-2(fp)
    }
    spi_end_transaction();

    len = read_u32_le(len_bytes);

    printf("SPI debug: raw length bytes = %02X %02X %02X %02X %02X %02X %02X %02X, len=%lu\n",
 420247c:	29403fcc 	andi	r5,r5,255
           len_bytes[0], len_bytes[1], len_bytes[2], len_bytes[3],
           len_bytes[4], len_bytes[5], len_bytes[6], len_bytes[7],
 4202480:	e1bfffc3 	ldbu	r6,-1(fp)
    }
    spi_end_transaction();

    len = read_u32_le(len_bytes);

    printf("SPI debug: raw length bytes = %02X %02X %02X %02X %02X %02X %02X %02X, len=%lu\n",
 4202484:	31803fcc 	andi	r6,r6,255
 4202488:	e1fffd17 	ldw	r7,-12(fp)
 420248c:	d9c00515 	stw	r7,20(sp)
 4202490:	d9800415 	stw	r6,16(sp)
 4202494:	d9400315 	stw	r5,12(sp)
 4202498:	d9000215 	stw	r4,8(sp)
 420249c:	d8c00115 	stw	r3,4(sp)
 42024a0:	d8800015 	stw	r2,0(sp)
 42024a4:	500f883a 	mov	r7,r10
 42024a8:	480d883a 	mov	r6,r9
 42024ac:	400b883a 	mov	r5,r8
 42024b0:	01010874 	movhi	r4,1057
 42024b4:	2108d604 	addi	r4,r4,9048
 42024b8:	4203f900 	call	4203f90 <printf>
           len_bytes[0], len_bytes[1], len_bytes[2], len_bytes[3],
           len_bytes[4], len_bytes[5], len_bytes[6], len_bytes[7],
           (unsigned long)len);

    if (len == 0xFFFFFFFFu) {
 42024bc:	e0bffd17 	ldw	r2,-12(fp)
 42024c0:	10bfffd8 	cmpnei	r2,r2,-1
 42024c4:	1000021e 	bne	r2,zero,42024d0 <spi_read_packet_length_once+0x12c>
        usleep(SPI_LENGTH_RETRY_DELAY_US);
 42024c8:	01138804 	movi	r4,20000
 42024cc:	420fd140 	call	420fd14 <usleep>
    }

    return len;
 42024d0:	e0bffd17 	ldw	r2,-12(fp)
}
 42024d4:	e037883a 	mov	sp,fp
 42024d8:	dfc00117 	ldw	ra,4(sp)
 42024dc:	df000017 	ldw	fp,0(sp)
 42024e0:	dec00204 	addi	sp,sp,8
 42024e4:	f800283a 	ret

042024e8 <spi_read_packet_bytes>:

static void spi_read_packet_bytes(uint32_t packet_len)
{
 42024e8:	defff204 	addi	sp,sp,-56
 42024ec:	dfc00d15 	stw	ra,52(sp)
 42024f0:	df000c15 	stw	fp,48(sp)
 42024f4:	df000c04 	addi	fp,sp,48
 42024f8:	e13fff15 	stw	r4,-4(fp)
    uint32_t padded_packet_len;
    uint32_t clocks_to_generate;
    uint32_t i;
    uint8_t first_bytes[8];

    for (i = 0; i < 8; i++) {
 42024fc:	e03ff915 	stw	zero,-28(fp)
 4202500:	00000706 	br	4202520 <spi_read_packet_bytes+0x38>
        first_bytes[i] = 0;
 4202504:	e0fffc44 	addi	r3,fp,-15
 4202508:	e0bff917 	ldw	r2,-28(fp)
 420250c:	1885883a 	add	r2,r3,r2
 4202510:	10000005 	stb	zero,0(r2)
    uint32_t padded_packet_len;
    uint32_t clocks_to_generate;
    uint32_t i;
    uint8_t first_bytes[8];

    for (i = 0; i < 8; i++) {
 4202514:	e0bff917 	ldw	r2,-28(fp)
 4202518:	10800044 	addi	r2,r2,1
 420251c:	e0bff915 	stw	r2,-28(fp)
 4202520:	e0bff917 	ldw	r2,-28(fp)
 4202524:	10800230 	cmpltui	r2,r2,8
 4202528:	103ff61e 	bne	r2,zero,4202504 <__alt_data_end+0xfff02504>
        first_bytes[i] = 0;
    }

    padded_packet_len = round_up_4(packet_len);
 420252c:	e13fff17 	ldw	r4,-4(fp)
 4202530:	420195c0 	call	420195c <round_up_4>
 4202534:	e0bffa15 	stw	r2,-24(fp)
    clocks_to_generate = padded_packet_len + SPI_PACKET_READ_EXTRA_BYTES;
 4202538:	e0bffa17 	ldw	r2,-24(fp)
 420253c:	10800104 	addi	r2,r2,4
 4202540:	e0bffb15 	stw	r2,-20(fp)

    printf("SPI debug: sending 0xA2 packet request, expecting %lu bytes\n",
 4202544:	e17fff17 	ldw	r5,-4(fp)
 4202548:	01010874 	movhi	r4,1057
 420254c:	2108ea04 	addi	r4,r4,9128
 4202550:	4203f900 	call	4203f90 <printf>
           (unsigned long)packet_len);

    /* Phase 1: tell ESP we want the packet. */
    spi_send_command4(SPI_CMD_READ_PACKET);
 4202554:	01002884 	movi	r4,162
 4202558:	42022f00 	call	42022f0 <spi_send_command4>

    /* Let ESP queue the packet reply before FPGA starts clocking bytes. */
    usleep(SPI_ESP_QUEUE_DELAY_US);
 420255c:	0130d414 	movui	r4,50000
 4202560:	420fd140 	call	420fd14 <usleep>

    /* Phase 2: clock packet bytes from ESP. */
    spi_begin_transaction();
 4202564:	4201ee00 	call	4201ee0 <spi_begin_transaction>
    for (i = 0; i < clocks_to_generate; i++) {
 4202568:	e03ff915 	stw	zero,-28(fp)
 420256c:	00001506 	br	42025c4 <spi_read_packet_bytes+0xdc>
        uint8_t rx = spi_transfer_byte(SPI_DUMMY_BYTE);
 4202570:	0009883a 	mov	r4,zero
 4202574:	4201f440 	call	4201f44 <spi_transfer_byte>
 4202578:	e0bffc05 	stb	r2,-16(fp)

        if (i < packet_len) {
 420257c:	e0fff917 	ldw	r3,-28(fp)
 4202580:	e0bfff17 	ldw	r2,-4(fp)
 4202584:	1880042e 	bgeu	r3,r2,4202598 <spi_read_packet_bytes+0xb0>
            sdram_store_packet_byte(i, rx);
 4202588:	e0bffc03 	ldbu	r2,-16(fp)
 420258c:	100b883a 	mov	r5,r2
 4202590:	e13ff917 	ldw	r4,-28(fp)
 4202594:	4201b8c0 	call	4201b8c <sdram_store_packet_byte>
        }

        if (i < 8) {
 4202598:	e0bff917 	ldw	r2,-28(fp)
 420259c:	10800228 	cmpgeui	r2,r2,8
 42025a0:	1000051e 	bne	r2,zero,42025b8 <spi_read_packet_bytes+0xd0>
            first_bytes[i] = rx;
 42025a4:	e0fffc44 	addi	r3,fp,-15
 42025a8:	e0bff917 	ldw	r2,-28(fp)
 42025ac:	1885883a 	add	r2,r3,r2
 42025b0:	e0fffc03 	ldbu	r3,-16(fp)
 42025b4:	10c00005 	stb	r3,0(r2)
    /* Let ESP queue the packet reply before FPGA starts clocking bytes. */
    usleep(SPI_ESP_QUEUE_DELAY_US);

    /* Phase 2: clock packet bytes from ESP. */
    spi_begin_transaction();
    for (i = 0; i < clocks_to_generate; i++) {
 42025b8:	e0bff917 	ldw	r2,-28(fp)
 42025bc:	10800044 	addi	r2,r2,1
 42025c0:	e0bff915 	stw	r2,-28(fp)
 42025c4:	e0fff917 	ldw	r3,-28(fp)
 42025c8:	e0bffb17 	ldw	r2,-20(fp)
 42025cc:	18bfe836 	bltu	r3,r2,4202570 <__alt_data_end+0xfff02570>

        if (i < 8) {
            first_bytes[i] = rx;
        }
    }
    spi_end_transaction();
 42025d0:	4201f180 	call	4201f18 <spi_end_transaction>

    printf("SPI debug: first packet bytes = %02X %02X %02X %02X %02X %02X %02X %02X\n",
           first_bytes[0], first_bytes[1], first_bytes[2], first_bytes[3],
 42025d4:	e0bffc43 	ldbu	r2,-15(fp)
            first_bytes[i] = rx;
        }
    }
    spi_end_transaction();

    printf("SPI debug: first packet bytes = %02X %02X %02X %02X %02X %02X %02X %02X\n",
 42025d8:	12003fcc 	andi	r8,r2,255
           first_bytes[0], first_bytes[1], first_bytes[2], first_bytes[3],
 42025dc:	e0bffc83 	ldbu	r2,-14(fp)
            first_bytes[i] = rx;
        }
    }
    spi_end_transaction();

    printf("SPI debug: first packet bytes = %02X %02X %02X %02X %02X %02X %02X %02X\n",
 42025e0:	12403fcc 	andi	r9,r2,255
           first_bytes[0], first_bytes[1], first_bytes[2], first_bytes[3],
 42025e4:	e0bffcc3 	ldbu	r2,-13(fp)
            first_bytes[i] = rx;
        }
    }
    spi_end_transaction();

    printf("SPI debug: first packet bytes = %02X %02X %02X %02X %02X %02X %02X %02X\n",
 42025e8:	11c03fcc 	andi	r7,r2,255
           first_bytes[0], first_bytes[1], first_bytes[2], first_bytes[3],
 42025ec:	e0bffd03 	ldbu	r2,-12(fp)
            first_bytes[i] = rx;
        }
    }
    spi_end_transaction();

    printf("SPI debug: first packet bytes = %02X %02X %02X %02X %02X %02X %02X %02X\n",
 42025f0:	10803fcc 	andi	r2,r2,255
           first_bytes[0], first_bytes[1], first_bytes[2], first_bytes[3],
           first_bytes[4], first_bytes[5], first_bytes[6], first_bytes[7]);
 42025f4:	e0fffd43 	ldbu	r3,-11(fp)
            first_bytes[i] = rx;
        }
    }
    spi_end_transaction();

    printf("SPI debug: first packet bytes = %02X %02X %02X %02X %02X %02X %02X %02X\n",
 42025f8:	18c03fcc 	andi	r3,r3,255
           first_bytes[0], first_bytes[1], first_bytes[2], first_bytes[3],
           first_bytes[4], first_bytes[5], first_bytes[6], first_bytes[7]);
 42025fc:	e13ffd83 	ldbu	r4,-10(fp)
            first_bytes[i] = rx;
        }
    }
    spi_end_transaction();

    printf("SPI debug: first packet bytes = %02X %02X %02X %02X %02X %02X %02X %02X\n",
 4202600:	21003fcc 	andi	r4,r4,255
           first_bytes[0], first_bytes[1], first_bytes[2], first_bytes[3],
           first_bytes[4], first_bytes[5], first_bytes[6], first_bytes[7]);
 4202604:	e17ffdc3 	ldbu	r5,-9(fp)
            first_bytes[i] = rx;
        }
    }
    spi_end_transaction();

    printf("SPI debug: first packet bytes = %02X %02X %02X %02X %02X %02X %02X %02X\n",
 4202608:	29403fcc 	andi	r5,r5,255
           first_bytes[0], first_bytes[1], first_bytes[2], first_bytes[3],
           first_bytes[4], first_bytes[5], first_bytes[6], first_bytes[7]);
 420260c:	e1bffe03 	ldbu	r6,-8(fp)
            first_bytes[i] = rx;
        }
    }
    spi_end_transaction();

    printf("SPI debug: first packet bytes = %02X %02X %02X %02X %02X %02X %02X %02X\n",
 4202610:	31803fcc 	andi	r6,r6,255
 4202614:	d9800415 	stw	r6,16(sp)
 4202618:	d9400315 	stw	r5,12(sp)
 420261c:	d9000215 	stw	r4,8(sp)
 4202620:	d8c00115 	stw	r3,4(sp)
 4202624:	d8800015 	stw	r2,0(sp)
 4202628:	480d883a 	mov	r6,r9
 420262c:	400b883a 	mov	r5,r8
 4202630:	01010874 	movhi	r4,1057
 4202634:	2108fa04 	addi	r4,r4,9192
 4202638:	4203f900 	call	4203f90 <printf>
           first_bytes[0], first_bytes[1], first_bytes[2], first_bytes[3],
           first_bytes[4], first_bytes[5], first_bytes[6], first_bytes[7]);
}
 420263c:	0001883a 	nop
 4202640:	e037883a 	mov	sp,fp
 4202644:	dfc00117 	ldw	ra,4(sp)
 4202648:	df000017 	ldw	fp,0(sp)
 420264c:	dec00204 	addi	sp,sp,8
 4202650:	f800283a 	ret

04202654 <spi_abort_packet_on_esp>:

static void spi_abort_packet_on_esp(void)
{
 4202654:	defffe04 	addi	sp,sp,-8
 4202658:	dfc00115 	stw	ra,4(sp)
 420265c:	df000015 	stw	fp,0(sp)
 4202660:	d839883a 	mov	fp,sp
    printf("SPI debug: sending 0xA3 abort/reset packet command to ESP\n");
 4202664:	01010874 	movhi	r4,1057
 4202668:	21090d04 	addi	r4,r4,9268
 420266c:	420408c0 	call	420408c <puts>
    spi_send_command4(SPI_CMD_ABORT_PACKET);
 4202670:	010028c4 	movi	r4,163
 4202674:	42022f00 	call	42022f0 <spi_send_command4>
    usleep(SPI_ESP_QUEUE_DELAY_US);
 4202678:	0130d414 	movui	r4,50000
 420267c:	420fd140 	call	420fd14 <usleep>
}
 4202680:	0001883a 	nop
 4202684:	e037883a 	mov	sp,fp
 4202688:	dfc00117 	ldw	ra,4(sp)
 420268c:	df000017 	ldw	fp,0(sp)
 4202690:	dec00204 	addi	sp,sp,8
 4202694:	f800283a 	ret

04202698 <spi_request_text_from_esp>:
/* =========================
   Main SPI request function
   ========================= */

void spi_request_text_from_esp(void)
{
 4202698:	defffc04 	addi	sp,sp,-16
 420269c:	dfc00315 	stw	ra,12(sp)
 42026a0:	df000215 	stw	fp,8(sp)
 42026a4:	df000204 	addi	fp,sp,8
    uint32_t packet_len;
    uint32_t attempt;

    latest_packet_length = 0;
 42026a8:	d026dd15 	stw	zero,-25740(gp)
    sdram_write_status(STATUS_TEXT_READY, 0);
 42026ac:	000b883a 	mov	r5,zero
 42026b0:	0009883a 	mov	r4,zero
 42026b4:	420198c0 	call	420198c <sdram_write_status>
    sdram_write_status(STATUS_PACKET_READY, 0);
 42026b8:	000b883a 	mov	r5,zero
 42026bc:	01000504 	movi	r4,20
 42026c0:	420198c0 	call	420198c <sdram_write_status>
    sdram_write_status(STATUS_LAST_ERROR, 0);
 42026c4:	000b883a 	mov	r5,zero
 42026c8:	01000404 	movi	r4,16
 42026cc:	420198c0 	call	420198c <sdram_write_status>
       Realtime mode:
       No 0x5F trigger and no 5 second wait.
       ESP_DATA_READY already means the ESP has a packet prepared.
       FPGA only clocks SPI to read length + packet.
    */
    packet_len = 0;
 42026d0:	e03ffe15 	stw	zero,-8(fp)

    for (attempt = 1; attempt <= SPI_LENGTH_RETRY_COUNT; attempt++) {
 42026d4:	00800044 	movi	r2,1
 42026d8:	e0bfff15 	stw	r2,-4(fp)
 42026dc:	00000e06 	br	4202718 <spi_request_text_from_esp+0x80>
        packet_len = spi_read_packet_length_once();
 42026e0:	42023a40 	call	42023a4 <spi_read_packet_length_once>
 42026e4:	e0bffe15 	stw	r2,-8(fp)
        latest_packet_length = packet_len;
 42026e8:	e0bffe17 	ldw	r2,-8(fp)
 42026ec:	d0a6dd15 	stw	r2,-25740(gp)

        if (packet_len != 0 && packet_len != 0xFFFFFFFFu) {
 42026f0:	e0bffe17 	ldw	r2,-8(fp)
 42026f4:	10000326 	beq	r2,zero,4202704 <spi_request_text_from_esp+0x6c>
 42026f8:	e0bffe17 	ldw	r2,-8(fp)
 42026fc:	10bfffe0 	cmpeqi	r2,r2,-1
 4202700:	10000926 	beq	r2,zero,4202728 <spi_request_text_from_esp+0x90>
            break;
        }

        usleep(SPI_LENGTH_RETRY_DELAY_US);
 4202704:	01138804 	movi	r4,20000
 4202708:	420fd140 	call	420fd14 <usleep>
       ESP_DATA_READY already means the ESP has a packet prepared.
       FPGA only clocks SPI to read length + packet.
    */
    packet_len = 0;

    for (attempt = 1; attempt <= SPI_LENGTH_RETRY_COUNT; attempt++) {
 420270c:	e0bfff17 	ldw	r2,-4(fp)
 4202710:	10800044 	addi	r2,r2,1
 4202714:	e0bfff15 	stw	r2,-4(fp)
 4202718:	e0bfff17 	ldw	r2,-4(fp)
 420271c:	108001b0 	cmpltui	r2,r2,6
 4202720:	103fef1e 	bne	r2,zero,42026e0 <__alt_data_end+0xfff026e0>
 4202724:	00000106 	br	420272c <spi_request_text_from_esp+0x94>
        packet_len = spi_read_packet_length_once();
        latest_packet_length = packet_len;

        if (packet_len != 0 && packet_len != 0xFFFFFFFFu) {
            break;
 4202728:	0001883a 	nop
        }

        usleep(SPI_LENGTH_RETRY_DELAY_US);
    }

    if (packet_len == 0) {
 420272c:	e0bffe17 	ldw	r2,-8(fp)
 4202730:	1000091e 	bne	r2,zero,4202758 <spi_request_text_from_esp+0xc0>
        printf("SPI error: ESP_DATA_READY high but packet length is 0\n");
 4202734:	01010874 	movhi	r4,1057
 4202738:	21091c04 	addi	r4,r4,9328
 420273c:	420408c0 	call	420408c <puts>
        sdram_write_status(STATUS_LAST_ERROR, 6);
 4202740:	01400184 	movi	r5,6
 4202744:	01000404 	movi	r4,16
 4202748:	420198c0 	call	420198c <sdram_write_status>
        latest_packet_length = 0;
 420274c:	d026dd15 	stw	zero,-25740(gp)
        spi_abort_packet_on_esp();
 4202750:	42026540 	call	4202654 <spi_abort_packet_on_esp>
        return;
 4202754:	00003106 	br	420281c <spi_request_text_from_esp+0x184>
    }

    if (packet_len == 0xFFFFFFFFu) {
 4202758:	e0bffe17 	ldw	r2,-8(fp)
 420275c:	10bfffd8 	cmpnei	r2,r2,-1
 4202760:	1000141e 	bne	r2,zero,42027b4 <spi_request_text_from_esp+0x11c>
        static uint32_t invalid_ff_count = 0;

        invalid_ff_count++;
 4202764:	d0a6de17 	ldw	r2,-25736(gp)
 4202768:	10800044 	addi	r2,r2,1
 420276c:	d0a6de15 	stw	r2,-25736(gp)

        if ((invalid_ff_count % 20) == 1) {
 4202770:	d0a6de17 	ldw	r2,-25736(gp)
 4202774:	01400504 	movi	r5,20
 4202778:	1009883a 	mov	r4,r2
 420277c:	42029d00 	call	42029d0 <__umodsi3>
 4202780:	10800058 	cmpnei	r2,r2,1
 4202784:	1000031e 	bne	r2,zero,4202794 <spi_request_text_from_esp+0xfc>
            printf("SPI waiting: invalid length 0xFFFFFFFF, ESP reply not queued yet\n");
 4202788:	01010874 	movhi	r4,1057
 420278c:	21092a04 	addi	r4,r4,9384
 4202790:	420408c0 	call	420408c <puts>
        }

        sdram_write_status(STATUS_LAST_ERROR, 8);
 4202794:	01400204 	movi	r5,8
 4202798:	01000404 	movi	r4,16
 420279c:	420198c0 	call	420198c <sdram_write_status>
        latest_packet_length = 0;
 42027a0:	d026dd15 	stw	zero,-25740(gp)
        spi_abort_packet_on_esp();
 42027a4:	42026540 	call	4202654 <spi_abort_packet_on_esp>

        /* Prevent tight retry spam while ESP_DATA_READY is still high. */
        usleep(50000);
 42027a8:	0130d414 	movui	r4,50000
 42027ac:	420fd140 	call	420fd14 <usleep>
        return;
 42027b0:	00001a06 	br	420281c <spi_request_text_from_esp+0x184>
    }

    if (packet_len > SPI_PACKET_MAX_SIZE) {
 42027b4:	e0bffe17 	ldw	r2,-8(fp)
 42027b8:	109c0070 	cmpltui	r2,r2,28673
 42027bc:	1000091e 	bne	r2,zero,42027e4 <spi_request_text_from_esp+0x14c>
        printf("SPI error: packet too large\n");
 42027c0:	01010874 	movhi	r4,1057
 42027c4:	21093b04 	addi	r4,r4,9452
 42027c8:	420408c0 	call	420408c <puts>
        sdram_write_status(STATUS_LAST_ERROR, 7);
 42027cc:	014001c4 	movi	r5,7
 42027d0:	01000404 	movi	r4,16
 42027d4:	420198c0 	call	420198c <sdram_write_status>
        latest_packet_length = 0;
 42027d8:	d026dd15 	stw	zero,-25740(gp)
        spi_abort_packet_on_esp();
 42027dc:	42026540 	call	4202654 <spi_abort_packet_on_esp>
        return;
 42027e0:	00000e06 	br	420281c <spi_request_text_from_esp+0x184>
    }

    sdram_clear_packet_region(packet_len + SPI_PACKET_READ_EXTRA_BYTES);
 42027e4:	e0bffe17 	ldw	r2,-8(fp)
 42027e8:	10800104 	addi	r2,r2,4
 42027ec:	1009883a 	mov	r4,r2
 42027f0:	4201c080 	call	4201c08 <sdram_clear_packet_region>
    spi_read_packet_bytes(packet_len);
 42027f4:	e13ffe17 	ldw	r4,-8(fp)
 42027f8:	42024e80 	call	42024e8 <spi_read_packet_bytes>

    if (!store_text_and_metadata_from_packet(packet_len)) {
 42027fc:	e13ffe17 	ldw	r4,-8(fp)
 4202800:	4201fac0 	call	4201fac <store_text_and_metadata_from_packet>
 4202804:	1000031e 	bne	r2,zero,4202814 <spi_request_text_from_esp+0x17c>
        latest_packet_length = 0;
 4202808:	d026dd15 	stw	zero,-25740(gp)
        spi_abort_packet_on_esp();
 420280c:	42026540 	call	4202654 <spi_abort_packet_on_esp>
        return;
 4202810:	00000206 	br	420281c <spi_request_text_from_esp+0x184>
    }

    latest_packet_length = packet_len;
 4202814:	e0bffe17 	ldw	r2,-8(fp)
 4202818:	d0a6dd15 	stw	r2,-25740(gp)
}
 420281c:	e037883a 	mov	sp,fp
 4202820:	dfc00117 	ldw	ra,4(sp)
 4202824:	df000017 	ldw	fp,0(sp)
 4202828:	dec00204 	addi	sp,sp,8
 420282c:	f800283a 	ret

04202830 <spi_get_latest_text>:

const char *spi_get_latest_text(void)
{
 4202830:	deffff04 	addi	sp,sp,-4
 4202834:	df000015 	stw	fp,0(sp)
 4202838:	d839883a 	mov	fp,sp
    return spi_rx_text;
 420283c:	00810874 	movhi	r2,1057
 4202840:	1098c104 	addi	r2,r2,25348
}
 4202844:	e037883a 	mov	sp,fp
 4202848:	df000017 	ldw	fp,0(sp)
 420284c:	dec00104 	addi	sp,sp,4
 4202850:	f800283a 	ret

04202854 <spi_get_latest_packet_length>:

uint32_t spi_get_latest_packet_length(void)
{
 4202854:	deffff04 	addi	sp,sp,-4
 4202858:	df000015 	stw	fp,0(sp)
 420285c:	d839883a 	mov	fp,sp
    return latest_packet_length;
 4202860:	d0a6dd17 	ldw	r2,-25740(gp)
}
 4202864:	e037883a 	mov	sp,fp
 4202868:	df000017 	ldw	fp,0(sp)
 420286c:	dec00104 	addi	sp,sp,4
 4202870:	f800283a 	ret

04202874 <__divsi3>:
 4202874:	20001b16 	blt	r4,zero,42028e4 <__divsi3+0x70>
 4202878:	000f883a 	mov	r7,zero
 420287c:	28001616 	blt	r5,zero,42028d8 <__divsi3+0x64>
 4202880:	200d883a 	mov	r6,r4
 4202884:	29001a2e 	bgeu	r5,r4,42028f0 <__divsi3+0x7c>
 4202888:	00800804 	movi	r2,32
 420288c:	00c00044 	movi	r3,1
 4202890:	00000106 	br	4202898 <__divsi3+0x24>
 4202894:	10000d26 	beq	r2,zero,42028cc <__divsi3+0x58>
 4202898:	294b883a 	add	r5,r5,r5
 420289c:	10bfffc4 	addi	r2,r2,-1
 42028a0:	18c7883a 	add	r3,r3,r3
 42028a4:	293ffb36 	bltu	r5,r4,4202894 <__alt_data_end+0xfff02894>
 42028a8:	0005883a 	mov	r2,zero
 42028ac:	18000726 	beq	r3,zero,42028cc <__divsi3+0x58>
 42028b0:	0005883a 	mov	r2,zero
 42028b4:	31400236 	bltu	r6,r5,42028c0 <__divsi3+0x4c>
 42028b8:	314dc83a 	sub	r6,r6,r5
 42028bc:	10c4b03a 	or	r2,r2,r3
 42028c0:	1806d07a 	srli	r3,r3,1
 42028c4:	280ad07a 	srli	r5,r5,1
 42028c8:	183ffa1e 	bne	r3,zero,42028b4 <__alt_data_end+0xfff028b4>
 42028cc:	38000126 	beq	r7,zero,42028d4 <__divsi3+0x60>
 42028d0:	0085c83a 	sub	r2,zero,r2
 42028d4:	f800283a 	ret
 42028d8:	014bc83a 	sub	r5,zero,r5
 42028dc:	39c0005c 	xori	r7,r7,1
 42028e0:	003fe706 	br	4202880 <__alt_data_end+0xfff02880>
 42028e4:	0109c83a 	sub	r4,zero,r4
 42028e8:	01c00044 	movi	r7,1
 42028ec:	003fe306 	br	420287c <__alt_data_end+0xfff0287c>
 42028f0:	00c00044 	movi	r3,1
 42028f4:	003fee06 	br	42028b0 <__alt_data_end+0xfff028b0>

042028f8 <__modsi3>:
 42028f8:	20001716 	blt	r4,zero,4202958 <__modsi3+0x60>
 42028fc:	000f883a 	mov	r7,zero
 4202900:	2005883a 	mov	r2,r4
 4202904:	28001216 	blt	r5,zero,4202950 <__modsi3+0x58>
 4202908:	2900162e 	bgeu	r5,r4,4202964 <__modsi3+0x6c>
 420290c:	01800804 	movi	r6,32
 4202910:	00c00044 	movi	r3,1
 4202914:	00000106 	br	420291c <__modsi3+0x24>
 4202918:	30000a26 	beq	r6,zero,4202944 <__modsi3+0x4c>
 420291c:	294b883a 	add	r5,r5,r5
 4202920:	31bfffc4 	addi	r6,r6,-1
 4202924:	18c7883a 	add	r3,r3,r3
 4202928:	293ffb36 	bltu	r5,r4,4202918 <__alt_data_end+0xfff02918>
 420292c:	18000526 	beq	r3,zero,4202944 <__modsi3+0x4c>
 4202930:	1806d07a 	srli	r3,r3,1
 4202934:	11400136 	bltu	r2,r5,420293c <__modsi3+0x44>
 4202938:	1145c83a 	sub	r2,r2,r5
 420293c:	280ad07a 	srli	r5,r5,1
 4202940:	183ffb1e 	bne	r3,zero,4202930 <__alt_data_end+0xfff02930>
 4202944:	38000126 	beq	r7,zero,420294c <__modsi3+0x54>
 4202948:	0085c83a 	sub	r2,zero,r2
 420294c:	f800283a 	ret
 4202950:	014bc83a 	sub	r5,zero,r5
 4202954:	003fec06 	br	4202908 <__alt_data_end+0xfff02908>
 4202958:	0109c83a 	sub	r4,zero,r4
 420295c:	01c00044 	movi	r7,1
 4202960:	003fe706 	br	4202900 <__alt_data_end+0xfff02900>
 4202964:	00c00044 	movi	r3,1
 4202968:	003ff106 	br	4202930 <__alt_data_end+0xfff02930>

0420296c <__udivsi3>:
 420296c:	200d883a 	mov	r6,r4
 4202970:	2900152e 	bgeu	r5,r4,42029c8 <__udivsi3+0x5c>
 4202974:	28001416 	blt	r5,zero,42029c8 <__udivsi3+0x5c>
 4202978:	00800804 	movi	r2,32
 420297c:	00c00044 	movi	r3,1
 4202980:	00000206 	br	420298c <__udivsi3+0x20>
 4202984:	10000e26 	beq	r2,zero,42029c0 <__udivsi3+0x54>
 4202988:	28000516 	blt	r5,zero,42029a0 <__udivsi3+0x34>
 420298c:	294b883a 	add	r5,r5,r5
 4202990:	10bfffc4 	addi	r2,r2,-1
 4202994:	18c7883a 	add	r3,r3,r3
 4202998:	293ffa36 	bltu	r5,r4,4202984 <__alt_data_end+0xfff02984>
 420299c:	18000826 	beq	r3,zero,42029c0 <__udivsi3+0x54>
 42029a0:	0005883a 	mov	r2,zero
 42029a4:	31400236 	bltu	r6,r5,42029b0 <__udivsi3+0x44>
 42029a8:	314dc83a 	sub	r6,r6,r5
 42029ac:	10c4b03a 	or	r2,r2,r3
 42029b0:	1806d07a 	srli	r3,r3,1
 42029b4:	280ad07a 	srli	r5,r5,1
 42029b8:	183ffa1e 	bne	r3,zero,42029a4 <__alt_data_end+0xfff029a4>
 42029bc:	f800283a 	ret
 42029c0:	0005883a 	mov	r2,zero
 42029c4:	f800283a 	ret
 42029c8:	00c00044 	movi	r3,1
 42029cc:	003ff406 	br	42029a0 <__alt_data_end+0xfff029a0>

042029d0 <__umodsi3>:
 42029d0:	2005883a 	mov	r2,r4
 42029d4:	2900122e 	bgeu	r5,r4,4202a20 <__umodsi3+0x50>
 42029d8:	28001116 	blt	r5,zero,4202a20 <__umodsi3+0x50>
 42029dc:	01800804 	movi	r6,32
 42029e0:	00c00044 	movi	r3,1
 42029e4:	00000206 	br	42029f0 <__umodsi3+0x20>
 42029e8:	30000c26 	beq	r6,zero,4202a1c <__umodsi3+0x4c>
 42029ec:	28000516 	blt	r5,zero,4202a04 <__umodsi3+0x34>
 42029f0:	294b883a 	add	r5,r5,r5
 42029f4:	31bfffc4 	addi	r6,r6,-1
 42029f8:	18c7883a 	add	r3,r3,r3
 42029fc:	293ffa36 	bltu	r5,r4,42029e8 <__alt_data_end+0xfff029e8>
 4202a00:	18000626 	beq	r3,zero,4202a1c <__umodsi3+0x4c>
 4202a04:	1806d07a 	srli	r3,r3,1
 4202a08:	11400136 	bltu	r2,r5,4202a10 <__umodsi3+0x40>
 4202a0c:	1145c83a 	sub	r2,r2,r5
 4202a10:	280ad07a 	srli	r5,r5,1
 4202a14:	183ffb1e 	bne	r3,zero,4202a04 <__alt_data_end+0xfff02a04>
 4202a18:	f800283a 	ret
 4202a1c:	f800283a 	ret
 4202a20:	00c00044 	movi	r3,1
 4202a24:	003ff706 	br	4202a04 <__alt_data_end+0xfff02a04>

04202a28 <__sflush_r>:
 4202a28:	2880030b 	ldhu	r2,12(r5)
 4202a2c:	defffb04 	addi	sp,sp,-20
 4202a30:	dcc00315 	stw	r19,12(sp)
 4202a34:	dc400115 	stw	r17,4(sp)
 4202a38:	dfc00415 	stw	ra,16(sp)
 4202a3c:	dc800215 	stw	r18,8(sp)
 4202a40:	dc000015 	stw	r16,0(sp)
 4202a44:	10c0020c 	andi	r3,r2,8
 4202a48:	2823883a 	mov	r17,r5
 4202a4c:	2027883a 	mov	r19,r4
 4202a50:	1800311e 	bne	r3,zero,4202b18 <__sflush_r+0xf0>
 4202a54:	28c00117 	ldw	r3,4(r5)
 4202a58:	10820014 	ori	r2,r2,2048
 4202a5c:	2880030d 	sth	r2,12(r5)
 4202a60:	00c04b0e 	bge	zero,r3,4202b90 <__sflush_r+0x168>
 4202a64:	8a000a17 	ldw	r8,40(r17)
 4202a68:	40002326 	beq	r8,zero,4202af8 <__sflush_r+0xd0>
 4202a6c:	9c000017 	ldw	r16,0(r19)
 4202a70:	10c4000c 	andi	r3,r2,4096
 4202a74:	98000015 	stw	zero,0(r19)
 4202a78:	18004826 	beq	r3,zero,4202b9c <__sflush_r+0x174>
 4202a7c:	89801417 	ldw	r6,80(r17)
 4202a80:	10c0010c 	andi	r3,r2,4
 4202a84:	18000626 	beq	r3,zero,4202aa0 <__sflush_r+0x78>
 4202a88:	88c00117 	ldw	r3,4(r17)
 4202a8c:	88800c17 	ldw	r2,48(r17)
 4202a90:	30cdc83a 	sub	r6,r6,r3
 4202a94:	10000226 	beq	r2,zero,4202aa0 <__sflush_r+0x78>
 4202a98:	88800f17 	ldw	r2,60(r17)
 4202a9c:	308dc83a 	sub	r6,r6,r2
 4202aa0:	89400717 	ldw	r5,28(r17)
 4202aa4:	000f883a 	mov	r7,zero
 4202aa8:	9809883a 	mov	r4,r19
 4202aac:	403ee83a 	callr	r8
 4202ab0:	00ffffc4 	movi	r3,-1
 4202ab4:	10c04426 	beq	r2,r3,4202bc8 <__sflush_r+0x1a0>
 4202ab8:	88c0030b 	ldhu	r3,12(r17)
 4202abc:	89000417 	ldw	r4,16(r17)
 4202ac0:	88000115 	stw	zero,4(r17)
 4202ac4:	197dffcc 	andi	r5,r3,63487
 4202ac8:	8940030d 	sth	r5,12(r17)
 4202acc:	89000015 	stw	r4,0(r17)
 4202ad0:	18c4000c 	andi	r3,r3,4096
 4202ad4:	18002c1e 	bne	r3,zero,4202b88 <__sflush_r+0x160>
 4202ad8:	89400c17 	ldw	r5,48(r17)
 4202adc:	9c000015 	stw	r16,0(r19)
 4202ae0:	28000526 	beq	r5,zero,4202af8 <__sflush_r+0xd0>
 4202ae4:	88801004 	addi	r2,r17,64
 4202ae8:	28800226 	beq	r5,r2,4202af4 <__sflush_r+0xcc>
 4202aec:	9809883a 	mov	r4,r19
 4202af0:	42031940 	call	4203194 <_free_r>
 4202af4:	88000c15 	stw	zero,48(r17)
 4202af8:	0005883a 	mov	r2,zero
 4202afc:	dfc00417 	ldw	ra,16(sp)
 4202b00:	dcc00317 	ldw	r19,12(sp)
 4202b04:	dc800217 	ldw	r18,8(sp)
 4202b08:	dc400117 	ldw	r17,4(sp)
 4202b0c:	dc000017 	ldw	r16,0(sp)
 4202b10:	dec00504 	addi	sp,sp,20
 4202b14:	f800283a 	ret
 4202b18:	2c800417 	ldw	r18,16(r5)
 4202b1c:	903ff626 	beq	r18,zero,4202af8 <__alt_data_end+0xfff02af8>
 4202b20:	2c000017 	ldw	r16,0(r5)
 4202b24:	108000cc 	andi	r2,r2,3
 4202b28:	2c800015 	stw	r18,0(r5)
 4202b2c:	84a1c83a 	sub	r16,r16,r18
 4202b30:	1000131e 	bne	r2,zero,4202b80 <__sflush_r+0x158>
 4202b34:	28800517 	ldw	r2,20(r5)
 4202b38:	88800215 	stw	r2,8(r17)
 4202b3c:	04000316 	blt	zero,r16,4202b4c <__sflush_r+0x124>
 4202b40:	003fed06 	br	4202af8 <__alt_data_end+0xfff02af8>
 4202b44:	90a5883a 	add	r18,r18,r2
 4202b48:	043feb0e 	bge	zero,r16,4202af8 <__alt_data_end+0xfff02af8>
 4202b4c:	88800917 	ldw	r2,36(r17)
 4202b50:	89400717 	ldw	r5,28(r17)
 4202b54:	800f883a 	mov	r7,r16
 4202b58:	900d883a 	mov	r6,r18
 4202b5c:	9809883a 	mov	r4,r19
 4202b60:	103ee83a 	callr	r2
 4202b64:	80a1c83a 	sub	r16,r16,r2
 4202b68:	00bff616 	blt	zero,r2,4202b44 <__alt_data_end+0xfff02b44>
 4202b6c:	88c0030b 	ldhu	r3,12(r17)
 4202b70:	00bfffc4 	movi	r2,-1
 4202b74:	18c01014 	ori	r3,r3,64
 4202b78:	88c0030d 	sth	r3,12(r17)
 4202b7c:	003fdf06 	br	4202afc <__alt_data_end+0xfff02afc>
 4202b80:	0005883a 	mov	r2,zero
 4202b84:	003fec06 	br	4202b38 <__alt_data_end+0xfff02b38>
 4202b88:	88801415 	stw	r2,80(r17)
 4202b8c:	003fd206 	br	4202ad8 <__alt_data_end+0xfff02ad8>
 4202b90:	28c00f17 	ldw	r3,60(r5)
 4202b94:	00ffb316 	blt	zero,r3,4202a64 <__alt_data_end+0xfff02a64>
 4202b98:	003fd706 	br	4202af8 <__alt_data_end+0xfff02af8>
 4202b9c:	89400717 	ldw	r5,28(r17)
 4202ba0:	000d883a 	mov	r6,zero
 4202ba4:	01c00044 	movi	r7,1
 4202ba8:	9809883a 	mov	r4,r19
 4202bac:	403ee83a 	callr	r8
 4202bb0:	100d883a 	mov	r6,r2
 4202bb4:	00bfffc4 	movi	r2,-1
 4202bb8:	30801426 	beq	r6,r2,4202c0c <__sflush_r+0x1e4>
 4202bbc:	8880030b 	ldhu	r2,12(r17)
 4202bc0:	8a000a17 	ldw	r8,40(r17)
 4202bc4:	003fae06 	br	4202a80 <__alt_data_end+0xfff02a80>
 4202bc8:	98c00017 	ldw	r3,0(r19)
 4202bcc:	183fba26 	beq	r3,zero,4202ab8 <__alt_data_end+0xfff02ab8>
 4202bd0:	01000744 	movi	r4,29
 4202bd4:	19000626 	beq	r3,r4,4202bf0 <__sflush_r+0x1c8>
 4202bd8:	01000584 	movi	r4,22
 4202bdc:	19000426 	beq	r3,r4,4202bf0 <__sflush_r+0x1c8>
 4202be0:	88c0030b 	ldhu	r3,12(r17)
 4202be4:	18c01014 	ori	r3,r3,64
 4202be8:	88c0030d 	sth	r3,12(r17)
 4202bec:	003fc306 	br	4202afc <__alt_data_end+0xfff02afc>
 4202bf0:	8880030b 	ldhu	r2,12(r17)
 4202bf4:	88c00417 	ldw	r3,16(r17)
 4202bf8:	88000115 	stw	zero,4(r17)
 4202bfc:	10bdffcc 	andi	r2,r2,63487
 4202c00:	8880030d 	sth	r2,12(r17)
 4202c04:	88c00015 	stw	r3,0(r17)
 4202c08:	003fb306 	br	4202ad8 <__alt_data_end+0xfff02ad8>
 4202c0c:	98800017 	ldw	r2,0(r19)
 4202c10:	103fea26 	beq	r2,zero,4202bbc <__alt_data_end+0xfff02bbc>
 4202c14:	00c00744 	movi	r3,29
 4202c18:	10c00226 	beq	r2,r3,4202c24 <__sflush_r+0x1fc>
 4202c1c:	00c00584 	movi	r3,22
 4202c20:	10c0031e 	bne	r2,r3,4202c30 <__sflush_r+0x208>
 4202c24:	9c000015 	stw	r16,0(r19)
 4202c28:	0005883a 	mov	r2,zero
 4202c2c:	003fb306 	br	4202afc <__alt_data_end+0xfff02afc>
 4202c30:	88c0030b 	ldhu	r3,12(r17)
 4202c34:	3005883a 	mov	r2,r6
 4202c38:	18c01014 	ori	r3,r3,64
 4202c3c:	88c0030d 	sth	r3,12(r17)
 4202c40:	003fae06 	br	4202afc <__alt_data_end+0xfff02afc>

04202c44 <_fflush_r>:
 4202c44:	defffd04 	addi	sp,sp,-12
 4202c48:	dc000115 	stw	r16,4(sp)
 4202c4c:	dfc00215 	stw	ra,8(sp)
 4202c50:	2021883a 	mov	r16,r4
 4202c54:	20000226 	beq	r4,zero,4202c60 <_fflush_r+0x1c>
 4202c58:	20800e17 	ldw	r2,56(r4)
 4202c5c:	10000c26 	beq	r2,zero,4202c90 <_fflush_r+0x4c>
 4202c60:	2880030f 	ldh	r2,12(r5)
 4202c64:	1000051e 	bne	r2,zero,4202c7c <_fflush_r+0x38>
 4202c68:	0005883a 	mov	r2,zero
 4202c6c:	dfc00217 	ldw	ra,8(sp)
 4202c70:	dc000117 	ldw	r16,4(sp)
 4202c74:	dec00304 	addi	sp,sp,12
 4202c78:	f800283a 	ret
 4202c7c:	8009883a 	mov	r4,r16
 4202c80:	dfc00217 	ldw	ra,8(sp)
 4202c84:	dc000117 	ldw	r16,4(sp)
 4202c88:	dec00304 	addi	sp,sp,12
 4202c8c:	4202a281 	jmpi	4202a28 <__sflush_r>
 4202c90:	d9400015 	stw	r5,0(sp)
 4202c94:	42030200 	call	4203020 <__sinit>
 4202c98:	d9400017 	ldw	r5,0(sp)
 4202c9c:	003ff006 	br	4202c60 <__alt_data_end+0xfff02c60>

04202ca0 <fflush>:
 4202ca0:	20000526 	beq	r4,zero,4202cb8 <fflush+0x18>
 4202ca4:	00810874 	movhi	r2,1057
 4202ca8:	10915604 	addi	r2,r2,17752
 4202cac:	200b883a 	mov	r5,r4
 4202cb0:	11000017 	ldw	r4,0(r2)
 4202cb4:	4202c441 	jmpi	4202c44 <_fflush_r>
 4202cb8:	00810874 	movhi	r2,1057
 4202cbc:	10915504 	addi	r2,r2,17748
 4202cc0:	11000017 	ldw	r4,0(r2)
 4202cc4:	01410834 	movhi	r5,1056
 4202cc8:	294b1104 	addi	r5,r5,11332
 4202ccc:	42035681 	jmpi	4203568 <_fwalk_reent>

04202cd0 <__fp_unlock>:
 4202cd0:	0005883a 	mov	r2,zero
 4202cd4:	f800283a 	ret

04202cd8 <_cleanup_r>:
 4202cd8:	01410874 	movhi	r5,1057
 4202cdc:	29603e04 	addi	r5,r5,-32520
 4202ce0:	42035681 	jmpi	4203568 <_fwalk_reent>

04202ce4 <__sinit.part.1>:
 4202ce4:	defff704 	addi	sp,sp,-36
 4202ce8:	00c10834 	movhi	r3,1056
 4202cec:	dfc00815 	stw	ra,32(sp)
 4202cf0:	ddc00715 	stw	r23,28(sp)
 4202cf4:	dd800615 	stw	r22,24(sp)
 4202cf8:	dd400515 	stw	r21,20(sp)
 4202cfc:	dd000415 	stw	r20,16(sp)
 4202d00:	dcc00315 	stw	r19,12(sp)
 4202d04:	dc800215 	stw	r18,8(sp)
 4202d08:	dc400115 	stw	r17,4(sp)
 4202d0c:	dc000015 	stw	r16,0(sp)
 4202d10:	18cb3604 	addi	r3,r3,11480
 4202d14:	24000117 	ldw	r16,4(r4)
 4202d18:	20c00f15 	stw	r3,60(r4)
 4202d1c:	2080bb04 	addi	r2,r4,748
 4202d20:	00c000c4 	movi	r3,3
 4202d24:	20c0b915 	stw	r3,740(r4)
 4202d28:	2080ba15 	stw	r2,744(r4)
 4202d2c:	2000b815 	stw	zero,736(r4)
 4202d30:	05c00204 	movi	r23,8
 4202d34:	00800104 	movi	r2,4
 4202d38:	2025883a 	mov	r18,r4
 4202d3c:	b80d883a 	mov	r6,r23
 4202d40:	81001704 	addi	r4,r16,92
 4202d44:	000b883a 	mov	r5,zero
 4202d48:	80000015 	stw	zero,0(r16)
 4202d4c:	80000115 	stw	zero,4(r16)
 4202d50:	80000215 	stw	zero,8(r16)
 4202d54:	8080030d 	sth	r2,12(r16)
 4202d58:	80001915 	stw	zero,100(r16)
 4202d5c:	8000038d 	sth	zero,14(r16)
 4202d60:	80000415 	stw	zero,16(r16)
 4202d64:	80000515 	stw	zero,20(r16)
 4202d68:	80000615 	stw	zero,24(r16)
 4202d6c:	4203e380 	call	4203e38 <memset>
 4202d70:	05810834 	movhi	r22,1056
 4202d74:	94400217 	ldw	r17,8(r18)
 4202d78:	05410834 	movhi	r21,1056
 4202d7c:	05010834 	movhi	r20,1056
 4202d80:	04c10834 	movhi	r19,1056
 4202d84:	b5903d04 	addi	r22,r22,16628
 4202d88:	ad505404 	addi	r21,r21,16720
 4202d8c:	a5107304 	addi	r20,r20,16844
 4202d90:	9cd08a04 	addi	r19,r19,16936
 4202d94:	85800815 	stw	r22,32(r16)
 4202d98:	85400915 	stw	r21,36(r16)
 4202d9c:	85000a15 	stw	r20,40(r16)
 4202da0:	84c00b15 	stw	r19,44(r16)
 4202da4:	84000715 	stw	r16,28(r16)
 4202da8:	00800284 	movi	r2,10
 4202dac:	8880030d 	sth	r2,12(r17)
 4202db0:	00800044 	movi	r2,1
 4202db4:	b80d883a 	mov	r6,r23
 4202db8:	89001704 	addi	r4,r17,92
 4202dbc:	000b883a 	mov	r5,zero
 4202dc0:	88000015 	stw	zero,0(r17)
 4202dc4:	88000115 	stw	zero,4(r17)
 4202dc8:	88000215 	stw	zero,8(r17)
 4202dcc:	88001915 	stw	zero,100(r17)
 4202dd0:	8880038d 	sth	r2,14(r17)
 4202dd4:	88000415 	stw	zero,16(r17)
 4202dd8:	88000515 	stw	zero,20(r17)
 4202ddc:	88000615 	stw	zero,24(r17)
 4202de0:	4203e380 	call	4203e38 <memset>
 4202de4:	94000317 	ldw	r16,12(r18)
 4202de8:	00800484 	movi	r2,18
 4202dec:	8c400715 	stw	r17,28(r17)
 4202df0:	8d800815 	stw	r22,32(r17)
 4202df4:	8d400915 	stw	r21,36(r17)
 4202df8:	8d000a15 	stw	r20,40(r17)
 4202dfc:	8cc00b15 	stw	r19,44(r17)
 4202e00:	8080030d 	sth	r2,12(r16)
 4202e04:	00800084 	movi	r2,2
 4202e08:	80000015 	stw	zero,0(r16)
 4202e0c:	80000115 	stw	zero,4(r16)
 4202e10:	80000215 	stw	zero,8(r16)
 4202e14:	80001915 	stw	zero,100(r16)
 4202e18:	8080038d 	sth	r2,14(r16)
 4202e1c:	80000415 	stw	zero,16(r16)
 4202e20:	80000515 	stw	zero,20(r16)
 4202e24:	80000615 	stw	zero,24(r16)
 4202e28:	b80d883a 	mov	r6,r23
 4202e2c:	000b883a 	mov	r5,zero
 4202e30:	81001704 	addi	r4,r16,92
 4202e34:	4203e380 	call	4203e38 <memset>
 4202e38:	00800044 	movi	r2,1
 4202e3c:	84000715 	stw	r16,28(r16)
 4202e40:	85800815 	stw	r22,32(r16)
 4202e44:	85400915 	stw	r21,36(r16)
 4202e48:	85000a15 	stw	r20,40(r16)
 4202e4c:	84c00b15 	stw	r19,44(r16)
 4202e50:	90800e15 	stw	r2,56(r18)
 4202e54:	dfc00817 	ldw	ra,32(sp)
 4202e58:	ddc00717 	ldw	r23,28(sp)
 4202e5c:	dd800617 	ldw	r22,24(sp)
 4202e60:	dd400517 	ldw	r21,20(sp)
 4202e64:	dd000417 	ldw	r20,16(sp)
 4202e68:	dcc00317 	ldw	r19,12(sp)
 4202e6c:	dc800217 	ldw	r18,8(sp)
 4202e70:	dc400117 	ldw	r17,4(sp)
 4202e74:	dc000017 	ldw	r16,0(sp)
 4202e78:	dec00904 	addi	sp,sp,36
 4202e7c:	f800283a 	ret

04202e80 <__fp_lock>:
 4202e80:	0005883a 	mov	r2,zero
 4202e84:	f800283a 	ret

04202e88 <__sfmoreglue>:
 4202e88:	defffc04 	addi	sp,sp,-16
 4202e8c:	dc400115 	stw	r17,4(sp)
 4202e90:	2c7fffc4 	addi	r17,r5,-1
 4202e94:	8c401a24 	muli	r17,r17,104
 4202e98:	dc800215 	stw	r18,8(sp)
 4202e9c:	2825883a 	mov	r18,r5
 4202ea0:	89401d04 	addi	r5,r17,116
 4202ea4:	dc000015 	stw	r16,0(sp)
 4202ea8:	dfc00315 	stw	ra,12(sp)
 4202eac:	420362c0 	call	420362c <_malloc_r>
 4202eb0:	1021883a 	mov	r16,r2
 4202eb4:	10000726 	beq	r2,zero,4202ed4 <__sfmoreglue+0x4c>
 4202eb8:	11000304 	addi	r4,r2,12
 4202ebc:	10000015 	stw	zero,0(r2)
 4202ec0:	14800115 	stw	r18,4(r2)
 4202ec4:	11000215 	stw	r4,8(r2)
 4202ec8:	89801a04 	addi	r6,r17,104
 4202ecc:	000b883a 	mov	r5,zero
 4202ed0:	4203e380 	call	4203e38 <memset>
 4202ed4:	8005883a 	mov	r2,r16
 4202ed8:	dfc00317 	ldw	ra,12(sp)
 4202edc:	dc800217 	ldw	r18,8(sp)
 4202ee0:	dc400117 	ldw	r17,4(sp)
 4202ee4:	dc000017 	ldw	r16,0(sp)
 4202ee8:	dec00404 	addi	sp,sp,16
 4202eec:	f800283a 	ret

04202ef0 <__sfp>:
 4202ef0:	defffb04 	addi	sp,sp,-20
 4202ef4:	dc000015 	stw	r16,0(sp)
 4202ef8:	04010874 	movhi	r16,1057
 4202efc:	84115504 	addi	r16,r16,17748
 4202f00:	dcc00315 	stw	r19,12(sp)
 4202f04:	2027883a 	mov	r19,r4
 4202f08:	81000017 	ldw	r4,0(r16)
 4202f0c:	dfc00415 	stw	ra,16(sp)
 4202f10:	dc800215 	stw	r18,8(sp)
 4202f14:	20800e17 	ldw	r2,56(r4)
 4202f18:	dc400115 	stw	r17,4(sp)
 4202f1c:	1000021e 	bne	r2,zero,4202f28 <__sfp+0x38>
 4202f20:	4202ce40 	call	4202ce4 <__sinit.part.1>
 4202f24:	81000017 	ldw	r4,0(r16)
 4202f28:	2480b804 	addi	r18,r4,736
 4202f2c:	047fffc4 	movi	r17,-1
 4202f30:	91000117 	ldw	r4,4(r18)
 4202f34:	94000217 	ldw	r16,8(r18)
 4202f38:	213fffc4 	addi	r4,r4,-1
 4202f3c:	20000a16 	blt	r4,zero,4202f68 <__sfp+0x78>
 4202f40:	8080030f 	ldh	r2,12(r16)
 4202f44:	10000c26 	beq	r2,zero,4202f78 <__sfp+0x88>
 4202f48:	80c01d04 	addi	r3,r16,116
 4202f4c:	00000206 	br	4202f58 <__sfp+0x68>
 4202f50:	18bfe60f 	ldh	r2,-104(r3)
 4202f54:	10000826 	beq	r2,zero,4202f78 <__sfp+0x88>
 4202f58:	213fffc4 	addi	r4,r4,-1
 4202f5c:	1c3ffd04 	addi	r16,r3,-12
 4202f60:	18c01a04 	addi	r3,r3,104
 4202f64:	247ffa1e 	bne	r4,r17,4202f50 <__alt_data_end+0xfff02f50>
 4202f68:	90800017 	ldw	r2,0(r18)
 4202f6c:	10001d26 	beq	r2,zero,4202fe4 <__sfp+0xf4>
 4202f70:	1025883a 	mov	r18,r2
 4202f74:	003fee06 	br	4202f30 <__alt_data_end+0xfff02f30>
 4202f78:	00bfffc4 	movi	r2,-1
 4202f7c:	8080038d 	sth	r2,14(r16)
 4202f80:	00800044 	movi	r2,1
 4202f84:	8080030d 	sth	r2,12(r16)
 4202f88:	80001915 	stw	zero,100(r16)
 4202f8c:	80000015 	stw	zero,0(r16)
 4202f90:	80000215 	stw	zero,8(r16)
 4202f94:	80000115 	stw	zero,4(r16)
 4202f98:	80000415 	stw	zero,16(r16)
 4202f9c:	80000515 	stw	zero,20(r16)
 4202fa0:	80000615 	stw	zero,24(r16)
 4202fa4:	01800204 	movi	r6,8
 4202fa8:	000b883a 	mov	r5,zero
 4202fac:	81001704 	addi	r4,r16,92
 4202fb0:	4203e380 	call	4203e38 <memset>
 4202fb4:	8005883a 	mov	r2,r16
 4202fb8:	80000c15 	stw	zero,48(r16)
 4202fbc:	80000d15 	stw	zero,52(r16)
 4202fc0:	80001115 	stw	zero,68(r16)
 4202fc4:	80001215 	stw	zero,72(r16)
 4202fc8:	dfc00417 	ldw	ra,16(sp)
 4202fcc:	dcc00317 	ldw	r19,12(sp)
 4202fd0:	dc800217 	ldw	r18,8(sp)
 4202fd4:	dc400117 	ldw	r17,4(sp)
 4202fd8:	dc000017 	ldw	r16,0(sp)
 4202fdc:	dec00504 	addi	sp,sp,20
 4202fe0:	f800283a 	ret
 4202fe4:	01400104 	movi	r5,4
 4202fe8:	9809883a 	mov	r4,r19
 4202fec:	4202e880 	call	4202e88 <__sfmoreglue>
 4202ff0:	90800015 	stw	r2,0(r18)
 4202ff4:	103fde1e 	bne	r2,zero,4202f70 <__alt_data_end+0xfff02f70>
 4202ff8:	00800304 	movi	r2,12
 4202ffc:	98800015 	stw	r2,0(r19)
 4203000:	0005883a 	mov	r2,zero
 4203004:	003ff006 	br	4202fc8 <__alt_data_end+0xfff02fc8>

04203008 <_cleanup>:
 4203008:	00810874 	movhi	r2,1057
 420300c:	10915504 	addi	r2,r2,17748
 4203010:	11000017 	ldw	r4,0(r2)
 4203014:	01410874 	movhi	r5,1057
 4203018:	29603e04 	addi	r5,r5,-32520
 420301c:	42035681 	jmpi	4203568 <_fwalk_reent>

04203020 <__sinit>:
 4203020:	20800e17 	ldw	r2,56(r4)
 4203024:	10000126 	beq	r2,zero,420302c <__sinit+0xc>
 4203028:	f800283a 	ret
 420302c:	4202ce41 	jmpi	4202ce4 <__sinit.part.1>

04203030 <__sfp_lock_acquire>:
 4203030:	f800283a 	ret

04203034 <__sfp_lock_release>:
 4203034:	f800283a 	ret

04203038 <__sinit_lock_acquire>:
 4203038:	f800283a 	ret

0420303c <__sinit_lock_release>:
 420303c:	f800283a 	ret

04203040 <__fp_lock_all>:
 4203040:	00810874 	movhi	r2,1057
 4203044:	10915604 	addi	r2,r2,17752
 4203048:	11000017 	ldw	r4,0(r2)
 420304c:	01410834 	movhi	r5,1056
 4203050:	294ba004 	addi	r5,r5,11904
 4203054:	42034a41 	jmpi	42034a4 <_fwalk>

04203058 <__fp_unlock_all>:
 4203058:	00810874 	movhi	r2,1057
 420305c:	10915604 	addi	r2,r2,17752
 4203060:	11000017 	ldw	r4,0(r2)
 4203064:	01410834 	movhi	r5,1056
 4203068:	294b3404 	addi	r5,r5,11472
 420306c:	42034a41 	jmpi	42034a4 <_fwalk>

04203070 <_malloc_trim_r>:
 4203070:	defffb04 	addi	sp,sp,-20
 4203074:	dcc00315 	stw	r19,12(sp)
 4203078:	04c10874 	movhi	r19,1057
 420307c:	dc800215 	stw	r18,8(sp)
 4203080:	dc400115 	stw	r17,4(sp)
 4203084:	dc000015 	stw	r16,0(sp)
 4203088:	dfc00415 	stw	ra,16(sp)
 420308c:	2821883a 	mov	r16,r5
 4203090:	9ccbae04 	addi	r19,r19,11960
 4203094:	2025883a 	mov	r18,r4
 4203098:	420fa800 	call	420fa80 <__malloc_lock>
 420309c:	98800217 	ldw	r2,8(r19)
 42030a0:	14400117 	ldw	r17,4(r2)
 42030a4:	00bfff04 	movi	r2,-4
 42030a8:	88a2703a 	and	r17,r17,r2
 42030ac:	8c21c83a 	sub	r16,r17,r16
 42030b0:	8403fbc4 	addi	r16,r16,4079
 42030b4:	8020d33a 	srli	r16,r16,12
 42030b8:	0083ffc4 	movi	r2,4095
 42030bc:	843fffc4 	addi	r16,r16,-1
 42030c0:	8020933a 	slli	r16,r16,12
 42030c4:	1400060e 	bge	r2,r16,42030e0 <_malloc_trim_r+0x70>
 42030c8:	000b883a 	mov	r5,zero
 42030cc:	9009883a 	mov	r4,r18
 42030d0:	42040a00 	call	42040a0 <_sbrk_r>
 42030d4:	98c00217 	ldw	r3,8(r19)
 42030d8:	1c47883a 	add	r3,r3,r17
 42030dc:	10c00a26 	beq	r2,r3,4203108 <_malloc_trim_r+0x98>
 42030e0:	9009883a 	mov	r4,r18
 42030e4:	420faa40 	call	420faa4 <__malloc_unlock>
 42030e8:	0005883a 	mov	r2,zero
 42030ec:	dfc00417 	ldw	ra,16(sp)
 42030f0:	dcc00317 	ldw	r19,12(sp)
 42030f4:	dc800217 	ldw	r18,8(sp)
 42030f8:	dc400117 	ldw	r17,4(sp)
 42030fc:	dc000017 	ldw	r16,0(sp)
 4203100:	dec00504 	addi	sp,sp,20
 4203104:	f800283a 	ret
 4203108:	040bc83a 	sub	r5,zero,r16
 420310c:	9009883a 	mov	r4,r18
 4203110:	42040a00 	call	42040a0 <_sbrk_r>
 4203114:	00ffffc4 	movi	r3,-1
 4203118:	10c00d26 	beq	r2,r3,4203150 <_malloc_trim_r+0xe0>
 420311c:	00c10874 	movhi	r3,1057
 4203120:	18dcc104 	addi	r3,r3,29444
 4203124:	18800017 	ldw	r2,0(r3)
 4203128:	99000217 	ldw	r4,8(r19)
 420312c:	8c23c83a 	sub	r17,r17,r16
 4203130:	8c400054 	ori	r17,r17,1
 4203134:	1421c83a 	sub	r16,r2,r16
 4203138:	24400115 	stw	r17,4(r4)
 420313c:	9009883a 	mov	r4,r18
 4203140:	1c000015 	stw	r16,0(r3)
 4203144:	420faa40 	call	420faa4 <__malloc_unlock>
 4203148:	00800044 	movi	r2,1
 420314c:	003fe706 	br	42030ec <__alt_data_end+0xfff030ec>
 4203150:	000b883a 	mov	r5,zero
 4203154:	9009883a 	mov	r4,r18
 4203158:	42040a00 	call	42040a0 <_sbrk_r>
 420315c:	99000217 	ldw	r4,8(r19)
 4203160:	014003c4 	movi	r5,15
 4203164:	1107c83a 	sub	r3,r2,r4
 4203168:	28ffdd0e 	bge	r5,r3,42030e0 <__alt_data_end+0xfff030e0>
 420316c:	01410874 	movhi	r5,1057
 4203170:	29515704 	addi	r5,r5,17756
 4203174:	29400017 	ldw	r5,0(r5)
 4203178:	18c00054 	ori	r3,r3,1
 420317c:	20c00115 	stw	r3,4(r4)
 4203180:	00c10874 	movhi	r3,1057
 4203184:	1145c83a 	sub	r2,r2,r5
 4203188:	18dcc104 	addi	r3,r3,29444
 420318c:	18800015 	stw	r2,0(r3)
 4203190:	003fd306 	br	42030e0 <__alt_data_end+0xfff030e0>

04203194 <_free_r>:
 4203194:	28004126 	beq	r5,zero,420329c <_free_r+0x108>
 4203198:	defffd04 	addi	sp,sp,-12
 420319c:	dc400115 	stw	r17,4(sp)
 42031a0:	dc000015 	stw	r16,0(sp)
 42031a4:	2023883a 	mov	r17,r4
 42031a8:	2821883a 	mov	r16,r5
 42031ac:	dfc00215 	stw	ra,8(sp)
 42031b0:	420fa800 	call	420fa80 <__malloc_lock>
 42031b4:	81ffff17 	ldw	r7,-4(r16)
 42031b8:	00bfff84 	movi	r2,-2
 42031bc:	01010874 	movhi	r4,1057
 42031c0:	81bffe04 	addi	r6,r16,-8
 42031c4:	3884703a 	and	r2,r7,r2
 42031c8:	210bae04 	addi	r4,r4,11960
 42031cc:	308b883a 	add	r5,r6,r2
 42031d0:	2a400117 	ldw	r9,4(r5)
 42031d4:	22000217 	ldw	r8,8(r4)
 42031d8:	00ffff04 	movi	r3,-4
 42031dc:	48c6703a 	and	r3,r9,r3
 42031e0:	2a005726 	beq	r5,r8,4203340 <_free_r+0x1ac>
 42031e4:	28c00115 	stw	r3,4(r5)
 42031e8:	39c0004c 	andi	r7,r7,1
 42031ec:	3800091e 	bne	r7,zero,4203214 <_free_r+0x80>
 42031f0:	823ffe17 	ldw	r8,-8(r16)
 42031f4:	22400204 	addi	r9,r4,8
 42031f8:	320dc83a 	sub	r6,r6,r8
 42031fc:	31c00217 	ldw	r7,8(r6)
 4203200:	1205883a 	add	r2,r2,r8
 4203204:	3a406526 	beq	r7,r9,420339c <_free_r+0x208>
 4203208:	32000317 	ldw	r8,12(r6)
 420320c:	3a000315 	stw	r8,12(r7)
 4203210:	41c00215 	stw	r7,8(r8)
 4203214:	28cf883a 	add	r7,r5,r3
 4203218:	39c00117 	ldw	r7,4(r7)
 420321c:	39c0004c 	andi	r7,r7,1
 4203220:	38003a26 	beq	r7,zero,420330c <_free_r+0x178>
 4203224:	10c00054 	ori	r3,r2,1
 4203228:	30c00115 	stw	r3,4(r6)
 420322c:	3087883a 	add	r3,r6,r2
 4203230:	18800015 	stw	r2,0(r3)
 4203234:	00c07fc4 	movi	r3,511
 4203238:	18801936 	bltu	r3,r2,42032a0 <_free_r+0x10c>
 420323c:	1004d0fa 	srli	r2,r2,3
 4203240:	01c00044 	movi	r7,1
 4203244:	21400117 	ldw	r5,4(r4)
 4203248:	10c00044 	addi	r3,r2,1
 420324c:	18c7883a 	add	r3,r3,r3
 4203250:	1005d0ba 	srai	r2,r2,2
 4203254:	18c7883a 	add	r3,r3,r3
 4203258:	18c7883a 	add	r3,r3,r3
 420325c:	1907883a 	add	r3,r3,r4
 4203260:	3884983a 	sll	r2,r7,r2
 4203264:	19c00017 	ldw	r7,0(r3)
 4203268:	1a3ffe04 	addi	r8,r3,-8
 420326c:	1144b03a 	or	r2,r2,r5
 4203270:	32000315 	stw	r8,12(r6)
 4203274:	31c00215 	stw	r7,8(r6)
 4203278:	20800115 	stw	r2,4(r4)
 420327c:	19800015 	stw	r6,0(r3)
 4203280:	39800315 	stw	r6,12(r7)
 4203284:	8809883a 	mov	r4,r17
 4203288:	dfc00217 	ldw	ra,8(sp)
 420328c:	dc400117 	ldw	r17,4(sp)
 4203290:	dc000017 	ldw	r16,0(sp)
 4203294:	dec00304 	addi	sp,sp,12
 4203298:	420faa41 	jmpi	420faa4 <__malloc_unlock>
 420329c:	f800283a 	ret
 42032a0:	100ad27a 	srli	r5,r2,9
 42032a4:	00c00104 	movi	r3,4
 42032a8:	19404a36 	bltu	r3,r5,42033d4 <_free_r+0x240>
 42032ac:	100ad1ba 	srli	r5,r2,6
 42032b0:	28c00e44 	addi	r3,r5,57
 42032b4:	18c7883a 	add	r3,r3,r3
 42032b8:	29400e04 	addi	r5,r5,56
 42032bc:	18c7883a 	add	r3,r3,r3
 42032c0:	18c7883a 	add	r3,r3,r3
 42032c4:	1909883a 	add	r4,r3,r4
 42032c8:	20c00017 	ldw	r3,0(r4)
 42032cc:	01c10874 	movhi	r7,1057
 42032d0:	213ffe04 	addi	r4,r4,-8
 42032d4:	39cbae04 	addi	r7,r7,11960
 42032d8:	20c04426 	beq	r4,r3,42033ec <_free_r+0x258>
 42032dc:	01ffff04 	movi	r7,-4
 42032e0:	19400117 	ldw	r5,4(r3)
 42032e4:	29ca703a 	and	r5,r5,r7
 42032e8:	1140022e 	bgeu	r2,r5,42032f4 <_free_r+0x160>
 42032ec:	18c00217 	ldw	r3,8(r3)
 42032f0:	20fffb1e 	bne	r4,r3,42032e0 <__alt_data_end+0xfff032e0>
 42032f4:	19000317 	ldw	r4,12(r3)
 42032f8:	31000315 	stw	r4,12(r6)
 42032fc:	30c00215 	stw	r3,8(r6)
 4203300:	21800215 	stw	r6,8(r4)
 4203304:	19800315 	stw	r6,12(r3)
 4203308:	003fde06 	br	4203284 <__alt_data_end+0xfff03284>
 420330c:	29c00217 	ldw	r7,8(r5)
 4203310:	10c5883a 	add	r2,r2,r3
 4203314:	00c10874 	movhi	r3,1057
 4203318:	18cbb004 	addi	r3,r3,11968
 420331c:	38c03b26 	beq	r7,r3,420340c <_free_r+0x278>
 4203320:	2a000317 	ldw	r8,12(r5)
 4203324:	11400054 	ori	r5,r2,1
 4203328:	3087883a 	add	r3,r6,r2
 420332c:	3a000315 	stw	r8,12(r7)
 4203330:	41c00215 	stw	r7,8(r8)
 4203334:	31400115 	stw	r5,4(r6)
 4203338:	18800015 	stw	r2,0(r3)
 420333c:	003fbd06 	br	4203234 <__alt_data_end+0xfff03234>
 4203340:	39c0004c 	andi	r7,r7,1
 4203344:	10c5883a 	add	r2,r2,r3
 4203348:	3800071e 	bne	r7,zero,4203368 <_free_r+0x1d4>
 420334c:	81fffe17 	ldw	r7,-8(r16)
 4203350:	31cdc83a 	sub	r6,r6,r7
 4203354:	30c00317 	ldw	r3,12(r6)
 4203358:	31400217 	ldw	r5,8(r6)
 420335c:	11c5883a 	add	r2,r2,r7
 4203360:	28c00315 	stw	r3,12(r5)
 4203364:	19400215 	stw	r5,8(r3)
 4203368:	10c00054 	ori	r3,r2,1
 420336c:	30c00115 	stw	r3,4(r6)
 4203370:	00c10874 	movhi	r3,1057
 4203374:	18d15804 	addi	r3,r3,17760
 4203378:	18c00017 	ldw	r3,0(r3)
 420337c:	21800215 	stw	r6,8(r4)
 4203380:	10ffc036 	bltu	r2,r3,4203284 <__alt_data_end+0xfff03284>
 4203384:	00810874 	movhi	r2,1057
 4203388:	10983504 	addi	r2,r2,24788
 420338c:	11400017 	ldw	r5,0(r2)
 4203390:	8809883a 	mov	r4,r17
 4203394:	42030700 	call	4203070 <_malloc_trim_r>
 4203398:	003fba06 	br	4203284 <__alt_data_end+0xfff03284>
 420339c:	28c9883a 	add	r4,r5,r3
 42033a0:	21000117 	ldw	r4,4(r4)
 42033a4:	2100004c 	andi	r4,r4,1
 42033a8:	2000391e 	bne	r4,zero,4203490 <_free_r+0x2fc>
 42033ac:	29c00217 	ldw	r7,8(r5)
 42033b0:	29000317 	ldw	r4,12(r5)
 42033b4:	1885883a 	add	r2,r3,r2
 42033b8:	10c00054 	ori	r3,r2,1
 42033bc:	39000315 	stw	r4,12(r7)
 42033c0:	21c00215 	stw	r7,8(r4)
 42033c4:	30c00115 	stw	r3,4(r6)
 42033c8:	308d883a 	add	r6,r6,r2
 42033cc:	30800015 	stw	r2,0(r6)
 42033d0:	003fac06 	br	4203284 <__alt_data_end+0xfff03284>
 42033d4:	00c00504 	movi	r3,20
 42033d8:	19401536 	bltu	r3,r5,4203430 <_free_r+0x29c>
 42033dc:	28c01704 	addi	r3,r5,92
 42033e0:	18c7883a 	add	r3,r3,r3
 42033e4:	294016c4 	addi	r5,r5,91
 42033e8:	003fb406 	br	42032bc <__alt_data_end+0xfff032bc>
 42033ec:	280bd0ba 	srai	r5,r5,2
 42033f0:	00c00044 	movi	r3,1
 42033f4:	38800117 	ldw	r2,4(r7)
 42033f8:	194a983a 	sll	r5,r3,r5
 42033fc:	2007883a 	mov	r3,r4
 4203400:	2884b03a 	or	r2,r5,r2
 4203404:	38800115 	stw	r2,4(r7)
 4203408:	003fbb06 	br	42032f8 <__alt_data_end+0xfff032f8>
 420340c:	21800515 	stw	r6,20(r4)
 4203410:	21800415 	stw	r6,16(r4)
 4203414:	10c00054 	ori	r3,r2,1
 4203418:	31c00315 	stw	r7,12(r6)
 420341c:	31c00215 	stw	r7,8(r6)
 4203420:	30c00115 	stw	r3,4(r6)
 4203424:	308d883a 	add	r6,r6,r2
 4203428:	30800015 	stw	r2,0(r6)
 420342c:	003f9506 	br	4203284 <__alt_data_end+0xfff03284>
 4203430:	00c01504 	movi	r3,84
 4203434:	19400536 	bltu	r3,r5,420344c <_free_r+0x2b8>
 4203438:	100ad33a 	srli	r5,r2,12
 420343c:	28c01bc4 	addi	r3,r5,111
 4203440:	18c7883a 	add	r3,r3,r3
 4203444:	29401b84 	addi	r5,r5,110
 4203448:	003f9c06 	br	42032bc <__alt_data_end+0xfff032bc>
 420344c:	00c05504 	movi	r3,340
 4203450:	19400536 	bltu	r3,r5,4203468 <_free_r+0x2d4>
 4203454:	100ad3fa 	srli	r5,r2,15
 4203458:	28c01e04 	addi	r3,r5,120
 420345c:	18c7883a 	add	r3,r3,r3
 4203460:	29401dc4 	addi	r5,r5,119
 4203464:	003f9506 	br	42032bc <__alt_data_end+0xfff032bc>
 4203468:	00c15504 	movi	r3,1364
 420346c:	19400536 	bltu	r3,r5,4203484 <_free_r+0x2f0>
 4203470:	100ad4ba 	srli	r5,r2,18
 4203474:	28c01f44 	addi	r3,r5,125
 4203478:	18c7883a 	add	r3,r3,r3
 420347c:	29401f04 	addi	r5,r5,124
 4203480:	003f8e06 	br	42032bc <__alt_data_end+0xfff032bc>
 4203484:	00c03f84 	movi	r3,254
 4203488:	01401f84 	movi	r5,126
 420348c:	003f8b06 	br	42032bc <__alt_data_end+0xfff032bc>
 4203490:	10c00054 	ori	r3,r2,1
 4203494:	30c00115 	stw	r3,4(r6)
 4203498:	308d883a 	add	r6,r6,r2
 420349c:	30800015 	stw	r2,0(r6)
 42034a0:	003f7806 	br	4203284 <__alt_data_end+0xfff03284>

042034a4 <_fwalk>:
 42034a4:	defff704 	addi	sp,sp,-36
 42034a8:	dd000415 	stw	r20,16(sp)
 42034ac:	dfc00815 	stw	ra,32(sp)
 42034b0:	ddc00715 	stw	r23,28(sp)
 42034b4:	dd800615 	stw	r22,24(sp)
 42034b8:	dd400515 	stw	r21,20(sp)
 42034bc:	dcc00315 	stw	r19,12(sp)
 42034c0:	dc800215 	stw	r18,8(sp)
 42034c4:	dc400115 	stw	r17,4(sp)
 42034c8:	dc000015 	stw	r16,0(sp)
 42034cc:	2500b804 	addi	r20,r4,736
 42034d0:	a0002326 	beq	r20,zero,4203560 <_fwalk+0xbc>
 42034d4:	282b883a 	mov	r21,r5
 42034d8:	002f883a 	mov	r23,zero
 42034dc:	05800044 	movi	r22,1
 42034e0:	04ffffc4 	movi	r19,-1
 42034e4:	a4400117 	ldw	r17,4(r20)
 42034e8:	a4800217 	ldw	r18,8(r20)
 42034ec:	8c7fffc4 	addi	r17,r17,-1
 42034f0:	88000d16 	blt	r17,zero,4203528 <_fwalk+0x84>
 42034f4:	94000304 	addi	r16,r18,12
 42034f8:	94800384 	addi	r18,r18,14
 42034fc:	8080000b 	ldhu	r2,0(r16)
 4203500:	8c7fffc4 	addi	r17,r17,-1
 4203504:	813ffd04 	addi	r4,r16,-12
 4203508:	b080042e 	bgeu	r22,r2,420351c <_fwalk+0x78>
 420350c:	9080000f 	ldh	r2,0(r18)
 4203510:	14c00226 	beq	r2,r19,420351c <_fwalk+0x78>
 4203514:	a83ee83a 	callr	r21
 4203518:	b8aeb03a 	or	r23,r23,r2
 420351c:	84001a04 	addi	r16,r16,104
 4203520:	94801a04 	addi	r18,r18,104
 4203524:	8cfff51e 	bne	r17,r19,42034fc <__alt_data_end+0xfff034fc>
 4203528:	a5000017 	ldw	r20,0(r20)
 420352c:	a03fed1e 	bne	r20,zero,42034e4 <__alt_data_end+0xfff034e4>
 4203530:	b805883a 	mov	r2,r23
 4203534:	dfc00817 	ldw	ra,32(sp)
 4203538:	ddc00717 	ldw	r23,28(sp)
 420353c:	dd800617 	ldw	r22,24(sp)
 4203540:	dd400517 	ldw	r21,20(sp)
 4203544:	dd000417 	ldw	r20,16(sp)
 4203548:	dcc00317 	ldw	r19,12(sp)
 420354c:	dc800217 	ldw	r18,8(sp)
 4203550:	dc400117 	ldw	r17,4(sp)
 4203554:	dc000017 	ldw	r16,0(sp)
 4203558:	dec00904 	addi	sp,sp,36
 420355c:	f800283a 	ret
 4203560:	002f883a 	mov	r23,zero
 4203564:	003ff206 	br	4203530 <__alt_data_end+0xfff03530>

04203568 <_fwalk_reent>:
 4203568:	defff704 	addi	sp,sp,-36
 420356c:	dd000415 	stw	r20,16(sp)
 4203570:	dfc00815 	stw	ra,32(sp)
 4203574:	ddc00715 	stw	r23,28(sp)
 4203578:	dd800615 	stw	r22,24(sp)
 420357c:	dd400515 	stw	r21,20(sp)
 4203580:	dcc00315 	stw	r19,12(sp)
 4203584:	dc800215 	stw	r18,8(sp)
 4203588:	dc400115 	stw	r17,4(sp)
 420358c:	dc000015 	stw	r16,0(sp)
 4203590:	2500b804 	addi	r20,r4,736
 4203594:	a0002326 	beq	r20,zero,4203624 <_fwalk_reent+0xbc>
 4203598:	282b883a 	mov	r21,r5
 420359c:	2027883a 	mov	r19,r4
 42035a0:	002f883a 	mov	r23,zero
 42035a4:	05800044 	movi	r22,1
 42035a8:	04bfffc4 	movi	r18,-1
 42035ac:	a4400117 	ldw	r17,4(r20)
 42035b0:	a4000217 	ldw	r16,8(r20)
 42035b4:	8c7fffc4 	addi	r17,r17,-1
 42035b8:	88000c16 	blt	r17,zero,42035ec <_fwalk_reent+0x84>
 42035bc:	84000304 	addi	r16,r16,12
 42035c0:	8080000b 	ldhu	r2,0(r16)
 42035c4:	8c7fffc4 	addi	r17,r17,-1
 42035c8:	817ffd04 	addi	r5,r16,-12
 42035cc:	b080052e 	bgeu	r22,r2,42035e4 <_fwalk_reent+0x7c>
 42035d0:	8080008f 	ldh	r2,2(r16)
 42035d4:	9809883a 	mov	r4,r19
 42035d8:	14800226 	beq	r2,r18,42035e4 <_fwalk_reent+0x7c>
 42035dc:	a83ee83a 	callr	r21
 42035e0:	b8aeb03a 	or	r23,r23,r2
 42035e4:	84001a04 	addi	r16,r16,104
 42035e8:	8cbff51e 	bne	r17,r18,42035c0 <__alt_data_end+0xfff035c0>
 42035ec:	a5000017 	ldw	r20,0(r20)
 42035f0:	a03fee1e 	bne	r20,zero,42035ac <__alt_data_end+0xfff035ac>
 42035f4:	b805883a 	mov	r2,r23
 42035f8:	dfc00817 	ldw	ra,32(sp)
 42035fc:	ddc00717 	ldw	r23,28(sp)
 4203600:	dd800617 	ldw	r22,24(sp)
 4203604:	dd400517 	ldw	r21,20(sp)
 4203608:	dd000417 	ldw	r20,16(sp)
 420360c:	dcc00317 	ldw	r19,12(sp)
 4203610:	dc800217 	ldw	r18,8(sp)
 4203614:	dc400117 	ldw	r17,4(sp)
 4203618:	dc000017 	ldw	r16,0(sp)
 420361c:	dec00904 	addi	sp,sp,36
 4203620:	f800283a 	ret
 4203624:	002f883a 	mov	r23,zero
 4203628:	003ff206 	br	42035f4 <__alt_data_end+0xfff035f4>

0420362c <_malloc_r>:
 420362c:	defff504 	addi	sp,sp,-44
 4203630:	dc800315 	stw	r18,12(sp)
 4203634:	dfc00a15 	stw	ra,40(sp)
 4203638:	df000915 	stw	fp,36(sp)
 420363c:	ddc00815 	stw	r23,32(sp)
 4203640:	dd800715 	stw	r22,28(sp)
 4203644:	dd400615 	stw	r21,24(sp)
 4203648:	dd000515 	stw	r20,20(sp)
 420364c:	dcc00415 	stw	r19,16(sp)
 4203650:	dc400215 	stw	r17,8(sp)
 4203654:	dc000115 	stw	r16,4(sp)
 4203658:	288002c4 	addi	r2,r5,11
 420365c:	00c00584 	movi	r3,22
 4203660:	2025883a 	mov	r18,r4
 4203664:	18807f2e 	bgeu	r3,r2,4203864 <_malloc_r+0x238>
 4203668:	047ffe04 	movi	r17,-8
 420366c:	1462703a 	and	r17,r2,r17
 4203670:	8800a316 	blt	r17,zero,4203900 <_malloc_r+0x2d4>
 4203674:	8940a236 	bltu	r17,r5,4203900 <_malloc_r+0x2d4>
 4203678:	420fa800 	call	420fa80 <__malloc_lock>
 420367c:	00807dc4 	movi	r2,503
 4203680:	1441e92e 	bgeu	r2,r17,4203e28 <_malloc_r+0x7fc>
 4203684:	8804d27a 	srli	r2,r17,9
 4203688:	1000a126 	beq	r2,zero,4203910 <_malloc_r+0x2e4>
 420368c:	00c00104 	movi	r3,4
 4203690:	18811e36 	bltu	r3,r2,4203b0c <_malloc_r+0x4e0>
 4203694:	8804d1ba 	srli	r2,r17,6
 4203698:	12000e44 	addi	r8,r2,57
 420369c:	11c00e04 	addi	r7,r2,56
 42036a0:	4209883a 	add	r4,r8,r8
 42036a4:	04c10874 	movhi	r19,1057
 42036a8:	2109883a 	add	r4,r4,r4
 42036ac:	9ccbae04 	addi	r19,r19,11960
 42036b0:	2109883a 	add	r4,r4,r4
 42036b4:	9909883a 	add	r4,r19,r4
 42036b8:	24000117 	ldw	r16,4(r4)
 42036bc:	213ffe04 	addi	r4,r4,-8
 42036c0:	24009726 	beq	r4,r16,4203920 <_malloc_r+0x2f4>
 42036c4:	80800117 	ldw	r2,4(r16)
 42036c8:	01bfff04 	movi	r6,-4
 42036cc:	014003c4 	movi	r5,15
 42036d0:	1184703a 	and	r2,r2,r6
 42036d4:	1447c83a 	sub	r3,r2,r17
 42036d8:	28c00716 	blt	r5,r3,42036f8 <_malloc_r+0xcc>
 42036dc:	1800920e 	bge	r3,zero,4203928 <_malloc_r+0x2fc>
 42036e0:	84000317 	ldw	r16,12(r16)
 42036e4:	24008e26 	beq	r4,r16,4203920 <_malloc_r+0x2f4>
 42036e8:	80800117 	ldw	r2,4(r16)
 42036ec:	1184703a 	and	r2,r2,r6
 42036f0:	1447c83a 	sub	r3,r2,r17
 42036f4:	28fff90e 	bge	r5,r3,42036dc <__alt_data_end+0xfff036dc>
 42036f8:	3809883a 	mov	r4,r7
 42036fc:	01810874 	movhi	r6,1057
 4203700:	9c000417 	ldw	r16,16(r19)
 4203704:	318bae04 	addi	r6,r6,11960
 4203708:	32000204 	addi	r8,r6,8
 420370c:	82013426 	beq	r16,r8,4203be0 <_malloc_r+0x5b4>
 4203710:	80c00117 	ldw	r3,4(r16)
 4203714:	00bfff04 	movi	r2,-4
 4203718:	188e703a 	and	r7,r3,r2
 420371c:	3c45c83a 	sub	r2,r7,r17
 4203720:	00c003c4 	movi	r3,15
 4203724:	18811f16 	blt	r3,r2,4203ba4 <_malloc_r+0x578>
 4203728:	32000515 	stw	r8,20(r6)
 420372c:	32000415 	stw	r8,16(r6)
 4203730:	10007f0e 	bge	r2,zero,4203930 <_malloc_r+0x304>
 4203734:	00807fc4 	movi	r2,511
 4203738:	11c0fd36 	bltu	r2,r7,4203b30 <_malloc_r+0x504>
 420373c:	3806d0fa 	srli	r3,r7,3
 4203740:	01c00044 	movi	r7,1
 4203744:	30800117 	ldw	r2,4(r6)
 4203748:	19400044 	addi	r5,r3,1
 420374c:	294b883a 	add	r5,r5,r5
 4203750:	1807d0ba 	srai	r3,r3,2
 4203754:	294b883a 	add	r5,r5,r5
 4203758:	294b883a 	add	r5,r5,r5
 420375c:	298b883a 	add	r5,r5,r6
 4203760:	38c6983a 	sll	r3,r7,r3
 4203764:	29c00017 	ldw	r7,0(r5)
 4203768:	2a7ffe04 	addi	r9,r5,-8
 420376c:	1886b03a 	or	r3,r3,r2
 4203770:	82400315 	stw	r9,12(r16)
 4203774:	81c00215 	stw	r7,8(r16)
 4203778:	30c00115 	stw	r3,4(r6)
 420377c:	2c000015 	stw	r16,0(r5)
 4203780:	3c000315 	stw	r16,12(r7)
 4203784:	2005d0ba 	srai	r2,r4,2
 4203788:	01400044 	movi	r5,1
 420378c:	288a983a 	sll	r5,r5,r2
 4203790:	19406f36 	bltu	r3,r5,4203950 <_malloc_r+0x324>
 4203794:	28c4703a 	and	r2,r5,r3
 4203798:	10000a1e 	bne	r2,zero,42037c4 <_malloc_r+0x198>
 420379c:	00bfff04 	movi	r2,-4
 42037a0:	294b883a 	add	r5,r5,r5
 42037a4:	2088703a 	and	r4,r4,r2
 42037a8:	28c4703a 	and	r2,r5,r3
 42037ac:	21000104 	addi	r4,r4,4
 42037b0:	1000041e 	bne	r2,zero,42037c4 <_malloc_r+0x198>
 42037b4:	294b883a 	add	r5,r5,r5
 42037b8:	28c4703a 	and	r2,r5,r3
 42037bc:	21000104 	addi	r4,r4,4
 42037c0:	103ffc26 	beq	r2,zero,42037b4 <__alt_data_end+0xfff037b4>
 42037c4:	02bfff04 	movi	r10,-4
 42037c8:	024003c4 	movi	r9,15
 42037cc:	21800044 	addi	r6,r4,1
 42037d0:	318d883a 	add	r6,r6,r6
 42037d4:	318d883a 	add	r6,r6,r6
 42037d8:	318d883a 	add	r6,r6,r6
 42037dc:	998d883a 	add	r6,r19,r6
 42037e0:	333ffe04 	addi	r12,r6,-8
 42037e4:	2017883a 	mov	r11,r4
 42037e8:	31800104 	addi	r6,r6,4
 42037ec:	34000017 	ldw	r16,0(r6)
 42037f0:	31fffd04 	addi	r7,r6,-12
 42037f4:	81c0041e 	bne	r16,r7,4203808 <_malloc_r+0x1dc>
 42037f8:	0000fb06 	br	4203be8 <_malloc_r+0x5bc>
 42037fc:	1801030e 	bge	r3,zero,4203c0c <_malloc_r+0x5e0>
 4203800:	84000317 	ldw	r16,12(r16)
 4203804:	81c0f826 	beq	r16,r7,4203be8 <_malloc_r+0x5bc>
 4203808:	80800117 	ldw	r2,4(r16)
 420380c:	1284703a 	and	r2,r2,r10
 4203810:	1447c83a 	sub	r3,r2,r17
 4203814:	48fff90e 	bge	r9,r3,42037fc <__alt_data_end+0xfff037fc>
 4203818:	80800317 	ldw	r2,12(r16)
 420381c:	81000217 	ldw	r4,8(r16)
 4203820:	89400054 	ori	r5,r17,1
 4203824:	81400115 	stw	r5,4(r16)
 4203828:	20800315 	stw	r2,12(r4)
 420382c:	11000215 	stw	r4,8(r2)
 4203830:	8463883a 	add	r17,r16,r17
 4203834:	9c400515 	stw	r17,20(r19)
 4203838:	9c400415 	stw	r17,16(r19)
 420383c:	18800054 	ori	r2,r3,1
 4203840:	88800115 	stw	r2,4(r17)
 4203844:	8a000315 	stw	r8,12(r17)
 4203848:	8a000215 	stw	r8,8(r17)
 420384c:	88e3883a 	add	r17,r17,r3
 4203850:	88c00015 	stw	r3,0(r17)
 4203854:	9009883a 	mov	r4,r18
 4203858:	420faa40 	call	420faa4 <__malloc_unlock>
 420385c:	80800204 	addi	r2,r16,8
 4203860:	00001b06 	br	42038d0 <_malloc_r+0x2a4>
 4203864:	04400404 	movi	r17,16
 4203868:	89402536 	bltu	r17,r5,4203900 <_malloc_r+0x2d4>
 420386c:	420fa800 	call	420fa80 <__malloc_lock>
 4203870:	00800184 	movi	r2,6
 4203874:	01000084 	movi	r4,2
 4203878:	04c10874 	movhi	r19,1057
 420387c:	1085883a 	add	r2,r2,r2
 4203880:	9ccbae04 	addi	r19,r19,11960
 4203884:	1085883a 	add	r2,r2,r2
 4203888:	9885883a 	add	r2,r19,r2
 420388c:	14000117 	ldw	r16,4(r2)
 4203890:	10fffe04 	addi	r3,r2,-8
 4203894:	80c0d926 	beq	r16,r3,4203bfc <_malloc_r+0x5d0>
 4203898:	80c00117 	ldw	r3,4(r16)
 420389c:	81000317 	ldw	r4,12(r16)
 42038a0:	00bfff04 	movi	r2,-4
 42038a4:	1884703a 	and	r2,r3,r2
 42038a8:	81400217 	ldw	r5,8(r16)
 42038ac:	8085883a 	add	r2,r16,r2
 42038b0:	10c00117 	ldw	r3,4(r2)
 42038b4:	29000315 	stw	r4,12(r5)
 42038b8:	21400215 	stw	r5,8(r4)
 42038bc:	18c00054 	ori	r3,r3,1
 42038c0:	10c00115 	stw	r3,4(r2)
 42038c4:	9009883a 	mov	r4,r18
 42038c8:	420faa40 	call	420faa4 <__malloc_unlock>
 42038cc:	80800204 	addi	r2,r16,8
 42038d0:	dfc00a17 	ldw	ra,40(sp)
 42038d4:	df000917 	ldw	fp,36(sp)
 42038d8:	ddc00817 	ldw	r23,32(sp)
 42038dc:	dd800717 	ldw	r22,28(sp)
 42038e0:	dd400617 	ldw	r21,24(sp)
 42038e4:	dd000517 	ldw	r20,20(sp)
 42038e8:	dcc00417 	ldw	r19,16(sp)
 42038ec:	dc800317 	ldw	r18,12(sp)
 42038f0:	dc400217 	ldw	r17,8(sp)
 42038f4:	dc000117 	ldw	r16,4(sp)
 42038f8:	dec00b04 	addi	sp,sp,44
 42038fc:	f800283a 	ret
 4203900:	00800304 	movi	r2,12
 4203904:	90800015 	stw	r2,0(r18)
 4203908:	0005883a 	mov	r2,zero
 420390c:	003ff006 	br	42038d0 <__alt_data_end+0xfff038d0>
 4203910:	01002004 	movi	r4,128
 4203914:	02001004 	movi	r8,64
 4203918:	01c00fc4 	movi	r7,63
 420391c:	003f6106 	br	42036a4 <__alt_data_end+0xfff036a4>
 4203920:	4009883a 	mov	r4,r8
 4203924:	003f7506 	br	42036fc <__alt_data_end+0xfff036fc>
 4203928:	81000317 	ldw	r4,12(r16)
 420392c:	003fde06 	br	42038a8 <__alt_data_end+0xfff038a8>
 4203930:	81c5883a 	add	r2,r16,r7
 4203934:	11400117 	ldw	r5,4(r2)
 4203938:	9009883a 	mov	r4,r18
 420393c:	29400054 	ori	r5,r5,1
 4203940:	11400115 	stw	r5,4(r2)
 4203944:	420faa40 	call	420faa4 <__malloc_unlock>
 4203948:	80800204 	addi	r2,r16,8
 420394c:	003fe006 	br	42038d0 <__alt_data_end+0xfff038d0>
 4203950:	9c000217 	ldw	r16,8(r19)
 4203954:	00bfff04 	movi	r2,-4
 4203958:	85800117 	ldw	r22,4(r16)
 420395c:	b0ac703a 	and	r22,r22,r2
 4203960:	b4400336 	bltu	r22,r17,4203970 <_malloc_r+0x344>
 4203964:	b445c83a 	sub	r2,r22,r17
 4203968:	00c003c4 	movi	r3,15
 420396c:	18805d16 	blt	r3,r2,4203ae4 <_malloc_r+0x4b8>
 4203970:	05c10874 	movhi	r23,1057
 4203974:	00810874 	movhi	r2,1057
 4203978:	10983504 	addi	r2,r2,24788
 420397c:	bdd15704 	addi	r23,r23,17756
 4203980:	15400017 	ldw	r21,0(r2)
 4203984:	b8c00017 	ldw	r3,0(r23)
 4203988:	00bfffc4 	movi	r2,-1
 420398c:	858d883a 	add	r6,r16,r22
 4203990:	8d6b883a 	add	r21,r17,r21
 4203994:	1880ea26 	beq	r3,r2,4203d40 <_malloc_r+0x714>
 4203998:	ad4403c4 	addi	r21,r21,4111
 420399c:	00bc0004 	movi	r2,-4096
 42039a0:	a8aa703a 	and	r21,r21,r2
 42039a4:	a80b883a 	mov	r5,r21
 42039a8:	9009883a 	mov	r4,r18
 42039ac:	d9800015 	stw	r6,0(sp)
 42039b0:	42040a00 	call	42040a0 <_sbrk_r>
 42039b4:	1029883a 	mov	r20,r2
 42039b8:	00bfffc4 	movi	r2,-1
 42039bc:	d9800017 	ldw	r6,0(sp)
 42039c0:	a080e826 	beq	r20,r2,4203d64 <_malloc_r+0x738>
 42039c4:	a180a636 	bltu	r20,r6,4203c60 <_malloc_r+0x634>
 42039c8:	07010874 	movhi	fp,1057
 42039cc:	e71cc104 	addi	fp,fp,29444
 42039d0:	e0800017 	ldw	r2,0(fp)
 42039d4:	a887883a 	add	r3,r21,r2
 42039d8:	e0c00015 	stw	r3,0(fp)
 42039dc:	3500e626 	beq	r6,r20,4203d78 <_malloc_r+0x74c>
 42039e0:	b9000017 	ldw	r4,0(r23)
 42039e4:	00bfffc4 	movi	r2,-1
 42039e8:	2080ee26 	beq	r4,r2,4203da4 <_malloc_r+0x778>
 42039ec:	a185c83a 	sub	r2,r20,r6
 42039f0:	10c5883a 	add	r2,r2,r3
 42039f4:	e0800015 	stw	r2,0(fp)
 42039f8:	a0c001cc 	andi	r3,r20,7
 42039fc:	1800bc26 	beq	r3,zero,4203cf0 <_malloc_r+0x6c4>
 4203a00:	a0e9c83a 	sub	r20,r20,r3
 4203a04:	00840204 	movi	r2,4104
 4203a08:	a5000204 	addi	r20,r20,8
 4203a0c:	10c7c83a 	sub	r3,r2,r3
 4203a10:	a545883a 	add	r2,r20,r21
 4203a14:	1083ffcc 	andi	r2,r2,4095
 4203a18:	18abc83a 	sub	r21,r3,r2
 4203a1c:	a80b883a 	mov	r5,r21
 4203a20:	9009883a 	mov	r4,r18
 4203a24:	42040a00 	call	42040a0 <_sbrk_r>
 4203a28:	00ffffc4 	movi	r3,-1
 4203a2c:	10c0e126 	beq	r2,r3,4203db4 <_malloc_r+0x788>
 4203a30:	1505c83a 	sub	r2,r2,r20
 4203a34:	1545883a 	add	r2,r2,r21
 4203a38:	10800054 	ori	r2,r2,1
 4203a3c:	e0c00017 	ldw	r3,0(fp)
 4203a40:	9d000215 	stw	r20,8(r19)
 4203a44:	a0800115 	stw	r2,4(r20)
 4203a48:	a8c7883a 	add	r3,r21,r3
 4203a4c:	e0c00015 	stw	r3,0(fp)
 4203a50:	84c00e26 	beq	r16,r19,4203a8c <_malloc_r+0x460>
 4203a54:	018003c4 	movi	r6,15
 4203a58:	3580a72e 	bgeu	r6,r22,4203cf8 <_malloc_r+0x6cc>
 4203a5c:	81400117 	ldw	r5,4(r16)
 4203a60:	013ffe04 	movi	r4,-8
 4203a64:	b0bffd04 	addi	r2,r22,-12
 4203a68:	1104703a 	and	r2,r2,r4
 4203a6c:	2900004c 	andi	r4,r5,1
 4203a70:	2088b03a 	or	r4,r4,r2
 4203a74:	81000115 	stw	r4,4(r16)
 4203a78:	01400144 	movi	r5,5
 4203a7c:	8089883a 	add	r4,r16,r2
 4203a80:	21400115 	stw	r5,4(r4)
 4203a84:	21400215 	stw	r5,8(r4)
 4203a88:	3080cd36 	bltu	r6,r2,4203dc0 <_malloc_r+0x794>
 4203a8c:	00810874 	movhi	r2,1057
 4203a90:	10983404 	addi	r2,r2,24784
 4203a94:	11000017 	ldw	r4,0(r2)
 4203a98:	20c0012e 	bgeu	r4,r3,4203aa0 <_malloc_r+0x474>
 4203a9c:	10c00015 	stw	r3,0(r2)
 4203aa0:	00810874 	movhi	r2,1057
 4203aa4:	10983304 	addi	r2,r2,24780
 4203aa8:	11000017 	ldw	r4,0(r2)
 4203aac:	9c000217 	ldw	r16,8(r19)
 4203ab0:	20c0012e 	bgeu	r4,r3,4203ab8 <_malloc_r+0x48c>
 4203ab4:	10c00015 	stw	r3,0(r2)
 4203ab8:	80c00117 	ldw	r3,4(r16)
 4203abc:	00bfff04 	movi	r2,-4
 4203ac0:	1886703a 	and	r3,r3,r2
 4203ac4:	1c45c83a 	sub	r2,r3,r17
 4203ac8:	1c400236 	bltu	r3,r17,4203ad4 <_malloc_r+0x4a8>
 4203acc:	00c003c4 	movi	r3,15
 4203ad0:	18800416 	blt	r3,r2,4203ae4 <_malloc_r+0x4b8>
 4203ad4:	9009883a 	mov	r4,r18
 4203ad8:	420faa40 	call	420faa4 <__malloc_unlock>
 4203adc:	0005883a 	mov	r2,zero
 4203ae0:	003f7b06 	br	42038d0 <__alt_data_end+0xfff038d0>
 4203ae4:	88c00054 	ori	r3,r17,1
 4203ae8:	80c00115 	stw	r3,4(r16)
 4203aec:	8463883a 	add	r17,r16,r17
 4203af0:	10800054 	ori	r2,r2,1
 4203af4:	9c400215 	stw	r17,8(r19)
 4203af8:	88800115 	stw	r2,4(r17)
 4203afc:	9009883a 	mov	r4,r18
 4203b00:	420faa40 	call	420faa4 <__malloc_unlock>
 4203b04:	80800204 	addi	r2,r16,8
 4203b08:	003f7106 	br	42038d0 <__alt_data_end+0xfff038d0>
 4203b0c:	00c00504 	movi	r3,20
 4203b10:	18804a2e 	bgeu	r3,r2,4203c3c <_malloc_r+0x610>
 4203b14:	00c01504 	movi	r3,84
 4203b18:	18806e36 	bltu	r3,r2,4203cd4 <_malloc_r+0x6a8>
 4203b1c:	8804d33a 	srli	r2,r17,12
 4203b20:	12001bc4 	addi	r8,r2,111
 4203b24:	11c01b84 	addi	r7,r2,110
 4203b28:	4209883a 	add	r4,r8,r8
 4203b2c:	003edd06 	br	42036a4 <__alt_data_end+0xfff036a4>
 4203b30:	3804d27a 	srli	r2,r7,9
 4203b34:	00c00104 	movi	r3,4
 4203b38:	1880442e 	bgeu	r3,r2,4203c4c <_malloc_r+0x620>
 4203b3c:	00c00504 	movi	r3,20
 4203b40:	18808136 	bltu	r3,r2,4203d48 <_malloc_r+0x71c>
 4203b44:	11401704 	addi	r5,r2,92
 4203b48:	10c016c4 	addi	r3,r2,91
 4203b4c:	294b883a 	add	r5,r5,r5
 4203b50:	294b883a 	add	r5,r5,r5
 4203b54:	294b883a 	add	r5,r5,r5
 4203b58:	994b883a 	add	r5,r19,r5
 4203b5c:	28800017 	ldw	r2,0(r5)
 4203b60:	01810874 	movhi	r6,1057
 4203b64:	297ffe04 	addi	r5,r5,-8
 4203b68:	318bae04 	addi	r6,r6,11960
 4203b6c:	28806526 	beq	r5,r2,4203d04 <_malloc_r+0x6d8>
 4203b70:	01bfff04 	movi	r6,-4
 4203b74:	10c00117 	ldw	r3,4(r2)
 4203b78:	1986703a 	and	r3,r3,r6
 4203b7c:	38c0022e 	bgeu	r7,r3,4203b88 <_malloc_r+0x55c>
 4203b80:	10800217 	ldw	r2,8(r2)
 4203b84:	28bffb1e 	bne	r5,r2,4203b74 <__alt_data_end+0xfff03b74>
 4203b88:	11400317 	ldw	r5,12(r2)
 4203b8c:	98c00117 	ldw	r3,4(r19)
 4203b90:	81400315 	stw	r5,12(r16)
 4203b94:	80800215 	stw	r2,8(r16)
 4203b98:	2c000215 	stw	r16,8(r5)
 4203b9c:	14000315 	stw	r16,12(r2)
 4203ba0:	003ef806 	br	4203784 <__alt_data_end+0xfff03784>
 4203ba4:	88c00054 	ori	r3,r17,1
 4203ba8:	80c00115 	stw	r3,4(r16)
 4203bac:	8463883a 	add	r17,r16,r17
 4203bb0:	34400515 	stw	r17,20(r6)
 4203bb4:	34400415 	stw	r17,16(r6)
 4203bb8:	10c00054 	ori	r3,r2,1
 4203bbc:	8a000315 	stw	r8,12(r17)
 4203bc0:	8a000215 	stw	r8,8(r17)
 4203bc4:	88c00115 	stw	r3,4(r17)
 4203bc8:	88a3883a 	add	r17,r17,r2
 4203bcc:	88800015 	stw	r2,0(r17)
 4203bd0:	9009883a 	mov	r4,r18
 4203bd4:	420faa40 	call	420faa4 <__malloc_unlock>
 4203bd8:	80800204 	addi	r2,r16,8
 4203bdc:	003f3c06 	br	42038d0 <__alt_data_end+0xfff038d0>
 4203be0:	30c00117 	ldw	r3,4(r6)
 4203be4:	003ee706 	br	4203784 <__alt_data_end+0xfff03784>
 4203be8:	5ac00044 	addi	r11,r11,1
 4203bec:	588000cc 	andi	r2,r11,3
 4203bf0:	31800204 	addi	r6,r6,8
 4203bf4:	103efd1e 	bne	r2,zero,42037ec <__alt_data_end+0xfff037ec>
 4203bf8:	00002406 	br	4203c8c <_malloc_r+0x660>
 4203bfc:	14000317 	ldw	r16,12(r2)
 4203c00:	143f251e 	bne	r2,r16,4203898 <__alt_data_end+0xfff03898>
 4203c04:	21000084 	addi	r4,r4,2
 4203c08:	003ebc06 	br	42036fc <__alt_data_end+0xfff036fc>
 4203c0c:	8085883a 	add	r2,r16,r2
 4203c10:	10c00117 	ldw	r3,4(r2)
 4203c14:	81000317 	ldw	r4,12(r16)
 4203c18:	81400217 	ldw	r5,8(r16)
 4203c1c:	18c00054 	ori	r3,r3,1
 4203c20:	10c00115 	stw	r3,4(r2)
 4203c24:	29000315 	stw	r4,12(r5)
 4203c28:	21400215 	stw	r5,8(r4)
 4203c2c:	9009883a 	mov	r4,r18
 4203c30:	420faa40 	call	420faa4 <__malloc_unlock>
 4203c34:	80800204 	addi	r2,r16,8
 4203c38:	003f2506 	br	42038d0 <__alt_data_end+0xfff038d0>
 4203c3c:	12001704 	addi	r8,r2,92
 4203c40:	11c016c4 	addi	r7,r2,91
 4203c44:	4209883a 	add	r4,r8,r8
 4203c48:	003e9606 	br	42036a4 <__alt_data_end+0xfff036a4>
 4203c4c:	3804d1ba 	srli	r2,r7,6
 4203c50:	11400e44 	addi	r5,r2,57
 4203c54:	10c00e04 	addi	r3,r2,56
 4203c58:	294b883a 	add	r5,r5,r5
 4203c5c:	003fbc06 	br	4203b50 <__alt_data_end+0xfff03b50>
 4203c60:	84ff5926 	beq	r16,r19,42039c8 <__alt_data_end+0xfff039c8>
 4203c64:	00810874 	movhi	r2,1057
 4203c68:	108bae04 	addi	r2,r2,11960
 4203c6c:	14000217 	ldw	r16,8(r2)
 4203c70:	00bfff04 	movi	r2,-4
 4203c74:	80c00117 	ldw	r3,4(r16)
 4203c78:	1886703a 	and	r3,r3,r2
 4203c7c:	003f9106 	br	4203ac4 <__alt_data_end+0xfff03ac4>
 4203c80:	60800217 	ldw	r2,8(r12)
 4203c84:	213fffc4 	addi	r4,r4,-1
 4203c88:	1300651e 	bne	r2,r12,4203e20 <_malloc_r+0x7f4>
 4203c8c:	208000cc 	andi	r2,r4,3
 4203c90:	633ffe04 	addi	r12,r12,-8
 4203c94:	103ffa1e 	bne	r2,zero,4203c80 <__alt_data_end+0xfff03c80>
 4203c98:	98800117 	ldw	r2,4(r19)
 4203c9c:	0146303a 	nor	r3,zero,r5
 4203ca0:	1884703a 	and	r2,r3,r2
 4203ca4:	98800115 	stw	r2,4(r19)
 4203ca8:	294b883a 	add	r5,r5,r5
 4203cac:	117f2836 	bltu	r2,r5,4203950 <__alt_data_end+0xfff03950>
 4203cb0:	283f2726 	beq	r5,zero,4203950 <__alt_data_end+0xfff03950>
 4203cb4:	2886703a 	and	r3,r5,r2
 4203cb8:	5809883a 	mov	r4,r11
 4203cbc:	183ec31e 	bne	r3,zero,42037cc <__alt_data_end+0xfff037cc>
 4203cc0:	294b883a 	add	r5,r5,r5
 4203cc4:	2886703a 	and	r3,r5,r2
 4203cc8:	21000104 	addi	r4,r4,4
 4203ccc:	183ffc26 	beq	r3,zero,4203cc0 <__alt_data_end+0xfff03cc0>
 4203cd0:	003ebe06 	br	42037cc <__alt_data_end+0xfff037cc>
 4203cd4:	00c05504 	movi	r3,340
 4203cd8:	18801236 	bltu	r3,r2,4203d24 <_malloc_r+0x6f8>
 4203cdc:	8804d3fa 	srli	r2,r17,15
 4203ce0:	12001e04 	addi	r8,r2,120
 4203ce4:	11c01dc4 	addi	r7,r2,119
 4203ce8:	4209883a 	add	r4,r8,r8
 4203cec:	003e6d06 	br	42036a4 <__alt_data_end+0xfff036a4>
 4203cf0:	00c40004 	movi	r3,4096
 4203cf4:	003f4606 	br	4203a10 <__alt_data_end+0xfff03a10>
 4203cf8:	00800044 	movi	r2,1
 4203cfc:	a0800115 	stw	r2,4(r20)
 4203d00:	003f7406 	br	4203ad4 <__alt_data_end+0xfff03ad4>
 4203d04:	1805d0ba 	srai	r2,r3,2
 4203d08:	01c00044 	movi	r7,1
 4203d0c:	30c00117 	ldw	r3,4(r6)
 4203d10:	388e983a 	sll	r7,r7,r2
 4203d14:	2805883a 	mov	r2,r5
 4203d18:	38c6b03a 	or	r3,r7,r3
 4203d1c:	30c00115 	stw	r3,4(r6)
 4203d20:	003f9b06 	br	4203b90 <__alt_data_end+0xfff03b90>
 4203d24:	00c15504 	movi	r3,1364
 4203d28:	18801a36 	bltu	r3,r2,4203d94 <_malloc_r+0x768>
 4203d2c:	8804d4ba 	srli	r2,r17,18
 4203d30:	12001f44 	addi	r8,r2,125
 4203d34:	11c01f04 	addi	r7,r2,124
 4203d38:	4209883a 	add	r4,r8,r8
 4203d3c:	003e5906 	br	42036a4 <__alt_data_end+0xfff036a4>
 4203d40:	ad400404 	addi	r21,r21,16
 4203d44:	003f1706 	br	42039a4 <__alt_data_end+0xfff039a4>
 4203d48:	00c01504 	movi	r3,84
 4203d4c:	18802336 	bltu	r3,r2,4203ddc <_malloc_r+0x7b0>
 4203d50:	3804d33a 	srli	r2,r7,12
 4203d54:	11401bc4 	addi	r5,r2,111
 4203d58:	10c01b84 	addi	r3,r2,110
 4203d5c:	294b883a 	add	r5,r5,r5
 4203d60:	003f7b06 	br	4203b50 <__alt_data_end+0xfff03b50>
 4203d64:	9c000217 	ldw	r16,8(r19)
 4203d68:	00bfff04 	movi	r2,-4
 4203d6c:	80c00117 	ldw	r3,4(r16)
 4203d70:	1886703a 	and	r3,r3,r2
 4203d74:	003f5306 	br	4203ac4 <__alt_data_end+0xfff03ac4>
 4203d78:	3083ffcc 	andi	r2,r6,4095
 4203d7c:	103f181e 	bne	r2,zero,42039e0 <__alt_data_end+0xfff039e0>
 4203d80:	99000217 	ldw	r4,8(r19)
 4203d84:	b545883a 	add	r2,r22,r21
 4203d88:	10800054 	ori	r2,r2,1
 4203d8c:	20800115 	stw	r2,4(r4)
 4203d90:	003f3e06 	br	4203a8c <__alt_data_end+0xfff03a8c>
 4203d94:	01003f84 	movi	r4,254
 4203d98:	02001fc4 	movi	r8,127
 4203d9c:	01c01f84 	movi	r7,126
 4203da0:	003e4006 	br	42036a4 <__alt_data_end+0xfff036a4>
 4203da4:	00810874 	movhi	r2,1057
 4203da8:	10915704 	addi	r2,r2,17756
 4203dac:	15000015 	stw	r20,0(r2)
 4203db0:	003f1106 	br	42039f8 <__alt_data_end+0xfff039f8>
 4203db4:	00800044 	movi	r2,1
 4203db8:	002b883a 	mov	r21,zero
 4203dbc:	003f1f06 	br	4203a3c <__alt_data_end+0xfff03a3c>
 4203dc0:	81400204 	addi	r5,r16,8
 4203dc4:	9009883a 	mov	r4,r18
 4203dc8:	42031940 	call	4203194 <_free_r>
 4203dcc:	00810874 	movhi	r2,1057
 4203dd0:	109cc104 	addi	r2,r2,29444
 4203dd4:	10c00017 	ldw	r3,0(r2)
 4203dd8:	003f2c06 	br	4203a8c <__alt_data_end+0xfff03a8c>
 4203ddc:	00c05504 	movi	r3,340
 4203de0:	18800536 	bltu	r3,r2,4203df8 <_malloc_r+0x7cc>
 4203de4:	3804d3fa 	srli	r2,r7,15
 4203de8:	11401e04 	addi	r5,r2,120
 4203dec:	10c01dc4 	addi	r3,r2,119
 4203df0:	294b883a 	add	r5,r5,r5
 4203df4:	003f5606 	br	4203b50 <__alt_data_end+0xfff03b50>
 4203df8:	00c15504 	movi	r3,1364
 4203dfc:	18800536 	bltu	r3,r2,4203e14 <_malloc_r+0x7e8>
 4203e00:	3804d4ba 	srli	r2,r7,18
 4203e04:	11401f44 	addi	r5,r2,125
 4203e08:	10c01f04 	addi	r3,r2,124
 4203e0c:	294b883a 	add	r5,r5,r5
 4203e10:	003f4f06 	br	4203b50 <__alt_data_end+0xfff03b50>
 4203e14:	01403f84 	movi	r5,254
 4203e18:	00c01f84 	movi	r3,126
 4203e1c:	003f4c06 	br	4203b50 <__alt_data_end+0xfff03b50>
 4203e20:	98800117 	ldw	r2,4(r19)
 4203e24:	003fa006 	br	4203ca8 <__alt_data_end+0xfff03ca8>
 4203e28:	8808d0fa 	srli	r4,r17,3
 4203e2c:	20800044 	addi	r2,r4,1
 4203e30:	1085883a 	add	r2,r2,r2
 4203e34:	003e9006 	br	4203878 <__alt_data_end+0xfff03878>

04203e38 <memset>:
 4203e38:	20c000cc 	andi	r3,r4,3
 4203e3c:	2005883a 	mov	r2,r4
 4203e40:	18004426 	beq	r3,zero,4203f54 <memset+0x11c>
 4203e44:	31ffffc4 	addi	r7,r6,-1
 4203e48:	30004026 	beq	r6,zero,4203f4c <memset+0x114>
 4203e4c:	2813883a 	mov	r9,r5
 4203e50:	200d883a 	mov	r6,r4
 4203e54:	2007883a 	mov	r3,r4
 4203e58:	00000406 	br	4203e6c <memset+0x34>
 4203e5c:	3a3fffc4 	addi	r8,r7,-1
 4203e60:	31800044 	addi	r6,r6,1
 4203e64:	38003926 	beq	r7,zero,4203f4c <memset+0x114>
 4203e68:	400f883a 	mov	r7,r8
 4203e6c:	18c00044 	addi	r3,r3,1
 4203e70:	32400005 	stb	r9,0(r6)
 4203e74:	1a0000cc 	andi	r8,r3,3
 4203e78:	403ff81e 	bne	r8,zero,4203e5c <__alt_data_end+0xfff03e5c>
 4203e7c:	010000c4 	movi	r4,3
 4203e80:	21c02d2e 	bgeu	r4,r7,4203f38 <memset+0x100>
 4203e84:	29003fcc 	andi	r4,r5,255
 4203e88:	200c923a 	slli	r6,r4,8
 4203e8c:	3108b03a 	or	r4,r6,r4
 4203e90:	200c943a 	slli	r6,r4,16
 4203e94:	218cb03a 	or	r6,r4,r6
 4203e98:	010003c4 	movi	r4,15
 4203e9c:	21c0182e 	bgeu	r4,r7,4203f00 <memset+0xc8>
 4203ea0:	3b3ffc04 	addi	r12,r7,-16
 4203ea4:	6018d13a 	srli	r12,r12,4
 4203ea8:	1a000104 	addi	r8,r3,4
 4203eac:	1ac00204 	addi	r11,r3,8
 4203eb0:	6008913a 	slli	r4,r12,4
 4203eb4:	1a800304 	addi	r10,r3,12
 4203eb8:	1813883a 	mov	r9,r3
 4203ebc:	21000504 	addi	r4,r4,20
 4203ec0:	1909883a 	add	r4,r3,r4
 4203ec4:	49800015 	stw	r6,0(r9)
 4203ec8:	41800015 	stw	r6,0(r8)
 4203ecc:	59800015 	stw	r6,0(r11)
 4203ed0:	51800015 	stw	r6,0(r10)
 4203ed4:	42000404 	addi	r8,r8,16
 4203ed8:	4a400404 	addi	r9,r9,16
 4203edc:	5ac00404 	addi	r11,r11,16
 4203ee0:	52800404 	addi	r10,r10,16
 4203ee4:	413ff71e 	bne	r8,r4,4203ec4 <__alt_data_end+0xfff03ec4>
 4203ee8:	63000044 	addi	r12,r12,1
 4203eec:	6018913a 	slli	r12,r12,4
 4203ef0:	39c003cc 	andi	r7,r7,15
 4203ef4:	010000c4 	movi	r4,3
 4203ef8:	1b07883a 	add	r3,r3,r12
 4203efc:	21c00e2e 	bgeu	r4,r7,4203f38 <memset+0x100>
 4203f00:	1813883a 	mov	r9,r3
 4203f04:	3811883a 	mov	r8,r7
 4203f08:	010000c4 	movi	r4,3
 4203f0c:	49800015 	stw	r6,0(r9)
 4203f10:	423fff04 	addi	r8,r8,-4
 4203f14:	4a400104 	addi	r9,r9,4
 4203f18:	223ffc36 	bltu	r4,r8,4203f0c <__alt_data_end+0xfff03f0c>
 4203f1c:	393fff04 	addi	r4,r7,-4
 4203f20:	2008d0ba 	srli	r4,r4,2
 4203f24:	39c000cc 	andi	r7,r7,3
 4203f28:	21000044 	addi	r4,r4,1
 4203f2c:	2109883a 	add	r4,r4,r4
 4203f30:	2109883a 	add	r4,r4,r4
 4203f34:	1907883a 	add	r3,r3,r4
 4203f38:	38000526 	beq	r7,zero,4203f50 <memset+0x118>
 4203f3c:	19cf883a 	add	r7,r3,r7
 4203f40:	19400005 	stb	r5,0(r3)
 4203f44:	18c00044 	addi	r3,r3,1
 4203f48:	38fffd1e 	bne	r7,r3,4203f40 <__alt_data_end+0xfff03f40>
 4203f4c:	f800283a 	ret
 4203f50:	f800283a 	ret
 4203f54:	2007883a 	mov	r3,r4
 4203f58:	300f883a 	mov	r7,r6
 4203f5c:	003fc706 	br	4203e7c <__alt_data_end+0xfff03e7c>

04203f60 <_printf_r>:
 4203f60:	defffd04 	addi	sp,sp,-12
 4203f64:	2805883a 	mov	r2,r5
 4203f68:	dfc00015 	stw	ra,0(sp)
 4203f6c:	d9800115 	stw	r6,4(sp)
 4203f70:	d9c00215 	stw	r7,8(sp)
 4203f74:	21400217 	ldw	r5,8(r4)
