
control.elf:     file format elf32-littlenios2
control.elf
architecture: nios2:r1, flags 0x00000112:
EXEC_P, HAS_SYMS, D_PAGED
start address 0x04000224

Program Header:
    LOAD off    0x00001020 vaddr 0x08008020 paddr 0x04000000 align 2**12
         filesz 0x00000224 memsz 0x00000224 flags r-x
    LOAD off    0x00002224 vaddr 0x04000224 paddr 0x04000224 align 2**12
         filesz 0x0000f860 memsz 0x0000f860 flags r-x
    LOAD off    0x00011a84 vaddr 0x0400fa84 paddr 0x04011588 align 2**12
         filesz 0x00001b04 memsz 0x00001b04 flags rw-
    LOAD off    0x0001408c vaddr 0x0401308c paddr 0x0401308c align 2**12
         filesz 0x00000000 memsz 0x00000180 flags rw-
    LOAD off    0x00014000 vaddr 0x08008000 paddr 0x08008000 align 2**12
         filesz 0x00000020 memsz 0x00000020 flags r-x

Sections:
Idx Name          Size      VMA       LMA       File off  Algn
  0 .entry        00000020  08008000  08008000  00014000  2**5
                  CONTENTS, ALLOC, LOAD, READONLY, CODE
  1 .exceptions   00000224  08008020  04000000  00001020  2**2
                  CONTENTS, ALLOC, LOAD, READONLY, CODE
  2 .text         0000f4bc  04000224  04000224  00002224  2**2
                  CONTENTS, ALLOC, LOAD, READONLY, CODE
  3 .rodata       000003a4  0400f6e0  0400f6e0  000116e0  2**2
                  CONTENTS, ALLOC, LOAD, READONLY, DATA
  4 .rwdata       00001b04  0400fa84  04011588  00011a84  2**2
                  CONTENTS, ALLOC, LOAD, DATA, SMALL_DATA
  5 .bss          00000180  0401308c  0401308c  0001408c  2**2
                  ALLOC, SMALL_DATA
  6 .new_sdram_controller_0 00000000  0401320c  0401320c  00014020  2**0
                  CONTENTS
  7 .control_mem  00000000  08008244  08008244  00014020  2**0
                  CONTENTS
  8 .comment      00000023  00000000  00000000  00014020  2**0
                  CONTENTS, READONLY
  9 .debug_aranges 00000e48  00000000  00000000  00014048  2**3
                  CONTENTS, READONLY, DEBUGGING
 10 .debug_info   00020c8a  00000000  00000000  00014e90  2**0
                  CONTENTS, READONLY, DEBUGGING
 11 .debug_abbrev 0000873b  00000000  00000000  00035b1a  2**0
                  CONTENTS, READONLY, DEBUGGING
 12 .debug_line   0000ac4a  00000000  00000000  0003e255  2**0
                  CONTENTS, READONLY, DEBUGGING
 13 .debug_frame  00002164  00000000  00000000  00048ea0  2**2
                  CONTENTS, READONLY, DEBUGGING
 14 .debug_str    00003898  00000000  00000000  0004b004  2**0
                  CONTENTS, READONLY, DEBUGGING
 15 .debug_loc    000167d0  00000000  00000000  0004e89c  2**0
                  CONTENTS, READONLY, DEBUGGING
 16 .debug_alt_sim_info 00000030  00000000  00000000  0006506c  2**2
                  CONTENTS, READONLY, DEBUGGING
 17 .debug_ranges 00001690  00000000  00000000  000650a0  2**3
                  CONTENTS, READONLY, DEBUGGING
 18 .thread_model 00000003  00000000  00000000  000699de  2**0
                  CONTENTS, READONLY
 19 .cpu          0000000c  00000000  00000000  000699e1  2**0
                  CONTENTS, READONLY
 20 .qsys         00000001  00000000  00000000  000699ed  2**0
                  CONTENTS, READONLY
 21 .simulation_enabled 00000001  00000000  00000000  000699ee  2**0
                  CONTENTS, READONLY
 22 .stderr_dev   0000000c  00000000  00000000  000699ef  2**0
                  CONTENTS, READONLY
 23 .stdin_dev    0000000c  00000000  00000000  000699fb  2**0
                  CONTENTS, READONLY
 24 .stdout_dev   0000000c  00000000  00000000  00069a07  2**0
                  CONTENTS, READONLY
 25 .sopc_system_name 0000000c  00000000  00000000  00069a13  2**0
                  CONTENTS, READONLY
 26 .quartus_project_dir 00000042  00000000  00000000  00069a1f  2**0
                  CONTENTS, READONLY
 27 .jdi          000106fb  00000000  00000000  00069a61  2**0
                  CONTENTS, READONLY
 28 .sopcinfo     00144e2a  00000000  00000000  0007a15c  2**0
                  CONTENTS, READONLY
SYMBOL TABLE:
08008000 l    d  .entry	00000000 .entry
08008020 l    d  .exceptions	00000000 .exceptions
04000224 l    d  .text	00000000 .text
0400f6e0 l    d  .rodata	00000000 .rodata
0400fa84 l    d  .rwdata	00000000 .rwdata
0401308c l    d  .bss	00000000 .bss
0401320c l    d  .new_sdram_controller_0	00000000 .new_sdram_controller_0
08008244 l    d  .control_mem	00000000 .control_mem
00000000 l    d  .comment	00000000 .comment
00000000 l    d  .debug_aranges	00000000 .debug_aranges
00000000 l    d  .debug_info	00000000 .debug_info
00000000 l    d  .debug_abbrev	00000000 .debug_abbrev
00000000 l    d  .debug_line	00000000 .debug_line
00000000 l    d  .debug_frame	00000000 .debug_frame
00000000 l    d  .debug_str	00000000 .debug_str
00000000 l    d  .debug_loc	00000000 .debug_loc
00000000 l    d  .debug_alt_sim_info	00000000 .debug_alt_sim_info
00000000 l    d  .debug_ranges	00000000 .debug_ranges
00000000 l    df *ABS*	00000000 ../control_bsp//obj/HAL/src/crt0.o
0400026c l       .text	00000000 alt_after_alt_main
00000000 l    df *ABS*	00000000 alt_irq_handler.c
00000000 l    df *ABS*	00000000 alt_instruction_exception_entry.c
00000000 l    df *ABS*	00000000 main.c
00000000 l    df *ABS*	00000000 speaker.c
0401308c l     O .bss	00000004 speaker_current
04013090 l     O .bss	00000004 toggle_counter
04013094 l     O .bss	00000004 frequency_threshold
04013098 l     O .bss	00000004 frequency_prev
00000000 l    df *ABS*	00000000 switches.c
0401309c l     O .bss	00000004 HEX_enable_bit
040130a0 l     O .bss	00000004 scroll_counter
040130a4 l     O .bss	00000004 scroll_offset
00000000 l    df *ABS*	00000000 traffc_led.c
040130a8 l     O .bss	00000004 LED_state
00000000 l    df *ABS*	00000000 lib2-divmod.c
00000000 l    df *ABS*	00000000 memcpy.c
00000000 l    df *ABS*	00000000 puts.c
00000000 l    df *ABS*	00000000 snprintf.c
00000000 l    df *ABS*	00000000 strlen.c
00000000 l    df *ABS*	00000000 vfprintf.c
0400f7ba l     O .rodata	00000010 zeroes.4389
0400f7ca l     O .rodata	00000010 blanks.4388
00000000 l    df *ABS*	00000000 dtoa.c
04003288 l     F .text	00000200 quorem
00000000 l    df *ABS*	00000000 findfp.c
04004b10 l     F .text	00000008 __fp_unlock
04004b24 l     F .text	0000019c __sinit.part.1
04004cc0 l     F .text	00000008 __fp_lock
00000000 l    df *ABS*	00000000 fvwrite.c
00000000 l    df *ABS*	00000000 fwalk.c
00000000 l    df *ABS*	00000000 impure.c
0400fa84 l     O .rwdata	00000424 impure_data
00000000 l    df *ABS*	00000000 locale.c
0400fec8 l     O .rwdata	00000020 lc_ctype_charset
0400fea8 l     O .rwdata	00000020 lc_message_charset
0400fee8 l     O .rwdata	00000038 lconv
00000000 l    df *ABS*	00000000 mallocr.c
00000000 l    df *ABS*	00000000 memchr.c
00000000 l    df *ABS*	00000000 memmove.c
00000000 l    df *ABS*	00000000 memset.c
00000000 l    df *ABS*	00000000 mprec.c
0400f7fc l     O .rodata	0000000c p05.2768
00000000 l    df *ABS*	00000000 mallocr.c
00000000 l    df *ABS*	00000000 s_fpclassify.c
00000000 l    df *ABS*	00000000 sbrkr.c
00000000 l    df *ABS*	00000000 stdio.c
00000000 l    df *ABS*	00000000 strcmp.c
00000000 l    df *ABS*	00000000 vfprintf.c
0400f930 l     O .rodata	00000010 blanks.4332
0400f920 l     O .rodata	00000010 zeroes.4333
00000000 l    df *ABS*	00000000 writer.c
00000000 l    df *ABS*	00000000 wsetup.c
00000000 l    df *ABS*	00000000 closer.c
00000000 l    df *ABS*	00000000 mallocr.c
00000000 l    df *ABS*	00000000 fclose.c
00000000 l    df *ABS*	00000000 fflush.c
00000000 l    df *ABS*	00000000 mallocr.c
00000000 l    df *ABS*	00000000 int_errno.c
00000000 l    df *ABS*	00000000 lseekr.c
00000000 l    df *ABS*	00000000 makebuf.c
00000000 l    df *ABS*	00000000 readr.c
00000000 l    df *ABS*	00000000 fstatr.c
00000000 l    df *ABS*	00000000 isattyr.c
00000000 l    df *ABS*	00000000 libgcc2.c
00000000 l    df *ABS*	00000000 libgcc2.c
00000000 l    df *ABS*	00000000 adddf3.c
00000000 l    df *ABS*	00000000 divdf3.c
00000000 l    df *ABS*	00000000 eqdf2.c
00000000 l    df *ABS*	00000000 gedf2.c
00000000 l    df *ABS*	00000000 ledf2.c
00000000 l    df *ABS*	00000000 muldf3.c
00000000 l    df *ABS*	00000000 subdf3.c
00000000 l    df *ABS*	00000000 fixdfsi.c
00000000 l    df *ABS*	00000000 floatsidf.c
00000000 l    df *ABS*	00000000 floatunsidf.c
00000000 l    df *ABS*	00000000 libgcc2.c
00000000 l    df *ABS*	00000000 libgcc2.c
00000000 l    df *ABS*	00000000 alt_close.c
0400cc80 l     F .text	0000003c alt_get_errno
00000000 l    df *ABS*	00000000 alt_dev.c
0400cd8c l     F .text	0000002c alt_dev_null_write
00000000 l    df *ABS*	00000000 alt_errno.c
00000000 l    df *ABS*	00000000 alt_fstat.c
0400cdb8 l     F .text	0000003c alt_get_errno
00000000 l    df *ABS*	00000000 alt_isatty.c
0400cea4 l     F .text	0000003c alt_get_errno
00000000 l    df *ABS*	00000000 alt_load.c
0400cf84 l     F .text	00000068 alt_load_section
00000000 l    df *ABS*	00000000 alt_lseek.c
0400d070 l     F .text	0000003c alt_get_errno
00000000 l    df *ABS*	00000000 alt_main.c
00000000 l    df *ABS*	00000000 alt_malloc_lock.c
00000000 l    df *ABS*	00000000 alt_read.c
0400d244 l     F .text	0000003c alt_get_errno
00000000 l    df *ABS*	00000000 alt_release_fd.c
00000000 l    df *ABS*	00000000 alt_sbrk.c
04011570 l     O .rwdata	00000004 heap_end
00000000 l    df *ABS*	00000000 alt_write.c
0400d490 l     F .text	0000003c alt_get_errno
00000000 l    df *ABS*	00000000 alt_sys_init.c
0400d5c4 l     F .text	00000034 alt_dev_reg
0400d5f8 l     F .text	0000003c alt_get_errno
0400d634 l     F .text	00000068 alt_avalon_mutex_reg
040104d0 l     O .rwdata	00001060 jtag_control
04011530 l     O .rwdata	00000010 mutex_0
00000000 l    df *ABS*	00000000 altera_avalon_jtag_uart_fd.c
00000000 l    df *ABS*	00000000 altera_avalon_jtag_uart_init.c
0400d94c l     F .text	0000020c altera_avalon_jtag_uart_irq
0400db58 l     F .text	000000a0 altera_avalon_jtag_uart_timeout
00000000 l    df *ABS*	00000000 altera_avalon_jtag_uart_ioctl.c
00000000 l    df *ABS*	00000000 altera_avalon_jtag_uart_read.c
00000000 l    df *ABS*	00000000 altera_avalon_jtag_uart_write.c
00000000 l    df *ABS*	00000000 altera_avalon_mutex.c
0400e1d4 l     F .text	0000003c alt_get_errno
0400e210 l     F .text	0000007c alt_mutex_trylock
00000000 l    df *ABS*	00000000 alt_alarm_start.c
00000000 l    df *ABS*	00000000 alt_dcache_flush_all.c
00000000 l    df *ABS*	00000000 alt_dev_llist_insert.c
0400e614 l     F .text	0000003c alt_get_errno
00000000 l    df *ABS*	00000000 alt_do_ctors.c
00000000 l    df *ABS*	00000000 alt_do_dtors.c
00000000 l    df *ABS*	00000000 alt_find_dev.c
00000000 l    df *ABS*	00000000 alt_icache_flush_all.c
00000000 l    df *ABS*	00000000 alt_iic.c
00000000 l    df *ABS*	00000000 alt_iic_isr_register.c
00000000 l    df *ABS*	00000000 alt_io_redirect.c
0400eb18 l     F .text	000000c4 alt_open_fd
00000000 l    df *ABS*	00000000 alt_irq_vars.c
00000000 l    df *ABS*	00000000 alt_open.c
0400ec58 l     F .text	0000003c alt_get_errno
0400ec94 l     F .text	000000c4 alt_file_locked
00000000 l    df *ABS*	00000000 alt_tick.c
00000000 l    df *ABS*	00000000 altera_nios2_gen2_irq.c
00000000 l    df *ABS*	00000000 alt_find_file.c
00000000 l    df *ABS*	00000000 alt_get_fd.c
00000000 l    df *ABS*	00000000 alt_icache_flush.c
00000000 l    df *ABS*	00000000 atexit.c
00000000 l    df *ABS*	00000000 exit.c
00000000 l    df *ABS*	00000000 memcmp.c
00000000 l    df *ABS*	00000000 __atexit.c
00000000 l    df *ABS*	00000000 __call_atexit.c
00000000 l    df *ABS*	00000000 alt_exit.c
040130e0 g     O .bss	00000004 alt_instruction_exception_handler
04006fc8 g     F .text	00000074 _mprec_log10
040070b4 g     F .text	0000008c __any_on
04009b14 g     F .text	00000054 _isatty_r
0400f808 g     O .rodata	00000028 __mprec_tinytens
0400d180 g     F .text	0000007c alt_main
04000d88 g     F .text	000000c0 _puts_r
0401310c g     O .bss	00000100 alt_irq
0400983c g     F .text	00000060 _lseek_r
04011588 g       *ABS*	00000000 __flash_rwdata_start
0400b7ac g     F .text	00000088 .hidden __eqdf2
0401320c g       *ABS*	00000000 __alt_heap_start
04007844 g     F .text	0000005c __sseek
04004e60 g     F .text	00000010 __sinit
040054f4 g     F .text	0000007c _setlocale_r
04004cc8 g     F .text	00000068 __sfmoreglue
0400d220 g     F .text	00000024 __malloc_unlock
04005ec0 g     F .text	0000015c memmove
04004e48 g     F .text	00000018 _cleanup
04000f34 g     F .text	000000e4 snprintf
0400e348 g     F .text	00000040 altera_avalon_mutex_trylock
04006144 g     F .text	000000a8 _Balloc
0400b834 g     F .text	000000dc .hidden __gtdf2
0400f050 g     F .text	00000024 altera_nios2_gen2_irq_init
04000498 g     F .text	000000a8 HEX_enable
08008000 g     F .entry	0000001c __reset
0400e3dc g     F .text	00000074 altera_avalon_mutex_is_mine
04000000 g       *ABS*	00000000 __flash_exceptions_start
04009ab8 g     F .text	0000005c _fstat_r
040130c4 g     O .bss	00000004 errno
040077c0 g     F .text	00000008 __seofread
04007b54 g     F .text	0000123c ___svfiprintf_internal_r
040130cc g     O .bss	00000004 alt_argv
04019540 g       *ABS*	00000000 _gp
04010350 g     O .rwdata	00000180 alt_fd_list
0400e7b4 g     F .text	00000090 alt_find_dev
04000c40 g     F .text	00000148 memcpy
04004b18 g     F .text	0000000c _cleanup_r
0400ca98 g     F .text	000000dc .hidden __floatsidf
0400ebdc g     F .text	0000007c alt_io_redirect
0400b910 g     F .text	000000f4 .hidden __ltdf2
0400f6e0 g       *ABS*	00000000 __DTOR_END__
04000e48 g     F .text	00000014 puts
0400f2b0 g     F .text	0000009c alt_exception_cause_generated_bad_addr
040076a4 g     F .text	00000074 __fpclassifyd
04006f24 g     F .text	000000a4 __ratio
0400dd50 g     F .text	0000021c altera_avalon_jtag_uart_read
04000b84 g     F .text	00000064 .hidden __udivsi3
0400cee0 g     F .text	000000a4 isatty
0400f858 g     O .rodata	000000c8 __mprec_tens
04005570 g     F .text	0000000c __locale_charset
0400f220 g     F .text	00000090 alt_icache_flush
040130c0 g     O .bss	00000004 __malloc_top_pad
04011540 g     O .rwdata	00000004 scroll_speed
0401154c g     O .rwdata	00000004 __mb_cur_max
040055a0 g     F .text	0000000c _localeconv_r
04006550 g     F .text	0000003c __i2b
04004eb0 g     F .text	000004bc __sfvwrite_r
04007718 g     F .text	00000054 _sbrk_r
04000540 g     F .text	000001e0 handle_switch2
04009a58 g     F .text	00000060 _read_r
04011568 g     O .rwdata	00000004 alt_max_fd
0400905c g     F .text	000000f0 _fclose_r
04000a24 g     F .text	00000068 green_light
040093d8 g     F .text	00000030 fflush
040130bc g     O .bss	00000004 __malloc_max_sbrked_mem
0400a618 g     F .text	000008ac .hidden __adddf3
04006ccc g     F .text	0000010c __b2d
0400a0e0 g     F .text	00000538 .hidden __umoddi3
0400d0ac g     F .text	000000d4 lseek
0400e450 g     F .text	00000050 altera_avalon_mutex_first_lock
04011544 g     O .rwdata	00000004 _global_impure_ptr
04007140 g     F .text	00000564 _realloc_r
0401320c g       *ABS*	00000000 __bss_end
0400ea28 g     F .text	000000f0 alt_iic_isr_register
0400ef48 g     F .text	00000108 alt_tick
04009b68 g     F .text	00000578 .hidden __udivdi3
0400f830 g     O .rodata	00000028 __mprec_bigtens
04006334 g     F .text	00000104 __s2b
0400cb74 g     F .text	000000a8 .hidden __floatunsidf
04006a0c g     F .text	00000060 __mcmp
04004e80 g     F .text	00000018 __fp_lock_all
0400e9dc g     F .text	0000004c alt_ic_irq_enabled
0400eeac g     F .text	0000009c alt_alarm_stop
040130d4 g     O .bss	00000004 alt_irq_active
080080fc g     F .exceptions	000000d4 alt_irq_handler
04010328 g     O .rwdata	00000028 alt_dev_null
0400e28c g     F .text	00000054 altera_avalon_mutex_open
0400e5cc g     F .text	00000048 alt_dcache_flush_all
04006438 g     F .text	00000068 __hi0bits
0400ca18 g     F .text	00000080 .hidden __fixdfsi
04011588 g       *ABS*	00000000 __ram_rwdata_end
04011560 g     O .rwdata	00000008 alt_dev_list
0400d4cc g     F .text	000000f8 write
04011574 g     O .rwdata	00000008 alt_mutex_list
0400fa84 g       *ABS*	00000000 __ram_rodata_end
0400cdf4 g     F .text	000000b0 fstat
0400b910 g     F .text	000000f4 .hidden __ledf2
04006784 g     F .text	00000140 __pow5mult
040130b4 g     O .bss	00000004 __nlocale_changed
04000be8 g     F .text	00000058 .hidden __umodsi3
0401320c g       *ABS*	00000000 end
040009bc g     F .text	00000068 yellow_light
0400d88c g     F .text	000000c0 altera_avalon_jtag_uart_init
080081d0 g     F .exceptions	00000074 alt_instruction_exception_entry
0400f6e0 g       *ABS*	00000000 __CTOR_LIST__
04100000 g       *ABS*	00000000 __alt_stack_pointer
0400cc1c g     F .text	00000064 .hidden __clzsi2
04000e5c g     F .text	000000d8 _snprintf_r
0400df6c g     F .text	00000268 altera_avalon_jtag_uart_write
04004e70 g     F .text	00000004 __sfp_lock_acquire
04005ddc g     F .text	000000e4 memchr
0400952c g     F .text	00000310 _free_r
0400557c g     F .text	00000010 __locale_mb_cur_max
0400f52c g     F .text	00000180 __call_exitprocs
040130b0 g     O .bss	00000004 __mlocale_changed
04011550 g     O .rwdata	00000004 __malloc_sbrk_base
04000224 g     F .text	0000004c _start
040130d8 g     O .bss	00000004 _alt_tick_rate
040068c4 g     F .text	00000148 __lshift
040130dc g     O .bss	00000004 _alt_nticks
0400d280 g     F .text	000000fc read
0400d6d4 g     F .text	00000054 alt_sys_init
04007984 g     F .text	000001d0 __ssprint_r
0400f414 g     F .text	00000118 __register_exitproc
0400e388 g     F .text	00000054 altera_avalon_mutex_unlock
0400658c g     F .text	000001f8 __multiply
0400dbf8 g     F .text	00000068 altera_avalon_jtag_uart_close
0400fa84 g       *ABS*	00000000 __ram_rwdata_start
0400f6e0 g       *ABS*	00000000 __ram_rodata_start
040130e4 g     O .bss	00000028 __malloc_current_mallinfo
04006dd8 g     F .text	0000014c __d2b
0400d728 g     F .text	00000060 altera_avalon_jtag_uart_read_fd
0400f17c g     F .text	000000a4 alt_get_fd
04008f44 g     F .text	00000054 _close_r
0400f398 g     F .text	0000007c memcmp
0400d7e8 g     F .text	00000050 altera_avalon_jtag_uart_close_fd
0401320c g       *ABS*	00000000 __alt_stack_base
0400d838 g     F .text	00000054 altera_avalon_jtag_uart_ioctl_fd
04008df0 g     F .text	00000154 __swsetup_r
0400aec4 g     F .text	000008e8 .hidden __divdf3
04004d30 g     F .text	00000118 __sfp
0400703c g     F .text	00000078 __copybits
0400ff20 g     O .rwdata	00000408 __malloc_av_
04004e7c g     F .text	00000004 __sinit_lock_release
0400ba04 g     F .text	00000718 .hidden __muldf3
0400776c g     F .text	00000054 __sread
0400f074 g     F .text	00000108 alt_find_file
0400e650 g     F .text	000000a4 alt_dev_llist_insert
0400d1fc g     F .text	00000024 __malloc_lock
0400d3e0 g     F .text	000000b0 sbrk
040010b0 g     F .text	000021d8 ___svfprintf_internal_r
0400937c g     F .text	0000005c _fflush_r
04008f98 g     F .text	000000c4 _calloc_r
0401308c g       *ABS*	00000000 __bss_start
04000720 g     F .text	00000094 handle_switch3
0400601c g     F .text	00000128 memset
04000270 g     F .text	0000014c main
040130d0 g     O .bss	00000004 alt_envp
040130b8 g     O .bss	00000004 __malloc_max_total_mem
0400d788 g     F .text	00000060 altera_avalon_jtag_uart_write_fd
040078a0 g     F .text	00000008 __sclose
04100000 g       *ABS*	00000000 __alt_heap_limit
0400914c g     F .text	00000014 fclose
0400e304 g     F .text	00000044 altera_avalon_mutex_lock
04003488 g     F .text	00001688 _dtoa_r
040055d0 g     F .text	0000080c _malloc_r
0401156c g     O .rwdata	00000004 alt_errno
0400536c g     F .text	000000c4 _fwalk
04000a8c g     F .text	00000084 .hidden __divsi3
04009408 g     F .text	00000124 _malloc_trim_r
0400f6e0 g       *ABS*	00000000 __CTOR_END__
040078a8 g     F .text	000000dc strcmp
0400f6e0 g       *ABS*	00000000 __flash_rodata_start
0400f6e0 g       *ABS*	00000000 __DTOR_LIST__
0400b7ac g     F .text	00000088 .hidden __nedf2
0400d69c g     F .text	00000038 alt_irq_init
0400d37c g     F .text	00000064 alt_release_fd
0400f940 g     O .rodata	00000100 .hidden __clz_tab
040130ac g     O .bss	00000004 _PathLocale
0400f34c g     F .text	00000014 atexit
04008d90 g     F .text	00000060 _write_r
040055ac g     F .text	00000018 setlocale
04011548 g     O .rwdata	00000004 _impure_ptr
04000808 g     F .text	0000014c translator
040130c8 g     O .bss	00000004 alt_argc
04009160 g     F .text	0000021c __sflush_r
0400e754 g     F .text	00000060 _do_dtors
04005598 g     F .text	00000008 __locale_cjk_lang
08008020 g       .exceptions	00000000 alt_irq_entry
04006c68 g     F .text	00000064 __ulp
04004e98 g     F .text	00000018 __fp_unlock_all
04011558 g     O .rwdata	00000008 alt_fs_list
08008020 g       *ABS*	00000000 __ram_exceptions_start
040055c4 g     F .text	0000000c localeconv
04000000 g       *ABS*	00000000 __alt_mem_new_sdram_controller_0
0400e878 g     F .text	00000050 alt_ic_isr_register
04011588 g       *ABS*	00000000 _edata
0401320c g       *ABS*	00000000 _end
08008244 g       *ABS*	00000000 __ram_exceptions_end
0400dc60 g     F .text	000000f0 altera_avalon_jtag_uart_ioctl
0400e950 g     F .text	0000008c alt_ic_irq_disable
040077c8 g     F .text	0000007c __swrite
04011554 g     O .rwdata	00000004 __malloc_trim_threshold
0400558c g     F .text	0000000c __locale_msgcharset
0400f360 g     F .text	00000038 exit
04005430 g     F .text	000000c4 _fwalk_reent
04006a6c g     F .text	000001fc __mdiff
08008000 g       *ABS*	00000000 __alt_mem_control_mem
04000b10 g     F .text	00000074 .hidden __modsi3
04100000 g       *ABS*	00000000 __alt_data_end
08008020 g     F .exceptions	00000000 alt_exception
04004e74 g     F .text	00000004 __sfp_lock_release
0400f6ac g     F .text	00000034 _exit
0400e4a0 g     F .text	0000012c alt_alarm_start
0400989c g     F .text	000001bc __smakebuf_r
04001018 g     F .text	00000098 strlen
0400ed58 g     F .text	00000154 open
0400b834 g     F .text	000000dc .hidden __gedf2
0400e844 g     F .text	00000034 alt_icache_flush_all
04000954 g     F .text	00000068 red_light
0401157c g     O .rwdata	00000004 alt_priority_mask
0400e8c8 g     F .text	00000088 alt_ic_irq_enable
0400e2e0 g     F .text	00000024 altera_avalon_mutex_close
0400c11c g     F .text	000008fc .hidden __subdf3
040064a0 g     F .text	000000b0 __lo0bits
040007b4 g     F .text	00000054 handle_switch4
040003bc g     F .text	000000dc play_speaker
04011580 g     O .rwdata	00000008 alt_alarm_list
0400e6f4 g     F .text	00000060 _do_ctors
0400ccbc g     F .text	000000d0 close
0400cfec g     F .text	00000084 alt_load
04004e78 g     F .text	00000004 __sinit_lock_acquire
04006214 g     F .text	00000120 __multadd
040061ec g     F .text	00000028 _Bfree



Disassembly of section .entry:

08008000 <__reset>:
#if NIOS2_ICACHE_SIZE > 0 && defined(ALT_ALLOW_CODE_AT_RESET) && (!defined(ALT_SIM_OPTIMIZE) || defined(NIOS2_ECC_PRESENT))
    /* Assume the instruction cache size is always a power of two. */
#if NIOS2_ICACHE_SIZE > 0x8000
    movhi r2, %hi(NIOS2_ICACHE_SIZE)
#else
    movui r2, NIOS2_ICACHE_SIZE
 8008000:	00840014 	movui	r2,4096
#endif

0:
    initi r2
 8008004:	1001483a 	initi	r2
    addi r2, r2, -NIOS2_ICACHE_LINE_SIZE
 8008008:	10bff804 	addi	r2,r2,-32
    bgt r2, zero, 0b
 800800c:	00bffd16 	blt	zero,r2,8008004 <__ram_exceptions_end+0xfffffdc0>
 * Jump to the _start entry point in the .text section if reset code
 * is allowed or if optimizing for RTL simulation.
 */
#if defined(ALT_ALLOW_CODE_AT_RESET) || defined(ALT_SIM_OPTIMIZE)
    /* Jump to the _start entry point in the .text section. */
    movhi r1, %hi(_start)
 8008010:	00410034 	movhi	at,1024
    ori r1, r1, %lo(_start)
 8008014:	08408914 	ori	at,at,548
    jmp r1
 8008018:	0800683a 	jmp	at
 800801c:	00000000 	call	0 <__alt_mem_new_sdram_controller_0-0x4000000>

Disassembly of section .exceptions:

08008020 <alt_exception>:

#else /* ALT_EXCEPTION_STACK disabled */
        /* 
         * Reserve space on normal stack for registers about to be pushed.
         */
        addi  sp, sp, -76
 8008020:	deffed04 	addi	sp,sp,-76
         * documentation for details).
         *
         * Leave a gap in the stack frame at 4(sp) for the muldiv handler to
         * store zero into.
         */
        stw   ra,  0(sp)
 8008024:	dfc00015 	stw	ra,0(sp)
        stw   r1,   8(sp)
 8008028:	d8400215 	stw	at,8(sp)
        stw   r2,  12(sp)
 800802c:	d8800315 	stw	r2,12(sp)
        stw   r3,  16(sp)
 8008030:	d8c00415 	stw	r3,16(sp)
        stw   r4,  20(sp)
 8008034:	d9000515 	stw	r4,20(sp)
        stw   r5,  24(sp)
 8008038:	d9400615 	stw	r5,24(sp)
        stw   r6,  28(sp)
 800803c:	d9800715 	stw	r6,28(sp)
        stw   r7,  32(sp)
 8008040:	d9c00815 	stw	r7,32(sp)
        rdctl r5, estatus   /* Read early to avoid usage stall */
 8008044:	000b307a 	rdctl	r5,estatus
        stw   r8,  36(sp)
 8008048:	da000915 	stw	r8,36(sp)
        stw   r9,  40(sp)
 800804c:	da400a15 	stw	r9,40(sp)
        stw   r10, 44(sp)
 8008050:	da800b15 	stw	r10,44(sp)
        stw   r11, 48(sp)
 8008054:	dac00c15 	stw	r11,48(sp)
        stw   r12, 52(sp)
 8008058:	db000d15 	stw	r12,52(sp)
        stw   r13, 56(sp)
 800805c:	db400e15 	stw	r13,56(sp)
        stw   r14, 60(sp)
 8008060:	db800f15 	stw	r14,60(sp)
        stw   r15, 64(sp)
 8008064:	dbc01015 	stw	r15,64(sp)
        /*
         * ea-4 contains the address of the instruction being executed
         * when the exception occured. For interrupt exceptions, we will
         * will be re-issue the isntruction. Store it in 72(sp)
         */
        stw   r5,  68(sp)  /* estatus */
 8008068:	d9401115 	stw	r5,68(sp)
        addi  r15, ea, -4  /* instruction that caused exception */
 800806c:	ebffff04 	addi	r15,ea,-4
        stw   r15,  72(sp)
 8008070:	dbc01215 	stw	r15,72(sp)
#else
        /*
         * Test to see if the exception was a software exception or caused 
         * by an external interrupt, and vector accordingly.
         */
        rdctl r4, ipending
 8008074:	0009313a 	rdctl	r4,ipending
        andi  r2, r5, 1
 8008078:	2880004c 	andi	r2,r5,1
        beq   r2, zero, .Lnot_irq
 800807c:	10000326 	beq	r2,zero,800808c <alt_exception+0x6c>
        beq   r4, zero, .Lnot_irq
 8008080:	20000226 	beq	r4,zero,800808c <alt_exception+0x6c>
        /*
         * Now that all necessary registers have been preserved, call 
         * alt_irq_handler() to process the interrupts.
         */

        call alt_irq_handler
 8008084:	80080fc0 	call	80080fc <alt_irq_handler>

        .section .exceptions.irqreturn, "xa"

        br    .Lexception_exit
 8008088:	00000706 	br	80080a8 <alt_exception+0x88>
         * upon completion, so we write ea (address of instruction *after*
         * the one where the exception occured) into 72(sp). The actual
         * instruction that caused the exception is written in r2, which these
         * handlers will utilize.
         */
        stw ea, 72(sp) /* EA is PC+4 so will skip over instruction causing exception */
 800808c:	df401215 	stw	ea,72(sp)
.Lunknown_16bit:
        addi.n r4, r4, 2 /* Need PC+2 to skip over instruction causing exception */
        stw r4, 72(sp)

#else /* CDX is not Enabled and all instructions are 32bits */
        ldw r2, -4(ea) /* Instruction value that caused exception */
 8008090:	e8bfff17 	ldw	r2,-4(ea)
         * debugger is present) or go into an infinite loop since the
         * handling behavior is undefined; in that case we will not return here.
         */

        /* Load exception-causing address as first argument (r4) */
        addi   r4, ea, -4
 8008094:	e93fff04 	addi	r4,ea,-4

        /* Call the instruction-exception entry */
        call   alt_instruction_exception_entry
 8008098:	80081d00 	call	80081d0 <alt_instruction_exception_entry>
         * instruction
         *
         * Return code was 0: Skip. The instruction after the exception is
         * already stored in 72(sp).
         */
        bne   r2, r0, .Lexception_exit
 800809c:	1000021e 	bne	r2,zero,80080a8 <alt_exception+0x88>

        /*
         * Otherwise, modify 72(sp) to re-issue the instruction that caused the
         * exception.
         */
        addi  r15, ea, -4  /* instruction that caused exception */
 80080a0:	ebffff04 	addi	r15,ea,-4
        stw   r15,  72(sp)
 80080a4:	dbc01215 	stw	r15,72(sp)
        /* 
         * Restore the saved registers, so that all general purpose registers 
         * have been restored to their state at the time the interrupt occured.
         */

        ldw   r5,  68(sp)
 80080a8:	d9401117 	ldw	r5,68(sp)
        ldw   ea,  72(sp)  /* This becomes the PC once eret is executed */
 80080ac:	df401217 	ldw	ea,72(sp)
        ldw   ra,   0(sp)
 80080b0:	dfc00017 	ldw	ra,0(sp)

        wrctl estatus, r5
 80080b4:	2801707a 	wrctl	estatus,r5

        ldw   r1,   8(sp)
 80080b8:	d8400217 	ldw	at,8(sp)
        ldw   r2,  12(sp)
 80080bc:	d8800317 	ldw	r2,12(sp)
        ldw   r3,  16(sp)
 80080c0:	d8c00417 	ldw	r3,16(sp)
        ldw   r4,  20(sp)
 80080c4:	d9000517 	ldw	r4,20(sp)
        ldw   r5,  24(sp)
 80080c8:	d9400617 	ldw	r5,24(sp)
        ldw   r6,  28(sp)
 80080cc:	d9800717 	ldw	r6,28(sp)
        ldw   r7,  32(sp)
 80080d0:	d9c00817 	ldw	r7,32(sp)

#if defined(ALT_EXCEPTION_STACK) && defined(ALT_STACK_CHECK)
        ldw   et, %gprel(alt_exception_old_stack_limit)(gp)
#endif

        ldw   r8,  36(sp)
 80080d4:	da000917 	ldw	r8,36(sp)
        ldw   r9,  40(sp)
 80080d8:	da400a17 	ldw	r9,40(sp)
        ldw   r10, 44(sp)
 80080dc:	da800b17 	ldw	r10,44(sp)
        ldw   r11, 48(sp)
 80080e0:	dac00c17 	ldw	r11,48(sp)
        ldw   r12, 52(sp)
 80080e4:	db000d17 	ldw	r12,52(sp)
        ldw   r13, 56(sp)
 80080e8:	db400e17 	ldw	r13,56(sp)
        ldw   r14, 60(sp)
 80080ec:	db800f17 	ldw	r14,60(sp)
        ldw   r15, 64(sp)
 80080f0:	dbc01017 	ldw	r15,64(sp)
        stw   et, %gprel(alt_stack_limit_value)(gp)
        stw   zero, %gprel(alt_exception_old_stack_limit)(gp)
#endif /* ALT_STACK_CHECK */
        ldw   sp,  76(sp)
#else /* ALT_EXCEPTION_STACK disabled */
        addi  sp, sp, 76
 80080f4:	dec01304 	addi	sp,sp,76

        /*
         * Return to the interrupted instruction.
         */

        eret
 80080f8:	ef80083a 	eret

080080fc <alt_irq_handler>:
 * instruction is present if the macro ALT_CI_INTERRUPT_VECTOR defined.
 */

void alt_irq_handler (void) __attribute__ ((section (".exceptions")));
void alt_irq_handler (void)
{
 80080fc:	defff904 	addi	sp,sp,-28
 8008100:	dfc00615 	stw	ra,24(sp)
 8008104:	df000515 	stw	fp,20(sp)
 8008108:	df000504 	addi	fp,sp,20
  
  /*
   * Notify the operating system that we are at interrupt level.
   */ 
  
  ALT_OS_INT_ENTER();
 800810c:	0001883a 	nop
#ifndef NIOS2_EIC_PRESENT
static ALT_INLINE alt_u32 ALT_ALWAYS_INLINE alt_irq_pending (void)
{
  alt_u32 active;

  NIOS2_READ_IPENDING (active);
 8008110:	0005313a 	rdctl	r2,ipending
 8008114:	e0bffe15 	stw	r2,-8(fp)

  return active;
 8008118:	e0bffe17 	ldw	r2,-8(fp)
   * Consider the case where the high priority interupt is asserted during
   * the interrupt entry sequence for a lower priority interrupt to see why
   * this is the case.
   */

  active = alt_irq_pending ();
 800811c:	e0bffb15 	stw	r2,-20(fp)

  do
  {
    i = 0;
 8008120:	e03ffd15 	stw	zero,-12(fp)
    mask = 1;
 8008124:	00800044 	movi	r2,1
 8008128:	e0bffc15 	stw	r2,-16(fp)
     * called to clear the interrupt condition.
     */

    do
    {
      if (active & mask)
 800812c:	e0fffb17 	ldw	r3,-20(fp)
 8008130:	e0bffc17 	ldw	r2,-16(fp)
 8008134:	1884703a 	and	r2,r3,r2
 8008138:	10001426 	beq	r2,zero,800818c <alt_irq_handler+0x90>
      { 
#ifdef ALT_ENHANCED_INTERRUPT_API_PRESENT
        alt_irq[i].handler(alt_irq[i].context); 
 800813c:	00810074 	movhi	r2,1025
 8008140:	108c4304 	addi	r2,r2,12556
 8008144:	e0fffd17 	ldw	r3,-12(fp)
 8008148:	180690fa 	slli	r3,r3,3
 800814c:	10c5883a 	add	r2,r2,r3
 8008150:	10c00017 	ldw	r3,0(r2)
 8008154:	00810074 	movhi	r2,1025
 8008158:	108c4304 	addi	r2,r2,12556
 800815c:	e13ffd17 	ldw	r4,-12(fp)
 8008160:	200890fa 	slli	r4,r4,3
 8008164:	1105883a 	add	r2,r2,r4
 8008168:	10800104 	addi	r2,r2,4
 800816c:	10800017 	ldw	r2,0(r2)
 8008170:	1009883a 	mov	r4,r2
 8008174:	183ee83a 	callr	r3
#else
        alt_irq[i].handler(alt_irq[i].context, i); 
#endif
        break;
 8008178:	0001883a 	nop
#ifndef NIOS2_EIC_PRESENT
static ALT_INLINE alt_u32 ALT_ALWAYS_INLINE alt_irq_pending (void)
{
  alt_u32 active;

  NIOS2_READ_IPENDING (active);
 800817c:	0005313a 	rdctl	r2,ipending
 8008180:	e0bfff15 	stw	r2,-4(fp)

  return active;
 8008184:	e0bfff17 	ldw	r2,-4(fp)
 8008188:	00000706 	br	80081a8 <alt_irq_handler+0xac>
      }
      mask <<= 1;
 800818c:	e0bffc17 	ldw	r2,-16(fp)
 8008190:	1085883a 	add	r2,r2,r2
 8008194:	e0bffc15 	stw	r2,-16(fp)
      i++;
 8008198:	e0bffd17 	ldw	r2,-12(fp)
 800819c:	10800044 	addi	r2,r2,1
 80081a0:	e0bffd15 	stw	r2,-12(fp)

    } while (1);
 80081a4:	003fe106 	br	800812c <__ram_exceptions_end+0xfffffee8>

    active = alt_irq_pending ();
 80081a8:	e0bffb15 	stw	r2,-20(fp)
    
  } while (active);
 80081ac:	e0bffb17 	ldw	r2,-20(fp)
 80081b0:	103fdb1e 	bne	r2,zero,8008120 <__ram_exceptions_end+0xfffffedc>

  /*
   * Notify the operating system that interrupt processing is complete.
   */ 

  ALT_OS_INT_EXIT();
 80081b4:	0001883a 	nop
}
 80081b8:	0001883a 	nop
 80081bc:	e037883a 	mov	sp,fp
 80081c0:	dfc00117 	ldw	ra,4(sp)
 80081c4:	df000017 	ldw	fp,0(sp)
 80081c8:	dec00204 	addi	sp,sp,8
 80081cc:	f800283a 	ret

080081d0 <alt_instruction_exception_entry>:
 * that handler if it has been registered. Absent a handler, it will
 * break break or hang as discussed below.
 */
int 
alt_instruction_exception_entry (alt_u32 exception_pc)
{
 80081d0:	defffb04 	addi	sp,sp,-20
 80081d4:	dfc00415 	stw	ra,16(sp)
 80081d8:	df000315 	stw	fp,12(sp)
 80081dc:	df000304 	addi	fp,sp,12
 80081e0:	e13fff15 	stw	r4,-4(fp)
 * NIOS2_EXCEPTION_CAUSE_NOT_PRESENT. Your handling routine should
 * check the validity of the cause argument before proceeding.
 */
#ifdef NIOS2_HAS_EXTRA_EXCEPTION_INFO
  /* Get exception cause & "badaddr" */
  NIOS2_READ_EXCEPTION(cause);
 80081e4:	000531fa 	rdctl	r2,exception
 80081e8:	e0bffd15 	stw	r2,-12(fp)
  cause = ( (cause & NIOS2_EXCEPTION_REG_CAUSE_MASK) >>
 80081ec:	e0bffd17 	ldw	r2,-12(fp)
 80081f0:	10801f0c 	andi	r2,r2,124
 80081f4:	1004d0ba 	srli	r2,r2,2
 80081f8:	e0bffd15 	stw	r2,-12(fp)
              NIOS2_EXCEPTION_REG_CAUSE_OFST );

  NIOS2_READ_BADADDR(badaddr);
 80081fc:	0005333a 	rdctl	r2,badaddr
 8008200:	e0bffe15 	stw	r2,-8(fp)
#else
  cause = NIOS2_EXCEPTION_CAUSE_NOT_PRESENT;
  badaddr = 0;
#endif /* NIOS2_HAS_EXTRA_EXCEPTION_INFO */

  if(alt_instruction_exception_handler) {
 8008204:	d0a6e817 	ldw	r2,-25696(gp)
 8008208:	10000726 	beq	r2,zero,8008228 <alt_instruction_exception_entry+0x58>
     * Call handler. Its return value indicates whether the exception-causing
     * instruction should be re-issued. The code that called us,
     * alt_eceptions_entry.S, will look at this value and adjust the ea
     * register as necessary
     */
    return alt_instruction_exception_handler(cause, exception_pc, badaddr);
 800820c:	d0a6e817 	ldw	r2,-25696(gp)
 8008210:	e0fffd17 	ldw	r3,-12(fp)
 8008214:	e1bffe17 	ldw	r6,-8(fp)
 8008218:	e17fff17 	ldw	r5,-4(fp)
 800821c:	1809883a 	mov	r4,r3
 8008220:	103ee83a 	callr	r2
 8008224:	00000206 	br	8008230 <alt_instruction_exception_entry+0x60>
   *    (a peripheral which negates its interrupt output before its
   *    interrupt handler has been executed will cause spurious interrupts)
   */
  else {
#ifdef NIOS2_HAS_DEBUG_STUB
    NIOS2_BREAK();
 8008228:	003da03a 	break	0
      ;
#endif /* NIOS2_HAS_DEBUG_STUB */
  }

  /* We should not get here. Remove compiler warning. */
  return NIOS2_EXCEPTION_RETURN_REISSUE_INST;
 800822c:	0005883a 	mov	r2,zero
}
 8008230:	e037883a 	mov	sp,fp
 8008234:	dfc00117 	ldw	ra,4(sp)
 8008238:	df000017 	ldw	fp,0(sp)
 800823c:	dec00204 	addi	sp,sp,8
 8008240:	f800283a 	ret

Disassembly of section .text:

04000224 <_start>:

    /* Assume the data cache size is always a power of two. */
#if NIOS2_DCACHE_SIZE > 0x8000
    movhi r2, %hi(NIOS2_DCACHE_SIZE)
#else
    movui r2, NIOS2_DCACHE_SIZE
 4000224:	00820014 	movui	r2,2048
#endif

0:
    initd 0(r2)
 4000228:	10000033 	initd	0(r2)
#ifdef NIOS2_ECC_PRESENT
    addi r2, r2, -4
#else
    addi r2, r2, -NIOS2_DCACHE_LINE_SIZE
 400022c:	10bff804 	addi	r2,r2,-32
#endif
    bgt r2, zero, 0b
 4000230:	00bffd16 	blt	zero,r2,4000228 <__ram_exceptions_end+0xfbff7fe4>

    /*
     * Now that the caches are initialized, set up the stack pointer and global pointer.
     * The values provided by the linker are assumed to be correctly aligned.
     */
    movhi sp, %hi(__alt_stack_pointer)
 4000234:	06c10434 	movhi	sp,1040
    ori sp, sp, %lo(__alt_stack_pointer)
 4000238:	dec00014 	ori	sp,sp,0
    movhi gp, %hi(_gp)
 400023c:	06810074 	movhi	gp,1025
    ori gp, gp, %lo(_gp)
 4000240:	d6a55014 	ori	gp,gp,38208
 */
#ifndef ALT_SIM_OPTIMIZE
    /* Log that the BSS is about to be cleared. */
    ALT_LOG_PUTS(alt_log_msg_bss)

    movhi r2, %hi(__bss_start)
 4000244:	00810074 	movhi	r2,1025
    ori r2, r2, %lo(__bss_start)
 4000248:	108c2314 	ori	r2,r2,12428

    movhi r3, %hi(__bss_end)
 400024c:	00c10074 	movhi	r3,1025
    ori r3, r3, %lo(__bss_end)
 4000250:	18cc8314 	ori	r3,r3,12812

    beq r2, r3, 1f
 4000254:	10c00326 	beq	r2,r3,4000264 <_start+0x40>

0:
    stw zero, (r2)
 4000258:	10000015 	stw	zero,0(r2)
    addi r2, r2, 4
 400025c:	10800104 	addi	r2,r2,4
    bltu r2, r3, 0b
 4000260:	10fffd36 	bltu	r2,r3,4000258 <__ram_exceptions_end+0xfbff8014>
     * section aren't defined until alt_load() has been called).
     */
    mov   et, zero
#endif

    call alt_load
 4000264:	400cfec0 	call	400cfec <alt_load>

    /* Log that alt_main is about to be called. */
    ALT_LOG_PUTS(alt_log_msg_alt_main)

    /* Call the C entry point. It should never return. */
    call alt_main
 4000268:	400d1800 	call	400d180 <alt_main>

0400026c <alt_after_alt_main>:

    /* Wait in infinite loop in case alt_main does return. */
alt_after_alt_main:
    br alt_after_alt_main
 400026c:	003fff06 	br	400026c <__ram_exceptions_end+0xfbff8028>

04000270 <main>:

#define TRAFFIC_THRESHOLD 20000
#define ACCEL_THRESHOLD 5000

int main(void)
{
 4000270:	defff404 	addi	sp,sp,-48
 4000274:	dfc00b15 	stw	ra,44(sp)
 4000278:	df000a15 	stw	fp,40(sp)
 400027c:	df000a04 	addi	fp,sp,40
	printf("SPI dummy byte test started\n");
 4000280:	01010074 	movhi	r4,1025
 4000284:	213db804 	addi	r4,r4,-2336
 4000288:	4000e480 	call	4000e48 <puts>
	// Input Para
    int switch_state = 0;
 400028c:	e03ff815 	stw	zero,-32(fp)
    int key_state = 0;
 4000290:	e03ff915 	stw	zero,-28(fp)
    int pb1_pressed = 0;
 4000294:	e03ffa15 	stw	zero,-24(fp)
    int pb1_armed = 1;
 4000298:	00800044 	movi	r2,1
 400029c:	e0bffb15 	stw	r2,-20(fp)
    int pb2_pressed = 0;
 40002a0:	e03ffc15 	stw	zero,-16(fp)
    int pb2_armed = 1;
 40002a4:	00800044 	movi	r2,1
 40002a8:	e0bffd15 	stw	r2,-12(fp)
    int vga_enabled = 0;
 40002ac:	e03ffe15 	stw	zero,-8(fp)

    // Setup Accel Parameters
    int x, y, z;
    int accel_counter = ACCEL_THRESHOLD;
 40002b0:	0084e204 	movi	r2,5000
 40002b4:	e0bfff15 	stw	r2,-4(fp)

//    // Declare SPI MSG buffer
//    char spi_msg[USER_MESSAGE_LENGTH + 1];

    // Setup Traffic Light
    int traffic_counter = 0;
 40002b8:	e03ff615 	stw	zero,-40(fp)
    int traffic_state = 0;   /* 0=green, 1=yellow, 2=red */
 40002bc:	e03ff715 	stw	zero,-36(fp)
//    // Setup VGA
//    vga_init();
//    int vga_done = 0;

    /* initial traffic light */
    green_light(1);
 40002c0:	01000044 	movi	r4,1
 40002c4:	4000a240 	call	4000a24 <green_light>
    yellow_light(0);
 40002c8:	0009883a 	mov	r4,zero
 40002cc:	40009bc0 	call	40009bc <yellow_light>
    red_light(0);
 40002d0:	0009883a 	mov	r4,zero
 40002d4:	40009540 	call	4000954 <red_light>

    while (1)
    {
        switch_state = IORD_ALTERA_AVALON_PIO_DATA(PIO_SW_BASE);
 40002d8:	00820074 	movhi	r2,2049
 40002dc:	10847804 	addi	r2,r2,4576
 40002e0:	10800037 	ldwio	r2,0(r2)
 40002e4:	e0bff815 	stw	r2,-32(fp)
        key_state    = IORD_ALTERA_AVALON_PIO_DATA(PIO_PB_BASE);
 40002e8:	00820074 	movhi	r2,2049
 40002ec:	10847404 	addi	r2,r2,4560
 40002f0:	10800037 	ldwio	r2,0(r2)
 40002f4:	e0bff915 	stw	r2,-28(fp)
//                usleep(200000);
//            }
//        }

        // Debounced Button and VGA Starts
        pb2_pressed = ((key_state & PB2_MASK) == 0);
 40002f8:	e0bff917 	ldw	r2,-28(fp)
 40002fc:	1080010c 	andi	r2,r2,4
 4000300:	1005003a 	cmpeq	r2,r2,zero
 4000304:	10803fcc 	andi	r2,r2,255
 4000308:	e0bffc15 	stw	r2,-16(fp)
//                pb2_armed = 0;
//            }
//        }

        // Flag Switch and Reset HEX
        HEX_enable(switch_state);
 400030c:	e13ff817 	ldw	r4,-32(fp)
 4000310:	40004980 	call	4000498 <HEX_enable>
//        {
//            handle_switch2(switch_state, "");
//        }

        // Handle CPU and Speaker switch
        handle_switch3(switch_state);
 4000314:	e13ff817 	ldw	r4,-32(fp)
 4000318:	40007200 	call	4000720 <handle_switch3>
        handle_switch4(switch_state);
 400031c:	e13ff817 	ldw	r4,-32(fp)
 4000320:	40007b40 	call	40007b4 <handle_switch4>


        // Traffic Light operation
        traffic_counter++;
 4000324:	e0bff617 	ldw	r2,-40(fp)
 4000328:	10800044 	addi	r2,r2,1
 400032c:	e0bff615 	stw	r2,-40(fp)
        if (traffic_counter >= TRAFFIC_THRESHOLD)
 4000330:	e0bff617 	ldw	r2,-40(fp)
 4000334:	10938810 	cmplti	r2,r2,20000
 4000338:	103fe71e 	bne	r2,zero,40002d8 <__ram_exceptions_end+0xfbff8094>
        {
            if (traffic_state == 0) {
 400033c:	e0bff717 	ldw	r2,-36(fp)
 4000340:	1000091e 	bne	r2,zero,4000368 <main+0xf8>
                green_light(0);
 4000344:	0009883a 	mov	r4,zero
 4000348:	4000a240 	call	4000a24 <green_light>
                yellow_light(1);
 400034c:	01000044 	movi	r4,1
 4000350:	40009bc0 	call	40009bc <yellow_light>
                red_light(0);
 4000354:	0009883a 	mov	r4,zero
 4000358:	40009540 	call	4000954 <red_light>
                traffic_state = 1;
 400035c:	00800044 	movi	r2,1
 4000360:	e0bff715 	stw	r2,-36(fp)
 4000364:	00001306 	br	40003b4 <main+0x144>
            }
            else if (traffic_state == 1) {
 4000368:	e0bff717 	ldw	r2,-36(fp)
 400036c:	10800058 	cmpnei	r2,r2,1
 4000370:	1000091e 	bne	r2,zero,4000398 <main+0x128>
                green_light(0);
 4000374:	0009883a 	mov	r4,zero
 4000378:	4000a240 	call	4000a24 <green_light>
                yellow_light(0);
 400037c:	0009883a 	mov	r4,zero
 4000380:	40009bc0 	call	40009bc <yellow_light>
                red_light(1);
 4000384:	01000044 	movi	r4,1
 4000388:	40009540 	call	4000954 <red_light>
                traffic_state = 2;
 400038c:	00800084 	movi	r2,2
 4000390:	e0bff715 	stw	r2,-36(fp)
 4000394:	00000706 	br	40003b4 <main+0x144>
            }
            else {
                green_light(1);
 4000398:	01000044 	movi	r4,1
 400039c:	4000a240 	call	4000a24 <green_light>
                yellow_light(0);
 40003a0:	0009883a 	mov	r4,zero
 40003a4:	40009bc0 	call	40009bc <yellow_light>
                red_light(0);
 40003a8:	0009883a 	mov	r4,zero
 40003ac:	40009540 	call	4000954 <red_light>
                traffic_state = 0;
 40003b0:	e03ff715 	stw	zero,-36(fp)
            }

            traffic_counter = 0;
 40003b4:	e03ff615 	stw	zero,-40(fp)
//        // VGA Integration
//        if (vga_enabled && !vga_done) {
//            vga_step();
//            vga_done = 1;
//        }
    }
 40003b8:	003fc706 	br	40002d8 <__ram_exceptions_end+0xfbff8094>

040003bc <play_speaker>:
static int toggle_counter = 0; // counter for toggling
static int frequency_threshold = 0; // threshold before toggling and resetting counter
static int frequency_prev = 0; // remembers previous frequency to avoid redundant calculations

// Play a given tone
void play_speaker (int frequency, int on_off){
 40003bc:	defffc04 	addi	sp,sp,-16
 40003c0:	dfc00315 	stw	ra,12(sp)
 40003c4:	df000215 	stw	fp,8(sp)
 40003c8:	df000204 	addi	fp,sp,8
 40003cc:	e13ffe15 	stw	r4,-8(fp)
 40003d0:	e17fff15 	stw	r5,-4(fp)

	// check if frequency is new and valid
	if (frequency > 0) {
 40003d4:	e0bffe17 	ldw	r2,-8(fp)
 40003d8:	00800d0e 	bge	zero,r2,4000410 <play_speaker+0x54>
		if (frequency != frequency_prev)
 40003dc:	d0a6d617 	ldw	r2,-25768(gp)
 40003e0:	e0fffe17 	ldw	r3,-8(fp)
 40003e4:	18800c26 	beq	r3,r2,4000418 <play_speaker+0x5c>
		{
			// updates the required parameters
			frequency_threshold = (500000/(frequency*2));
 40003e8:	e0bffe17 	ldw	r2,-8(fp)
 40003ec:	1085883a 	add	r2,r2,r2
 40003f0:	100b883a 	mov	r5,r2
 40003f4:	01000234 	movhi	r4,8
 40003f8:	21284804 	addi	r4,r4,-24288
 40003fc:	4000a8c0 	call	4000a8c <__divsi3>
 4000400:	d0a6d515 	stw	r2,-25772(gp)
			frequency_prev = frequency;
 4000404:	e0bffe17 	ldw	r2,-8(fp)
 4000408:	d0a6d615 	stw	r2,-25768(gp)
 400040c:	00000206 	br	4000418 <play_speaker+0x5c>
		}
	}
	else {
		frequency_prev = frequency;
 4000410:	e0bffe17 	ldw	r2,-8(fp)
 4000414:	d0a6d615 	stw	r2,-25768(gp)
	}

	// toggles if on
	if (on_off && (frequency > 0)){
 4000418:	e0bfff17 	ldw	r2,-4(fp)
 400041c:	10001226 	beq	r2,zero,4000468 <play_speaker+0xac>
 4000420:	e0bffe17 	ldw	r2,-8(fp)
 4000424:	0080100e 	bge	zero,r2,4000468 <play_speaker+0xac>
		toggle_counter++;
 4000428:	d0a6d417 	ldw	r2,-25776(gp)
 400042c:	10800044 	addi	r2,r2,1
 4000430:	d0a6d415 	stw	r2,-25776(gp)
		if (toggle_counter >= frequency_threshold){
 4000434:	d0e6d417 	ldw	r3,-25776(gp)
 4000438:	d0a6d517 	ldw	r2,-25772(gp)
 400043c:	18801016 	blt	r3,r2,4000480 <play_speaker+0xc4>
			speaker_current = (!speaker_current);
 4000440:	d0a6d317 	ldw	r2,-25780(gp)
 4000444:	1005003a 	cmpeq	r2,r2,zero
 4000448:	10803fcc 	andi	r2,r2,255
 400044c:	d0a6d315 	stw	r2,-25780(gp)
			IOWR_ALTERA_AVALON_PIO_DATA(PIO_SPEAKER_BASE, speaker_current);
 4000450:	d0e6d317 	ldw	r3,-25780(gp)
 4000454:	00820074 	movhi	r2,2049
 4000458:	10845004 	addi	r2,r2,4416
 400045c:	10c00035 	stwio	r3,0(r2)
			toggle_counter = 0;
 4000460:	d026d415 	stw	zero,-25776(gp)
	}

	// toggles if on
	if (on_off && (frequency > 0)){
		toggle_counter++;
		if (toggle_counter >= frequency_threshold){
 4000464:	00000606 	br	4000480 <play_speaker+0xc4>
			toggle_counter = 0;
		}
	}
	// silences if off
	else {
		IOWR_ALTERA_AVALON_PIO_DATA(PIO_SPEAKER_BASE, 0);
 4000468:	0007883a 	mov	r3,zero
 400046c:	00820074 	movhi	r2,2049
 4000470:	10845004 	addi	r2,r2,4416
 4000474:	10c00035 	stwio	r3,0(r2)
		speaker_current = 0;
 4000478:	d026d315 	stw	zero,-25780(gp)
		toggle_counter = 0;
 400047c:	d026d415 	stw	zero,-25776(gp)
	}
}
 4000480:	0001883a 	nop
 4000484:	e037883a 	mov	sp,fp
 4000488:	dfc00117 	ldw	ra,4(sp)
 400048c:	df000017 	ldw	fp,0(sp)
 4000490:	dec00204 	addi	sp,sp,8
 4000494:	f800283a 	ret

04000498 <HEX_enable>:
static int scroll_counter = 0;
static int scroll_offset = 0;
const int scroll_speed = 2000;

void HEX_enable(int state)
{
 4000498:	defffe04 	addi	sp,sp,-8
 400049c:	df000115 	stw	fp,4(sp)
 40004a0:	df000104 	addi	fp,sp,4
 40004a4:	e13fff15 	stw	r4,-4(fp)
    if (state & 0x01) {
 40004a8:	e0bfff17 	ldw	r2,-4(fp)
 40004ac:	1080004c 	andi	r2,r2,1
 40004b0:	10000326 	beq	r2,zero,40004c0 <HEX_enable+0x28>
        HEX_enable_bit = 1;
 40004b4:	00800044 	movi	r2,1
 40004b8:	d0a6d715 	stw	r2,-25764(gp)

        HEX_enable_bit = 0;
        scroll_counter = 0;
        scroll_offset = 0;
    }
}
 40004bc:	00001b06 	br	400052c <HEX_enable+0x94>
void HEX_enable(int state)
{
    if (state & 0x01) {
        HEX_enable_bit = 1;
    } else {
        IOWR_ALTERA_AVALON_PIO_DATA(PIO_HEX0_BASE, 0xFF);
 40004c0:	00c03fc4 	movi	r3,255
 40004c4:	00820074 	movhi	r2,2049
 40004c8:	10846c04 	addi	r2,r2,4528
 40004cc:	10c00035 	stwio	r3,0(r2)
        IOWR_ALTERA_AVALON_PIO_DATA(PIO_HEX1_BASE, 0xFF);
 40004d0:	00c03fc4 	movi	r3,255
 40004d4:	00820074 	movhi	r2,2049
 40004d8:	10846804 	addi	r2,r2,4512
 40004dc:	10c00035 	stwio	r3,0(r2)
        IOWR_ALTERA_AVALON_PIO_DATA(PIO_HEX2_BASE, 0xFF);
 40004e0:	00c03fc4 	movi	r3,255
 40004e4:	00820074 	movhi	r2,2049
 40004e8:	10846404 	addi	r2,r2,4496
 40004ec:	10c00035 	stwio	r3,0(r2)
        IOWR_ALTERA_AVALON_PIO_DATA(PIO_HEX3_BASE, 0xFF);
 40004f0:	00c03fc4 	movi	r3,255
 40004f4:	00820074 	movhi	r2,2049
 40004f8:	10846004 	addi	r2,r2,4480
 40004fc:	10c00035 	stwio	r3,0(r2)
        IOWR_ALTERA_AVALON_PIO_DATA(PIO_HEX4_BASE, 0xFF);
 4000500:	00c03fc4 	movi	r3,255
 4000504:	00820074 	movhi	r2,2049
 4000508:	10845c04 	addi	r2,r2,4464
 400050c:	10c00035 	stwio	r3,0(r2)
        IOWR_ALTERA_AVALON_PIO_DATA(PIO_HEX5_BASE, 0xFF);
 4000510:	00c03fc4 	movi	r3,255
 4000514:	00820074 	movhi	r2,2049
 4000518:	10845804 	addi	r2,r2,4448
 400051c:	10c00035 	stwio	r3,0(r2)

        HEX_enable_bit = 0;
 4000520:	d026d715 	stw	zero,-25764(gp)
        scroll_counter = 0;
 4000524:	d026d815 	stw	zero,-25760(gp)
        scroll_offset = 0;
 4000528:	d026d915 	stw	zero,-25756(gp)
    }
}
 400052c:	0001883a 	nop
 4000530:	e037883a 	mov	sp,fp
 4000534:	df000017 	ldw	fp,0(sp)
 4000538:	dec00104 	addi	sp,sp,4
 400053c:	f800283a 	ret

04000540 <handle_switch2>:

void handle_switch2(int state, const char *message)
{
 4000540:	deffea04 	addi	sp,sp,-88
 4000544:	dfc01515 	stw	ra,84(sp)
 4000548:	df001415 	stw	fp,80(sp)
 400054c:	df001404 	addi	fp,sp,80
 4000550:	e13ffe15 	stw	r4,-8(fp)
 4000554:	e17fff15 	stw	r5,-4(fp)
    if ((state & 0x02) && HEX_enable_bit) {
 4000558:	e0bffe17 	ldw	r2,-8(fp)
 400055c:	1080008c 	andi	r2,r2,2
 4000560:	10005526 	beq	r2,zero,40006b8 <handle_switch2+0x178>
 4000564:	d0a6d717 	ldw	r2,-25764(gp)
 4000568:	10005326 	beq	r2,zero,40006b8 <handle_switch2+0x178>
        char padded_message[64];
        int msg_len;

        if (message == 0) {
 400056c:	e0bfff17 	ldw	r2,-4(fp)
 4000570:	1000031e 	bne	r2,zero,4000580 <handle_switch2+0x40>
            message = "";
 4000574:	00810074 	movhi	r2,1025
 4000578:	10bdbf04 	addi	r2,r2,-2308
 400057c:	e0bfff15 	stw	r2,-4(fp)
        }

        snprintf(padded_message, sizeof(padded_message), "    %s    ", message);
 4000580:	e0bfee04 	addi	r2,fp,-72
 4000584:	e1ffff17 	ldw	r7,-4(fp)
 4000588:	01810074 	movhi	r6,1025
 400058c:	31bdc004 	addi	r6,r6,-2304
 4000590:	01401004 	movi	r5,64
 4000594:	1009883a 	mov	r4,r2
 4000598:	4000f340 	call	4000f34 <snprintf>
        msg_len = strlen(padded_message);
 400059c:	e0bfee04 	addi	r2,fp,-72
 40005a0:	1009883a 	mov	r4,r2
 40005a4:	40010180 	call	4001018 <strlen>
 40005a8:	e0bfec15 	stw	r2,-80(fp)

        scroll_counter++;
 40005ac:	d0a6d817 	ldw	r2,-25760(gp)
 40005b0:	10800044 	addi	r2,r2,1
 40005b4:	d0a6d815 	stw	r2,-25760(gp)

        if (scroll_counter >= scroll_speed) {
 40005b8:	d0e6d817 	ldw	r3,-25760(gp)
 40005bc:	0081f404 	movi	r2,2000
 40005c0:	18805016 	blt	r3,r2,4000704 <handle_switch2+0x1c4>
            char c5 = padded_message[scroll_offset];
 40005c4:	d0a6d917 	ldw	r2,-25756(gp)
 40005c8:	e0ffee04 	addi	r3,fp,-72
 40005cc:	1885883a 	add	r2,r3,r2
 40005d0:	10800003 	ldbu	r2,0(r2)
 40005d4:	e0bfed05 	stb	r2,-76(fp)
            char c4 = padded_message[scroll_offset + 1];
 40005d8:	d0a6d917 	ldw	r2,-25756(gp)
 40005dc:	10800044 	addi	r2,r2,1
 40005e0:	e0ffee04 	addi	r3,fp,-72
 40005e4:	1885883a 	add	r2,r3,r2
 40005e8:	10800003 	ldbu	r2,0(r2)
 40005ec:	e0bfed45 	stb	r2,-75(fp)
            char c3 = padded_message[scroll_offset + 2];
 40005f0:	d0a6d917 	ldw	r2,-25756(gp)
 40005f4:	10800084 	addi	r2,r2,2
 40005f8:	e0ffee04 	addi	r3,fp,-72
 40005fc:	1885883a 	add	r2,r3,r2
 4000600:	10800003 	ldbu	r2,0(r2)
 4000604:	e0bfed85 	stb	r2,-74(fp)
            char c2 = padded_message[scroll_offset + 3];
 4000608:	d0a6d917 	ldw	r2,-25756(gp)
 400060c:	108000c4 	addi	r2,r2,3
 4000610:	e0ffee04 	addi	r3,fp,-72
 4000614:	1885883a 	add	r2,r3,r2
 4000618:	10800003 	ldbu	r2,0(r2)
 400061c:	e0bfedc5 	stb	r2,-73(fp)

            IOWR_ALTERA_AVALON_PIO_DATA(PIO_HEX5_BASE, translator(c5));
 4000620:	e0bfed07 	ldb	r2,-76(fp)
 4000624:	1009883a 	mov	r4,r2
 4000628:	40008080 	call	4000808 <translator>
 400062c:	1007883a 	mov	r3,r2
 4000630:	00820074 	movhi	r2,2049
 4000634:	10845804 	addi	r2,r2,4448
 4000638:	10c00035 	stwio	r3,0(r2)
            IOWR_ALTERA_AVALON_PIO_DATA(PIO_HEX4_BASE, translator(c4));
 400063c:	e0bfed47 	ldb	r2,-75(fp)
 4000640:	1009883a 	mov	r4,r2
 4000644:	40008080 	call	4000808 <translator>
 4000648:	1007883a 	mov	r3,r2
 400064c:	00820074 	movhi	r2,2049
 4000650:	10845c04 	addi	r2,r2,4464
 4000654:	10c00035 	stwio	r3,0(r2)
            IOWR_ALTERA_AVALON_PIO_DATA(PIO_HEX3_BASE, translator(c3));
 4000658:	e0bfed87 	ldb	r2,-74(fp)
 400065c:	1009883a 	mov	r4,r2
 4000660:	40008080 	call	4000808 <translator>
 4000664:	1007883a 	mov	r3,r2
 4000668:	00820074 	movhi	r2,2049
 400066c:	10846004 	addi	r2,r2,4480
 4000670:	10c00035 	stwio	r3,0(r2)
            IOWR_ALTERA_AVALON_PIO_DATA(PIO_HEX2_BASE, translator(c2));
 4000674:	e0bfedc7 	ldb	r2,-73(fp)
 4000678:	1009883a 	mov	r4,r2
 400067c:	40008080 	call	4000808 <translator>
 4000680:	1007883a 	mov	r3,r2
 4000684:	00820074 	movhi	r2,2049
 4000688:	10846404 	addi	r2,r2,4496
 400068c:	10c00035 	stwio	r3,0(r2)

            scroll_offset++;
 4000690:	d0a6d917 	ldw	r2,-25756(gp)
 4000694:	10800044 	addi	r2,r2,1
 4000698:	d0a6d915 	stw	r2,-25756(gp)
            if (scroll_offset > (msg_len - 4)) {
 400069c:	e0bfec17 	ldw	r2,-80(fp)
 40006a0:	10ffff04 	addi	r3,r2,-4
 40006a4:	d0a6d917 	ldw	r2,-25756(gp)
 40006a8:	1880010e 	bge	r3,r2,40006b0 <handle_switch2+0x170>
                scroll_offset = 0;
 40006ac:	d026d915 	stw	zero,-25756(gp)
            }

            scroll_counter = 0;
 40006b0:	d026d815 	stw	zero,-25760(gp)
    }
}

void handle_switch2(int state, const char *message)
{
    if ((state & 0x02) && HEX_enable_bit) {
 40006b4:	00001306 	br	4000704 <handle_switch2+0x1c4>
            }

            scroll_counter = 0;
        }
    } else {
        IOWR_ALTERA_AVALON_PIO_DATA(PIO_HEX5_BASE, 0xFF);
 40006b8:	00c03fc4 	movi	r3,255
 40006bc:	00820074 	movhi	r2,2049
 40006c0:	10845804 	addi	r2,r2,4448
 40006c4:	10c00035 	stwio	r3,0(r2)
        IOWR_ALTERA_AVALON_PIO_DATA(PIO_HEX4_BASE, 0xFF);
 40006c8:	00c03fc4 	movi	r3,255
 40006cc:	00820074 	movhi	r2,2049
 40006d0:	10845c04 	addi	r2,r2,4464
 40006d4:	10c00035 	stwio	r3,0(r2)
        IOWR_ALTERA_AVALON_PIO_DATA(PIO_HEX3_BASE, 0xFF);
 40006d8:	00c03fc4 	movi	r3,255
 40006dc:	00820074 	movhi	r2,2049
 40006e0:	10846004 	addi	r2,r2,4480
 40006e4:	10c00035 	stwio	r3,0(r2)
        IOWR_ALTERA_AVALON_PIO_DATA(PIO_HEX2_BASE, 0xFF);
 40006e8:	00c03fc4 	movi	r3,255
 40006ec:	00820074 	movhi	r2,2049
 40006f0:	10846404 	addi	r2,r2,4496
 40006f4:	10c00035 	stwio	r3,0(r2)

        scroll_counter = 0;
 40006f8:	d026d815 	stw	zero,-25760(gp)
        scroll_offset = 0;
 40006fc:	d026d915 	stw	zero,-25756(gp)
    }
}
 4000700:	00000106 	br	4000708 <handle_switch2+0x1c8>
    }
}

void handle_switch2(int state, const char *message)
{
    if ((state & 0x02) && HEX_enable_bit) {
 4000704:	0001883a 	nop
        IOWR_ALTERA_AVALON_PIO_DATA(PIO_HEX2_BASE, 0xFF);

        scroll_counter = 0;
        scroll_offset = 0;
    }
}
 4000708:	0001883a 	nop
 400070c:	e037883a 	mov	sp,fp
 4000710:	dfc00117 	ldw	ra,4(sp)
 4000714:	df000017 	ldw	fp,0(sp)
 4000718:	dec00204 	addi	sp,sp,8
 400071c:	f800283a 	ret

04000720 <handle_switch3>:

void handle_switch3(int state)
{
 4000720:	defffd04 	addi	sp,sp,-12
 4000724:	dfc00215 	stw	ra,8(sp)
 4000728:	df000115 	stw	fp,4(sp)
 400072c:	df000104 	addi	fp,sp,4
 4000730:	e13fff15 	stw	r4,-4(fp)
    if ((state & 0x04) && HEX_enable_bit) {
 4000734:	e0bfff17 	ldw	r2,-4(fp)
 4000738:	1080010c 	andi	r2,r2,4
 400073c:	10000f26 	beq	r2,zero,400077c <handle_switch3+0x5c>
 4000740:	d0a6d717 	ldw	r2,-25764(gp)
 4000744:	10000d26 	beq	r2,zero,400077c <handle_switch3+0x5c>
        /* placeholder CPU utilization */
        IOWR_ALTERA_AVALON_PIO_DATA(PIO_HEX1_BASE, translator('8'));
 4000748:	01000e04 	movi	r4,56
 400074c:	40008080 	call	4000808 <translator>
 4000750:	1007883a 	mov	r3,r2
 4000754:	00820074 	movhi	r2,2049
 4000758:	10846804 	addi	r2,r2,4512
 400075c:	10c00035 	stwio	r3,0(r2)
        IOWR_ALTERA_AVALON_PIO_DATA(PIO_HEX0_BASE, translator('7'));
 4000760:	01000dc4 	movi	r4,55
 4000764:	40008080 	call	4000808 <translator>
 4000768:	1007883a 	mov	r3,r2
 400076c:	00820074 	movhi	r2,2049
 4000770:	10846c04 	addi	r2,r2,4528
 4000774:	10c00035 	stwio	r3,0(r2)
 4000778:	00000806 	br	400079c <handle_switch3+0x7c>
    } else {
        IOWR_ALTERA_AVALON_PIO_DATA(PIO_HEX1_BASE, 0xFF);
 400077c:	00c03fc4 	movi	r3,255
 4000780:	00820074 	movhi	r2,2049
 4000784:	10846804 	addi	r2,r2,4512
 4000788:	10c00035 	stwio	r3,0(r2)
        IOWR_ALTERA_AVALON_PIO_DATA(PIO_HEX0_BASE, 0xFF);
 400078c:	00c03fc4 	movi	r3,255
 4000790:	00820074 	movhi	r2,2049
 4000794:	10846c04 	addi	r2,r2,4528
 4000798:	10c00035 	stwio	r3,0(r2)
    }
}
 400079c:	0001883a 	nop
 40007a0:	e037883a 	mov	sp,fp
 40007a4:	dfc00117 	ldw	ra,4(sp)
 40007a8:	df000017 	ldw	fp,0(sp)
 40007ac:	dec00204 	addi	sp,sp,8
 40007b0:	f800283a 	ret

040007b4 <handle_switch4>:

void handle_switch4(int state)
{
 40007b4:	defffd04 	addi	sp,sp,-12
 40007b8:	dfc00215 	stw	ra,8(sp)
 40007bc:	df000115 	stw	fp,4(sp)
 40007c0:	df000104 	addi	fp,sp,4
 40007c4:	e13fff15 	stw	r4,-4(fp)
	if (state & 0x08) {
 40007c8:	e0bfff17 	ldw	r2,-4(fp)
 40007cc:	1080020c 	andi	r2,r2,8
 40007d0:	10000426 	beq	r2,zero,40007e4 <handle_switch4+0x30>
		play_speaker(1000, 1);
 40007d4:	01400044 	movi	r5,1
 40007d8:	0100fa04 	movi	r4,1000
 40007dc:	40003bc0 	call	40003bc <play_speaker>
	} else {
		play_speaker(1000, 0);
	}
}
 40007e0:	00000306 	br	40007f0 <handle_switch4+0x3c>
void handle_switch4(int state)
{
	if (state & 0x08) {
		play_speaker(1000, 1);
	} else {
		play_speaker(1000, 0);
 40007e4:	000b883a 	mov	r5,zero
 40007e8:	0100fa04 	movi	r4,1000
 40007ec:	40003bc0 	call	40003bc <play_speaker>
	}
}
 40007f0:	0001883a 	nop
 40007f4:	e037883a 	mov	sp,fp
 40007f8:	dfc00117 	ldw	ra,4(sp)
 40007fc:	df000017 	ldw	fp,0(sp)
 4000800:	dec00204 	addi	sp,sp,8
 4000804:	f800283a 	ret

04000808 <translator>:

int translator(char a)
{
 4000808:	deffe304 	addi	sp,sp,-116
 400080c:	dfc01c15 	stw	ra,112(sp)
 4000810:	df001b15 	stw	fp,108(sp)
 4000814:	df001b04 	addi	fp,sp,108
 4000818:	2005883a 	mov	r2,r4
 400081c:	e0bfff05 	stb	r2,-4(fp)
    if (a >= '0' && a <= '9') {
 4000820:	e0bfff07 	ldb	r2,-4(fp)
 4000824:	10800c10 	cmplti	r2,r2,48
 4000828:	10001f1e 	bne	r2,zero,40008a8 <translator+0xa0>
 400082c:	e0bfff07 	ldb	r2,-4(fp)
 4000830:	10800e88 	cmpgei	r2,r2,58
 4000834:	10001c1e 	bne	r2,zero,40008a8 <translator+0xa0>
        const int num_table[10] = {
 4000838:	00803004 	movi	r2,192
 400083c:	e0bfe515 	stw	r2,-108(fp)
 4000840:	00803e44 	movi	r2,249
 4000844:	e0bfe615 	stw	r2,-104(fp)
 4000848:	00802904 	movi	r2,164
 400084c:	e0bfe715 	stw	r2,-100(fp)
 4000850:	00802c04 	movi	r2,176
 4000854:	e0bfe815 	stw	r2,-96(fp)
 4000858:	00802644 	movi	r2,153
 400085c:	e0bfe915 	stw	r2,-92(fp)
 4000860:	00802484 	movi	r2,146
 4000864:	e0bfea15 	stw	r2,-88(fp)
 4000868:	00802084 	movi	r2,130
 400086c:	e0bfeb15 	stw	r2,-84(fp)
 4000870:	00803e04 	movi	r2,248
 4000874:	e0bfec15 	stw	r2,-80(fp)
 4000878:	00802004 	movi	r2,128
 400087c:	e0bfed15 	stw	r2,-76(fp)
 4000880:	00802404 	movi	r2,144
 4000884:	e0bfee15 	stw	r2,-72(fp)
            0xC0, 0xF9, 0xA4, 0xB0, 0x99,
            0x92, 0x82, 0xF8, 0x80, 0x90
        };
        return num_table[a - '0'];
 4000888:	e0bfff07 	ldb	r2,-4(fp)
 400088c:	10bff404 	addi	r2,r2,-48
 4000890:	1085883a 	add	r2,r2,r2
 4000894:	1085883a 	add	r2,r2,r2
 4000898:	e0ffe504 	addi	r3,fp,-108
 400089c:	1885883a 	add	r2,r3,r2
 40008a0:	10800017 	ldw	r2,0(r2)
 40008a4:	00002606 	br	4000940 <translator+0x138>
    }

    if (a >= 'a' && a <= 'z') {
 40008a8:	e0bfff07 	ldb	r2,-4(fp)
 40008ac:	10801850 	cmplti	r2,r2,97
 40008b0:	1000061e 	bne	r2,zero,40008cc <translator+0xc4>
 40008b4:	e0bfff07 	ldb	r2,-4(fp)
 40008b8:	10801ec8 	cmpgei	r2,r2,123
 40008bc:	1000031e 	bne	r2,zero,40008cc <translator+0xc4>
        a = a - 'a' + 'A';
 40008c0:	e0bfff03 	ldbu	r2,-4(fp)
 40008c4:	10bff804 	addi	r2,r2,-32
 40008c8:	e0bfff05 	stb	r2,-4(fp)
    }

    if (a >= 'A' && a <= 'Z') {
 40008cc:	e0bfff07 	ldb	r2,-4(fp)
 40008d0:	10801050 	cmplti	r2,r2,65
 40008d4:	1000141e 	bne	r2,zero,4000928 <translator+0x120>
 40008d8:	e0bfff07 	ldb	r2,-4(fp)
 40008dc:	108016c8 	cmpgei	r2,r2,91
 40008e0:	1000111e 	bne	r2,zero,4000928 <translator+0x120>
        const int alpha_table[26] = {
 40008e4:	00810074 	movhi	r2,1025
 40008e8:	10bdc304 	addi	r2,r2,-2292
 40008ec:	e0ffe504 	addi	r3,fp,-108
 40008f0:	1009883a 	mov	r4,r2
 40008f4:	00801a04 	movi	r2,104
 40008f8:	100d883a 	mov	r6,r2
 40008fc:	200b883a 	mov	r5,r4
 4000900:	1809883a 	mov	r4,r3
 4000904:	4000c400 	call	4000c40 <memcpy>
            0x88, 0x83, 0xC6, 0xA1, 0x86, 0x8E, 0x90, 0x89, 0xF9, 0xF1,
            0x8A, 0xC7, 0xC8, 0xAB, 0xC0, 0x8C, 0x98, 0xAF, 0x92, 0x87,
            0xC1, 0xE3, 0x81, 0x89, 0x91, 0xA4
        };
        return alpha_table[a - 'A'];
 4000908:	e0bfff07 	ldb	r2,-4(fp)
 400090c:	10bfefc4 	addi	r2,r2,-65
 4000910:	1085883a 	add	r2,r2,r2
 4000914:	1085883a 	add	r2,r2,r2
 4000918:	e0ffe504 	addi	r3,fp,-108
 400091c:	1885883a 	add	r2,r3,r2
 4000920:	10800017 	ldw	r2,0(r2)
 4000924:	00000606 	br	4000940 <translator+0x138>
    }

    if (a == ' ') {
 4000928:	e0bfff07 	ldb	r2,-4(fp)
 400092c:	10800818 	cmpnei	r2,r2,32
 4000930:	1000021e 	bne	r2,zero,400093c <translator+0x134>
        return 0xFF;
 4000934:	00803fc4 	movi	r2,255
 4000938:	00000106 	br	4000940 <translator+0x138>
    }

    return 0xFF;
 400093c:	00803fc4 	movi	r2,255
}
 4000940:	e037883a 	mov	sp,fp
 4000944:	dfc00117 	ldw	ra,4(sp)
 4000948:	df000017 	ldw	fp,0(sp)
 400094c:	dec00204 	addi	sp,sp,8
 4000950:	f800283a 	ret

04000954 <red_light>:
#include <stdio.h>
#include "system.h"

static int LED_state = 0b000;

void red_light (int on_off) {
 4000954:	defffe04 	addi	sp,sp,-8
 4000958:	df000115 	stw	fp,4(sp)
 400095c:	df000104 	addi	fp,sp,4
 4000960:	e13fff15 	stw	r4,-4(fp)
	if (on_off) {
 4000964:	e0bfff17 	ldw	r2,-4(fp)
 4000968:	10000826 	beq	r2,zero,400098c <red_light+0x38>
		LED_state = (LED_state | 0b001);
 400096c:	d0a6da17 	ldw	r2,-25752(gp)
 4000970:	10800054 	ori	r2,r2,1
 4000974:	d0a6da15 	stw	r2,-25752(gp)
		IOWR_ALTERA_AVALON_PIO_DATA (PIO_LED_MODULE_BASE, (LED_state));
 4000978:	d0e6da17 	ldw	r3,-25752(gp)
 400097c:	00820074 	movhi	r2,2049
 4000980:	10845404 	addi	r2,r2,4432
 4000984:	10c00035 	stwio	r3,0(r2)
	}
	else {
		LED_state = (LED_state & 0b110);
		IOWR_ALTERA_AVALON_PIO_DATA (PIO_LED_MODULE_BASE, (LED_state));
	}
}
 4000988:	00000706 	br	40009a8 <red_light+0x54>
	if (on_off) {
		LED_state = (LED_state | 0b001);
		IOWR_ALTERA_AVALON_PIO_DATA (PIO_LED_MODULE_BASE, (LED_state));
	}
	else {
		LED_state = (LED_state & 0b110);
 400098c:	d0a6da17 	ldw	r2,-25752(gp)
 4000990:	1080018c 	andi	r2,r2,6
 4000994:	d0a6da15 	stw	r2,-25752(gp)
		IOWR_ALTERA_AVALON_PIO_DATA (PIO_LED_MODULE_BASE, (LED_state));
 4000998:	d0e6da17 	ldw	r3,-25752(gp)
 400099c:	00820074 	movhi	r2,2049
 40009a0:	10845404 	addi	r2,r2,4432
 40009a4:	10c00035 	stwio	r3,0(r2)
	}
}
 40009a8:	0001883a 	nop
 40009ac:	e037883a 	mov	sp,fp
 40009b0:	df000017 	ldw	fp,0(sp)
 40009b4:	dec00104 	addi	sp,sp,4
 40009b8:	f800283a 	ret

040009bc <yellow_light>:

void yellow_light (int on_off) {
 40009bc:	defffe04 	addi	sp,sp,-8
 40009c0:	df000115 	stw	fp,4(sp)
 40009c4:	df000104 	addi	fp,sp,4
 40009c8:	e13fff15 	stw	r4,-4(fp)
	if (on_off) {
 40009cc:	e0bfff17 	ldw	r2,-4(fp)
 40009d0:	10000826 	beq	r2,zero,40009f4 <yellow_light+0x38>
		LED_state = (LED_state | 0b010);
 40009d4:	d0a6da17 	ldw	r2,-25752(gp)
 40009d8:	10800094 	ori	r2,r2,2
 40009dc:	d0a6da15 	stw	r2,-25752(gp)
		IOWR_ALTERA_AVALON_PIO_DATA (PIO_LED_MODULE_BASE, (LED_state));
 40009e0:	d0e6da17 	ldw	r3,-25752(gp)
 40009e4:	00820074 	movhi	r2,2049
 40009e8:	10845404 	addi	r2,r2,4432
 40009ec:	10c00035 	stwio	r3,0(r2)
	}
	else {
		LED_state = (LED_state & 0b101);
		IOWR_ALTERA_AVALON_PIO_DATA (PIO_LED_MODULE_BASE, (LED_state));
	}
}
 40009f0:	00000706 	br	4000a10 <yellow_light+0x54>
	if (on_off) {
		LED_state = (LED_state | 0b010);
		IOWR_ALTERA_AVALON_PIO_DATA (PIO_LED_MODULE_BASE, (LED_state));
	}
	else {
		LED_state = (LED_state & 0b101);
 40009f4:	d0a6da17 	ldw	r2,-25752(gp)
 40009f8:	1080014c 	andi	r2,r2,5
 40009fc:	d0a6da15 	stw	r2,-25752(gp)
		IOWR_ALTERA_AVALON_PIO_DATA (PIO_LED_MODULE_BASE, (LED_state));
 4000a00:	d0e6da17 	ldw	r3,-25752(gp)
 4000a04:	00820074 	movhi	r2,2049
 4000a08:	10845404 	addi	r2,r2,4432
 4000a0c:	10c00035 	stwio	r3,0(r2)
	}
}
 4000a10:	0001883a 	nop
 4000a14:	e037883a 	mov	sp,fp
 4000a18:	df000017 	ldw	fp,0(sp)
 4000a1c:	dec00104 	addi	sp,sp,4
 4000a20:	f800283a 	ret

04000a24 <green_light>:
void green_light (int on_off) {
 4000a24:	defffe04 	addi	sp,sp,-8
 4000a28:	df000115 	stw	fp,4(sp)
 4000a2c:	df000104 	addi	fp,sp,4
 4000a30:	e13fff15 	stw	r4,-4(fp)
	if (on_off) {
 4000a34:	e0bfff17 	ldw	r2,-4(fp)
 4000a38:	10000826 	beq	r2,zero,4000a5c <green_light+0x38>
		LED_state = (LED_state | 0b100);
 4000a3c:	d0a6da17 	ldw	r2,-25752(gp)
 4000a40:	10800114 	ori	r2,r2,4
 4000a44:	d0a6da15 	stw	r2,-25752(gp)
		IOWR_ALTERA_AVALON_PIO_DATA (PIO_LED_MODULE_BASE, (LED_state));
 4000a48:	d0e6da17 	ldw	r3,-25752(gp)
 4000a4c:	00820074 	movhi	r2,2049
 4000a50:	10845404 	addi	r2,r2,4432
 4000a54:	10c00035 	stwio	r3,0(r2)
	}
	else {
		LED_state = (LED_state & 0b011);
		IOWR_ALTERA_AVALON_PIO_DATA (PIO_LED_MODULE_BASE, (LED_state));
	}
}
 4000a58:	00000706 	br	4000a78 <green_light+0x54>
	if (on_off) {
		LED_state = (LED_state | 0b100);
		IOWR_ALTERA_AVALON_PIO_DATA (PIO_LED_MODULE_BASE, (LED_state));
	}
	else {
		LED_state = (LED_state & 0b011);
 4000a5c:	d0a6da17 	ldw	r2,-25752(gp)
 4000a60:	108000cc 	andi	r2,r2,3
 4000a64:	d0a6da15 	stw	r2,-25752(gp)
		IOWR_ALTERA_AVALON_PIO_DATA (PIO_LED_MODULE_BASE, (LED_state));
 4000a68:	d0e6da17 	ldw	r3,-25752(gp)
 4000a6c:	00820074 	movhi	r2,2049
 4000a70:	10845404 	addi	r2,r2,4432
 4000a74:	10c00035 	stwio	r3,0(r2)
	}
}
 4000a78:	0001883a 	nop
 4000a7c:	e037883a 	mov	sp,fp
 4000a80:	df000017 	ldw	fp,0(sp)
 4000a84:	dec00104 	addi	sp,sp,4
 4000a88:	f800283a 	ret

04000a8c <__divsi3>:
 4000a8c:	20001b16 	blt	r4,zero,4000afc <__divsi3+0x70>
 4000a90:	000f883a 	mov	r7,zero
 4000a94:	28001616 	blt	r5,zero,4000af0 <__divsi3+0x64>
 4000a98:	200d883a 	mov	r6,r4
 4000a9c:	29001a2e 	bgeu	r5,r4,4000b08 <__divsi3+0x7c>
 4000aa0:	00800804 	movi	r2,32
 4000aa4:	00c00044 	movi	r3,1
 4000aa8:	00000106 	br	4000ab0 <__divsi3+0x24>
 4000aac:	10000d26 	beq	r2,zero,4000ae4 <__divsi3+0x58>
 4000ab0:	294b883a 	add	r5,r5,r5
 4000ab4:	10bfffc4 	addi	r2,r2,-1
 4000ab8:	18c7883a 	add	r3,r3,r3
 4000abc:	293ffb36 	bltu	r5,r4,4000aac <__ram_exceptions_end+0xfbff8868>
 4000ac0:	0005883a 	mov	r2,zero
 4000ac4:	18000726 	beq	r3,zero,4000ae4 <__divsi3+0x58>
 4000ac8:	0005883a 	mov	r2,zero
 4000acc:	31400236 	bltu	r6,r5,4000ad8 <__divsi3+0x4c>
 4000ad0:	314dc83a 	sub	r6,r6,r5
 4000ad4:	10c4b03a 	or	r2,r2,r3
 4000ad8:	1806d07a 	srli	r3,r3,1
 4000adc:	280ad07a 	srli	r5,r5,1
 4000ae0:	183ffa1e 	bne	r3,zero,4000acc <__ram_exceptions_end+0xfbff8888>
 4000ae4:	38000126 	beq	r7,zero,4000aec <__divsi3+0x60>
 4000ae8:	0085c83a 	sub	r2,zero,r2
 4000aec:	f800283a 	ret
 4000af0:	014bc83a 	sub	r5,zero,r5
 4000af4:	39c0005c 	xori	r7,r7,1
 4000af8:	003fe706 	br	4000a98 <__ram_exceptions_end+0xfbff8854>
 4000afc:	0109c83a 	sub	r4,zero,r4
 4000b00:	01c00044 	movi	r7,1
 4000b04:	003fe306 	br	4000a94 <__ram_exceptions_end+0xfbff8850>
 4000b08:	00c00044 	movi	r3,1
 4000b0c:	003fee06 	br	4000ac8 <__ram_exceptions_end+0xfbff8884>

04000b10 <__modsi3>:
 4000b10:	20001716 	blt	r4,zero,4000b70 <__modsi3+0x60>
 4000b14:	000f883a 	mov	r7,zero
 4000b18:	2005883a 	mov	r2,r4
 4000b1c:	28001216 	blt	r5,zero,4000b68 <__modsi3+0x58>
 4000b20:	2900162e 	bgeu	r5,r4,4000b7c <__modsi3+0x6c>
 4000b24:	01800804 	movi	r6,32
 4000b28:	00c00044 	movi	r3,1
 4000b2c:	00000106 	br	4000b34 <__modsi3+0x24>
 4000b30:	30000a26 	beq	r6,zero,4000b5c <__modsi3+0x4c>
 4000b34:	294b883a 	add	r5,r5,r5
 4000b38:	31bfffc4 	addi	r6,r6,-1
 4000b3c:	18c7883a 	add	r3,r3,r3
 4000b40:	293ffb36 	bltu	r5,r4,4000b30 <__ram_exceptions_end+0xfbff88ec>
 4000b44:	18000526 	beq	r3,zero,4000b5c <__modsi3+0x4c>
 4000b48:	1806d07a 	srli	r3,r3,1
 4000b4c:	11400136 	bltu	r2,r5,4000b54 <__modsi3+0x44>
 4000b50:	1145c83a 	sub	r2,r2,r5
 4000b54:	280ad07a 	srli	r5,r5,1
 4000b58:	183ffb1e 	bne	r3,zero,4000b48 <__ram_exceptions_end+0xfbff8904>
 4000b5c:	38000126 	beq	r7,zero,4000b64 <__modsi3+0x54>
 4000b60:	0085c83a 	sub	r2,zero,r2
 4000b64:	f800283a 	ret
 4000b68:	014bc83a 	sub	r5,zero,r5
 4000b6c:	003fec06 	br	4000b20 <__ram_exceptions_end+0xfbff88dc>
 4000b70:	0109c83a 	sub	r4,zero,r4
 4000b74:	01c00044 	movi	r7,1
 4000b78:	003fe706 	br	4000b18 <__ram_exceptions_end+0xfbff88d4>
 4000b7c:	00c00044 	movi	r3,1
 4000b80:	003ff106 	br	4000b48 <__ram_exceptions_end+0xfbff8904>

04000b84 <__udivsi3>:
 4000b84:	200d883a 	mov	r6,r4
 4000b88:	2900152e 	bgeu	r5,r4,4000be0 <__udivsi3+0x5c>
 4000b8c:	28001416 	blt	r5,zero,4000be0 <__udivsi3+0x5c>
 4000b90:	00800804 	movi	r2,32
 4000b94:	00c00044 	movi	r3,1
 4000b98:	00000206 	br	4000ba4 <__udivsi3+0x20>
 4000b9c:	10000e26 	beq	r2,zero,4000bd8 <__udivsi3+0x54>
 4000ba0:	28000516 	blt	r5,zero,4000bb8 <__udivsi3+0x34>
 4000ba4:	294b883a 	add	r5,r5,r5
 4000ba8:	10bfffc4 	addi	r2,r2,-1
 4000bac:	18c7883a 	add	r3,r3,r3
 4000bb0:	293ffa36 	bltu	r5,r4,4000b9c <__ram_exceptions_end+0xfbff8958>
 4000bb4:	18000826 	beq	r3,zero,4000bd8 <__udivsi3+0x54>
 4000bb8:	0005883a 	mov	r2,zero
 4000bbc:	31400236 	bltu	r6,r5,4000bc8 <__udivsi3+0x44>
 4000bc0:	314dc83a 	sub	r6,r6,r5
 4000bc4:	10c4b03a 	or	r2,r2,r3
 4000bc8:	1806d07a 	srli	r3,r3,1
 4000bcc:	280ad07a 	srli	r5,r5,1
 4000bd0:	183ffa1e 	bne	r3,zero,4000bbc <__ram_exceptions_end+0xfbff8978>
 4000bd4:	f800283a 	ret
 4000bd8:	0005883a 	mov	r2,zero
 4000bdc:	f800283a 	ret
 4000be0:	00c00044 	movi	r3,1
 4000be4:	003ff406 	br	4000bb8 <__ram_exceptions_end+0xfbff8974>

04000be8 <__umodsi3>:
 4000be8:	2005883a 	mov	r2,r4
 4000bec:	2900122e 	bgeu	r5,r4,4000c38 <__umodsi3+0x50>
 4000bf0:	28001116 	blt	r5,zero,4000c38 <__umodsi3+0x50>
 4000bf4:	01800804 	movi	r6,32
 4000bf8:	00c00044 	movi	r3,1
 4000bfc:	00000206 	br	4000c08 <__umodsi3+0x20>
 4000c00:	30000c26 	beq	r6,zero,4000c34 <__umodsi3+0x4c>
 4000c04:	28000516 	blt	r5,zero,4000c1c <__umodsi3+0x34>
 4000c08:	294b883a 	add	r5,r5,r5
 4000c0c:	31bfffc4 	addi	r6,r6,-1
 4000c10:	18c7883a 	add	r3,r3,r3
 4000c14:	293ffa36 	bltu	r5,r4,4000c00 <__ram_exceptions_end+0xfbff89bc>
 4000c18:	18000626 	beq	r3,zero,4000c34 <__umodsi3+0x4c>
 4000c1c:	1806d07a 	srli	r3,r3,1
 4000c20:	11400136 	bltu	r2,r5,4000c28 <__umodsi3+0x40>
 4000c24:	1145c83a 	sub	r2,r2,r5
 4000c28:	280ad07a 	srli	r5,r5,1
 4000c2c:	183ffb1e 	bne	r3,zero,4000c1c <__ram_exceptions_end+0xfbff89d8>
 4000c30:	f800283a 	ret
 4000c34:	f800283a 	ret
 4000c38:	00c00044 	movi	r3,1
 4000c3c:	003ff706 	br	4000c1c <__ram_exceptions_end+0xfbff89d8>

04000c40 <memcpy>:
 4000c40:	defffd04 	addi	sp,sp,-12
 4000c44:	dfc00215 	stw	ra,8(sp)
 4000c48:	dc400115 	stw	r17,4(sp)
 4000c4c:	dc000015 	stw	r16,0(sp)
 4000c50:	00c003c4 	movi	r3,15
 4000c54:	2005883a 	mov	r2,r4
 4000c58:	1980452e 	bgeu	r3,r6,4000d70 <memcpy+0x130>
 4000c5c:	2906b03a 	or	r3,r5,r4
 4000c60:	18c000cc 	andi	r3,r3,3
 4000c64:	1800441e 	bne	r3,zero,4000d78 <memcpy+0x138>
 4000c68:	347ffc04 	addi	r17,r6,-16
 4000c6c:	8822d13a 	srli	r17,r17,4
 4000c70:	28c00104 	addi	r3,r5,4
 4000c74:	23400104 	addi	r13,r4,4
 4000c78:	8820913a 	slli	r16,r17,4
 4000c7c:	2b000204 	addi	r12,r5,8
 4000c80:	22c00204 	addi	r11,r4,8
 4000c84:	84000504 	addi	r16,r16,20
 4000c88:	2a800304 	addi	r10,r5,12
 4000c8c:	22400304 	addi	r9,r4,12
 4000c90:	2c21883a 	add	r16,r5,r16
 4000c94:	2811883a 	mov	r8,r5
 4000c98:	200f883a 	mov	r7,r4
 4000c9c:	41000017 	ldw	r4,0(r8)
 4000ca0:	1fc00017 	ldw	ra,0(r3)
 4000ca4:	63c00017 	ldw	r15,0(r12)
 4000ca8:	39000015 	stw	r4,0(r7)
 4000cac:	53800017 	ldw	r14,0(r10)
 4000cb0:	6fc00015 	stw	ra,0(r13)
 4000cb4:	5bc00015 	stw	r15,0(r11)
 4000cb8:	4b800015 	stw	r14,0(r9)
 4000cbc:	18c00404 	addi	r3,r3,16
 4000cc0:	39c00404 	addi	r7,r7,16
 4000cc4:	42000404 	addi	r8,r8,16
 4000cc8:	6b400404 	addi	r13,r13,16
 4000ccc:	63000404 	addi	r12,r12,16
 4000cd0:	5ac00404 	addi	r11,r11,16
 4000cd4:	52800404 	addi	r10,r10,16
 4000cd8:	4a400404 	addi	r9,r9,16
 4000cdc:	1c3fef1e 	bne	r3,r16,4000c9c <__ram_exceptions_end+0xfbff8a58>
 4000ce0:	89c00044 	addi	r7,r17,1
 4000ce4:	380e913a 	slli	r7,r7,4
 4000ce8:	310003cc 	andi	r4,r6,15
 4000cec:	02c000c4 	movi	r11,3
 4000cf0:	11c7883a 	add	r3,r2,r7
 4000cf4:	29cb883a 	add	r5,r5,r7
 4000cf8:	5900212e 	bgeu	r11,r4,4000d80 <memcpy+0x140>
 4000cfc:	1813883a 	mov	r9,r3
 4000d00:	2811883a 	mov	r8,r5
 4000d04:	200f883a 	mov	r7,r4
 4000d08:	42800017 	ldw	r10,0(r8)
 4000d0c:	4a400104 	addi	r9,r9,4
 4000d10:	39ffff04 	addi	r7,r7,-4
 4000d14:	4abfff15 	stw	r10,-4(r9)
 4000d18:	42000104 	addi	r8,r8,4
 4000d1c:	59fffa36 	bltu	r11,r7,4000d08 <__ram_exceptions_end+0xfbff8ac4>
 4000d20:	213fff04 	addi	r4,r4,-4
 4000d24:	2008d0ba 	srli	r4,r4,2
 4000d28:	318000cc 	andi	r6,r6,3
 4000d2c:	21000044 	addi	r4,r4,1
 4000d30:	2109883a 	add	r4,r4,r4
 4000d34:	2109883a 	add	r4,r4,r4
 4000d38:	1907883a 	add	r3,r3,r4
 4000d3c:	290b883a 	add	r5,r5,r4
 4000d40:	30000626 	beq	r6,zero,4000d5c <memcpy+0x11c>
 4000d44:	198d883a 	add	r6,r3,r6
 4000d48:	29c00003 	ldbu	r7,0(r5)
 4000d4c:	18c00044 	addi	r3,r3,1
 4000d50:	29400044 	addi	r5,r5,1
 4000d54:	19ffffc5 	stb	r7,-1(r3)
 4000d58:	19bffb1e 	bne	r3,r6,4000d48 <__ram_exceptions_end+0xfbff8b04>
 4000d5c:	dfc00217 	ldw	ra,8(sp)
 4000d60:	dc400117 	ldw	r17,4(sp)
 4000d64:	dc000017 	ldw	r16,0(sp)
 4000d68:	dec00304 	addi	sp,sp,12
 4000d6c:	f800283a 	ret
 4000d70:	2007883a 	mov	r3,r4
 4000d74:	003ff206 	br	4000d40 <__ram_exceptions_end+0xfbff8afc>
 4000d78:	2007883a 	mov	r3,r4
 4000d7c:	003ff106 	br	4000d44 <__ram_exceptions_end+0xfbff8b00>
 4000d80:	200d883a 	mov	r6,r4
 4000d84:	003fee06 	br	4000d40 <__ram_exceptions_end+0xfbff8afc>

04000d88 <_puts_r>:
 4000d88:	defff604 	addi	sp,sp,-40
 4000d8c:	dc000715 	stw	r16,28(sp)
 4000d90:	2021883a 	mov	r16,r4
 4000d94:	2809883a 	mov	r4,r5
 4000d98:	dc400815 	stw	r17,32(sp)
 4000d9c:	dfc00915 	stw	ra,36(sp)
 4000da0:	2823883a 	mov	r17,r5
 4000da4:	40010180 	call	4001018 <strlen>
 4000da8:	10c00044 	addi	r3,r2,1
 4000dac:	d8800115 	stw	r2,4(sp)
 4000db0:	00810074 	movhi	r2,1025
 4000db4:	10bddd04 	addi	r2,r2,-2188
 4000db8:	d8800215 	stw	r2,8(sp)
 4000dbc:	00800044 	movi	r2,1
 4000dc0:	d8800315 	stw	r2,12(sp)
 4000dc4:	00800084 	movi	r2,2
 4000dc8:	dc400015 	stw	r17,0(sp)
 4000dcc:	d8c00615 	stw	r3,24(sp)
 4000dd0:	dec00415 	stw	sp,16(sp)
 4000dd4:	d8800515 	stw	r2,20(sp)
 4000dd8:	80000226 	beq	r16,zero,4000de4 <_puts_r+0x5c>
 4000ddc:	80800e17 	ldw	r2,56(r16)
 4000de0:	10001426 	beq	r2,zero,4000e34 <_puts_r+0xac>
 4000de4:	81400217 	ldw	r5,8(r16)
 4000de8:	2880030b 	ldhu	r2,12(r5)
 4000dec:	10c8000c 	andi	r3,r2,8192
 4000df0:	1800061e 	bne	r3,zero,4000e0c <_puts_r+0x84>
 4000df4:	29001917 	ldw	r4,100(r5)
 4000df8:	00f7ffc4 	movi	r3,-8193
 4000dfc:	10880014 	ori	r2,r2,8192
 4000e00:	20c6703a 	and	r3,r4,r3
 4000e04:	2880030d 	sth	r2,12(r5)
 4000e08:	28c01915 	stw	r3,100(r5)
 4000e0c:	d9800404 	addi	r6,sp,16
 4000e10:	8009883a 	mov	r4,r16
 4000e14:	4004eb00 	call	4004eb0 <__sfvwrite_r>
 4000e18:	1000091e 	bne	r2,zero,4000e40 <_puts_r+0xb8>
 4000e1c:	00800284 	movi	r2,10
 4000e20:	dfc00917 	ldw	ra,36(sp)
 4000e24:	dc400817 	ldw	r17,32(sp)
 4000e28:	dc000717 	ldw	r16,28(sp)
 4000e2c:	dec00a04 	addi	sp,sp,40
 4000e30:	f800283a 	ret
 4000e34:	8009883a 	mov	r4,r16
 4000e38:	4004e600 	call	4004e60 <__sinit>
 4000e3c:	003fe906 	br	4000de4 <__ram_exceptions_end+0xfbff8ba0>
 4000e40:	00bfffc4 	movi	r2,-1
 4000e44:	003ff606 	br	4000e20 <__ram_exceptions_end+0xfbff8bdc>

04000e48 <puts>:
 4000e48:	00810074 	movhi	r2,1025
 4000e4c:	10855204 	addi	r2,r2,5448
 4000e50:	200b883a 	mov	r5,r4
 4000e54:	11000017 	ldw	r4,0(r2)
 4000e58:	4000d881 	jmpi	4000d88 <_puts_r>

04000e5c <_snprintf_r>:
 4000e5c:	30003116 	blt	r6,zero,4000f24 <_snprintf_r+0xc8>
 4000e60:	deffe404 	addi	sp,sp,-112
 4000e64:	00c08204 	movi	r3,520
 4000e68:	dc001a15 	stw	r16,104(sp)
 4000e6c:	3005883a 	mov	r2,r6
 4000e70:	dfc01b15 	stw	ra,108(sp)
 4000e74:	d8c0030d 	sth	r3,12(sp)
 4000e78:	d9400015 	stw	r5,0(sp)
 4000e7c:	d9400415 	stw	r5,16(sp)
 4000e80:	380d883a 	mov	r6,r7
 4000e84:	2021883a 	mov	r16,r4
 4000e88:	10001026 	beq	r2,zero,4000ecc <_snprintf_r+0x70>
 4000e8c:	10bfffc4 	addi	r2,r2,-1
 4000e90:	d8800215 	stw	r2,8(sp)
 4000e94:	d8800515 	stw	r2,20(sp)
 4000e98:	d9c01c04 	addi	r7,sp,112
 4000e9c:	00bfffc4 	movi	r2,-1
 4000ea0:	d80b883a 	mov	r5,sp
 4000ea4:	d880038d 	sth	r2,14(sp)
 4000ea8:	40010b00 	call	40010b0 <___svfprintf_internal_r>
 4000eac:	00ffffc4 	movi	r3,-1
 4000eb0:	10c01316 	blt	r2,r3,4000f00 <_snprintf_r+0xa4>
 4000eb4:	d8c00017 	ldw	r3,0(sp)
 4000eb8:	18000005 	stb	zero,0(r3)
 4000ebc:	dfc01b17 	ldw	ra,108(sp)
 4000ec0:	dc001a17 	ldw	r16,104(sp)
 4000ec4:	dec01c04 	addi	sp,sp,112
 4000ec8:	f800283a 	ret
 4000ecc:	00bfffc4 	movi	r2,-1
 4000ed0:	d9c01c04 	addi	r7,sp,112
 4000ed4:	d80b883a 	mov	r5,sp
 4000ed8:	d8000215 	stw	zero,8(sp)
 4000edc:	d8000515 	stw	zero,20(sp)
 4000ee0:	d880038d 	sth	r2,14(sp)
 4000ee4:	40010b00 	call	40010b0 <___svfprintf_internal_r>
 4000ee8:	00ffffc4 	movi	r3,-1
 4000eec:	10c00716 	blt	r2,r3,4000f0c <_snprintf_r+0xb0>
 4000ef0:	dfc01b17 	ldw	ra,108(sp)
 4000ef4:	dc001a17 	ldw	r16,104(sp)
 4000ef8:	dec01c04 	addi	sp,sp,112
 4000efc:	f800283a 	ret
 4000f00:	00c022c4 	movi	r3,139
 4000f04:	80c00015 	stw	r3,0(r16)
 4000f08:	003fea06 	br	4000eb4 <__ram_exceptions_end+0xfbff8c70>
 4000f0c:	00c022c4 	movi	r3,139
 4000f10:	80c00015 	stw	r3,0(r16)
 4000f14:	dfc01b17 	ldw	ra,108(sp)
 4000f18:	dc001a17 	ldw	r16,104(sp)
 4000f1c:	dec01c04 	addi	sp,sp,112
 4000f20:	f800283a 	ret
 4000f24:	008022c4 	movi	r2,139
 4000f28:	20800015 	stw	r2,0(r4)
 4000f2c:	00bfffc4 	movi	r2,-1
 4000f30:	f800283a 	ret

04000f34 <snprintf>:
 4000f34:	deffe304 	addi	sp,sp,-116
 4000f38:	dfc01b15 	stw	ra,108(sp)
 4000f3c:	dc001a15 	stw	r16,104(sp)
 4000f40:	d9c01c15 	stw	r7,112(sp)
 4000f44:	00810074 	movhi	r2,1025
 4000f48:	10855204 	addi	r2,r2,5448
 4000f4c:	14000017 	ldw	r16,0(r2)
 4000f50:	28002d16 	blt	r5,zero,4001008 <snprintf+0xd4>
 4000f54:	00808204 	movi	r2,520
 4000f58:	d880030d 	sth	r2,12(sp)
 4000f5c:	d9000015 	stw	r4,0(sp)
 4000f60:	d9000415 	stw	r4,16(sp)
 4000f64:	28001126 	beq	r5,zero,4000fac <snprintf+0x78>
 4000f68:	28bfffc4 	addi	r2,r5,-1
 4000f6c:	d8800215 	stw	r2,8(sp)
 4000f70:	d8800515 	stw	r2,20(sp)
 4000f74:	d9c01c04 	addi	r7,sp,112
 4000f78:	00bfffc4 	movi	r2,-1
 4000f7c:	d80b883a 	mov	r5,sp
 4000f80:	8009883a 	mov	r4,r16
 4000f84:	d880038d 	sth	r2,14(sp)
 4000f88:	40010b00 	call	40010b0 <___svfprintf_internal_r>
 4000f8c:	00ffffc4 	movi	r3,-1
 4000f90:	10c01416 	blt	r2,r3,4000fe4 <snprintf+0xb0>
 4000f94:	d8c00017 	ldw	r3,0(sp)
 4000f98:	18000005 	stb	zero,0(r3)
 4000f9c:	dfc01b17 	ldw	ra,108(sp)
 4000fa0:	dc001a17 	ldw	r16,104(sp)
 4000fa4:	dec01d04 	addi	sp,sp,116
 4000fa8:	f800283a 	ret
 4000fac:	00bfffc4 	movi	r2,-1
 4000fb0:	d9c01c04 	addi	r7,sp,112
 4000fb4:	d80b883a 	mov	r5,sp
 4000fb8:	8009883a 	mov	r4,r16
 4000fbc:	d8000215 	stw	zero,8(sp)
 4000fc0:	d8000515 	stw	zero,20(sp)
 4000fc4:	d880038d 	sth	r2,14(sp)
 4000fc8:	40010b00 	call	40010b0 <___svfprintf_internal_r>
 4000fcc:	00ffffc4 	movi	r3,-1
 4000fd0:	10c00716 	blt	r2,r3,4000ff0 <snprintf+0xbc>
 4000fd4:	dfc01b17 	ldw	ra,108(sp)
 4000fd8:	dc001a17 	ldw	r16,104(sp)
 4000fdc:	dec01d04 	addi	sp,sp,116
 4000fe0:	f800283a 	ret
 4000fe4:	00c022c4 	movi	r3,139
 4000fe8:	80c00015 	stw	r3,0(r16)
 4000fec:	003fe906 	br	4000f94 <__ram_exceptions_end+0xfbff8d50>
 4000ff0:	00c022c4 	movi	r3,139
 4000ff4:	80c00015 	stw	r3,0(r16)
 4000ff8:	dfc01b17 	ldw	ra,108(sp)
 4000ffc:	dc001a17 	ldw	r16,104(sp)
 4001000:	dec01d04 	addi	sp,sp,116
 4001004:	f800283a 	ret
 4001008:	008022c4 	movi	r2,139
 400100c:	80800015 	stw	r2,0(r16)
 4001010:	00bfffc4 	movi	r2,-1
 4001014:	003fef06 	br	4000fd4 <__ram_exceptions_end+0xfbff8d90>

04001018 <strlen>:
 4001018:	208000cc 	andi	r2,r4,3
 400101c:	10002026 	beq	r2,zero,40010a0 <strlen+0x88>
 4001020:	20800007 	ldb	r2,0(r4)
 4001024:	10002026 	beq	r2,zero,40010a8 <strlen+0x90>
 4001028:	2005883a 	mov	r2,r4
 400102c:	00000206 	br	4001038 <strlen+0x20>
 4001030:	10c00007 	ldb	r3,0(r2)
 4001034:	18001826 	beq	r3,zero,4001098 <strlen+0x80>
 4001038:	10800044 	addi	r2,r2,1
 400103c:	10c000cc 	andi	r3,r2,3
 4001040:	183ffb1e 	bne	r3,zero,4001030 <__ram_exceptions_end+0xfbff8dec>
 4001044:	10c00017 	ldw	r3,0(r2)
 4001048:	01ffbff4 	movhi	r7,65279
 400104c:	39ffbfc4 	addi	r7,r7,-257
 4001050:	00ca303a 	nor	r5,zero,r3
 4001054:	01a02074 	movhi	r6,32897
 4001058:	19c7883a 	add	r3,r3,r7
 400105c:	31a02004 	addi	r6,r6,-32640
 4001060:	1946703a 	and	r3,r3,r5
 4001064:	1986703a 	and	r3,r3,r6
 4001068:	1800091e 	bne	r3,zero,4001090 <strlen+0x78>
 400106c:	10800104 	addi	r2,r2,4
 4001070:	10c00017 	ldw	r3,0(r2)
 4001074:	19cb883a 	add	r5,r3,r7
 4001078:	00c6303a 	nor	r3,zero,r3
 400107c:	28c6703a 	and	r3,r5,r3
 4001080:	1986703a 	and	r3,r3,r6
 4001084:	183ff926 	beq	r3,zero,400106c <__ram_exceptions_end+0xfbff8e28>
 4001088:	00000106 	br	4001090 <strlen+0x78>
 400108c:	10800044 	addi	r2,r2,1
 4001090:	10c00007 	ldb	r3,0(r2)
 4001094:	183ffd1e 	bne	r3,zero,400108c <__ram_exceptions_end+0xfbff8e48>
 4001098:	1105c83a 	sub	r2,r2,r4
 400109c:	f800283a 	ret
 40010a0:	2005883a 	mov	r2,r4
 40010a4:	003fe706 	br	4001044 <__ram_exceptions_end+0xfbff8e00>
 40010a8:	0005883a 	mov	r2,zero
 40010ac:	f800283a 	ret

040010b0 <___svfprintf_internal_r>:
 40010b0:	deffb704 	addi	sp,sp,-292
 40010b4:	dfc04815 	stw	ra,288(sp)
 40010b8:	ddc04615 	stw	r23,280(sp)
 40010bc:	d9402c15 	stw	r5,176(sp)
 40010c0:	d9003915 	stw	r4,228(sp)
 40010c4:	302f883a 	mov	r23,r6
 40010c8:	d9c02d15 	stw	r7,180(sp)
 40010cc:	df004715 	stw	fp,284(sp)
 40010d0:	dd804515 	stw	r22,276(sp)
 40010d4:	dd404415 	stw	r21,272(sp)
 40010d8:	dd004315 	stw	r20,268(sp)
 40010dc:	dcc04215 	stw	r19,264(sp)
 40010e0:	dc804115 	stw	r18,260(sp)
 40010e4:	dc404015 	stw	r17,256(sp)
 40010e8:	dc003f15 	stw	r16,252(sp)
 40010ec:	40055a00 	call	40055a0 <_localeconv_r>
 40010f0:	10800017 	ldw	r2,0(r2)
 40010f4:	1009883a 	mov	r4,r2
 40010f8:	d8803415 	stw	r2,208(sp)
 40010fc:	40010180 	call	4001018 <strlen>
 4001100:	d8c02c17 	ldw	r3,176(sp)
 4001104:	d8803815 	stw	r2,224(sp)
 4001108:	1880030b 	ldhu	r2,12(r3)
 400110c:	1080200c 	andi	r2,r2,128
 4001110:	10000226 	beq	r2,zero,400111c <___svfprintf_internal_r+0x6c>
 4001114:	18800417 	ldw	r2,16(r3)
 4001118:	10067f26 	beq	r2,zero,4002b18 <___svfprintf_internal_r+0x1a68>
 400111c:	dcc03917 	ldw	r19,228(sp)
 4001120:	d8c00404 	addi	r3,sp,16
 4001124:	05410074 	movhi	r21,1025
 4001128:	d9001e04 	addi	r4,sp,120
 400112c:	ad7dee84 	addi	r21,r21,-2118
 4001130:	d8c01e15 	stw	r3,120(sp)
 4001134:	d8002015 	stw	zero,128(sp)
 4001138:	d8001f15 	stw	zero,124(sp)
 400113c:	d8003315 	stw	zero,204(sp)
 4001140:	d8003615 	stw	zero,216(sp)
 4001144:	d8003715 	stw	zero,220(sp)
 4001148:	1811883a 	mov	r8,r3
 400114c:	d8003a15 	stw	zero,232(sp)
 4001150:	d8003b15 	stw	zero,236(sp)
 4001154:	d8002f15 	stw	zero,188(sp)
 4001158:	d9002815 	stw	r4,160(sp)
 400115c:	b8800007 	ldb	r2,0(r23)
 4001160:	10026726 	beq	r2,zero,4001b00 <___svfprintf_internal_r+0xa50>
 4001164:	00c00944 	movi	r3,37
 4001168:	b821883a 	mov	r16,r23
 400116c:	10c0021e 	bne	r2,r3,4001178 <___svfprintf_internal_r+0xc8>
 4001170:	00001406 	br	40011c4 <___svfprintf_internal_r+0x114>
 4001174:	10c00326 	beq	r2,r3,4001184 <___svfprintf_internal_r+0xd4>
 4001178:	84000044 	addi	r16,r16,1
 400117c:	80800007 	ldb	r2,0(r16)
 4001180:	103ffc1e 	bne	r2,zero,4001174 <__ram_exceptions_end+0xfbff8f30>
 4001184:	85e3c83a 	sub	r17,r16,r23
 4001188:	88000e26 	beq	r17,zero,40011c4 <___svfprintf_internal_r+0x114>
 400118c:	d8c02017 	ldw	r3,128(sp)
 4001190:	d8801f17 	ldw	r2,124(sp)
 4001194:	45c00015 	stw	r23,0(r8)
 4001198:	1c47883a 	add	r3,r3,r17
 400119c:	10800044 	addi	r2,r2,1
 40011a0:	d8c02015 	stw	r3,128(sp)
 40011a4:	44400115 	stw	r17,4(r8)
 40011a8:	d8801f15 	stw	r2,124(sp)
 40011ac:	00c001c4 	movi	r3,7
 40011b0:	18809716 	blt	r3,r2,4001410 <___svfprintf_internal_r+0x360>
 40011b4:	42000204 	addi	r8,r8,8
 40011b8:	d9402f17 	ldw	r5,188(sp)
 40011bc:	2c4b883a 	add	r5,r5,r17
 40011c0:	d9402f15 	stw	r5,188(sp)
 40011c4:	80800007 	ldb	r2,0(r16)
 40011c8:	10009826 	beq	r2,zero,400142c <___svfprintf_internal_r+0x37c>
 40011cc:	84400047 	ldb	r17,1(r16)
 40011d0:	00bfffc4 	movi	r2,-1
 40011d4:	85c00044 	addi	r23,r16,1
 40011d8:	d8002785 	stb	zero,158(sp)
 40011dc:	0007883a 	mov	r3,zero
 40011e0:	000f883a 	mov	r7,zero
 40011e4:	d8802915 	stw	r2,164(sp)
 40011e8:	d8003115 	stw	zero,196(sp)
 40011ec:	0025883a 	mov	r18,zero
 40011f0:	01401604 	movi	r5,88
 40011f4:	01800244 	movi	r6,9
 40011f8:	02800a84 	movi	r10,42
 40011fc:	02401b04 	movi	r9,108
 4001200:	bdc00044 	addi	r23,r23,1
 4001204:	88bff804 	addi	r2,r17,-32
 4001208:	2882f036 	bltu	r5,r2,4001dcc <___svfprintf_internal_r+0xd1c>
 400120c:	100490ba 	slli	r2,r2,2
 4001210:	01010034 	movhi	r4,1024
 4001214:	21048904 	addi	r4,r4,4644
 4001218:	1105883a 	add	r2,r2,r4
 400121c:	10800017 	ldw	r2,0(r2)
 4001220:	1000683a 	jmp	r2
 4001224:	04001d34 	movhi	r16,116
 4001228:	04001dcc 	andi	r16,zero,119
 400122c:	04001dcc 	andi	r16,zero,119
 4001230:	04001d28 	cmpgeui	r16,zero,116
 4001234:	04001dcc 	andi	r16,zero,119
 4001238:	04001dcc 	andi	r16,zero,119
 400123c:	04001dcc 	andi	r16,zero,119
 4001240:	04001dcc 	andi	r16,zero,119
 4001244:	04001dcc 	andi	r16,zero,119
 4001248:	04001dcc 	andi	r16,zero,119
 400124c:	04001488 	cmpgei	r16,zero,82
 4001250:	04001c64 	muli	r16,zero,113
 4001254:	04001dcc 	andi	r16,zero,119
 4001258:	04001398 	cmpnei	r16,zero,78
 400125c:	040014b0 	cmpltui	r16,zero,82
 4001260:	04001dcc 	andi	r16,zero,119
 4001264:	04001524 	muli	r16,zero,84
 4001268:	040014f0 	cmpltui	r16,zero,83
 400126c:	040014f0 	cmpltui	r16,zero,83
 4001270:	040014f0 	cmpltui	r16,zero,83
 4001274:	040014f0 	cmpltui	r16,zero,83
 4001278:	040014f0 	cmpltui	r16,zero,83
 400127c:	040014f0 	cmpltui	r16,zero,83
 4001280:	040014f0 	cmpltui	r16,zero,83
 4001284:	040014f0 	cmpltui	r16,zero,83
 4001288:	040014f0 	cmpltui	r16,zero,83
 400128c:	04001dcc 	andi	r16,zero,119
 4001290:	04001dcc 	andi	r16,zero,119
 4001294:	04001dcc 	andi	r16,zero,119
 4001298:	04001dcc 	andi	r16,zero,119
 400129c:	04001dcc 	andi	r16,zero,119
 40012a0:	04001dcc 	andi	r16,zero,119
 40012a4:	04001dcc 	andi	r16,zero,119
 40012a8:	04001dcc 	andi	r16,zero,119
 40012ac:	04001dcc 	andi	r16,zero,119
 40012b0:	04001dcc 	andi	r16,zero,119
 40012b4:	040015dc 	xori	r16,zero,87
 40012b8:	04001530 	cmpltui	r16,zero,84
 40012bc:	04001dcc 	andi	r16,zero,119
 40012c0:	04001530 	cmpltui	r16,zero,84
 40012c4:	04001dcc 	andi	r16,zero,119
 40012c8:	04001dcc 	andi	r16,zero,119
 40012cc:	04001dcc 	andi	r16,zero,119
 40012d0:	04001dcc 	andi	r16,zero,119
 40012d4:	040015d0 	cmplti	r16,zero,87
 40012d8:	04001dcc 	andi	r16,zero,119
 40012dc:	04001dcc 	andi	r16,zero,119
 40012e0:	04001698 	cmpnei	r16,zero,90
 40012e4:	04001dcc 	andi	r16,zero,119
 40012e8:	04001dcc 	andi	r16,zero,119
 40012ec:	04001dcc 	andi	r16,zero,119
 40012f0:	04001dcc 	andi	r16,zero,119
 40012f4:	04001dcc 	andi	r16,zero,119
 40012f8:	04001b08 	cmpgei	r16,zero,108
 40012fc:	04001dcc 	andi	r16,zero,119
 4001300:	04001dcc 	andi	r16,zero,119
 4001304:	04001b68 	cmpgeui	r16,zero,109
 4001308:	04001dcc 	andi	r16,zero,119
 400130c:	04001dcc 	andi	r16,zero,119
 4001310:	04001dcc 	andi	r16,zero,119
 4001314:	04001dcc 	andi	r16,zero,119
 4001318:	04001dcc 	andi	r16,zero,119
 400131c:	04001dcc 	andi	r16,zero,119
 4001320:	04001dcc 	andi	r16,zero,119
 4001324:	04001dcc 	andi	r16,zero,119
 4001328:	04001dcc 	andi	r16,zero,119
 400132c:	04001dcc 	andi	r16,zero,119
 4001330:	04001c18 	cmpnei	r16,zero,112
 4001334:	04001d54 	movui	r16,117
 4001338:	04001530 	cmpltui	r16,zero,84
 400133c:	04001530 	cmpltui	r16,zero,84
 4001340:	04001530 	cmpltui	r16,zero,84
 4001344:	04001da8 	cmpgeui	r16,zero,118
 4001348:	04001d54 	movui	r16,117
 400134c:	04001dcc 	andi	r16,zero,119
 4001350:	04001dcc 	andi	r16,zero,119
 4001354:	04001d64 	muli	r16,zero,117
 4001358:	04001dcc 	andi	r16,zero,119
 400135c:	04001d74 	movhi	r16,117
 4001360:	04001c54 	movui	r16,113
 4001364:	040013a4 	muli	r16,zero,78
 4001368:	04001c74 	movhi	r16,113
 400136c:	04001dcc 	andi	r16,zero,119
 4001370:	04001c80 	call	4001c8 <__alt_mem_new_sdram_controller_0-0x3bffe38>
 4001374:	04001dcc 	andi	r16,zero,119
 4001378:	04001cdc 	xori	r16,zero,115
 400137c:	04001dcc 	andi	r16,zero,119
 4001380:	04001dcc 	andi	r16,zero,119
 4001384:	04001cec 	andhi	r16,zero,115
 4001388:	d9003117 	ldw	r4,196(sp)
 400138c:	d8802d15 	stw	r2,180(sp)
 4001390:	0109c83a 	sub	r4,zero,r4
 4001394:	d9003115 	stw	r4,196(sp)
 4001398:	94800114 	ori	r18,r18,4
 400139c:	bc400007 	ldb	r17,0(r23)
 40013a0:	003f9706 	br	4001200 <__ram_exceptions_end+0xfbff8fbc>
 40013a4:	00800c04 	movi	r2,48
 40013a8:	d9002d17 	ldw	r4,180(sp)
 40013ac:	d9402917 	ldw	r5,164(sp)
 40013b0:	d8802705 	stb	r2,156(sp)
 40013b4:	00801e04 	movi	r2,120
 40013b8:	d8802745 	stb	r2,157(sp)
 40013bc:	d8002785 	stb	zero,158(sp)
 40013c0:	20c00104 	addi	r3,r4,4
 40013c4:	25000017 	ldw	r20,0(r4)
 40013c8:	002d883a 	mov	r22,zero
 40013cc:	90800094 	ori	r2,r18,2
 40013d0:	28028616 	blt	r5,zero,4001dec <___svfprintf_internal_r+0xd3c>
 40013d4:	00bfdfc4 	movi	r2,-129
 40013d8:	90a4703a 	and	r18,r18,r2
 40013dc:	d8c02d15 	stw	r3,180(sp)
 40013e0:	94800094 	ori	r18,r18,2
 40013e4:	a002731e 	bne	r20,zero,4001db4 <___svfprintf_internal_r+0xd04>
 40013e8:	00810074 	movhi	r2,1025
 40013ec:	10bde704 	addi	r2,r2,-2148
 40013f0:	d8803a15 	stw	r2,232(sp)
 40013f4:	04401e04 	movi	r17,120
 40013f8:	d8c02917 	ldw	r3,164(sp)
 40013fc:	0039883a 	mov	fp,zero
 4001400:	1801d526 	beq	r3,zero,4001b58 <___svfprintf_internal_r+0xaa8>
 4001404:	0029883a 	mov	r20,zero
 4001408:	002d883a 	mov	r22,zero
 400140c:	0001f106 	br	4001bd4 <___svfprintf_internal_r+0xb24>
 4001410:	d9402c17 	ldw	r5,176(sp)
 4001414:	d9801e04 	addi	r6,sp,120
 4001418:	9809883a 	mov	r4,r19
 400141c:	40079840 	call	4007984 <__ssprint_r>
 4001420:	1000081e 	bne	r2,zero,4001444 <___svfprintf_internal_r+0x394>
 4001424:	da000404 	addi	r8,sp,16
 4001428:	003f6306 	br	40011b8 <__ram_exceptions_end+0xfbff8f74>
 400142c:	d8802017 	ldw	r2,128(sp)
 4001430:	10000426 	beq	r2,zero,4001444 <___svfprintf_internal_r+0x394>
 4001434:	d9402c17 	ldw	r5,176(sp)
 4001438:	d9003917 	ldw	r4,228(sp)
 400143c:	d9801e04 	addi	r6,sp,120
 4001440:	40079840 	call	4007984 <__ssprint_r>
 4001444:	d8802c17 	ldw	r2,176(sp)
 4001448:	10c0030b 	ldhu	r3,12(r2)
 400144c:	d8802f17 	ldw	r2,188(sp)
 4001450:	18c0100c 	andi	r3,r3,64
 4001454:	1805f51e 	bne	r3,zero,4002c2c <___svfprintf_internal_r+0x1b7c>
 4001458:	dfc04817 	ldw	ra,288(sp)
 400145c:	df004717 	ldw	fp,284(sp)
 4001460:	ddc04617 	ldw	r23,280(sp)
 4001464:	dd804517 	ldw	r22,276(sp)
 4001468:	dd404417 	ldw	r21,272(sp)
 400146c:	dd004317 	ldw	r20,268(sp)
 4001470:	dcc04217 	ldw	r19,264(sp)
 4001474:	dc804117 	ldw	r18,260(sp)
 4001478:	dc404017 	ldw	r17,256(sp)
 400147c:	dc003f17 	ldw	r16,252(sp)
 4001480:	dec04904 	addi	sp,sp,292
 4001484:	f800283a 	ret
 4001488:	d8802d17 	ldw	r2,180(sp)
 400148c:	d9002d17 	ldw	r4,180(sp)
 4001490:	10800017 	ldw	r2,0(r2)
 4001494:	d8803115 	stw	r2,196(sp)
 4001498:	20800104 	addi	r2,r4,4
 400149c:	d9003117 	ldw	r4,196(sp)
 40014a0:	203fb916 	blt	r4,zero,4001388 <__ram_exceptions_end+0xfbff9144>
 40014a4:	d8802d15 	stw	r2,180(sp)
 40014a8:	bc400007 	ldb	r17,0(r23)
 40014ac:	003f5406 	br	4001200 <__ram_exceptions_end+0xfbff8fbc>
 40014b0:	bc400007 	ldb	r17,0(r23)
 40014b4:	bac00044 	addi	r11,r23,1
 40014b8:	8a873926 	beq	r17,r10,40031a0 <___svfprintf_internal_r+0x20f0>
 40014bc:	88bff404 	addi	r2,r17,-48
 40014c0:	0009883a 	mov	r4,zero
 40014c4:	30868836 	bltu	r6,r2,4002ee8 <___svfprintf_internal_r+0x1e38>
 40014c8:	5c400007 	ldb	r17,0(r11)
 40014cc:	210002a4 	muli	r4,r4,10
 40014d0:	5dc00044 	addi	r23,r11,1
 40014d4:	b817883a 	mov	r11,r23
 40014d8:	2089883a 	add	r4,r4,r2
 40014dc:	88bff404 	addi	r2,r17,-48
 40014e0:	30bff92e 	bgeu	r6,r2,40014c8 <__ram_exceptions_end+0xfbff9284>
 40014e4:	2005d716 	blt	r4,zero,4002c44 <___svfprintf_internal_r+0x1b94>
 40014e8:	d9002915 	stw	r4,164(sp)
 40014ec:	003f4506 	br	4001204 <__ram_exceptions_end+0xfbff8fc0>
 40014f0:	b809883a 	mov	r4,r23
 40014f4:	d8003115 	stw	zero,196(sp)
 40014f8:	88bff404 	addi	r2,r17,-48
 40014fc:	0017883a 	mov	r11,zero
 4001500:	24400007 	ldb	r17,0(r4)
 4001504:	5ac002a4 	muli	r11,r11,10
 4001508:	bdc00044 	addi	r23,r23,1
 400150c:	b809883a 	mov	r4,r23
 4001510:	12d7883a 	add	r11,r2,r11
 4001514:	88bff404 	addi	r2,r17,-48
 4001518:	30bff92e 	bgeu	r6,r2,4001500 <__ram_exceptions_end+0xfbff92bc>
 400151c:	dac03115 	stw	r11,196(sp)
 4001520:	003f3806 	br	4001204 <__ram_exceptions_end+0xfbff8fc0>
 4001524:	94802014 	ori	r18,r18,128
 4001528:	bc400007 	ldb	r17,0(r23)
 400152c:	003f3406 	br	4001200 <__ram_exceptions_end+0xfbff8fbc>
 4001530:	18c03fcc 	andi	r3,r3,255
 4001534:	1807471e 	bne	r3,zero,4003254 <___svfprintf_internal_r+0x21a4>
 4001538:	9080020c 	andi	r2,r18,8
 400153c:	10047d26 	beq	r2,zero,4002734 <___svfprintf_internal_r+0x1684>
 4001540:	d8c02d17 	ldw	r3,180(sp)
 4001544:	d9002d17 	ldw	r4,180(sp)
 4001548:	d9402d17 	ldw	r5,180(sp)
 400154c:	18c00017 	ldw	r3,0(r3)
 4001550:	21000117 	ldw	r4,4(r4)
 4001554:	29400204 	addi	r5,r5,8
 4001558:	d8c03615 	stw	r3,216(sp)
 400155c:	d9003715 	stw	r4,220(sp)
 4001560:	d9402d15 	stw	r5,180(sp)
 4001564:	d9003617 	ldw	r4,216(sp)
 4001568:	d9403717 	ldw	r5,220(sp)
 400156c:	da003e15 	stw	r8,248(sp)
 4001570:	04000044 	movi	r16,1
 4001574:	40076a40 	call	40076a4 <__fpclassifyd>
 4001578:	da003e17 	ldw	r8,248(sp)
 400157c:	14044b1e 	bne	r2,r16,40026ac <___svfprintf_internal_r+0x15fc>
 4001580:	d9003617 	ldw	r4,216(sp)
 4001584:	d9403717 	ldw	r5,220(sp)
 4001588:	000d883a 	mov	r6,zero
 400158c:	000f883a 	mov	r7,zero
 4001590:	400b9100 	call	400b910 <__ledf2>
 4001594:	da003e17 	ldw	r8,248(sp)
 4001598:	1005f316 	blt	r2,zero,4002d68 <___svfprintf_internal_r+0x1cb8>
 400159c:	df002783 	ldbu	fp,158(sp)
 40015a0:	008011c4 	movi	r2,71
 40015a4:	1445590e 	bge	r2,r17,4002b0c <___svfprintf_internal_r+0x1a5c>
 40015a8:	04010074 	movhi	r16,1025
 40015ac:	843ddf04 	addi	r16,r16,-2180
 40015b0:	00c000c4 	movi	r3,3
 40015b4:	00bfdfc4 	movi	r2,-129
 40015b8:	d8c02a15 	stw	r3,168(sp)
 40015bc:	90a4703a 	and	r18,r18,r2
 40015c0:	d8c02e15 	stw	r3,184(sp)
 40015c4:	d8002915 	stw	zero,164(sp)
 40015c8:	d8003215 	stw	zero,200(sp)
 40015cc:	00006606 	br	4001768 <___svfprintf_internal_r+0x6b8>
 40015d0:	94800214 	ori	r18,r18,8
 40015d4:	bc400007 	ldb	r17,0(r23)
 40015d8:	003f0906 	br	4001200 <__ram_exceptions_end+0xfbff8fbc>
 40015dc:	18c03fcc 	andi	r3,r3,255
 40015e0:	1807181e 	bne	r3,zero,4003244 <___svfprintf_internal_r+0x2194>
 40015e4:	94800414 	ori	r18,r18,16
 40015e8:	9080080c 	andi	r2,r18,32
 40015ec:	10039626 	beq	r2,zero,4002448 <___svfprintf_internal_r+0x1398>
 40015f0:	d9402d17 	ldw	r5,180(sp)
 40015f4:	28800117 	ldw	r2,4(r5)
 40015f8:	2d000017 	ldw	r20,0(r5)
 40015fc:	29400204 	addi	r5,r5,8
 4001600:	d9402d15 	stw	r5,180(sp)
 4001604:	102d883a 	mov	r22,r2
 4001608:	10039816 	blt	r2,zero,400246c <___svfprintf_internal_r+0x13bc>
 400160c:	d9402917 	ldw	r5,164(sp)
 4001610:	df002783 	ldbu	fp,158(sp)
 4001614:	2803ab16 	blt	r5,zero,40024c4 <___svfprintf_internal_r+0x1414>
 4001618:	00ffdfc4 	movi	r3,-129
 400161c:	a584b03a 	or	r2,r20,r22
 4001620:	90e4703a 	and	r18,r18,r3
 4001624:	10014a26 	beq	r2,zero,4001b50 <___svfprintf_internal_r+0xaa0>
 4001628:	b0034b26 	beq	r22,zero,4002358 <___svfprintf_internal_r+0x12a8>
 400162c:	dc402a15 	stw	r17,168(sp)
 4001630:	dc001e04 	addi	r16,sp,120
 4001634:	b023883a 	mov	r17,r22
 4001638:	402d883a 	mov	r22,r8
 400163c:	a009883a 	mov	r4,r20
 4001640:	880b883a 	mov	r5,r17
 4001644:	01800284 	movi	r6,10
 4001648:	000f883a 	mov	r7,zero
 400164c:	400a0e00 	call	400a0e0 <__umoddi3>
 4001650:	10800c04 	addi	r2,r2,48
 4001654:	843fffc4 	addi	r16,r16,-1
 4001658:	a009883a 	mov	r4,r20
 400165c:	880b883a 	mov	r5,r17
 4001660:	80800005 	stb	r2,0(r16)
 4001664:	01800284 	movi	r6,10
 4001668:	000f883a 	mov	r7,zero
 400166c:	4009b680 	call	4009b68 <__udivdi3>
 4001670:	1029883a 	mov	r20,r2
 4001674:	10c4b03a 	or	r2,r2,r3
 4001678:	1823883a 	mov	r17,r3
 400167c:	103fef1e 	bne	r2,zero,400163c <__ram_exceptions_end+0xfbff93f8>
 4001680:	d8c02817 	ldw	r3,160(sp)
 4001684:	dc402a17 	ldw	r17,168(sp)
 4001688:	b011883a 	mov	r8,r22
 400168c:	1c07c83a 	sub	r3,r3,r16
 4001690:	d8c02e15 	stw	r3,184(sp)
 4001694:	00002e06 	br	4001750 <___svfprintf_internal_r+0x6a0>
 4001698:	18c03fcc 	andi	r3,r3,255
 400169c:	1806e71e 	bne	r3,zero,400323c <___svfprintf_internal_r+0x218c>
 40016a0:	94800414 	ori	r18,r18,16
 40016a4:	9080080c 	andi	r2,r18,32
 40016a8:	1002d426 	beq	r2,zero,40021fc <___svfprintf_internal_r+0x114c>
 40016ac:	d9402d17 	ldw	r5,180(sp)
 40016b0:	d8c02917 	ldw	r3,164(sp)
 40016b4:	d8002785 	stb	zero,158(sp)
 40016b8:	28800204 	addi	r2,r5,8
 40016bc:	2d000017 	ldw	r20,0(r5)
 40016c0:	2d800117 	ldw	r22,4(r5)
 40016c4:	18041516 	blt	r3,zero,400271c <___svfprintf_internal_r+0x166c>
 40016c8:	013fdfc4 	movi	r4,-129
 40016cc:	a586b03a 	or	r3,r20,r22
 40016d0:	d8802d15 	stw	r2,180(sp)
 40016d4:	9124703a 	and	r18,r18,r4
 40016d8:	1802d51e 	bne	r3,zero,4002230 <___svfprintf_internal_r+0x1180>
 40016dc:	d9402917 	ldw	r5,164(sp)
 40016e0:	0039883a 	mov	fp,zero
 40016e4:	2806be26 	beq	r5,zero,40031e0 <___svfprintf_internal_r+0x2130>
 40016e8:	0029883a 	mov	r20,zero
 40016ec:	002d883a 	mov	r22,zero
 40016f0:	dc001e04 	addi	r16,sp,120
 40016f4:	a006d0fa 	srli	r3,r20,3
 40016f8:	b008977a 	slli	r4,r22,29
 40016fc:	b02cd0fa 	srli	r22,r22,3
 4001700:	a50001cc 	andi	r20,r20,7
 4001704:	a0800c04 	addi	r2,r20,48
 4001708:	843fffc4 	addi	r16,r16,-1
 400170c:	20e8b03a 	or	r20,r4,r3
 4001710:	80800005 	stb	r2,0(r16)
 4001714:	a586b03a 	or	r3,r20,r22
 4001718:	183ff61e 	bne	r3,zero,40016f4 <__ram_exceptions_end+0xfbff94b0>
 400171c:	90c0004c 	andi	r3,r18,1
 4001720:	18013926 	beq	r3,zero,4001c08 <___svfprintf_internal_r+0xb58>
 4001724:	10803fcc 	andi	r2,r2,255
 4001728:	1080201c 	xori	r2,r2,128
 400172c:	10bfe004 	addi	r2,r2,-128
 4001730:	00c00c04 	movi	r3,48
 4001734:	10c13426 	beq	r2,r3,4001c08 <___svfprintf_internal_r+0xb58>
 4001738:	80ffffc5 	stb	r3,-1(r16)
 400173c:	d8c02817 	ldw	r3,160(sp)
 4001740:	80bfffc4 	addi	r2,r16,-1
 4001744:	1021883a 	mov	r16,r2
 4001748:	1887c83a 	sub	r3,r3,r2
 400174c:	d8c02e15 	stw	r3,184(sp)
 4001750:	d8802e17 	ldw	r2,184(sp)
 4001754:	d9002917 	ldw	r4,164(sp)
 4001758:	1100010e 	bge	r2,r4,4001760 <___svfprintf_internal_r+0x6b0>
 400175c:	2005883a 	mov	r2,r4
 4001760:	d8802a15 	stw	r2,168(sp)
 4001764:	d8003215 	stw	zero,200(sp)
 4001768:	e7003fcc 	andi	fp,fp,255
 400176c:	e700201c 	xori	fp,fp,128
 4001770:	e73fe004 	addi	fp,fp,-128
 4001774:	e0000326 	beq	fp,zero,4001784 <___svfprintf_internal_r+0x6d4>
 4001778:	d8c02a17 	ldw	r3,168(sp)
 400177c:	18c00044 	addi	r3,r3,1
 4001780:	d8c02a15 	stw	r3,168(sp)
 4001784:	90c0008c 	andi	r3,r18,2
 4001788:	d8c02b15 	stw	r3,172(sp)
 400178c:	18000326 	beq	r3,zero,400179c <___svfprintf_internal_r+0x6ec>
 4001790:	d8c02a17 	ldw	r3,168(sp)
 4001794:	18c00084 	addi	r3,r3,2
 4001798:	d8c02a15 	stw	r3,168(sp)
 400179c:	90c0210c 	andi	r3,r18,132
 40017a0:	d8c03015 	stw	r3,192(sp)
 40017a4:	1801a11e 	bne	r3,zero,4001e2c <___svfprintf_internal_r+0xd7c>
 40017a8:	d9003117 	ldw	r4,196(sp)
 40017ac:	d8c02a17 	ldw	r3,168(sp)
 40017b0:	20e9c83a 	sub	r20,r4,r3
 40017b4:	05019d0e 	bge	zero,r20,4001e2c <___svfprintf_internal_r+0xd7c>
 40017b8:	02400404 	movi	r9,16
 40017bc:	d8c02017 	ldw	r3,128(sp)
 40017c0:	d8801f17 	ldw	r2,124(sp)
 40017c4:	4d051b0e 	bge	r9,r20,4002c34 <___svfprintf_internal_r+0x1b84>
 40017c8:	01410074 	movhi	r5,1025
 40017cc:	297df284 	addi	r5,r5,-2102
 40017d0:	dc403c15 	stw	r17,240(sp)
 40017d4:	d9403515 	stw	r5,212(sp)
 40017d8:	a023883a 	mov	r17,r20
 40017dc:	482d883a 	mov	r22,r9
 40017e0:	9029883a 	mov	r20,r18
 40017e4:	070001c4 	movi	fp,7
 40017e8:	8025883a 	mov	r18,r16
 40017ec:	dc002c17 	ldw	r16,176(sp)
 40017f0:	00000306 	br	4001800 <___svfprintf_internal_r+0x750>
 40017f4:	8c7ffc04 	addi	r17,r17,-16
 40017f8:	42000204 	addi	r8,r8,8
 40017fc:	b440130e 	bge	r22,r17,400184c <___svfprintf_internal_r+0x79c>
 4001800:	01010074 	movhi	r4,1025
 4001804:	18c00404 	addi	r3,r3,16
 4001808:	10800044 	addi	r2,r2,1
 400180c:	213df284 	addi	r4,r4,-2102
 4001810:	41000015 	stw	r4,0(r8)
 4001814:	45800115 	stw	r22,4(r8)
 4001818:	d8c02015 	stw	r3,128(sp)
 400181c:	d8801f15 	stw	r2,124(sp)
 4001820:	e0bff40e 	bge	fp,r2,40017f4 <__ram_exceptions_end+0xfbff95b0>
 4001824:	d9801e04 	addi	r6,sp,120
 4001828:	800b883a 	mov	r5,r16
 400182c:	9809883a 	mov	r4,r19
 4001830:	40079840 	call	4007984 <__ssprint_r>
 4001834:	103f031e 	bne	r2,zero,4001444 <__ram_exceptions_end+0xfbff9200>
 4001838:	8c7ffc04 	addi	r17,r17,-16
 400183c:	d8c02017 	ldw	r3,128(sp)
 4001840:	d8801f17 	ldw	r2,124(sp)
 4001844:	da000404 	addi	r8,sp,16
 4001848:	b47fed16 	blt	r22,r17,4001800 <__ram_exceptions_end+0xfbff95bc>
 400184c:	9021883a 	mov	r16,r18
 4001850:	a025883a 	mov	r18,r20
 4001854:	8829883a 	mov	r20,r17
 4001858:	dc403c17 	ldw	r17,240(sp)
 400185c:	d9403517 	ldw	r5,212(sp)
 4001860:	a0c7883a 	add	r3,r20,r3
 4001864:	10800044 	addi	r2,r2,1
 4001868:	41400015 	stw	r5,0(r8)
 400186c:	45000115 	stw	r20,4(r8)
 4001870:	d8c02015 	stw	r3,128(sp)
 4001874:	d8801f15 	stw	r2,124(sp)
 4001878:	010001c4 	movi	r4,7
 400187c:	20829f16 	blt	r4,r2,40022fc <___svfprintf_internal_r+0x124c>
 4001880:	df002787 	ldb	fp,158(sp)
 4001884:	42000204 	addi	r8,r8,8
 4001888:	e0000c26 	beq	fp,zero,40018bc <___svfprintf_internal_r+0x80c>
 400188c:	d8801f17 	ldw	r2,124(sp)
 4001890:	d9002784 	addi	r4,sp,158
 4001894:	18c00044 	addi	r3,r3,1
 4001898:	10800044 	addi	r2,r2,1
 400189c:	41000015 	stw	r4,0(r8)
 40018a0:	01000044 	movi	r4,1
 40018a4:	41000115 	stw	r4,4(r8)
 40018a8:	d8c02015 	stw	r3,128(sp)
 40018ac:	d8801f15 	stw	r2,124(sp)
 40018b0:	010001c4 	movi	r4,7
 40018b4:	20823816 	blt	r4,r2,4002198 <___svfprintf_internal_r+0x10e8>
 40018b8:	42000204 	addi	r8,r8,8
 40018bc:	d8802b17 	ldw	r2,172(sp)
 40018c0:	10000c26 	beq	r2,zero,40018f4 <___svfprintf_internal_r+0x844>
 40018c4:	d8801f17 	ldw	r2,124(sp)
 40018c8:	d9002704 	addi	r4,sp,156
 40018cc:	18c00084 	addi	r3,r3,2
 40018d0:	10800044 	addi	r2,r2,1
 40018d4:	41000015 	stw	r4,0(r8)
 40018d8:	01000084 	movi	r4,2
 40018dc:	41000115 	stw	r4,4(r8)
 40018e0:	d8c02015 	stw	r3,128(sp)
 40018e4:	d8801f15 	stw	r2,124(sp)
 40018e8:	010001c4 	movi	r4,7
 40018ec:	20823216 	blt	r4,r2,40021b8 <___svfprintf_internal_r+0x1108>
 40018f0:	42000204 	addi	r8,r8,8
 40018f4:	d9003017 	ldw	r4,192(sp)
 40018f8:	00802004 	movi	r2,128
 40018fc:	20819726 	beq	r4,r2,4001f5c <___svfprintf_internal_r+0xeac>
 4001900:	d9402917 	ldw	r5,164(sp)
 4001904:	d8802e17 	ldw	r2,184(sp)
 4001908:	28adc83a 	sub	r22,r5,r2
 400190c:	05802f0e 	bge	zero,r22,40019cc <___svfprintf_internal_r+0x91c>
 4001910:	07000404 	movi	fp,16
 4001914:	d8801f17 	ldw	r2,124(sp)
 4001918:	e583c00e 	bge	fp,r22,400281c <___svfprintf_internal_r+0x176c>
 400191c:	01410074 	movhi	r5,1025
 4001920:	297dee84 	addi	r5,r5,-2118
 4001924:	dc402915 	stw	r17,164(sp)
 4001928:	d9402b15 	stw	r5,172(sp)
 400192c:	b023883a 	mov	r17,r22
 4001930:	050001c4 	movi	r20,7
 4001934:	902d883a 	mov	r22,r18
 4001938:	8025883a 	mov	r18,r16
 400193c:	dc002c17 	ldw	r16,176(sp)
 4001940:	00000306 	br	4001950 <___svfprintf_internal_r+0x8a0>
 4001944:	8c7ffc04 	addi	r17,r17,-16
 4001948:	42000204 	addi	r8,r8,8
 400194c:	e440110e 	bge	fp,r17,4001994 <___svfprintf_internal_r+0x8e4>
 4001950:	18c00404 	addi	r3,r3,16
 4001954:	10800044 	addi	r2,r2,1
 4001958:	45400015 	stw	r21,0(r8)
 400195c:	47000115 	stw	fp,4(r8)
 4001960:	d8c02015 	stw	r3,128(sp)
 4001964:	d8801f15 	stw	r2,124(sp)
 4001968:	a0bff60e 	bge	r20,r2,4001944 <__ram_exceptions_end+0xfbff9700>
 400196c:	d9801e04 	addi	r6,sp,120
 4001970:	800b883a 	mov	r5,r16
 4001974:	9809883a 	mov	r4,r19
 4001978:	40079840 	call	4007984 <__ssprint_r>
 400197c:	103eb11e 	bne	r2,zero,4001444 <__ram_exceptions_end+0xfbff9200>
 4001980:	8c7ffc04 	addi	r17,r17,-16
 4001984:	d8c02017 	ldw	r3,128(sp)
 4001988:	d8801f17 	ldw	r2,124(sp)
 400198c:	da000404 	addi	r8,sp,16
 4001990:	e47fef16 	blt	fp,r17,4001950 <__ram_exceptions_end+0xfbff970c>
 4001994:	9021883a 	mov	r16,r18
 4001998:	b025883a 	mov	r18,r22
 400199c:	882d883a 	mov	r22,r17
 40019a0:	dc402917 	ldw	r17,164(sp)
 40019a4:	d9002b17 	ldw	r4,172(sp)
 40019a8:	1d87883a 	add	r3,r3,r22
 40019ac:	10800044 	addi	r2,r2,1
 40019b0:	41000015 	stw	r4,0(r8)
 40019b4:	45800115 	stw	r22,4(r8)
 40019b8:	d8c02015 	stw	r3,128(sp)
 40019bc:	d8801f15 	stw	r2,124(sp)
 40019c0:	010001c4 	movi	r4,7
 40019c4:	2081ec16 	blt	r4,r2,4002178 <___svfprintf_internal_r+0x10c8>
 40019c8:	42000204 	addi	r8,r8,8
 40019cc:	9080400c 	andi	r2,r18,256
 40019d0:	1001181e 	bne	r2,zero,4001e34 <___svfprintf_internal_r+0xd84>
 40019d4:	d9402e17 	ldw	r5,184(sp)
 40019d8:	d8801f17 	ldw	r2,124(sp)
 40019dc:	44000015 	stw	r16,0(r8)
 40019e0:	1947883a 	add	r3,r3,r5
 40019e4:	10800044 	addi	r2,r2,1
 40019e8:	41400115 	stw	r5,4(r8)
 40019ec:	d8c02015 	stw	r3,128(sp)
 40019f0:	d8801f15 	stw	r2,124(sp)
 40019f4:	010001c4 	movi	r4,7
 40019f8:	2081d116 	blt	r4,r2,4002140 <___svfprintf_internal_r+0x1090>
 40019fc:	42000204 	addi	r8,r8,8
 4001a00:	9480010c 	andi	r18,r18,4
 4001a04:	90003226 	beq	r18,zero,4001ad0 <___svfprintf_internal_r+0xa20>
 4001a08:	d9403117 	ldw	r5,196(sp)
 4001a0c:	d8802a17 	ldw	r2,168(sp)
 4001a10:	28a1c83a 	sub	r16,r5,r2
 4001a14:	04002e0e 	bge	zero,r16,4001ad0 <___svfprintf_internal_r+0xa20>
 4001a18:	04400404 	movi	r17,16
 4001a1c:	d8801f17 	ldw	r2,124(sp)
 4001a20:	8c04b90e 	bge	r17,r16,4002d08 <___svfprintf_internal_r+0x1c58>
 4001a24:	01410074 	movhi	r5,1025
 4001a28:	297df284 	addi	r5,r5,-2102
 4001a2c:	d9403515 	stw	r5,212(sp)
 4001a30:	048001c4 	movi	r18,7
 4001a34:	dd002c17 	ldw	r20,176(sp)
 4001a38:	00000306 	br	4001a48 <___svfprintf_internal_r+0x998>
 4001a3c:	843ffc04 	addi	r16,r16,-16
 4001a40:	42000204 	addi	r8,r8,8
 4001a44:	8c00130e 	bge	r17,r16,4001a94 <___svfprintf_internal_r+0x9e4>
 4001a48:	01010074 	movhi	r4,1025
 4001a4c:	18c00404 	addi	r3,r3,16
 4001a50:	10800044 	addi	r2,r2,1
 4001a54:	213df284 	addi	r4,r4,-2102
 4001a58:	41000015 	stw	r4,0(r8)
 4001a5c:	44400115 	stw	r17,4(r8)
 4001a60:	d8c02015 	stw	r3,128(sp)
 4001a64:	d8801f15 	stw	r2,124(sp)
 4001a68:	90bff40e 	bge	r18,r2,4001a3c <__ram_exceptions_end+0xfbff97f8>
 4001a6c:	d9801e04 	addi	r6,sp,120
 4001a70:	a00b883a 	mov	r5,r20
 4001a74:	9809883a 	mov	r4,r19
 4001a78:	40079840 	call	4007984 <__ssprint_r>
 4001a7c:	103e711e 	bne	r2,zero,4001444 <__ram_exceptions_end+0xfbff9200>
 4001a80:	843ffc04 	addi	r16,r16,-16
 4001a84:	d8c02017 	ldw	r3,128(sp)
 4001a88:	d8801f17 	ldw	r2,124(sp)
 4001a8c:	da000404 	addi	r8,sp,16
 4001a90:	8c3fed16 	blt	r17,r16,4001a48 <__ram_exceptions_end+0xfbff9804>
 4001a94:	d9403517 	ldw	r5,212(sp)
 4001a98:	1c07883a 	add	r3,r3,r16
 4001a9c:	10800044 	addi	r2,r2,1
 4001aa0:	41400015 	stw	r5,0(r8)
 4001aa4:	44000115 	stw	r16,4(r8)
 4001aa8:	d8c02015 	stw	r3,128(sp)
 4001aac:	d8801f15 	stw	r2,124(sp)
 4001ab0:	010001c4 	movi	r4,7
 4001ab4:	2080060e 	bge	r4,r2,4001ad0 <___svfprintf_internal_r+0xa20>
 4001ab8:	d9402c17 	ldw	r5,176(sp)
 4001abc:	d9801e04 	addi	r6,sp,120
 4001ac0:	9809883a 	mov	r4,r19
 4001ac4:	40079840 	call	4007984 <__ssprint_r>
 4001ac8:	103e5e1e 	bne	r2,zero,4001444 <__ram_exceptions_end+0xfbff9200>
 4001acc:	d8c02017 	ldw	r3,128(sp)
 4001ad0:	d8803117 	ldw	r2,196(sp)
 4001ad4:	d9002a17 	ldw	r4,168(sp)
 4001ad8:	1100010e 	bge	r2,r4,4001ae0 <___svfprintf_internal_r+0xa30>
 4001adc:	2005883a 	mov	r2,r4
 4001ae0:	d9402f17 	ldw	r5,188(sp)
 4001ae4:	288b883a 	add	r5,r5,r2
 4001ae8:	d9402f15 	stw	r5,188(sp)
 4001aec:	18019c1e 	bne	r3,zero,4002160 <___svfprintf_internal_r+0x10b0>
 4001af0:	b8800007 	ldb	r2,0(r23)
 4001af4:	d8001f15 	stw	zero,124(sp)
 4001af8:	da000404 	addi	r8,sp,16
 4001afc:	103d991e 	bne	r2,zero,4001164 <__ram_exceptions_end+0xfbff8f20>
 4001b00:	b821883a 	mov	r16,r23
 4001b04:	003daf06 	br	40011c4 <__ram_exceptions_end+0xfbff8f80>
 4001b08:	18c03fcc 	andi	r3,r3,255
 4001b0c:	1805c71e 	bne	r3,zero,400322c <___svfprintf_internal_r+0x217c>
 4001b10:	94800414 	ori	r18,r18,16
 4001b14:	9080080c 	andi	r2,r18,32
 4001b18:	10020126 	beq	r2,zero,4002320 <___svfprintf_internal_r+0x1270>
 4001b1c:	d8802d17 	ldw	r2,180(sp)
 4001b20:	d9002917 	ldw	r4,164(sp)
 4001b24:	d8002785 	stb	zero,158(sp)
 4001b28:	10c00204 	addi	r3,r2,8
 4001b2c:	15000017 	ldw	r20,0(r2)
 4001b30:	15800117 	ldw	r22,4(r2)
 4001b34:	20038e16 	blt	r4,zero,4002970 <___svfprintf_internal_r+0x18c0>
 4001b38:	013fdfc4 	movi	r4,-129
 4001b3c:	a584b03a 	or	r2,r20,r22
 4001b40:	d8c02d15 	stw	r3,180(sp)
 4001b44:	9124703a 	and	r18,r18,r4
 4001b48:	0039883a 	mov	fp,zero
 4001b4c:	103eb61e 	bne	r2,zero,4001628 <__ram_exceptions_end+0xfbff93e4>
 4001b50:	d8802917 	ldw	r2,164(sp)
 4001b54:	1002c81e 	bne	r2,zero,4002678 <___svfprintf_internal_r+0x15c8>
 4001b58:	d8002915 	stw	zero,164(sp)
 4001b5c:	d8002e15 	stw	zero,184(sp)
 4001b60:	dc001e04 	addi	r16,sp,120
 4001b64:	003efa06 	br	4001750 <__ram_exceptions_end+0xfbff950c>
 4001b68:	18c03fcc 	andi	r3,r3,255
 4001b6c:	1805ad1e 	bne	r3,zero,4003224 <___svfprintf_internal_r+0x2174>
 4001b70:	01410074 	movhi	r5,1025
 4001b74:	297de204 	addi	r5,r5,-2168
 4001b78:	d9403a15 	stw	r5,232(sp)
 4001b7c:	9080080c 	andi	r2,r18,32
 4001b80:	10006126 	beq	r2,zero,4001d08 <___svfprintf_internal_r+0xc58>
 4001b84:	d8802d17 	ldw	r2,180(sp)
 4001b88:	15000017 	ldw	r20,0(r2)
 4001b8c:	15800117 	ldw	r22,4(r2)
 4001b90:	10800204 	addi	r2,r2,8
 4001b94:	d8802d15 	stw	r2,180(sp)
 4001b98:	9080004c 	andi	r2,r18,1
 4001b9c:	10018e26 	beq	r2,zero,40021d8 <___svfprintf_internal_r+0x1128>
 4001ba0:	a584b03a 	or	r2,r20,r22
 4001ba4:	10030926 	beq	r2,zero,40027cc <___svfprintf_internal_r+0x171c>
 4001ba8:	d8c02917 	ldw	r3,164(sp)
 4001bac:	00800c04 	movi	r2,48
 4001bb0:	d8802705 	stb	r2,156(sp)
 4001bb4:	dc402745 	stb	r17,157(sp)
 4001bb8:	d8002785 	stb	zero,158(sp)
 4001bbc:	90800094 	ori	r2,r18,2
 4001bc0:	18048716 	blt	r3,zero,4002de0 <___svfprintf_internal_r+0x1d30>
 4001bc4:	00bfdfc4 	movi	r2,-129
 4001bc8:	90a4703a 	and	r18,r18,r2
 4001bcc:	94800094 	ori	r18,r18,2
 4001bd0:	0039883a 	mov	fp,zero
 4001bd4:	d9003a17 	ldw	r4,232(sp)
 4001bd8:	dc001e04 	addi	r16,sp,120
 4001bdc:	a08003cc 	andi	r2,r20,15
 4001be0:	b006973a 	slli	r3,r22,28
 4001be4:	2085883a 	add	r2,r4,r2
 4001be8:	a028d13a 	srli	r20,r20,4
 4001bec:	10800003 	ldbu	r2,0(r2)
 4001bf0:	b02cd13a 	srli	r22,r22,4
 4001bf4:	843fffc4 	addi	r16,r16,-1
 4001bf8:	1d28b03a 	or	r20,r3,r20
 4001bfc:	80800005 	stb	r2,0(r16)
 4001c00:	a584b03a 	or	r2,r20,r22
 4001c04:	103ff51e 	bne	r2,zero,4001bdc <__ram_exceptions_end+0xfbff9998>
 4001c08:	d8c02817 	ldw	r3,160(sp)
 4001c0c:	1c07c83a 	sub	r3,r3,r16
 4001c10:	d8c02e15 	stw	r3,184(sp)
 4001c14:	003ece06 	br	4001750 <__ram_exceptions_end+0xfbff950c>
 4001c18:	d8c02d17 	ldw	r3,180(sp)
 4001c1c:	d9002d17 	ldw	r4,180(sp)
 4001c20:	d8002785 	stb	zero,158(sp)
 4001c24:	18800017 	ldw	r2,0(r3)
 4001c28:	21000104 	addi	r4,r4,4
 4001c2c:	00c00044 	movi	r3,1
 4001c30:	d8c02a15 	stw	r3,168(sp)
 4001c34:	d8801405 	stb	r2,80(sp)
 4001c38:	d9002d15 	stw	r4,180(sp)
 4001c3c:	d8c02e15 	stw	r3,184(sp)
 4001c40:	d8002915 	stw	zero,164(sp)
 4001c44:	d8003215 	stw	zero,200(sp)
 4001c48:	dc001404 	addi	r16,sp,80
 4001c4c:	0039883a 	mov	fp,zero
 4001c50:	003ecc06 	br	4001784 <__ram_exceptions_end+0xfbff9540>
 4001c54:	18c03fcc 	andi	r3,r3,255
 4001c58:	183e9226 	beq	r3,zero,40016a4 <__ram_exceptions_end+0xfbff9460>
 4001c5c:	d9c02785 	stb	r7,158(sp)
 4001c60:	003e9006 	br	40016a4 <__ram_exceptions_end+0xfbff9460>
 4001c64:	00c00044 	movi	r3,1
 4001c68:	01c00ac4 	movi	r7,43
 4001c6c:	bc400007 	ldb	r17,0(r23)
 4001c70:	003d6306 	br	4001200 <__ram_exceptions_end+0xfbff8fbc>
 4001c74:	94800814 	ori	r18,r18,32
 4001c78:	bc400007 	ldb	r17,0(r23)
 4001c7c:	003d6006 	br	4001200 <__ram_exceptions_end+0xfbff8fbc>
 4001c80:	d8c02d17 	ldw	r3,180(sp)
 4001c84:	d8002785 	stb	zero,158(sp)
 4001c88:	1c000017 	ldw	r16,0(r3)
 4001c8c:	1d000104 	addi	r20,r3,4
 4001c90:	80040f26 	beq	r16,zero,4002cd0 <___svfprintf_internal_r+0x1c20>
 4001c94:	d9002917 	ldw	r4,164(sp)
 4001c98:	2003dc16 	blt	r4,zero,4002c0c <___svfprintf_internal_r+0x1b5c>
 4001c9c:	200d883a 	mov	r6,r4
 4001ca0:	000b883a 	mov	r5,zero
 4001ca4:	8009883a 	mov	r4,r16
 4001ca8:	da003e15 	stw	r8,248(sp)
 4001cac:	4005ddc0 	call	4005ddc <memchr>
 4001cb0:	da003e17 	ldw	r8,248(sp)
 4001cb4:	10045826 	beq	r2,zero,4002e18 <___svfprintf_internal_r+0x1d68>
 4001cb8:	1405c83a 	sub	r2,r2,r16
 4001cbc:	d8802e15 	stw	r2,184(sp)
 4001cc0:	1003d816 	blt	r2,zero,4002c24 <___svfprintf_internal_r+0x1b74>
 4001cc4:	df002783 	ldbu	fp,158(sp)
 4001cc8:	d8802a15 	stw	r2,168(sp)
 4001ccc:	dd002d15 	stw	r20,180(sp)
 4001cd0:	d8002915 	stw	zero,164(sp)
 4001cd4:	d8003215 	stw	zero,200(sp)
 4001cd8:	003ea306 	br	4001768 <__ram_exceptions_end+0xfbff9524>
 4001cdc:	18c03fcc 	andi	r3,r3,255
 4001ce0:	183f8c26 	beq	r3,zero,4001b14 <__ram_exceptions_end+0xfbff98d0>
 4001ce4:	d9c02785 	stb	r7,158(sp)
 4001ce8:	003f8a06 	br	4001b14 <__ram_exceptions_end+0xfbff98d0>
 4001cec:	18c03fcc 	andi	r3,r3,255
 4001cf0:	1805631e 	bne	r3,zero,4003280 <___svfprintf_internal_r+0x21d0>
 4001cf4:	01410074 	movhi	r5,1025
 4001cf8:	297de704 	addi	r5,r5,-2148
 4001cfc:	d9403a15 	stw	r5,232(sp)
 4001d00:	9080080c 	andi	r2,r18,32
 4001d04:	103f9f1e 	bne	r2,zero,4001b84 <__ram_exceptions_end+0xfbff9940>
 4001d08:	9080040c 	andi	r2,r18,16
 4001d0c:	10029c26 	beq	r2,zero,4002780 <___svfprintf_internal_r+0x16d0>
 4001d10:	d8c02d17 	ldw	r3,180(sp)
 4001d14:	002d883a 	mov	r22,zero
 4001d18:	1d000017 	ldw	r20,0(r3)
 4001d1c:	18c00104 	addi	r3,r3,4
 4001d20:	d8c02d15 	stw	r3,180(sp)
 4001d24:	003f9c06 	br	4001b98 <__ram_exceptions_end+0xfbff9954>
 4001d28:	94800054 	ori	r18,r18,1
 4001d2c:	bc400007 	ldb	r17,0(r23)
 4001d30:	003d3306 	br	4001200 <__ram_exceptions_end+0xfbff8fbc>
 4001d34:	38803fcc 	andi	r2,r7,255
 4001d38:	1080201c 	xori	r2,r2,128
 4001d3c:	10bfe004 	addi	r2,r2,-128
 4001d40:	1002971e 	bne	r2,zero,40027a0 <___svfprintf_internal_r+0x16f0>
 4001d44:	00c00044 	movi	r3,1
 4001d48:	01c00804 	movi	r7,32
 4001d4c:	bc400007 	ldb	r17,0(r23)
 4001d50:	003d2b06 	br	4001200 <__ram_exceptions_end+0xfbff8fbc>
 4001d54:	18c03fcc 	andi	r3,r3,255
 4001d58:	183e2326 	beq	r3,zero,40015e8 <__ram_exceptions_end+0xfbff93a4>
 4001d5c:	d9c02785 	stb	r7,158(sp)
 4001d60:	003e2106 	br	40015e8 <__ram_exceptions_end+0xfbff93a4>
 4001d64:	bc400007 	ldb	r17,0(r23)
 4001d68:	8a430426 	beq	r17,r9,400297c <___svfprintf_internal_r+0x18cc>
 4001d6c:	94800414 	ori	r18,r18,16
 4001d70:	003d2306 	br	4001200 <__ram_exceptions_end+0xfbff8fbc>
 4001d74:	18c03fcc 	andi	r3,r3,255
 4001d78:	18053f1e 	bne	r3,zero,4003278 <___svfprintf_internal_r+0x21c8>
 4001d7c:	9080080c 	andi	r2,r18,32
 4001d80:	10028926 	beq	r2,zero,40027a8 <___svfprintf_internal_r+0x16f8>
 4001d84:	d9402d17 	ldw	r5,180(sp)
 4001d88:	d9002f17 	ldw	r4,188(sp)
 4001d8c:	28800017 	ldw	r2,0(r5)
 4001d90:	2007d7fa 	srai	r3,r4,31
 4001d94:	29400104 	addi	r5,r5,4
 4001d98:	d9402d15 	stw	r5,180(sp)
 4001d9c:	11000015 	stw	r4,0(r2)
 4001da0:	10c00115 	stw	r3,4(r2)
 4001da4:	003ced06 	br	400115c <__ram_exceptions_end+0xfbff8f18>
 4001da8:	94801014 	ori	r18,r18,64
 4001dac:	bc400007 	ldb	r17,0(r23)
 4001db0:	003d1306 	br	4001200 <__ram_exceptions_end+0xfbff8fbc>
 4001db4:	01010074 	movhi	r4,1025
 4001db8:	213de704 	addi	r4,r4,-2148
 4001dbc:	0039883a 	mov	fp,zero
 4001dc0:	d9003a15 	stw	r4,232(sp)
 4001dc4:	04401e04 	movi	r17,120
 4001dc8:	003f8206 	br	4001bd4 <__ram_exceptions_end+0xfbff9990>
 4001dcc:	18c03fcc 	andi	r3,r3,255
 4001dd0:	1805221e 	bne	r3,zero,400325c <___svfprintf_internal_r+0x21ac>
 4001dd4:	883d9526 	beq	r17,zero,400142c <__ram_exceptions_end+0xfbff91e8>
 4001dd8:	00c00044 	movi	r3,1
 4001ddc:	d8c02a15 	stw	r3,168(sp)
 4001de0:	dc401405 	stb	r17,80(sp)
 4001de4:	d8002785 	stb	zero,158(sp)
 4001de8:	003f9406 	br	4001c3c <__ram_exceptions_end+0xfbff99f8>
 4001dec:	01010074 	movhi	r4,1025
 4001df0:	213de704 	addi	r4,r4,-2148
 4001df4:	d9003a15 	stw	r4,232(sp)
 4001df8:	d8c02d15 	stw	r3,180(sp)
 4001dfc:	1025883a 	mov	r18,r2
 4001e00:	04401e04 	movi	r17,120
 4001e04:	a584b03a 	or	r2,r20,r22
 4001e08:	1000fa1e 	bne	r2,zero,40021f4 <___svfprintf_internal_r+0x1144>
 4001e0c:	0039883a 	mov	fp,zero
 4001e10:	00800084 	movi	r2,2
 4001e14:	10803fcc 	andi	r2,r2,255
 4001e18:	00c00044 	movi	r3,1
 4001e1c:	10c21626 	beq	r2,r3,4002678 <___svfprintf_internal_r+0x15c8>
 4001e20:	00c00084 	movi	r3,2
 4001e24:	10fe301e 	bne	r2,r3,40016e8 <__ram_exceptions_end+0xfbff94a4>
 4001e28:	003d7606 	br	4001404 <__ram_exceptions_end+0xfbff91c0>
 4001e2c:	d8c02017 	ldw	r3,128(sp)
 4001e30:	003e9506 	br	4001888 <__ram_exceptions_end+0xfbff9644>
 4001e34:	00801944 	movi	r2,101
 4001e38:	14407c0e 	bge	r2,r17,400202c <___svfprintf_internal_r+0xf7c>
 4001e3c:	d9003617 	ldw	r4,216(sp)
 4001e40:	d9403717 	ldw	r5,220(sp)
 4001e44:	000d883a 	mov	r6,zero
 4001e48:	000f883a 	mov	r7,zero
 4001e4c:	d8c03d15 	stw	r3,244(sp)
 4001e50:	da003e15 	stw	r8,248(sp)
 4001e54:	400b7ac0 	call	400b7ac <__eqdf2>
 4001e58:	d8c03d17 	ldw	r3,244(sp)
 4001e5c:	da003e17 	ldw	r8,248(sp)
 4001e60:	1000f51e 	bne	r2,zero,4002238 <___svfprintf_internal_r+0x1188>
 4001e64:	d8801f17 	ldw	r2,124(sp)
 4001e68:	01010074 	movhi	r4,1025
 4001e6c:	213dee04 	addi	r4,r4,-2120
 4001e70:	18c00044 	addi	r3,r3,1
 4001e74:	10800044 	addi	r2,r2,1
 4001e78:	41000015 	stw	r4,0(r8)
 4001e7c:	01000044 	movi	r4,1
 4001e80:	41000115 	stw	r4,4(r8)
 4001e84:	d8c02015 	stw	r3,128(sp)
 4001e88:	d8801f15 	stw	r2,124(sp)
 4001e8c:	010001c4 	movi	r4,7
 4001e90:	20826616 	blt	r4,r2,400282c <___svfprintf_internal_r+0x177c>
 4001e94:	42000204 	addi	r8,r8,8
 4001e98:	d8802617 	ldw	r2,152(sp)
 4001e9c:	d9403317 	ldw	r5,204(sp)
 4001ea0:	11400216 	blt	r2,r5,4001eac <___svfprintf_internal_r+0xdfc>
 4001ea4:	9080004c 	andi	r2,r18,1
 4001ea8:	103ed526 	beq	r2,zero,4001a00 <__ram_exceptions_end+0xfbff97bc>
 4001eac:	d8803817 	ldw	r2,224(sp)
 4001eb0:	d9003417 	ldw	r4,208(sp)
 4001eb4:	d9403817 	ldw	r5,224(sp)
 4001eb8:	1887883a 	add	r3,r3,r2
 4001ebc:	d8801f17 	ldw	r2,124(sp)
 4001ec0:	41000015 	stw	r4,0(r8)
 4001ec4:	41400115 	stw	r5,4(r8)
 4001ec8:	10800044 	addi	r2,r2,1
 4001ecc:	d8c02015 	stw	r3,128(sp)
 4001ed0:	d8801f15 	stw	r2,124(sp)
 4001ed4:	010001c4 	movi	r4,7
 4001ed8:	2082af16 	blt	r4,r2,4002998 <___svfprintf_internal_r+0x18e8>
 4001edc:	42000204 	addi	r8,r8,8
 4001ee0:	d8803317 	ldw	r2,204(sp)
 4001ee4:	143fffc4 	addi	r16,r2,-1
 4001ee8:	043ec50e 	bge	zero,r16,4001a00 <__ram_exceptions_end+0xfbff97bc>
 4001eec:	04400404 	movi	r17,16
 4001ef0:	d8801f17 	ldw	r2,124(sp)
 4001ef4:	8c00860e 	bge	r17,r16,4002110 <___svfprintf_internal_r+0x1060>
 4001ef8:	01410074 	movhi	r5,1025
 4001efc:	297dee84 	addi	r5,r5,-2118
 4001f00:	d9402b15 	stw	r5,172(sp)
 4001f04:	058001c4 	movi	r22,7
 4001f08:	dd002c17 	ldw	r20,176(sp)
 4001f0c:	00000306 	br	4001f1c <___svfprintf_internal_r+0xe6c>
 4001f10:	42000204 	addi	r8,r8,8
 4001f14:	843ffc04 	addi	r16,r16,-16
 4001f18:	8c00800e 	bge	r17,r16,400211c <___svfprintf_internal_r+0x106c>
 4001f1c:	18c00404 	addi	r3,r3,16
 4001f20:	10800044 	addi	r2,r2,1
 4001f24:	45400015 	stw	r21,0(r8)
 4001f28:	44400115 	stw	r17,4(r8)
 4001f2c:	d8c02015 	stw	r3,128(sp)
 4001f30:	d8801f15 	stw	r2,124(sp)
 4001f34:	b0bff60e 	bge	r22,r2,4001f10 <__ram_exceptions_end+0xfbff9ccc>
 4001f38:	d9801e04 	addi	r6,sp,120
 4001f3c:	a00b883a 	mov	r5,r20
 4001f40:	9809883a 	mov	r4,r19
 4001f44:	40079840 	call	4007984 <__ssprint_r>
 4001f48:	103d3e1e 	bne	r2,zero,4001444 <__ram_exceptions_end+0xfbff9200>
 4001f4c:	d8c02017 	ldw	r3,128(sp)
 4001f50:	d8801f17 	ldw	r2,124(sp)
 4001f54:	da000404 	addi	r8,sp,16
 4001f58:	003fee06 	br	4001f14 <__ram_exceptions_end+0xfbff9cd0>
 4001f5c:	d9403117 	ldw	r5,196(sp)
 4001f60:	d8802a17 	ldw	r2,168(sp)
 4001f64:	28adc83a 	sub	r22,r5,r2
 4001f68:	05be650e 	bge	zero,r22,4001900 <__ram_exceptions_end+0xfbff96bc>
 4001f6c:	07000404 	movi	fp,16
 4001f70:	d8801f17 	ldw	r2,124(sp)
 4001f74:	e583a20e 	bge	fp,r22,4002e00 <___svfprintf_internal_r+0x1d50>
 4001f78:	01410074 	movhi	r5,1025
 4001f7c:	297dee84 	addi	r5,r5,-2118
 4001f80:	dc403015 	stw	r17,192(sp)
 4001f84:	d9402b15 	stw	r5,172(sp)
 4001f88:	b023883a 	mov	r17,r22
 4001f8c:	050001c4 	movi	r20,7
 4001f90:	902d883a 	mov	r22,r18
 4001f94:	8025883a 	mov	r18,r16
 4001f98:	dc002c17 	ldw	r16,176(sp)
 4001f9c:	00000306 	br	4001fac <___svfprintf_internal_r+0xefc>
 4001fa0:	8c7ffc04 	addi	r17,r17,-16
 4001fa4:	42000204 	addi	r8,r8,8
 4001fa8:	e440110e 	bge	fp,r17,4001ff0 <___svfprintf_internal_r+0xf40>
 4001fac:	18c00404 	addi	r3,r3,16
 4001fb0:	10800044 	addi	r2,r2,1
 4001fb4:	45400015 	stw	r21,0(r8)
 4001fb8:	47000115 	stw	fp,4(r8)
 4001fbc:	d8c02015 	stw	r3,128(sp)
 4001fc0:	d8801f15 	stw	r2,124(sp)
 4001fc4:	a0bff60e 	bge	r20,r2,4001fa0 <__ram_exceptions_end+0xfbff9d5c>
 4001fc8:	d9801e04 	addi	r6,sp,120
 4001fcc:	800b883a 	mov	r5,r16
 4001fd0:	9809883a 	mov	r4,r19
 4001fd4:	40079840 	call	4007984 <__ssprint_r>
 4001fd8:	103d1a1e 	bne	r2,zero,4001444 <__ram_exceptions_end+0xfbff9200>
 4001fdc:	8c7ffc04 	addi	r17,r17,-16
 4001fe0:	d8c02017 	ldw	r3,128(sp)
 4001fe4:	d8801f17 	ldw	r2,124(sp)
 4001fe8:	da000404 	addi	r8,sp,16
 4001fec:	e47fef16 	blt	fp,r17,4001fac <__ram_exceptions_end+0xfbff9d68>
 4001ff0:	9021883a 	mov	r16,r18
 4001ff4:	b025883a 	mov	r18,r22
 4001ff8:	882d883a 	mov	r22,r17
 4001ffc:	dc403017 	ldw	r17,192(sp)
 4002000:	d9002b17 	ldw	r4,172(sp)
 4002004:	1d87883a 	add	r3,r3,r22
 4002008:	10800044 	addi	r2,r2,1
 400200c:	41000015 	stw	r4,0(r8)
 4002010:	45800115 	stw	r22,4(r8)
 4002014:	d8c02015 	stw	r3,128(sp)
 4002018:	d8801f15 	stw	r2,124(sp)
 400201c:	010001c4 	movi	r4,7
 4002020:	20819a16 	blt	r4,r2,400268c <___svfprintf_internal_r+0x15dc>
 4002024:	42000204 	addi	r8,r8,8
 4002028:	003e3506 	br	4001900 <__ram_exceptions_end+0xfbff96bc>
 400202c:	d9403317 	ldw	r5,204(sp)
 4002030:	00800044 	movi	r2,1
 4002034:	18c00044 	addi	r3,r3,1
 4002038:	1141710e 	bge	r2,r5,4002600 <___svfprintf_internal_r+0x1550>
 400203c:	dc401f17 	ldw	r17,124(sp)
 4002040:	00800044 	movi	r2,1
 4002044:	40800115 	stw	r2,4(r8)
 4002048:	8c400044 	addi	r17,r17,1
 400204c:	44000015 	stw	r16,0(r8)
 4002050:	d8c02015 	stw	r3,128(sp)
 4002054:	dc401f15 	stw	r17,124(sp)
 4002058:	008001c4 	movi	r2,7
 400205c:	14417416 	blt	r2,r17,4002630 <___svfprintf_internal_r+0x1580>
 4002060:	42000204 	addi	r8,r8,8
 4002064:	d8803817 	ldw	r2,224(sp)
 4002068:	d9003417 	ldw	r4,208(sp)
 400206c:	8c400044 	addi	r17,r17,1
 4002070:	10c7883a 	add	r3,r2,r3
 4002074:	40800115 	stw	r2,4(r8)
 4002078:	41000015 	stw	r4,0(r8)
 400207c:	d8c02015 	stw	r3,128(sp)
 4002080:	dc401f15 	stw	r17,124(sp)
 4002084:	008001c4 	movi	r2,7
 4002088:	14417216 	blt	r2,r17,4002654 <___svfprintf_internal_r+0x15a4>
 400208c:	45800204 	addi	r22,r8,8
 4002090:	d9003617 	ldw	r4,216(sp)
 4002094:	d9403717 	ldw	r5,220(sp)
 4002098:	000d883a 	mov	r6,zero
 400209c:	000f883a 	mov	r7,zero
 40020a0:	d8c03d15 	stw	r3,244(sp)
 40020a4:	400b7ac0 	call	400b7ac <__eqdf2>
 40020a8:	d8c03d17 	ldw	r3,244(sp)
 40020ac:	1000b326 	beq	r2,zero,400237c <___svfprintf_internal_r+0x12cc>
 40020b0:	d9403317 	ldw	r5,204(sp)
 40020b4:	84000044 	addi	r16,r16,1
 40020b8:	8c400044 	addi	r17,r17,1
 40020bc:	28bfffc4 	addi	r2,r5,-1
 40020c0:	1887883a 	add	r3,r3,r2
 40020c4:	b0800115 	stw	r2,4(r22)
 40020c8:	b4000015 	stw	r16,0(r22)
 40020cc:	d8c02015 	stw	r3,128(sp)
 40020d0:	dc401f15 	stw	r17,124(sp)
 40020d4:	008001c4 	movi	r2,7
 40020d8:	1440d216 	blt	r2,r17,4002424 <___svfprintf_internal_r+0x1374>
 40020dc:	b5800204 	addi	r22,r22,8
 40020e0:	d9003b17 	ldw	r4,236(sp)
 40020e4:	df0022c4 	addi	fp,sp,139
 40020e8:	8c400044 	addi	r17,r17,1
 40020ec:	20c7883a 	add	r3,r4,r3
 40020f0:	b7000015 	stw	fp,0(r22)
 40020f4:	b1000115 	stw	r4,4(r22)
 40020f8:	d8c02015 	stw	r3,128(sp)
 40020fc:	dc401f15 	stw	r17,124(sp)
 4002100:	008001c4 	movi	r2,7
 4002104:	14400e16 	blt	r2,r17,4002140 <___svfprintf_internal_r+0x1090>
 4002108:	b2000204 	addi	r8,r22,8
 400210c:	003e3c06 	br	4001a00 <__ram_exceptions_end+0xfbff97bc>
 4002110:	01010074 	movhi	r4,1025
 4002114:	213dee84 	addi	r4,r4,-2118
 4002118:	d9002b15 	stw	r4,172(sp)
 400211c:	d9002b17 	ldw	r4,172(sp)
 4002120:	1c07883a 	add	r3,r3,r16
 4002124:	44000115 	stw	r16,4(r8)
 4002128:	41000015 	stw	r4,0(r8)
 400212c:	10800044 	addi	r2,r2,1
 4002130:	d8c02015 	stw	r3,128(sp)
 4002134:	d8801f15 	stw	r2,124(sp)
 4002138:	010001c4 	movi	r4,7
 400213c:	20be2f0e 	bge	r4,r2,40019fc <__ram_exceptions_end+0xfbff97b8>
 4002140:	d9402c17 	ldw	r5,176(sp)
 4002144:	d9801e04 	addi	r6,sp,120
 4002148:	9809883a 	mov	r4,r19
 400214c:	40079840 	call	4007984 <__ssprint_r>
 4002150:	103cbc1e 	bne	r2,zero,4001444 <__ram_exceptions_end+0xfbff9200>
 4002154:	d8c02017 	ldw	r3,128(sp)
 4002158:	da000404 	addi	r8,sp,16
 400215c:	003e2806 	br	4001a00 <__ram_exceptions_end+0xfbff97bc>
 4002160:	d9402c17 	ldw	r5,176(sp)
 4002164:	d9801e04 	addi	r6,sp,120
 4002168:	9809883a 	mov	r4,r19
 400216c:	40079840 	call	4007984 <__ssprint_r>
 4002170:	103e5f26 	beq	r2,zero,4001af0 <__ram_exceptions_end+0xfbff98ac>
 4002174:	003cb306 	br	4001444 <__ram_exceptions_end+0xfbff9200>
 4002178:	d9402c17 	ldw	r5,176(sp)
 400217c:	d9801e04 	addi	r6,sp,120
 4002180:	9809883a 	mov	r4,r19
 4002184:	40079840 	call	4007984 <__ssprint_r>
 4002188:	103cae1e 	bne	r2,zero,4001444 <__ram_exceptions_end+0xfbff9200>
 400218c:	d8c02017 	ldw	r3,128(sp)
 4002190:	da000404 	addi	r8,sp,16
 4002194:	003e0d06 	br	40019cc <__ram_exceptions_end+0xfbff9788>
 4002198:	d9402c17 	ldw	r5,176(sp)
 400219c:	d9801e04 	addi	r6,sp,120
 40021a0:	9809883a 	mov	r4,r19
 40021a4:	40079840 	call	4007984 <__ssprint_r>
 40021a8:	103ca61e 	bne	r2,zero,4001444 <__ram_exceptions_end+0xfbff9200>
 40021ac:	d8c02017 	ldw	r3,128(sp)
 40021b0:	da000404 	addi	r8,sp,16
 40021b4:	003dc106 	br	40018bc <__ram_exceptions_end+0xfbff9678>
 40021b8:	d9402c17 	ldw	r5,176(sp)
 40021bc:	d9801e04 	addi	r6,sp,120
 40021c0:	9809883a 	mov	r4,r19
 40021c4:	40079840 	call	4007984 <__ssprint_r>
 40021c8:	103c9e1e 	bne	r2,zero,4001444 <__ram_exceptions_end+0xfbff9200>
 40021cc:	d8c02017 	ldw	r3,128(sp)
 40021d0:	da000404 	addi	r8,sp,16
 40021d4:	003dc706 	br	40018f4 <__ram_exceptions_end+0xfbff96b0>
 40021d8:	d8802917 	ldw	r2,164(sp)
 40021dc:	d8002785 	stb	zero,158(sp)
 40021e0:	103f0816 	blt	r2,zero,4001e04 <__ram_exceptions_end+0xfbff9bc0>
 40021e4:	00ffdfc4 	movi	r3,-129
 40021e8:	a584b03a 	or	r2,r20,r22
 40021ec:	90e4703a 	and	r18,r18,r3
 40021f0:	103c8126 	beq	r2,zero,40013f8 <__ram_exceptions_end+0xfbff91b4>
 40021f4:	0039883a 	mov	fp,zero
 40021f8:	003e7606 	br	4001bd4 <__ram_exceptions_end+0xfbff9990>
 40021fc:	9080040c 	andi	r2,r18,16
 4002200:	10013d26 	beq	r2,zero,40026f8 <___svfprintf_internal_r+0x1648>
 4002204:	d9002d17 	ldw	r4,180(sp)
 4002208:	d9402917 	ldw	r5,164(sp)
 400220c:	d8002785 	stb	zero,158(sp)
 4002210:	20800104 	addi	r2,r4,4
 4002214:	25000017 	ldw	r20,0(r4)
 4002218:	002d883a 	mov	r22,zero
 400221c:	28013f16 	blt	r5,zero,400271c <___svfprintf_internal_r+0x166c>
 4002220:	00ffdfc4 	movi	r3,-129
 4002224:	d8802d15 	stw	r2,180(sp)
 4002228:	90e4703a 	and	r18,r18,r3
 400222c:	a03d2b26 	beq	r20,zero,40016dc <__ram_exceptions_end+0xfbff9498>
 4002230:	0039883a 	mov	fp,zero
 4002234:	003d2e06 	br	40016f0 <__ram_exceptions_end+0xfbff94ac>
 4002238:	dc402617 	ldw	r17,152(sp)
 400223c:	0441830e 	bge	zero,r17,400284c <___svfprintf_internal_r+0x179c>
 4002240:	dc403217 	ldw	r17,200(sp)
 4002244:	d8803317 	ldw	r2,204(sp)
 4002248:	1440010e 	bge	r2,r17,4002250 <___svfprintf_internal_r+0x11a0>
 400224c:	1023883a 	mov	r17,r2
 4002250:	04400a0e 	bge	zero,r17,400227c <___svfprintf_internal_r+0x11cc>
 4002254:	d8801f17 	ldw	r2,124(sp)
 4002258:	1c47883a 	add	r3,r3,r17
 400225c:	44000015 	stw	r16,0(r8)
 4002260:	10800044 	addi	r2,r2,1
 4002264:	44400115 	stw	r17,4(r8)
 4002268:	d8c02015 	stw	r3,128(sp)
 400226c:	d8801f15 	stw	r2,124(sp)
 4002270:	010001c4 	movi	r4,7
 4002274:	20827516 	blt	r4,r2,4002c4c <___svfprintf_internal_r+0x1b9c>
 4002278:	42000204 	addi	r8,r8,8
 400227c:	88027b16 	blt	r17,zero,4002c6c <___svfprintf_internal_r+0x1bbc>
 4002280:	d9003217 	ldw	r4,200(sp)
 4002284:	2463c83a 	sub	r17,r4,r17
 4002288:	0440990e 	bge	zero,r17,40024f0 <___svfprintf_internal_r+0x1440>
 400228c:	05800404 	movi	r22,16
 4002290:	d8801f17 	ldw	r2,124(sp)
 4002294:	b441530e 	bge	r22,r17,40027e4 <___svfprintf_internal_r+0x1734>
 4002298:	01010074 	movhi	r4,1025
 400229c:	213dee84 	addi	r4,r4,-2118
 40022a0:	d9002b15 	stw	r4,172(sp)
 40022a4:	070001c4 	movi	fp,7
 40022a8:	dd002c17 	ldw	r20,176(sp)
 40022ac:	00000306 	br	40022bc <___svfprintf_internal_r+0x120c>
 40022b0:	42000204 	addi	r8,r8,8
 40022b4:	8c7ffc04 	addi	r17,r17,-16
 40022b8:	b4414d0e 	bge	r22,r17,40027f0 <___svfprintf_internal_r+0x1740>
 40022bc:	18c00404 	addi	r3,r3,16
 40022c0:	10800044 	addi	r2,r2,1
 40022c4:	45400015 	stw	r21,0(r8)
 40022c8:	45800115 	stw	r22,4(r8)
 40022cc:	d8c02015 	stw	r3,128(sp)
 40022d0:	d8801f15 	stw	r2,124(sp)
 40022d4:	e0bff60e 	bge	fp,r2,40022b0 <__ram_exceptions_end+0xfbffa06c>
 40022d8:	d9801e04 	addi	r6,sp,120
 40022dc:	a00b883a 	mov	r5,r20
 40022e0:	9809883a 	mov	r4,r19
 40022e4:	40079840 	call	4007984 <__ssprint_r>
 40022e8:	103c561e 	bne	r2,zero,4001444 <__ram_exceptions_end+0xfbff9200>
 40022ec:	d8c02017 	ldw	r3,128(sp)
 40022f0:	d8801f17 	ldw	r2,124(sp)
 40022f4:	da000404 	addi	r8,sp,16
 40022f8:	003fee06 	br	40022b4 <__ram_exceptions_end+0xfbffa070>
 40022fc:	d9402c17 	ldw	r5,176(sp)
 4002300:	d9801e04 	addi	r6,sp,120
 4002304:	9809883a 	mov	r4,r19
 4002308:	40079840 	call	4007984 <__ssprint_r>
 400230c:	103c4d1e 	bne	r2,zero,4001444 <__ram_exceptions_end+0xfbff9200>
 4002310:	d8c02017 	ldw	r3,128(sp)
 4002314:	df002787 	ldb	fp,158(sp)
 4002318:	da000404 	addi	r8,sp,16
 400231c:	003d5a06 	br	4001888 <__ram_exceptions_end+0xfbff9644>
 4002320:	9080040c 	andi	r2,r18,16
 4002324:	10005c26 	beq	r2,zero,4002498 <___svfprintf_internal_r+0x13e8>
 4002328:	d9402d17 	ldw	r5,180(sp)
 400232c:	d8c02917 	ldw	r3,164(sp)
 4002330:	d8002785 	stb	zero,158(sp)
 4002334:	28800104 	addi	r2,r5,4
 4002338:	2d000017 	ldw	r20,0(r5)
 400233c:	002d883a 	mov	r22,zero
 4002340:	18005e16 	blt	r3,zero,40024bc <___svfprintf_internal_r+0x140c>
 4002344:	00ffdfc4 	movi	r3,-129
 4002348:	d8802d15 	stw	r2,180(sp)
 400234c:	90e4703a 	and	r18,r18,r3
 4002350:	0039883a 	mov	fp,zero
 4002354:	a03dfe26 	beq	r20,zero,4001b50 <__ram_exceptions_end+0xfbff990c>
 4002358:	00800244 	movi	r2,9
 400235c:	153cb336 	bltu	r2,r20,400162c <__ram_exceptions_end+0xfbff93e8>
 4002360:	a5000c04 	addi	r20,r20,48
 4002364:	dc001dc4 	addi	r16,sp,119
 4002368:	dd001dc5 	stb	r20,119(sp)
 400236c:	d8c02817 	ldw	r3,160(sp)
 4002370:	1c07c83a 	sub	r3,r3,r16
 4002374:	d8c02e15 	stw	r3,184(sp)
 4002378:	003cf506 	br	4001750 <__ram_exceptions_end+0xfbff950c>
 400237c:	d8803317 	ldw	r2,204(sp)
 4002380:	143fffc4 	addi	r16,r2,-1
 4002384:	043f560e 	bge	zero,r16,40020e0 <__ram_exceptions_end+0xfbff9e9c>
 4002388:	07000404 	movi	fp,16
 400238c:	e403530e 	bge	fp,r16,40030dc <___svfprintf_internal_r+0x202c>
 4002390:	01410074 	movhi	r5,1025
 4002394:	297dee84 	addi	r5,r5,-2118
 4002398:	d9402b15 	stw	r5,172(sp)
 400239c:	01c001c4 	movi	r7,7
 40023a0:	dd002c17 	ldw	r20,176(sp)
 40023a4:	00000306 	br	40023b4 <___svfprintf_internal_r+0x1304>
 40023a8:	843ffc04 	addi	r16,r16,-16
 40023ac:	b5800204 	addi	r22,r22,8
 40023b0:	e400130e 	bge	fp,r16,4002400 <___svfprintf_internal_r+0x1350>
 40023b4:	18c00404 	addi	r3,r3,16
 40023b8:	8c400044 	addi	r17,r17,1
 40023bc:	b5400015 	stw	r21,0(r22)
 40023c0:	b7000115 	stw	fp,4(r22)
 40023c4:	d8c02015 	stw	r3,128(sp)
 40023c8:	dc401f15 	stw	r17,124(sp)
 40023cc:	3c7ff60e 	bge	r7,r17,40023a8 <__ram_exceptions_end+0xfbffa164>
 40023d0:	d9801e04 	addi	r6,sp,120
 40023d4:	a00b883a 	mov	r5,r20
 40023d8:	9809883a 	mov	r4,r19
 40023dc:	d9c03d15 	stw	r7,244(sp)
 40023e0:	40079840 	call	4007984 <__ssprint_r>
 40023e4:	d9c03d17 	ldw	r7,244(sp)
 40023e8:	103c161e 	bne	r2,zero,4001444 <__ram_exceptions_end+0xfbff9200>
 40023ec:	843ffc04 	addi	r16,r16,-16
 40023f0:	d8c02017 	ldw	r3,128(sp)
 40023f4:	dc401f17 	ldw	r17,124(sp)
 40023f8:	dd800404 	addi	r22,sp,16
 40023fc:	e43fed16 	blt	fp,r16,40023b4 <__ram_exceptions_end+0xfbffa170>
 4002400:	d8802b17 	ldw	r2,172(sp)
 4002404:	1c07883a 	add	r3,r3,r16
 4002408:	8c400044 	addi	r17,r17,1
 400240c:	b0800015 	stw	r2,0(r22)
 4002410:	b4000115 	stw	r16,4(r22)
 4002414:	d8c02015 	stw	r3,128(sp)
 4002418:	dc401f15 	stw	r17,124(sp)
 400241c:	008001c4 	movi	r2,7
 4002420:	147f2e0e 	bge	r2,r17,40020dc <__ram_exceptions_end+0xfbff9e98>
 4002424:	d9402c17 	ldw	r5,176(sp)
 4002428:	d9801e04 	addi	r6,sp,120
 400242c:	9809883a 	mov	r4,r19
 4002430:	40079840 	call	4007984 <__ssprint_r>
 4002434:	103c031e 	bne	r2,zero,4001444 <__ram_exceptions_end+0xfbff9200>
 4002438:	d8c02017 	ldw	r3,128(sp)
 400243c:	dc401f17 	ldw	r17,124(sp)
 4002440:	dd800404 	addi	r22,sp,16
 4002444:	003f2606 	br	40020e0 <__ram_exceptions_end+0xfbff9e9c>
 4002448:	9080040c 	andi	r2,r18,16
 400244c:	1000c326 	beq	r2,zero,400275c <___svfprintf_internal_r+0x16ac>
 4002450:	d8802d17 	ldw	r2,180(sp)
 4002454:	15000017 	ldw	r20,0(r2)
 4002458:	10800104 	addi	r2,r2,4
 400245c:	d8802d15 	stw	r2,180(sp)
 4002460:	a02dd7fa 	srai	r22,r20,31
 4002464:	b005883a 	mov	r2,r22
 4002468:	103c680e 	bge	r2,zero,400160c <__ram_exceptions_end+0xfbff93c8>
 400246c:	0529c83a 	sub	r20,zero,r20
 4002470:	a004c03a 	cmpne	r2,r20,zero
 4002474:	05adc83a 	sub	r22,zero,r22
 4002478:	b0adc83a 	sub	r22,r22,r2
 400247c:	d8802917 	ldw	r2,164(sp)
 4002480:	07000b44 	movi	fp,45
 4002484:	df002785 	stb	fp,158(sp)
 4002488:	10022e16 	blt	r2,zero,4002d44 <___svfprintf_internal_r+0x1c94>
 400248c:	00bfdfc4 	movi	r2,-129
 4002490:	90a4703a 	and	r18,r18,r2
 4002494:	003c6406 	br	4001628 <__ram_exceptions_end+0xfbff93e4>
 4002498:	9080100c 	andi	r2,r18,64
 400249c:	d8002785 	stb	zero,158(sp)
 40024a0:	10012526 	beq	r2,zero,4002938 <___svfprintf_internal_r+0x1888>
 40024a4:	d9002d17 	ldw	r4,180(sp)
 40024a8:	d9402917 	ldw	r5,164(sp)
 40024ac:	002d883a 	mov	r22,zero
 40024b0:	20800104 	addi	r2,r4,4
 40024b4:	2500000b 	ldhu	r20,0(r4)
 40024b8:	283fa20e 	bge	r5,zero,4002344 <__ram_exceptions_end+0xfbffa100>
 40024bc:	d8802d15 	stw	r2,180(sp)
 40024c0:	0039883a 	mov	fp,zero
 40024c4:	a584b03a 	or	r2,r20,r22
 40024c8:	103c571e 	bne	r2,zero,4001628 <__ram_exceptions_end+0xfbff93e4>
 40024cc:	00800044 	movi	r2,1
 40024d0:	003e5006 	br	4001e14 <__ram_exceptions_end+0xfbff9bd0>
 40024d4:	d9402c17 	ldw	r5,176(sp)
 40024d8:	d9801e04 	addi	r6,sp,120
 40024dc:	9809883a 	mov	r4,r19
 40024e0:	40079840 	call	4007984 <__ssprint_r>
 40024e4:	103bd71e 	bne	r2,zero,4001444 <__ram_exceptions_end+0xfbff9200>
 40024e8:	d8c02017 	ldw	r3,128(sp)
 40024ec:	da000404 	addi	r8,sp,16
 40024f0:	d9003217 	ldw	r4,200(sp)
 40024f4:	d8802617 	ldw	r2,152(sp)
 40024f8:	d9403317 	ldw	r5,204(sp)
 40024fc:	8123883a 	add	r17,r16,r4
 4002500:	11400216 	blt	r2,r5,400250c <___svfprintf_internal_r+0x145c>
 4002504:	9100004c 	andi	r4,r18,1
 4002508:	20000d26 	beq	r4,zero,4002540 <___svfprintf_internal_r+0x1490>
 400250c:	d9003817 	ldw	r4,224(sp)
 4002510:	d9403417 	ldw	r5,208(sp)
 4002514:	1907883a 	add	r3,r3,r4
 4002518:	d9001f17 	ldw	r4,124(sp)
 400251c:	41400015 	stw	r5,0(r8)
 4002520:	d9403817 	ldw	r5,224(sp)
 4002524:	21000044 	addi	r4,r4,1
 4002528:	d8c02015 	stw	r3,128(sp)
 400252c:	41400115 	stw	r5,4(r8)
 4002530:	d9001f15 	stw	r4,124(sp)
 4002534:	014001c4 	movi	r5,7
 4002538:	2901dc16 	blt	r5,r4,4002cac <___svfprintf_internal_r+0x1bfc>
 400253c:	42000204 	addi	r8,r8,8
 4002540:	d9003317 	ldw	r4,204(sp)
 4002544:	8121883a 	add	r16,r16,r4
 4002548:	2085c83a 	sub	r2,r4,r2
 400254c:	8461c83a 	sub	r16,r16,r17
 4002550:	1400010e 	bge	r2,r16,4002558 <___svfprintf_internal_r+0x14a8>
 4002554:	1021883a 	mov	r16,r2
 4002558:	04000a0e 	bge	zero,r16,4002584 <___svfprintf_internal_r+0x14d4>
 400255c:	d9001f17 	ldw	r4,124(sp)
 4002560:	1c07883a 	add	r3,r3,r16
 4002564:	44400015 	stw	r17,0(r8)
 4002568:	21000044 	addi	r4,r4,1
 400256c:	44000115 	stw	r16,4(r8)
 4002570:	d8c02015 	stw	r3,128(sp)
 4002574:	d9001f15 	stw	r4,124(sp)
 4002578:	014001c4 	movi	r5,7
 400257c:	2901e616 	blt	r5,r4,4002d18 <___svfprintf_internal_r+0x1c68>
 4002580:	42000204 	addi	r8,r8,8
 4002584:	8001f616 	blt	r16,zero,4002d60 <___svfprintf_internal_r+0x1cb0>
 4002588:	1421c83a 	sub	r16,r2,r16
 400258c:	043d1c0e 	bge	zero,r16,4001a00 <__ram_exceptions_end+0xfbff97bc>
 4002590:	04400404 	movi	r17,16
 4002594:	d8801f17 	ldw	r2,124(sp)
 4002598:	8c3edd0e 	bge	r17,r16,4002110 <__ram_exceptions_end+0xfbff9ecc>
 400259c:	01410074 	movhi	r5,1025
 40025a0:	297dee84 	addi	r5,r5,-2118
 40025a4:	d9402b15 	stw	r5,172(sp)
 40025a8:	058001c4 	movi	r22,7
 40025ac:	dd002c17 	ldw	r20,176(sp)
 40025b0:	00000306 	br	40025c0 <___svfprintf_internal_r+0x1510>
 40025b4:	42000204 	addi	r8,r8,8
 40025b8:	843ffc04 	addi	r16,r16,-16
 40025bc:	8c3ed70e 	bge	r17,r16,400211c <__ram_exceptions_end+0xfbff9ed8>
 40025c0:	18c00404 	addi	r3,r3,16
 40025c4:	10800044 	addi	r2,r2,1
 40025c8:	45400015 	stw	r21,0(r8)
 40025cc:	44400115 	stw	r17,4(r8)
 40025d0:	d8c02015 	stw	r3,128(sp)
 40025d4:	d8801f15 	stw	r2,124(sp)
 40025d8:	b0bff60e 	bge	r22,r2,40025b4 <__ram_exceptions_end+0xfbffa370>
 40025dc:	d9801e04 	addi	r6,sp,120
 40025e0:	a00b883a 	mov	r5,r20
 40025e4:	9809883a 	mov	r4,r19
 40025e8:	40079840 	call	4007984 <__ssprint_r>
 40025ec:	103b951e 	bne	r2,zero,4001444 <__ram_exceptions_end+0xfbff9200>
 40025f0:	d8c02017 	ldw	r3,128(sp)
 40025f4:	d8801f17 	ldw	r2,124(sp)
 40025f8:	da000404 	addi	r8,sp,16
 40025fc:	003fee06 	br	40025b8 <__ram_exceptions_end+0xfbffa374>
 4002600:	9088703a 	and	r4,r18,r2
 4002604:	203e8d1e 	bne	r4,zero,400203c <__ram_exceptions_end+0xfbff9df8>
 4002608:	dc401f17 	ldw	r17,124(sp)
 400260c:	40800115 	stw	r2,4(r8)
 4002610:	44000015 	stw	r16,0(r8)
 4002614:	8c400044 	addi	r17,r17,1
 4002618:	d8c02015 	stw	r3,128(sp)
 400261c:	dc401f15 	stw	r17,124(sp)
 4002620:	008001c4 	movi	r2,7
 4002624:	147f7f16 	blt	r2,r17,4002424 <__ram_exceptions_end+0xfbffa1e0>
 4002628:	45800204 	addi	r22,r8,8
 400262c:	003eac06 	br	40020e0 <__ram_exceptions_end+0xfbff9e9c>
 4002630:	d9402c17 	ldw	r5,176(sp)
 4002634:	d9801e04 	addi	r6,sp,120
 4002638:	9809883a 	mov	r4,r19
 400263c:	40079840 	call	4007984 <__ssprint_r>
 4002640:	103b801e 	bne	r2,zero,4001444 <__ram_exceptions_end+0xfbff9200>
 4002644:	d8c02017 	ldw	r3,128(sp)
 4002648:	dc401f17 	ldw	r17,124(sp)
 400264c:	da000404 	addi	r8,sp,16
 4002650:	003e8406 	br	4002064 <__ram_exceptions_end+0xfbff9e20>
 4002654:	d9402c17 	ldw	r5,176(sp)
 4002658:	d9801e04 	addi	r6,sp,120
 400265c:	9809883a 	mov	r4,r19
 4002660:	40079840 	call	4007984 <__ssprint_r>
 4002664:	103b771e 	bne	r2,zero,4001444 <__ram_exceptions_end+0xfbff9200>
 4002668:	d8c02017 	ldw	r3,128(sp)
 400266c:	dc401f17 	ldw	r17,124(sp)
 4002670:	dd800404 	addi	r22,sp,16
 4002674:	003e8606 	br	4002090 <__ram_exceptions_end+0xfbff9e4c>
 4002678:	0029883a 	mov	r20,zero
 400267c:	a5000c04 	addi	r20,r20,48
 4002680:	dc001dc4 	addi	r16,sp,119
 4002684:	dd001dc5 	stb	r20,119(sp)
 4002688:	003f3806 	br	400236c <__ram_exceptions_end+0xfbffa128>
 400268c:	d9402c17 	ldw	r5,176(sp)
 4002690:	d9801e04 	addi	r6,sp,120
 4002694:	9809883a 	mov	r4,r19
 4002698:	40079840 	call	4007984 <__ssprint_r>
 400269c:	103b691e 	bne	r2,zero,4001444 <__ram_exceptions_end+0xfbff9200>
 40026a0:	d8c02017 	ldw	r3,128(sp)
 40026a4:	da000404 	addi	r8,sp,16
 40026a8:	003c9506 	br	4001900 <__ram_exceptions_end+0xfbff96bc>
 40026ac:	d9003617 	ldw	r4,216(sp)
 40026b0:	d9403717 	ldw	r5,220(sp)
 40026b4:	da003e15 	stw	r8,248(sp)
 40026b8:	40076a40 	call	40076a4 <__fpclassifyd>
 40026bc:	da003e17 	ldw	r8,248(sp)
 40026c0:	1000bd1e 	bne	r2,zero,40029b8 <___svfprintf_internal_r+0x1908>
 40026c4:	008011c4 	movi	r2,71
 40026c8:	14411e0e 	bge	r2,r17,4002b44 <___svfprintf_internal_r+0x1a94>
 40026cc:	04010074 	movhi	r16,1025
 40026d0:	843de104 	addi	r16,r16,-2172
 40026d4:	00c000c4 	movi	r3,3
 40026d8:	00bfdfc4 	movi	r2,-129
 40026dc:	d8c02a15 	stw	r3,168(sp)
 40026e0:	90a4703a 	and	r18,r18,r2
 40026e4:	df002783 	ldbu	fp,158(sp)
 40026e8:	d8c02e15 	stw	r3,184(sp)
 40026ec:	d8002915 	stw	zero,164(sp)
 40026f0:	d8003215 	stw	zero,200(sp)
 40026f4:	003c1c06 	br	4001768 <__ram_exceptions_end+0xfbff9524>
 40026f8:	9080100c 	andi	r2,r18,64
 40026fc:	d8002785 	stb	zero,158(sp)
 4002700:	10009426 	beq	r2,zero,4002954 <___svfprintf_internal_r+0x18a4>
 4002704:	d8c02d17 	ldw	r3,180(sp)
 4002708:	d9002917 	ldw	r4,164(sp)
 400270c:	002d883a 	mov	r22,zero
 4002710:	18800104 	addi	r2,r3,4
 4002714:	1d00000b 	ldhu	r20,0(r3)
 4002718:	203ec10e 	bge	r4,zero,4002220 <__ram_exceptions_end+0xfbff9fdc>
 400271c:	a586b03a 	or	r3,r20,r22
 4002720:	d8802d15 	stw	r2,180(sp)
 4002724:	183ec21e 	bne	r3,zero,4002230 <__ram_exceptions_end+0xfbff9fec>
 4002728:	0039883a 	mov	fp,zero
 400272c:	0005883a 	mov	r2,zero
 4002730:	003db806 	br	4001e14 <__ram_exceptions_end+0xfbff9bd0>
 4002734:	d8802d17 	ldw	r2,180(sp)
 4002738:	d8c02d17 	ldw	r3,180(sp)
 400273c:	d9002d17 	ldw	r4,180(sp)
 4002740:	10800017 	ldw	r2,0(r2)
 4002744:	18c00117 	ldw	r3,4(r3)
 4002748:	21000204 	addi	r4,r4,8
 400274c:	d8803615 	stw	r2,216(sp)
 4002750:	d8c03715 	stw	r3,220(sp)
 4002754:	d9002d15 	stw	r4,180(sp)
 4002758:	003b8206 	br	4001564 <__ram_exceptions_end+0xfbff9320>
 400275c:	9080100c 	andi	r2,r18,64
 4002760:	10010726 	beq	r2,zero,4002b80 <___svfprintf_internal_r+0x1ad0>
 4002764:	d8c02d17 	ldw	r3,180(sp)
 4002768:	1d00000f 	ldh	r20,0(r3)
 400276c:	18c00104 	addi	r3,r3,4
 4002770:	d8c02d15 	stw	r3,180(sp)
 4002774:	a02dd7fa 	srai	r22,r20,31
 4002778:	b005883a 	mov	r2,r22
 400277c:	003ba206 	br	4001608 <__ram_exceptions_end+0xfbff93c4>
 4002780:	9080100c 	andi	r2,r18,64
 4002784:	10010526 	beq	r2,zero,4002b9c <___svfprintf_internal_r+0x1aec>
 4002788:	d9002d17 	ldw	r4,180(sp)
 400278c:	002d883a 	mov	r22,zero
 4002790:	2500000b 	ldhu	r20,0(r4)
 4002794:	21000104 	addi	r4,r4,4
 4002798:	d9002d15 	stw	r4,180(sp)
 400279c:	003cfe06 	br	4001b98 <__ram_exceptions_end+0xfbff9954>
 40027a0:	bc400007 	ldb	r17,0(r23)
 40027a4:	003a9606 	br	4001200 <__ram_exceptions_end+0xfbff8fbc>
 40027a8:	9080040c 	andi	r2,r18,16
 40027ac:	10010126 	beq	r2,zero,4002bb4 <___svfprintf_internal_r+0x1b04>
 40027b0:	d9402d17 	ldw	r5,180(sp)
 40027b4:	d8c02f17 	ldw	r3,188(sp)
 40027b8:	28800017 	ldw	r2,0(r5)
 40027bc:	29400104 	addi	r5,r5,4
 40027c0:	d9402d15 	stw	r5,180(sp)
 40027c4:	10c00015 	stw	r3,0(r2)
 40027c8:	003a6406 	br	400115c <__ram_exceptions_end+0xfbff8f18>
 40027cc:	d9002917 	ldw	r4,164(sp)
 40027d0:	d8002785 	stb	zero,158(sp)
 40027d4:	203d8d16 	blt	r4,zero,4001e0c <__ram_exceptions_end+0xfbff9bc8>
 40027d8:	00bfdfc4 	movi	r2,-129
 40027dc:	90a4703a 	and	r18,r18,r2
 40027e0:	003b0506 	br	40013f8 <__ram_exceptions_end+0xfbff91b4>
 40027e4:	01410074 	movhi	r5,1025
 40027e8:	297dee84 	addi	r5,r5,-2118
 40027ec:	d9402b15 	stw	r5,172(sp)
 40027f0:	d9402b17 	ldw	r5,172(sp)
 40027f4:	1c47883a 	add	r3,r3,r17
 40027f8:	10800044 	addi	r2,r2,1
 40027fc:	41400015 	stw	r5,0(r8)
 4002800:	44400115 	stw	r17,4(r8)
 4002804:	d8c02015 	stw	r3,128(sp)
 4002808:	d8801f15 	stw	r2,124(sp)
 400280c:	010001c4 	movi	r4,7
 4002810:	20bf3016 	blt	r4,r2,40024d4 <__ram_exceptions_end+0xfbffa290>
 4002814:	42000204 	addi	r8,r8,8
 4002818:	003f3506 	br	40024f0 <__ram_exceptions_end+0xfbffa2ac>
 400281c:	01010074 	movhi	r4,1025
 4002820:	213dee84 	addi	r4,r4,-2118
 4002824:	d9002b15 	stw	r4,172(sp)
 4002828:	003c5e06 	br	40019a4 <__ram_exceptions_end+0xfbff9760>
 400282c:	d9402c17 	ldw	r5,176(sp)
 4002830:	d9801e04 	addi	r6,sp,120
 4002834:	9809883a 	mov	r4,r19
 4002838:	40079840 	call	4007984 <__ssprint_r>
 400283c:	103b011e 	bne	r2,zero,4001444 <__ram_exceptions_end+0xfbff9200>
 4002840:	d8c02017 	ldw	r3,128(sp)
 4002844:	da000404 	addi	r8,sp,16
 4002848:	003d9306 	br	4001e98 <__ram_exceptions_end+0xfbff9c54>
 400284c:	d8801f17 	ldw	r2,124(sp)
 4002850:	01410074 	movhi	r5,1025
 4002854:	01000044 	movi	r4,1
 4002858:	18c00044 	addi	r3,r3,1
 400285c:	10800044 	addi	r2,r2,1
 4002860:	297dee04 	addi	r5,r5,-2120
 4002864:	41000115 	stw	r4,4(r8)
 4002868:	41400015 	stw	r5,0(r8)
 400286c:	d8c02015 	stw	r3,128(sp)
 4002870:	d8801f15 	stw	r2,124(sp)
 4002874:	010001c4 	movi	r4,7
 4002878:	2080b516 	blt	r4,r2,4002b50 <___svfprintf_internal_r+0x1aa0>
 400287c:	42000204 	addi	r8,r8,8
 4002880:	8800041e 	bne	r17,zero,4002894 <___svfprintf_internal_r+0x17e4>
 4002884:	d8803317 	ldw	r2,204(sp)
 4002888:	1000021e 	bne	r2,zero,4002894 <___svfprintf_internal_r+0x17e4>
 400288c:	9080004c 	andi	r2,r18,1
 4002890:	103c5b26 	beq	r2,zero,4001a00 <__ram_exceptions_end+0xfbff97bc>
 4002894:	d9003817 	ldw	r4,224(sp)
 4002898:	d8801f17 	ldw	r2,124(sp)
 400289c:	d9403417 	ldw	r5,208(sp)
 40028a0:	20c7883a 	add	r3,r4,r3
 40028a4:	10800044 	addi	r2,r2,1
 40028a8:	41000115 	stw	r4,4(r8)
 40028ac:	41400015 	stw	r5,0(r8)
 40028b0:	d8c02015 	stw	r3,128(sp)
 40028b4:	d8801f15 	stw	r2,124(sp)
 40028b8:	010001c4 	movi	r4,7
 40028bc:	20818016 	blt	r4,r2,4002ec0 <___svfprintf_internal_r+0x1e10>
 40028c0:	42000204 	addi	r8,r8,8
 40028c4:	0463c83a 	sub	r17,zero,r17
 40028c8:	0440cb0e 	bge	zero,r17,4002bf8 <___svfprintf_internal_r+0x1b48>
 40028cc:	05800404 	movi	r22,16
 40028d0:	b440e80e 	bge	r22,r17,4002c74 <___svfprintf_internal_r+0x1bc4>
 40028d4:	01410074 	movhi	r5,1025
 40028d8:	297dee84 	addi	r5,r5,-2118
 40028dc:	d9402b15 	stw	r5,172(sp)
 40028e0:	070001c4 	movi	fp,7
 40028e4:	dd002c17 	ldw	r20,176(sp)
 40028e8:	00000306 	br	40028f8 <___svfprintf_internal_r+0x1848>
 40028ec:	42000204 	addi	r8,r8,8
 40028f0:	8c7ffc04 	addi	r17,r17,-16
 40028f4:	b440e20e 	bge	r22,r17,4002c80 <___svfprintf_internal_r+0x1bd0>
 40028f8:	18c00404 	addi	r3,r3,16
 40028fc:	10800044 	addi	r2,r2,1
 4002900:	45400015 	stw	r21,0(r8)
 4002904:	45800115 	stw	r22,4(r8)
 4002908:	d8c02015 	stw	r3,128(sp)
 400290c:	d8801f15 	stw	r2,124(sp)
 4002910:	e0bff60e 	bge	fp,r2,40028ec <__ram_exceptions_end+0xfbffa6a8>
 4002914:	d9801e04 	addi	r6,sp,120
 4002918:	a00b883a 	mov	r5,r20
 400291c:	9809883a 	mov	r4,r19
 4002920:	40079840 	call	4007984 <__ssprint_r>
 4002924:	103ac71e 	bne	r2,zero,4001444 <__ram_exceptions_end+0xfbff9200>
 4002928:	d8c02017 	ldw	r3,128(sp)
 400292c:	d8801f17 	ldw	r2,124(sp)
 4002930:	da000404 	addi	r8,sp,16
 4002934:	003fee06 	br	40028f0 <__ram_exceptions_end+0xfbffa6ac>
 4002938:	d8c02d17 	ldw	r3,180(sp)
 400293c:	d9002917 	ldw	r4,164(sp)
 4002940:	002d883a 	mov	r22,zero
 4002944:	18800104 	addi	r2,r3,4
 4002948:	1d000017 	ldw	r20,0(r3)
 400294c:	203e7d0e 	bge	r4,zero,4002344 <__ram_exceptions_end+0xfbffa100>
 4002950:	003eda06 	br	40024bc <__ram_exceptions_end+0xfbffa278>
 4002954:	d9402d17 	ldw	r5,180(sp)
 4002958:	d8c02917 	ldw	r3,164(sp)
 400295c:	002d883a 	mov	r22,zero
 4002960:	28800104 	addi	r2,r5,4
 4002964:	2d000017 	ldw	r20,0(r5)
 4002968:	183e2d0e 	bge	r3,zero,4002220 <__ram_exceptions_end+0xfbff9fdc>
 400296c:	003f6b06 	br	400271c <__ram_exceptions_end+0xfbffa4d8>
 4002970:	d8c02d15 	stw	r3,180(sp)
 4002974:	0039883a 	mov	fp,zero
 4002978:	003ed206 	br	40024c4 <__ram_exceptions_end+0xfbffa280>
 400297c:	bc400043 	ldbu	r17,1(r23)
 4002980:	94800814 	ori	r18,r18,32
 4002984:	bdc00044 	addi	r23,r23,1
 4002988:	8c403fcc 	andi	r17,r17,255
 400298c:	8c40201c 	xori	r17,r17,128
 4002990:	8c7fe004 	addi	r17,r17,-128
 4002994:	003a1a06 	br	4001200 <__ram_exceptions_end+0xfbff8fbc>
 4002998:	d9402c17 	ldw	r5,176(sp)
 400299c:	d9801e04 	addi	r6,sp,120
 40029a0:	9809883a 	mov	r4,r19
 40029a4:	40079840 	call	4007984 <__ssprint_r>
 40029a8:	103aa61e 	bne	r2,zero,4001444 <__ram_exceptions_end+0xfbff9200>
 40029ac:	d8c02017 	ldw	r3,128(sp)
 40029b0:	da000404 	addi	r8,sp,16
 40029b4:	003d4a06 	br	4001ee0 <__ram_exceptions_end+0xfbff9c9c>
 40029b8:	d9002917 	ldw	r4,164(sp)
 40029bc:	05bff7c4 	movi	r22,-33
 40029c0:	00bfffc4 	movi	r2,-1
 40029c4:	8dac703a 	and	r22,r17,r22
 40029c8:	20806a26 	beq	r4,r2,4002b74 <___svfprintf_internal_r+0x1ac4>
 40029cc:	008011c4 	movi	r2,71
 40029d0:	b0813726 	beq	r22,r2,4002eb0 <___svfprintf_internal_r+0x1e00>
 40029d4:	d9003717 	ldw	r4,220(sp)
 40029d8:	90c04014 	ori	r3,r18,256
 40029dc:	d8c02b15 	stw	r3,172(sp)
 40029e0:	20015d16 	blt	r4,zero,4002f58 <___svfprintf_internal_r+0x1ea8>
 40029e4:	dd003717 	ldw	r20,220(sp)
 40029e8:	d8002a05 	stb	zero,168(sp)
 40029ec:	00801984 	movi	r2,102
 40029f0:	88814026 	beq	r17,r2,4002ef4 <___svfprintf_internal_r+0x1e44>
 40029f4:	00801184 	movi	r2,70
 40029f8:	88817126 	beq	r17,r2,4002fc0 <___svfprintf_internal_r+0x1f10>
 40029fc:	00801144 	movi	r2,69
 4002a00:	b0816226 	beq	r22,r2,4002f8c <___svfprintf_internal_r+0x1edc>
 4002a04:	d8c02917 	ldw	r3,164(sp)
 4002a08:	d8802104 	addi	r2,sp,132
 4002a0c:	d8800315 	stw	r2,12(sp)
 4002a10:	d9403617 	ldw	r5,216(sp)
 4002a14:	d8802504 	addi	r2,sp,148
 4002a18:	d8800215 	stw	r2,8(sp)
 4002a1c:	d8802604 	addi	r2,sp,152
 4002a20:	d8c00015 	stw	r3,0(sp)
 4002a24:	d8800115 	stw	r2,4(sp)
 4002a28:	01c00084 	movi	r7,2
 4002a2c:	a00d883a 	mov	r6,r20
 4002a30:	9809883a 	mov	r4,r19
 4002a34:	d8c03d15 	stw	r3,244(sp)
 4002a38:	da003e15 	stw	r8,248(sp)
 4002a3c:	40034880 	call	4003488 <_dtoa_r>
 4002a40:	1021883a 	mov	r16,r2
 4002a44:	008019c4 	movi	r2,103
 4002a48:	d8c03d17 	ldw	r3,244(sp)
 4002a4c:	da003e17 	ldw	r8,248(sp)
 4002a50:	8880e726 	beq	r17,r2,4002df0 <___svfprintf_internal_r+0x1d40>
 4002a54:	008011c4 	movi	r2,71
 4002a58:	8880d426 	beq	r17,r2,4002dac <___svfprintf_internal_r+0x1cfc>
 4002a5c:	80f9883a 	add	fp,r16,r3
 4002a60:	d9003617 	ldw	r4,216(sp)
 4002a64:	000d883a 	mov	r6,zero
 4002a68:	000f883a 	mov	r7,zero
 4002a6c:	a00b883a 	mov	r5,r20
 4002a70:	da003e15 	stw	r8,248(sp)
 4002a74:	400b7ac0 	call	400b7ac <__eqdf2>
 4002a78:	da003e17 	ldw	r8,248(sp)
 4002a7c:	1000e426 	beq	r2,zero,4002e10 <___svfprintf_internal_r+0x1d60>
 4002a80:	d8802117 	ldw	r2,132(sp)
 4002a84:	1700062e 	bgeu	r2,fp,4002aa0 <___svfprintf_internal_r+0x19f0>
 4002a88:	01000c04 	movi	r4,48
 4002a8c:	10c00044 	addi	r3,r2,1
 4002a90:	d8c02115 	stw	r3,132(sp)
 4002a94:	11000005 	stb	r4,0(r2)
 4002a98:	d8802117 	ldw	r2,132(sp)
 4002a9c:	173ffb36 	bltu	r2,fp,4002a8c <__ram_exceptions_end+0xfbffa848>
 4002aa0:	1405c83a 	sub	r2,r2,r16
 4002aa4:	d8803315 	stw	r2,204(sp)
 4002aa8:	008011c4 	movi	r2,71
 4002aac:	b080c526 	beq	r22,r2,4002dc4 <___svfprintf_internal_r+0x1d14>
 4002ab0:	00801944 	movi	r2,101
 4002ab4:	1441d90e 	bge	r2,r17,400321c <___svfprintf_internal_r+0x216c>
 4002ab8:	d8c02617 	ldw	r3,152(sp)
 4002abc:	00801984 	movi	r2,102
 4002ac0:	d8c03215 	stw	r3,200(sp)
 4002ac4:	88813426 	beq	r17,r2,4002f98 <___svfprintf_internal_r+0x1ee8>
 4002ac8:	d8c03217 	ldw	r3,200(sp)
 4002acc:	d9003317 	ldw	r4,204(sp)
 4002ad0:	19012516 	blt	r3,r4,4002f68 <___svfprintf_internal_r+0x1eb8>
 4002ad4:	9480004c 	andi	r18,r18,1
 4002ad8:	9001841e 	bne	r18,zero,40030ec <___svfprintf_internal_r+0x203c>
 4002adc:	1805883a 	mov	r2,r3
 4002ae0:	1801cc16 	blt	r3,zero,4003214 <___svfprintf_internal_r+0x2164>
 4002ae4:	d8c03217 	ldw	r3,200(sp)
 4002ae8:	044019c4 	movi	r17,103
 4002aec:	d8c02e15 	stw	r3,184(sp)
 4002af0:	df002a07 	ldb	fp,168(sp)
 4002af4:	e000a61e 	bne	fp,zero,4002d90 <___svfprintf_internal_r+0x1ce0>
 4002af8:	df002783 	ldbu	fp,158(sp)
 4002afc:	d8802a15 	stw	r2,168(sp)
 4002b00:	dc802b17 	ldw	r18,172(sp)
 4002b04:	d8002915 	stw	zero,164(sp)
 4002b08:	003b1706 	br	4001768 <__ram_exceptions_end+0xfbff9524>
 4002b0c:	04010074 	movhi	r16,1025
 4002b10:	843dde04 	addi	r16,r16,-2184
 4002b14:	003aa606 	br	40015b0 <__ram_exceptions_end+0xfbff936c>
 4002b18:	d9003917 	ldw	r4,228(sp)
 4002b1c:	04001004 	movi	r16,64
 4002b20:	800b883a 	mov	r5,r16
 4002b24:	40055d00 	call	40055d0 <_malloc_r>
 4002b28:	d9002c17 	ldw	r4,176(sp)
 4002b2c:	20800015 	stw	r2,0(r4)
 4002b30:	20800415 	stw	r2,16(r4)
 4002b34:	1001cb26 	beq	r2,zero,4003264 <___svfprintf_internal_r+0x21b4>
 4002b38:	d8802c17 	ldw	r2,176(sp)
 4002b3c:	14000515 	stw	r16,20(r2)
 4002b40:	00397606 	br	400111c <__ram_exceptions_end+0xfbff8ed8>
 4002b44:	04010074 	movhi	r16,1025
 4002b48:	843de004 	addi	r16,r16,-2176
 4002b4c:	003ee106 	br	40026d4 <__ram_exceptions_end+0xfbffa490>
 4002b50:	d9402c17 	ldw	r5,176(sp)
 4002b54:	d9801e04 	addi	r6,sp,120
 4002b58:	9809883a 	mov	r4,r19
 4002b5c:	40079840 	call	4007984 <__ssprint_r>
 4002b60:	103a381e 	bne	r2,zero,4001444 <__ram_exceptions_end+0xfbff9200>
 4002b64:	dc402617 	ldw	r17,152(sp)
 4002b68:	d8c02017 	ldw	r3,128(sp)
 4002b6c:	da000404 	addi	r8,sp,16
 4002b70:	003f4306 	br	4002880 <__ram_exceptions_end+0xfbffa63c>
 4002b74:	01400184 	movi	r5,6
 4002b78:	d9402915 	stw	r5,164(sp)
 4002b7c:	003f9506 	br	40029d4 <__ram_exceptions_end+0xfbffa790>
 4002b80:	d9002d17 	ldw	r4,180(sp)
 4002b84:	25000017 	ldw	r20,0(r4)
 4002b88:	21000104 	addi	r4,r4,4
 4002b8c:	d9002d15 	stw	r4,180(sp)
 4002b90:	a02dd7fa 	srai	r22,r20,31
 4002b94:	b005883a 	mov	r2,r22
 4002b98:	003a9b06 	br	4001608 <__ram_exceptions_end+0xfbff93c4>
 4002b9c:	d9402d17 	ldw	r5,180(sp)
 4002ba0:	002d883a 	mov	r22,zero
 4002ba4:	2d000017 	ldw	r20,0(r5)
 4002ba8:	29400104 	addi	r5,r5,4
 4002bac:	d9402d15 	stw	r5,180(sp)
 4002bb0:	003bf906 	br	4001b98 <__ram_exceptions_end+0xfbff9954>
 4002bb4:	9480100c 	andi	r18,r18,64
 4002bb8:	90006e26 	beq	r18,zero,4002d74 <___svfprintf_internal_r+0x1cc4>
 4002bbc:	d9002d17 	ldw	r4,180(sp)
 4002bc0:	d9402f17 	ldw	r5,188(sp)
 4002bc4:	20800017 	ldw	r2,0(r4)
 4002bc8:	21000104 	addi	r4,r4,4
 4002bcc:	d9002d15 	stw	r4,180(sp)
 4002bd0:	1140000d 	sth	r5,0(r2)
 4002bd4:	00396106 	br	400115c <__ram_exceptions_end+0xfbff8f18>
 4002bd8:	d9402c17 	ldw	r5,176(sp)
 4002bdc:	d9801e04 	addi	r6,sp,120
 4002be0:	9809883a 	mov	r4,r19
 4002be4:	40079840 	call	4007984 <__ssprint_r>
 4002be8:	103a161e 	bne	r2,zero,4001444 <__ram_exceptions_end+0xfbff9200>
 4002bec:	d8c02017 	ldw	r3,128(sp)
 4002bf0:	d8801f17 	ldw	r2,124(sp)
 4002bf4:	da000404 	addi	r8,sp,16
 4002bf8:	d9403317 	ldw	r5,204(sp)
 4002bfc:	10800044 	addi	r2,r2,1
 4002c00:	44000015 	stw	r16,0(r8)
 4002c04:	28c7883a 	add	r3,r5,r3
 4002c08:	003b7706 	br	40019e8 <__ram_exceptions_end+0xfbff97a4>
 4002c0c:	8009883a 	mov	r4,r16
 4002c10:	da003e15 	stw	r8,248(sp)
 4002c14:	40010180 	call	4001018 <strlen>
 4002c18:	d8802e15 	stw	r2,184(sp)
 4002c1c:	da003e17 	ldw	r8,248(sp)
 4002c20:	103c280e 	bge	r2,zero,4001cc4 <__ram_exceptions_end+0xfbff9a80>
 4002c24:	0005883a 	mov	r2,zero
 4002c28:	003c2606 	br	4001cc4 <__ram_exceptions_end+0xfbff9a80>
 4002c2c:	00bfffc4 	movi	r2,-1
 4002c30:	003a0906 	br	4001458 <__ram_exceptions_end+0xfbff9214>
 4002c34:	01010074 	movhi	r4,1025
 4002c38:	213df284 	addi	r4,r4,-2102
 4002c3c:	d9003515 	stw	r4,212(sp)
 4002c40:	003b0606 	br	400185c <__ram_exceptions_end+0xfbff9618>
 4002c44:	013fffc4 	movi	r4,-1
 4002c48:	003a2706 	br	40014e8 <__ram_exceptions_end+0xfbff92a4>
 4002c4c:	d9402c17 	ldw	r5,176(sp)
 4002c50:	d9801e04 	addi	r6,sp,120
 4002c54:	9809883a 	mov	r4,r19
 4002c58:	40079840 	call	4007984 <__ssprint_r>
 4002c5c:	1039f91e 	bne	r2,zero,4001444 <__ram_exceptions_end+0xfbff9200>
 4002c60:	d8c02017 	ldw	r3,128(sp)
 4002c64:	da000404 	addi	r8,sp,16
 4002c68:	003d8406 	br	400227c <__ram_exceptions_end+0xfbffa038>
 4002c6c:	0023883a 	mov	r17,zero
 4002c70:	003d8306 	br	4002280 <__ram_exceptions_end+0xfbffa03c>
 4002c74:	01010074 	movhi	r4,1025
 4002c78:	213dee84 	addi	r4,r4,-2118
 4002c7c:	d9002b15 	stw	r4,172(sp)
 4002c80:	d9002b17 	ldw	r4,172(sp)
 4002c84:	1c47883a 	add	r3,r3,r17
 4002c88:	10800044 	addi	r2,r2,1
 4002c8c:	41000015 	stw	r4,0(r8)
 4002c90:	44400115 	stw	r17,4(r8)
 4002c94:	d8c02015 	stw	r3,128(sp)
 4002c98:	d8801f15 	stw	r2,124(sp)
 4002c9c:	010001c4 	movi	r4,7
 4002ca0:	20bfcd16 	blt	r4,r2,4002bd8 <__ram_exceptions_end+0xfbffa994>
 4002ca4:	42000204 	addi	r8,r8,8
 4002ca8:	003fd306 	br	4002bf8 <__ram_exceptions_end+0xfbffa9b4>
 4002cac:	d9402c17 	ldw	r5,176(sp)
 4002cb0:	d9801e04 	addi	r6,sp,120
 4002cb4:	9809883a 	mov	r4,r19
 4002cb8:	40079840 	call	4007984 <__ssprint_r>
 4002cbc:	1039e11e 	bne	r2,zero,4001444 <__ram_exceptions_end+0xfbff9200>
 4002cc0:	d8802617 	ldw	r2,152(sp)
 4002cc4:	d8c02017 	ldw	r3,128(sp)
 4002cc8:	da000404 	addi	r8,sp,16
 4002ccc:	003e1c06 	br	4002540 <__ram_exceptions_end+0xfbffa2fc>
 4002cd0:	d8802917 	ldw	r2,164(sp)
 4002cd4:	00c00184 	movi	r3,6
 4002cd8:	1880012e 	bgeu	r3,r2,4002ce0 <___svfprintf_internal_r+0x1c30>
 4002cdc:	1805883a 	mov	r2,r3
 4002ce0:	d8802e15 	stw	r2,184(sp)
 4002ce4:	1000f316 	blt	r2,zero,40030b4 <___svfprintf_internal_r+0x2004>
 4002ce8:	04010074 	movhi	r16,1025
 4002cec:	d8802a15 	stw	r2,168(sp)
 4002cf0:	dd002d15 	stw	r20,180(sp)
 4002cf4:	d8002915 	stw	zero,164(sp)
 4002cf8:	d8003215 	stw	zero,200(sp)
 4002cfc:	843dec04 	addi	r16,r16,-2128
 4002d00:	0039883a 	mov	fp,zero
 4002d04:	003a9f06 	br	4001784 <__ram_exceptions_end+0xfbff9540>
 4002d08:	01010074 	movhi	r4,1025
 4002d0c:	213df284 	addi	r4,r4,-2102
 4002d10:	d9003515 	stw	r4,212(sp)
 4002d14:	003b5f06 	br	4001a94 <__ram_exceptions_end+0xfbff9850>
 4002d18:	d9402c17 	ldw	r5,176(sp)
 4002d1c:	d9801e04 	addi	r6,sp,120
 4002d20:	9809883a 	mov	r4,r19
 4002d24:	40079840 	call	4007984 <__ssprint_r>
 4002d28:	1039c61e 	bne	r2,zero,4001444 <__ram_exceptions_end+0xfbff9200>
 4002d2c:	d8802617 	ldw	r2,152(sp)
 4002d30:	d9403317 	ldw	r5,204(sp)
 4002d34:	d8c02017 	ldw	r3,128(sp)
 4002d38:	da000404 	addi	r8,sp,16
 4002d3c:	2885c83a 	sub	r2,r5,r2
 4002d40:	003e1006 	br	4002584 <__ram_exceptions_end+0xfbffa340>
 4002d44:	00800044 	movi	r2,1
 4002d48:	10803fcc 	andi	r2,r2,255
 4002d4c:	00c00044 	movi	r3,1
 4002d50:	10fa3526 	beq	r2,r3,4001628 <__ram_exceptions_end+0xfbff93e4>
 4002d54:	00c00084 	movi	r3,2
 4002d58:	10fb9e26 	beq	r2,r3,4001bd4 <__ram_exceptions_end+0xfbff9990>
 4002d5c:	003a6406 	br	40016f0 <__ram_exceptions_end+0xfbff94ac>
 4002d60:	0021883a 	mov	r16,zero
 4002d64:	003e0806 	br	4002588 <__ram_exceptions_end+0xfbffa344>
 4002d68:	07000b44 	movi	fp,45
 4002d6c:	df002785 	stb	fp,158(sp)
 4002d70:	003a0b06 	br	40015a0 <__ram_exceptions_end+0xfbff935c>
 4002d74:	d8c02d17 	ldw	r3,180(sp)
 4002d78:	d9002f17 	ldw	r4,188(sp)
 4002d7c:	18800017 	ldw	r2,0(r3)
 4002d80:	18c00104 	addi	r3,r3,4
 4002d84:	d8c02d15 	stw	r3,180(sp)
 4002d88:	11000015 	stw	r4,0(r2)
 4002d8c:	0038f306 	br	400115c <__ram_exceptions_end+0xfbff8f18>
 4002d90:	00c00b44 	movi	r3,45
 4002d94:	d8c02785 	stb	r3,158(sp)
 4002d98:	d8802a15 	stw	r2,168(sp)
 4002d9c:	dc802b17 	ldw	r18,172(sp)
 4002da0:	d8002915 	stw	zero,164(sp)
 4002da4:	07000b44 	movi	fp,45
 4002da8:	003a7306 	br	4001778 <__ram_exceptions_end+0xfbff9534>
 4002dac:	9080004c 	andi	r2,r18,1
 4002db0:	1000941e 	bne	r2,zero,4003004 <___svfprintf_internal_r+0x1f54>
 4002db4:	d8802117 	ldw	r2,132(sp)
 4002db8:	1405c83a 	sub	r2,r2,r16
 4002dbc:	d8803315 	stw	r2,204(sp)
 4002dc0:	b441161e 	bne	r22,r17,400321c <___svfprintf_internal_r+0x216c>
 4002dc4:	dd802617 	ldw	r22,152(sp)
 4002dc8:	00bfff44 	movi	r2,-3
 4002dcc:	b0801a16 	blt	r22,r2,4002e38 <___svfprintf_internal_r+0x1d88>
 4002dd0:	d9402917 	ldw	r5,164(sp)
 4002dd4:	2d801816 	blt	r5,r22,4002e38 <___svfprintf_internal_r+0x1d88>
 4002dd8:	dd803215 	stw	r22,200(sp)
 4002ddc:	003f3a06 	br	4002ac8 <__ram_exceptions_end+0xfbffa884>
 4002de0:	1025883a 	mov	r18,r2
 4002de4:	0039883a 	mov	fp,zero
 4002de8:	00800084 	movi	r2,2
 4002dec:	003fd606 	br	4002d48 <__ram_exceptions_end+0xfbffab04>
 4002df0:	9080004c 	andi	r2,r18,1
 4002df4:	103f191e 	bne	r2,zero,4002a5c <__ram_exceptions_end+0xfbffa818>
 4002df8:	d8802117 	ldw	r2,132(sp)
 4002dfc:	003f2806 	br	4002aa0 <__ram_exceptions_end+0xfbffa85c>
 4002e00:	01010074 	movhi	r4,1025
 4002e04:	213dee84 	addi	r4,r4,-2118
 4002e08:	d9002b15 	stw	r4,172(sp)
 4002e0c:	003c7c06 	br	4002000 <__ram_exceptions_end+0xfbff9dbc>
 4002e10:	e005883a 	mov	r2,fp
 4002e14:	003f2206 	br	4002aa0 <__ram_exceptions_end+0xfbffa85c>
 4002e18:	d9402917 	ldw	r5,164(sp)
 4002e1c:	df002783 	ldbu	fp,158(sp)
 4002e20:	dd002d15 	stw	r20,180(sp)
 4002e24:	d9402a15 	stw	r5,168(sp)
 4002e28:	d9402e15 	stw	r5,184(sp)
 4002e2c:	d8002915 	stw	zero,164(sp)
 4002e30:	d8003215 	stw	zero,200(sp)
 4002e34:	003a4c06 	br	4001768 <__ram_exceptions_end+0xfbff9524>
 4002e38:	8c7fff84 	addi	r17,r17,-2
 4002e3c:	b5bfffc4 	addi	r22,r22,-1
 4002e40:	dd802615 	stw	r22,152(sp)
 4002e44:	dc4022c5 	stb	r17,139(sp)
 4002e48:	b000c316 	blt	r22,zero,4003158 <___svfprintf_internal_r+0x20a8>
 4002e4c:	00800ac4 	movi	r2,43
 4002e50:	d8802305 	stb	r2,140(sp)
 4002e54:	00800244 	movi	r2,9
 4002e58:	15806e16 	blt	r2,r22,4003014 <___svfprintf_internal_r+0x1f64>
 4002e5c:	00800c04 	movi	r2,48
 4002e60:	b5800c04 	addi	r22,r22,48
 4002e64:	d8802345 	stb	r2,141(sp)
 4002e68:	dd802385 	stb	r22,142(sp)
 4002e6c:	d88023c4 	addi	r2,sp,143
 4002e70:	df0022c4 	addi	fp,sp,139
 4002e74:	d8c03317 	ldw	r3,204(sp)
 4002e78:	1739c83a 	sub	fp,r2,fp
 4002e7c:	d9003317 	ldw	r4,204(sp)
 4002e80:	e0c7883a 	add	r3,fp,r3
 4002e84:	df003b15 	stw	fp,236(sp)
 4002e88:	d8c02e15 	stw	r3,184(sp)
 4002e8c:	00800044 	movi	r2,1
 4002e90:	1100b70e 	bge	r2,r4,4003170 <___svfprintf_internal_r+0x20c0>
 4002e94:	d8c02e17 	ldw	r3,184(sp)
 4002e98:	18c00044 	addi	r3,r3,1
 4002e9c:	d8c02e15 	stw	r3,184(sp)
 4002ea0:	1805883a 	mov	r2,r3
 4002ea4:	1800b016 	blt	r3,zero,4003168 <___svfprintf_internal_r+0x20b8>
 4002ea8:	d8003215 	stw	zero,200(sp)
 4002eac:	003f1006 	br	4002af0 <__ram_exceptions_end+0xfbffa8ac>
 4002eb0:	d8802917 	ldw	r2,164(sp)
 4002eb4:	103ec71e 	bne	r2,zero,40029d4 <__ram_exceptions_end+0xfbffa790>
 4002eb8:	dc002915 	stw	r16,164(sp)
 4002ebc:	003ec506 	br	40029d4 <__ram_exceptions_end+0xfbffa790>
 4002ec0:	d9402c17 	ldw	r5,176(sp)
 4002ec4:	d9801e04 	addi	r6,sp,120
 4002ec8:	9809883a 	mov	r4,r19
 4002ecc:	40079840 	call	4007984 <__ssprint_r>
 4002ed0:	10395c1e 	bne	r2,zero,4001444 <__ram_exceptions_end+0xfbff9200>
 4002ed4:	dc402617 	ldw	r17,152(sp)
 4002ed8:	d8c02017 	ldw	r3,128(sp)
 4002edc:	d8801f17 	ldw	r2,124(sp)
 4002ee0:	da000404 	addi	r8,sp,16
 4002ee4:	003e7706 	br	40028c4 <__ram_exceptions_end+0xfbffa680>
 4002ee8:	582f883a 	mov	r23,r11
 4002eec:	d8002915 	stw	zero,164(sp)
 4002ef0:	0038c406 	br	4001204 <__ram_exceptions_end+0xfbff8fc0>
 4002ef4:	d8c02917 	ldw	r3,164(sp)
 4002ef8:	d8802104 	addi	r2,sp,132
 4002efc:	d8800315 	stw	r2,12(sp)
 4002f00:	d9403617 	ldw	r5,216(sp)
 4002f04:	d8802504 	addi	r2,sp,148
 4002f08:	d8800215 	stw	r2,8(sp)
 4002f0c:	d8802604 	addi	r2,sp,152
 4002f10:	d8c00015 	stw	r3,0(sp)
 4002f14:	9809883a 	mov	r4,r19
 4002f18:	d8800115 	stw	r2,4(sp)
 4002f1c:	01c000c4 	movi	r7,3
 4002f20:	a00d883a 	mov	r6,r20
 4002f24:	da003e15 	stw	r8,248(sp)
 4002f28:	40034880 	call	4003488 <_dtoa_r>
 4002f2c:	d9002917 	ldw	r4,164(sp)
 4002f30:	da003e17 	ldw	r8,248(sp)
 4002f34:	1021883a 	mov	r16,r2
 4002f38:	1139883a 	add	fp,r2,r4
 4002f3c:	2007883a 	mov	r3,r4
 4002f40:	81000007 	ldb	r4,0(r16)
 4002f44:	00800c04 	movi	r2,48
 4002f48:	20806f26 	beq	r4,r2,4003108 <___svfprintf_internal_r+0x2058>
 4002f4c:	d8c02617 	ldw	r3,152(sp)
 4002f50:	e0f9883a 	add	fp,fp,r3
 4002f54:	003ec206 	br	4002a60 <__ram_exceptions_end+0xfbffa81c>
 4002f58:	00c00b44 	movi	r3,45
 4002f5c:	2520003c 	xorhi	r20,r4,32768
 4002f60:	d8c02a05 	stb	r3,168(sp)
 4002f64:	003ea106 	br	40029ec <__ram_exceptions_end+0xfbffa7a8>
 4002f68:	d8c03217 	ldw	r3,200(sp)
 4002f6c:	00c0890e 	bge	zero,r3,4003194 <___svfprintf_internal_r+0x20e4>
 4002f70:	00800044 	movi	r2,1
 4002f74:	d9003317 	ldw	r4,204(sp)
 4002f78:	1105883a 	add	r2,r2,r4
 4002f7c:	d8802e15 	stw	r2,184(sp)
 4002f80:	10005f16 	blt	r2,zero,4003100 <___svfprintf_internal_r+0x2050>
 4002f84:	044019c4 	movi	r17,103
 4002f88:	003ed906 	br	4002af0 <__ram_exceptions_end+0xfbffa8ac>
 4002f8c:	d9002917 	ldw	r4,164(sp)
 4002f90:	20c00044 	addi	r3,r4,1
 4002f94:	003e9c06 	br	4002a08 <__ram_exceptions_end+0xfbffa7c4>
 4002f98:	d9002917 	ldw	r4,164(sp)
 4002f9c:	00c0680e 	bge	zero,r3,4003140 <___svfprintf_internal_r+0x2090>
 4002fa0:	2000461e 	bne	r4,zero,40030bc <___svfprintf_internal_r+0x200c>
 4002fa4:	9480004c 	andi	r18,r18,1
 4002fa8:	9000441e 	bne	r18,zero,40030bc <___svfprintf_internal_r+0x200c>
 4002fac:	1805883a 	mov	r2,r3
 4002fb0:	1800a016 	blt	r3,zero,4003234 <___svfprintf_internal_r+0x2184>
 4002fb4:	d8c03217 	ldw	r3,200(sp)
 4002fb8:	d8c02e15 	stw	r3,184(sp)
 4002fbc:	003ecc06 	br	4002af0 <__ram_exceptions_end+0xfbffa8ac>
 4002fc0:	d9402917 	ldw	r5,164(sp)
 4002fc4:	d8802104 	addi	r2,sp,132
 4002fc8:	d8800315 	stw	r2,12(sp)
 4002fcc:	d9400015 	stw	r5,0(sp)
 4002fd0:	d8802504 	addi	r2,sp,148
 4002fd4:	d9403617 	ldw	r5,216(sp)
 4002fd8:	d8800215 	stw	r2,8(sp)
 4002fdc:	d8802604 	addi	r2,sp,152
 4002fe0:	d8800115 	stw	r2,4(sp)
 4002fe4:	01c000c4 	movi	r7,3
 4002fe8:	a00d883a 	mov	r6,r20
 4002fec:	9809883a 	mov	r4,r19
 4002ff0:	da003e15 	stw	r8,248(sp)
 4002ff4:	40034880 	call	4003488 <_dtoa_r>
 4002ff8:	d8c02917 	ldw	r3,164(sp)
 4002ffc:	da003e17 	ldw	r8,248(sp)
 4003000:	1021883a 	mov	r16,r2
 4003004:	00801184 	movi	r2,70
 4003008:	80f9883a 	add	fp,r16,r3
 400300c:	88bfcc26 	beq	r17,r2,4002f40 <__ram_exceptions_end+0xfbffacfc>
 4003010:	003e9306 	br	4002a60 <__ram_exceptions_end+0xfbffa81c>
 4003014:	df0022c4 	addi	fp,sp,139
 4003018:	dc002915 	stw	r16,164(sp)
 400301c:	9829883a 	mov	r20,r19
 4003020:	e021883a 	mov	r16,fp
 4003024:	4027883a 	mov	r19,r8
 4003028:	b009883a 	mov	r4,r22
 400302c:	01400284 	movi	r5,10
 4003030:	4000b100 	call	4000b10 <__modsi3>
 4003034:	10800c04 	addi	r2,r2,48
 4003038:	843fffc4 	addi	r16,r16,-1
 400303c:	b009883a 	mov	r4,r22
 4003040:	01400284 	movi	r5,10
 4003044:	80800005 	stb	r2,0(r16)
 4003048:	4000a8c0 	call	4000a8c <__divsi3>
 400304c:	102d883a 	mov	r22,r2
 4003050:	00800244 	movi	r2,9
 4003054:	15bff416 	blt	r2,r22,4003028 <__ram_exceptions_end+0xfbffade4>
 4003058:	9811883a 	mov	r8,r19
 400305c:	b0800c04 	addi	r2,r22,48
 4003060:	a027883a 	mov	r19,r20
 4003064:	8029883a 	mov	r20,r16
 4003068:	a17fffc4 	addi	r5,r20,-1
 400306c:	a0bfffc5 	stb	r2,-1(r20)
 4003070:	dc002917 	ldw	r16,164(sp)
 4003074:	2f00752e 	bgeu	r5,fp,400324c <___svfprintf_internal_r+0x219c>
 4003078:	d9c02384 	addi	r7,sp,142
 400307c:	3d0fc83a 	sub	r7,r7,r20
 4003080:	d9002344 	addi	r4,sp,141
 4003084:	e1cf883a 	add	r7,fp,r7
 4003088:	00000106 	br	4003090 <___svfprintf_internal_r+0x1fe0>
 400308c:	28800003 	ldbu	r2,0(r5)
 4003090:	20800005 	stb	r2,0(r4)
 4003094:	21000044 	addi	r4,r4,1
 4003098:	29400044 	addi	r5,r5,1
 400309c:	21fffb1e 	bne	r4,r7,400308c <__ram_exceptions_end+0xfbffae48>
 40030a0:	d8802304 	addi	r2,sp,140
 40030a4:	1505c83a 	sub	r2,r2,r20
 40030a8:	d8c02344 	addi	r3,sp,141
 40030ac:	1885883a 	add	r2,r3,r2
 40030b0:	003f7006 	br	4002e74 <__ram_exceptions_end+0xfbffac30>
 40030b4:	0005883a 	mov	r2,zero
 40030b8:	003f0b06 	br	4002ce8 <__ram_exceptions_end+0xfbffaaa4>
 40030bc:	d9002917 	ldw	r4,164(sp)
 40030c0:	d8c03217 	ldw	r3,200(sp)
 40030c4:	20800044 	addi	r2,r4,1
 40030c8:	1885883a 	add	r2,r3,r2
 40030cc:	d8802e15 	stw	r2,184(sp)
 40030d0:	103e870e 	bge	r2,zero,4002af0 <__ram_exceptions_end+0xfbffa8ac>
 40030d4:	0005883a 	mov	r2,zero
 40030d8:	003e8506 	br	4002af0 <__ram_exceptions_end+0xfbffa8ac>
 40030dc:	01010074 	movhi	r4,1025
 40030e0:	213dee84 	addi	r4,r4,-2118
 40030e4:	d9002b15 	stw	r4,172(sp)
 40030e8:	003cc506 	br	4002400 <__ram_exceptions_end+0xfbffa1bc>
 40030ec:	d8c03217 	ldw	r3,200(sp)
 40030f0:	18c00044 	addi	r3,r3,1
 40030f4:	d8c02e15 	stw	r3,184(sp)
 40030f8:	1805883a 	mov	r2,r3
 40030fc:	183fa10e 	bge	r3,zero,4002f84 <__ram_exceptions_end+0xfbffad40>
 4003100:	0005883a 	mov	r2,zero
 4003104:	003f9f06 	br	4002f84 <__ram_exceptions_end+0xfbffad40>
 4003108:	d9003617 	ldw	r4,216(sp)
 400310c:	000d883a 	mov	r6,zero
 4003110:	000f883a 	mov	r7,zero
 4003114:	a00b883a 	mov	r5,r20
 4003118:	d8c03d15 	stw	r3,244(sp)
 400311c:	da003e15 	stw	r8,248(sp)
 4003120:	400b7ac0 	call	400b7ac <__eqdf2>
 4003124:	d8c03d17 	ldw	r3,244(sp)
 4003128:	da003e17 	ldw	r8,248(sp)
 400312c:	103f8726 	beq	r2,zero,4002f4c <__ram_exceptions_end+0xfbffad08>
 4003130:	00800044 	movi	r2,1
 4003134:	10c7c83a 	sub	r3,r2,r3
 4003138:	d8c02615 	stw	r3,152(sp)
 400313c:	003f8406 	br	4002f50 <__ram_exceptions_end+0xfbffad0c>
 4003140:	20000e1e 	bne	r4,zero,400317c <___svfprintf_internal_r+0x20cc>
 4003144:	9480004c 	andi	r18,r18,1
 4003148:	90000c1e 	bne	r18,zero,400317c <___svfprintf_internal_r+0x20cc>
 400314c:	00800044 	movi	r2,1
 4003150:	d8802e15 	stw	r2,184(sp)
 4003154:	003e6606 	br	4002af0 <__ram_exceptions_end+0xfbffa8ac>
 4003158:	00800b44 	movi	r2,45
 400315c:	05adc83a 	sub	r22,zero,r22
 4003160:	d8802305 	stb	r2,140(sp)
 4003164:	003f3b06 	br	4002e54 <__ram_exceptions_end+0xfbffac10>
 4003168:	0005883a 	mov	r2,zero
 400316c:	003f4e06 	br	4002ea8 <__ram_exceptions_end+0xfbffac64>
 4003170:	90a4703a 	and	r18,r18,r2
 4003174:	903f4a26 	beq	r18,zero,4002ea0 <__ram_exceptions_end+0xfbffac5c>
 4003178:	003f4606 	br	4002e94 <__ram_exceptions_end+0xfbffac50>
 400317c:	d8c02917 	ldw	r3,164(sp)
 4003180:	18c00084 	addi	r3,r3,2
 4003184:	d8c02e15 	stw	r3,184(sp)
 4003188:	1805883a 	mov	r2,r3
 400318c:	183e580e 	bge	r3,zero,4002af0 <__ram_exceptions_end+0xfbffa8ac>
 4003190:	003fd006 	br	40030d4 <__ram_exceptions_end+0xfbffae90>
 4003194:	00800084 	movi	r2,2
 4003198:	10c5c83a 	sub	r2,r2,r3
 400319c:	003f7506 	br	4002f74 <__ram_exceptions_end+0xfbffad30>
 40031a0:	d8802d17 	ldw	r2,180(sp)
 40031a4:	d9002d17 	ldw	r4,180(sp)
 40031a8:	bc400043 	ldbu	r17,1(r23)
 40031ac:	10800017 	ldw	r2,0(r2)
 40031b0:	582f883a 	mov	r23,r11
 40031b4:	d8802915 	stw	r2,164(sp)
 40031b8:	20800104 	addi	r2,r4,4
 40031bc:	d9002917 	ldw	r4,164(sp)
 40031c0:	d8802d15 	stw	r2,180(sp)
 40031c4:	203df00e 	bge	r4,zero,4002988 <__ram_exceptions_end+0xfbffa744>
 40031c8:	8c403fcc 	andi	r17,r17,255
 40031cc:	00bfffc4 	movi	r2,-1
 40031d0:	8c40201c 	xori	r17,r17,128
 40031d4:	d8802915 	stw	r2,164(sp)
 40031d8:	8c7fe004 	addi	r17,r17,-128
 40031dc:	00380806 	br	4001200 <__ram_exceptions_end+0xfbff8fbc>
 40031e0:	9080004c 	andi	r2,r18,1
 40031e4:	0039883a 	mov	fp,zero
 40031e8:	10000726 	beq	r2,zero,4003208 <___svfprintf_internal_r+0x2158>
 40031ec:	d8c02817 	ldw	r3,160(sp)
 40031f0:	dc001dc4 	addi	r16,sp,119
 40031f4:	00800c04 	movi	r2,48
 40031f8:	1c07c83a 	sub	r3,r3,r16
 40031fc:	d8801dc5 	stb	r2,119(sp)
 4003200:	d8c02e15 	stw	r3,184(sp)
 4003204:	00395206 	br	4001750 <__ram_exceptions_end+0xfbff950c>
 4003208:	d8002e15 	stw	zero,184(sp)
 400320c:	dc001e04 	addi	r16,sp,120
 4003210:	00394f06 	br	4001750 <__ram_exceptions_end+0xfbff950c>
 4003214:	0005883a 	mov	r2,zero
 4003218:	003e3206 	br	4002ae4 <__ram_exceptions_end+0xfbffa8a0>
 400321c:	dd802617 	ldw	r22,152(sp)
 4003220:	003f0606 	br	4002e3c <__ram_exceptions_end+0xfbffabf8>
 4003224:	d9c02785 	stb	r7,158(sp)
 4003228:	003a5106 	br	4001b70 <__ram_exceptions_end+0xfbff992c>
 400322c:	d9c02785 	stb	r7,158(sp)
 4003230:	003a3706 	br	4001b10 <__ram_exceptions_end+0xfbff98cc>
 4003234:	0005883a 	mov	r2,zero
 4003238:	003f5e06 	br	4002fb4 <__ram_exceptions_end+0xfbffad70>
 400323c:	d9c02785 	stb	r7,158(sp)
 4003240:	00391706 	br	40016a0 <__ram_exceptions_end+0xfbff945c>
 4003244:	d9c02785 	stb	r7,158(sp)
 4003248:	0038e606 	br	40015e4 <__ram_exceptions_end+0xfbff93a0>
 400324c:	d8802344 	addi	r2,sp,141
 4003250:	003f0806 	br	4002e74 <__ram_exceptions_end+0xfbffac30>
 4003254:	d9c02785 	stb	r7,158(sp)
 4003258:	0038b706 	br	4001538 <__ram_exceptions_end+0xfbff92f4>
 400325c:	d9c02785 	stb	r7,158(sp)
 4003260:	003adc06 	br	4001dd4 <__ram_exceptions_end+0xfbff9b90>
 4003264:	d9403917 	ldw	r5,228(sp)
 4003268:	00800304 	movi	r2,12
 400326c:	28800015 	stw	r2,0(r5)
 4003270:	00bfffc4 	movi	r2,-1
 4003274:	00387806 	br	4001458 <__ram_exceptions_end+0xfbff9214>
 4003278:	d9c02785 	stb	r7,158(sp)
 400327c:	003abf06 	br	4001d7c <__ram_exceptions_end+0xfbff9b38>
 4003280:	d9c02785 	stb	r7,158(sp)
 4003284:	003a9b06 	br	4001cf4 <__ram_exceptions_end+0xfbff9ab0>

04003288 <quorem>:
 4003288:	defff704 	addi	sp,sp,-36
 400328c:	dc800215 	stw	r18,8(sp)
 4003290:	20800417 	ldw	r2,16(r4)
 4003294:	2c800417 	ldw	r18,16(r5)
 4003298:	dfc00815 	stw	ra,32(sp)
 400329c:	ddc00715 	stw	r23,28(sp)
 40032a0:	dd800615 	stw	r22,24(sp)
 40032a4:	dd400515 	stw	r21,20(sp)
 40032a8:	dd000415 	stw	r20,16(sp)
 40032ac:	dcc00315 	stw	r19,12(sp)
 40032b0:	dc400115 	stw	r17,4(sp)
 40032b4:	dc000015 	stw	r16,0(sp)
 40032b8:	14807116 	blt	r2,r18,4003480 <quorem+0x1f8>
 40032bc:	94bfffc4 	addi	r18,r18,-1
 40032c0:	94ad883a 	add	r22,r18,r18
 40032c4:	b5ad883a 	add	r22,r22,r22
 40032c8:	2c400504 	addi	r17,r5,20
 40032cc:	8da9883a 	add	r20,r17,r22
 40032d0:	25400504 	addi	r21,r4,20
 40032d4:	282f883a 	mov	r23,r5
 40032d8:	adad883a 	add	r22,r21,r22
 40032dc:	a1400017 	ldw	r5,0(r20)
 40032e0:	2021883a 	mov	r16,r4
 40032e4:	b1000017 	ldw	r4,0(r22)
 40032e8:	29400044 	addi	r5,r5,1
 40032ec:	4000b840 	call	4000b84 <__udivsi3>
 40032f0:	1027883a 	mov	r19,r2
 40032f4:	10002c26 	beq	r2,zero,40033a8 <quorem+0x120>
 40032f8:	a813883a 	mov	r9,r21
 40032fc:	880b883a 	mov	r5,r17
 4003300:	0009883a 	mov	r4,zero
 4003304:	000d883a 	mov	r6,zero
 4003308:	2a000017 	ldw	r8,0(r5)
 400330c:	49c00017 	ldw	r7,0(r9)
 4003310:	29400104 	addi	r5,r5,4
 4003314:	40bfffcc 	andi	r2,r8,65535
 4003318:	14c5383a 	mul	r2,r2,r19
 400331c:	4010d43a 	srli	r8,r8,16
 4003320:	38ffffcc 	andi	r3,r7,65535
 4003324:	1105883a 	add	r2,r2,r4
 4003328:	1008d43a 	srli	r4,r2,16
 400332c:	44d1383a 	mul	r8,r8,r19
 4003330:	198d883a 	add	r6,r3,r6
 4003334:	10ffffcc 	andi	r3,r2,65535
 4003338:	30c7c83a 	sub	r3,r6,r3
 400333c:	380ed43a 	srli	r7,r7,16
 4003340:	4105883a 	add	r2,r8,r4
 4003344:	180dd43a 	srai	r6,r3,16
 4003348:	113fffcc 	andi	r4,r2,65535
 400334c:	390fc83a 	sub	r7,r7,r4
 4003350:	398d883a 	add	r6,r7,r6
 4003354:	300e943a 	slli	r7,r6,16
 4003358:	18ffffcc 	andi	r3,r3,65535
 400335c:	1008d43a 	srli	r4,r2,16
 4003360:	38ceb03a 	or	r7,r7,r3
 4003364:	49c00015 	stw	r7,0(r9)
 4003368:	300dd43a 	srai	r6,r6,16
 400336c:	4a400104 	addi	r9,r9,4
 4003370:	a17fe52e 	bgeu	r20,r5,4003308 <__ram_exceptions_end+0xfbffb0c4>
 4003374:	b0800017 	ldw	r2,0(r22)
 4003378:	10000b1e 	bne	r2,zero,40033a8 <quorem+0x120>
 400337c:	b0bfff04 	addi	r2,r22,-4
 4003380:	a880082e 	bgeu	r21,r2,40033a4 <quorem+0x11c>
 4003384:	b0ffff17 	ldw	r3,-4(r22)
 4003388:	18000326 	beq	r3,zero,4003398 <quorem+0x110>
 400338c:	00000506 	br	40033a4 <quorem+0x11c>
 4003390:	10c00017 	ldw	r3,0(r2)
 4003394:	1800031e 	bne	r3,zero,40033a4 <quorem+0x11c>
 4003398:	10bfff04 	addi	r2,r2,-4
 400339c:	94bfffc4 	addi	r18,r18,-1
 40033a0:	a8bffb36 	bltu	r21,r2,4003390 <__ram_exceptions_end+0xfbffb14c>
 40033a4:	84800415 	stw	r18,16(r16)
 40033a8:	b80b883a 	mov	r5,r23
 40033ac:	8009883a 	mov	r4,r16
 40033b0:	4006a0c0 	call	4006a0c <__mcmp>
 40033b4:	10002616 	blt	r2,zero,4003450 <quorem+0x1c8>
 40033b8:	9cc00044 	addi	r19,r19,1
 40033bc:	a805883a 	mov	r2,r21
 40033c0:	000b883a 	mov	r5,zero
 40033c4:	11000017 	ldw	r4,0(r2)
 40033c8:	89800017 	ldw	r6,0(r17)
 40033cc:	10800104 	addi	r2,r2,4
 40033d0:	20ffffcc 	andi	r3,r4,65535
 40033d4:	194b883a 	add	r5,r3,r5
 40033d8:	30ffffcc 	andi	r3,r6,65535
 40033dc:	28c7c83a 	sub	r3,r5,r3
 40033e0:	300cd43a 	srli	r6,r6,16
 40033e4:	2008d43a 	srli	r4,r4,16
 40033e8:	180bd43a 	srai	r5,r3,16
 40033ec:	18ffffcc 	andi	r3,r3,65535
 40033f0:	2189c83a 	sub	r4,r4,r6
 40033f4:	2149883a 	add	r4,r4,r5
 40033f8:	200c943a 	slli	r6,r4,16
 40033fc:	8c400104 	addi	r17,r17,4
 4003400:	200bd43a 	srai	r5,r4,16
 4003404:	30c6b03a 	or	r3,r6,r3
 4003408:	10ffff15 	stw	r3,-4(r2)
 400340c:	a47fed2e 	bgeu	r20,r17,40033c4 <__ram_exceptions_end+0xfbffb180>
 4003410:	9485883a 	add	r2,r18,r18
 4003414:	1085883a 	add	r2,r2,r2
 4003418:	a887883a 	add	r3,r21,r2
 400341c:	18800017 	ldw	r2,0(r3)
 4003420:	10000b1e 	bne	r2,zero,4003450 <quorem+0x1c8>
 4003424:	18bfff04 	addi	r2,r3,-4
 4003428:	a880082e 	bgeu	r21,r2,400344c <quorem+0x1c4>
 400342c:	18ffff17 	ldw	r3,-4(r3)
 4003430:	18000326 	beq	r3,zero,4003440 <quorem+0x1b8>
 4003434:	00000506 	br	400344c <quorem+0x1c4>
 4003438:	10c00017 	ldw	r3,0(r2)
 400343c:	1800031e 	bne	r3,zero,400344c <quorem+0x1c4>
 4003440:	10bfff04 	addi	r2,r2,-4
 4003444:	94bfffc4 	addi	r18,r18,-1
 4003448:	a8bffb36 	bltu	r21,r2,4003438 <__ram_exceptions_end+0xfbffb1f4>
 400344c:	84800415 	stw	r18,16(r16)
 4003450:	9805883a 	mov	r2,r19
 4003454:	dfc00817 	ldw	ra,32(sp)
 4003458:	ddc00717 	ldw	r23,28(sp)
 400345c:	dd800617 	ldw	r22,24(sp)
 4003460:	dd400517 	ldw	r21,20(sp)
 4003464:	dd000417 	ldw	r20,16(sp)
 4003468:	dcc00317 	ldw	r19,12(sp)
 400346c:	dc800217 	ldw	r18,8(sp)
 4003470:	dc400117 	ldw	r17,4(sp)
 4003474:	dc000017 	ldw	r16,0(sp)
 4003478:	dec00904 	addi	sp,sp,36
 400347c:	f800283a 	ret
 4003480:	0005883a 	mov	r2,zero
 4003484:	003ff306 	br	4003454 <__ram_exceptions_end+0xfbffb210>

04003488 <_dtoa_r>:
 4003488:	20801017 	ldw	r2,64(r4)
 400348c:	deffde04 	addi	sp,sp,-136
 4003490:	df002015 	stw	fp,128(sp)
 4003494:	dcc01b15 	stw	r19,108(sp)
 4003498:	dc801a15 	stw	r18,104(sp)
 400349c:	dc401915 	stw	r17,100(sp)
 40034a0:	dc001815 	stw	r16,96(sp)
 40034a4:	dfc02115 	stw	ra,132(sp)
 40034a8:	ddc01f15 	stw	r23,124(sp)
 40034ac:	dd801e15 	stw	r22,120(sp)
 40034b0:	dd401d15 	stw	r21,116(sp)
 40034b4:	dd001c15 	stw	r20,112(sp)
 40034b8:	d9c00315 	stw	r7,12(sp)
 40034bc:	2039883a 	mov	fp,r4
 40034c0:	3023883a 	mov	r17,r6
 40034c4:	2825883a 	mov	r18,r5
 40034c8:	dc002417 	ldw	r16,144(sp)
 40034cc:	3027883a 	mov	r19,r6
 40034d0:	10000826 	beq	r2,zero,40034f4 <_dtoa_r+0x6c>
 40034d4:	21801117 	ldw	r6,68(r4)
 40034d8:	00c00044 	movi	r3,1
 40034dc:	100b883a 	mov	r5,r2
 40034e0:	1986983a 	sll	r3,r3,r6
 40034e4:	11800115 	stw	r6,4(r2)
 40034e8:	10c00215 	stw	r3,8(r2)
 40034ec:	40061ec0 	call	40061ec <_Bfree>
 40034f0:	e0001015 	stw	zero,64(fp)
 40034f4:	88002e16 	blt	r17,zero,40035b0 <_dtoa_r+0x128>
 40034f8:	80000015 	stw	zero,0(r16)
 40034fc:	889ffc2c 	andhi	r2,r17,32752
 4003500:	00dffc34 	movhi	r3,32752
 4003504:	10c01c26 	beq	r2,r3,4003578 <_dtoa_r+0xf0>
 4003508:	000d883a 	mov	r6,zero
 400350c:	000f883a 	mov	r7,zero
 4003510:	9009883a 	mov	r4,r18
 4003514:	980b883a 	mov	r5,r19
 4003518:	400b7ac0 	call	400b7ac <__eqdf2>
 400351c:	10002b1e 	bne	r2,zero,40035cc <_dtoa_r+0x144>
 4003520:	d9c02317 	ldw	r7,140(sp)
 4003524:	00800044 	movi	r2,1
 4003528:	38800015 	stw	r2,0(r7)
 400352c:	d8802517 	ldw	r2,148(sp)
 4003530:	10019e26 	beq	r2,zero,4003bac <_dtoa_r+0x724>
 4003534:	d8c02517 	ldw	r3,148(sp)
 4003538:	00810074 	movhi	r2,1025
 400353c:	10bdee44 	addi	r2,r2,-2119
 4003540:	18800015 	stw	r2,0(r3)
 4003544:	10bfffc4 	addi	r2,r2,-1
 4003548:	dfc02117 	ldw	ra,132(sp)
 400354c:	df002017 	ldw	fp,128(sp)
 4003550:	ddc01f17 	ldw	r23,124(sp)
 4003554:	dd801e17 	ldw	r22,120(sp)
 4003558:	dd401d17 	ldw	r21,116(sp)
 400355c:	dd001c17 	ldw	r20,112(sp)
 4003560:	dcc01b17 	ldw	r19,108(sp)
 4003564:	dc801a17 	ldw	r18,104(sp)
 4003568:	dc401917 	ldw	r17,100(sp)
 400356c:	dc001817 	ldw	r16,96(sp)
 4003570:	dec02204 	addi	sp,sp,136
 4003574:	f800283a 	ret
 4003578:	d8c02317 	ldw	r3,140(sp)
 400357c:	0089c3c4 	movi	r2,9999
 4003580:	18800015 	stw	r2,0(r3)
 4003584:	90017726 	beq	r18,zero,4003b64 <_dtoa_r+0x6dc>
 4003588:	00810074 	movhi	r2,1025
 400358c:	10bdfa04 	addi	r2,r2,-2072
 4003590:	d9002517 	ldw	r4,148(sp)
 4003594:	203fec26 	beq	r4,zero,4003548 <__ram_exceptions_end+0xfbffb304>
 4003598:	10c000c7 	ldb	r3,3(r2)
 400359c:	1801781e 	bne	r3,zero,4003b80 <_dtoa_r+0x6f8>
 40035a0:	10c000c4 	addi	r3,r2,3
 40035a4:	d9802517 	ldw	r6,148(sp)
 40035a8:	30c00015 	stw	r3,0(r6)
 40035ac:	003fe606 	br	4003548 <__ram_exceptions_end+0xfbffb304>
 40035b0:	04e00034 	movhi	r19,32768
 40035b4:	9cffffc4 	addi	r19,r19,-1
 40035b8:	00800044 	movi	r2,1
 40035bc:	8ce6703a 	and	r19,r17,r19
 40035c0:	80800015 	stw	r2,0(r16)
 40035c4:	9823883a 	mov	r17,r19
 40035c8:	003fcc06 	br	40034fc <__ram_exceptions_end+0xfbffb2b8>
 40035cc:	d8800204 	addi	r2,sp,8
 40035d0:	d8800015 	stw	r2,0(sp)
 40035d4:	d9c00104 	addi	r7,sp,4
 40035d8:	900b883a 	mov	r5,r18
 40035dc:	980d883a 	mov	r6,r19
 40035e0:	e009883a 	mov	r4,fp
 40035e4:	8820d53a 	srli	r16,r17,20
 40035e8:	4006dd80 	call	4006dd8 <__d2b>
 40035ec:	d8800915 	stw	r2,36(sp)
 40035f0:	8001651e 	bne	r16,zero,4003b88 <_dtoa_r+0x700>
 40035f4:	dd800217 	ldw	r22,8(sp)
 40035f8:	dc000117 	ldw	r16,4(sp)
 40035fc:	00800804 	movi	r2,32
 4003600:	b421883a 	add	r16,r22,r16
 4003604:	80c10c84 	addi	r3,r16,1074
 4003608:	10c2d10e 	bge	r2,r3,4004150 <_dtoa_r+0xcc8>
 400360c:	00801004 	movi	r2,64
 4003610:	81010484 	addi	r4,r16,1042
 4003614:	10c7c83a 	sub	r3,r2,r3
 4003618:	9108d83a 	srl	r4,r18,r4
 400361c:	88e2983a 	sll	r17,r17,r3
 4003620:	2448b03a 	or	r4,r4,r17
 4003624:	400cb740 	call	400cb74 <__floatunsidf>
 4003628:	017f8434 	movhi	r5,65040
 400362c:	01800044 	movi	r6,1
 4003630:	1009883a 	mov	r4,r2
 4003634:	194b883a 	add	r5,r3,r5
 4003638:	843fffc4 	addi	r16,r16,-1
 400363c:	d9801115 	stw	r6,68(sp)
 4003640:	000d883a 	mov	r6,zero
 4003644:	01cffe34 	movhi	r7,16376
 4003648:	400c11c0 	call	400c11c <__subdf3>
 400364c:	0198dbf4 	movhi	r6,25455
 4003650:	01cff4f4 	movhi	r7,16339
 4003654:	3190d844 	addi	r6,r6,17249
 4003658:	39e1e9c4 	addi	r7,r7,-30809
 400365c:	1009883a 	mov	r4,r2
 4003660:	180b883a 	mov	r5,r3
 4003664:	400ba040 	call	400ba04 <__muldf3>
 4003668:	01a2d874 	movhi	r6,35681
 400366c:	01cff1f4 	movhi	r7,16327
 4003670:	31b22cc4 	addi	r6,r6,-14157
 4003674:	39e28a04 	addi	r7,r7,-30168
 4003678:	180b883a 	mov	r5,r3
 400367c:	1009883a 	mov	r4,r2
 4003680:	400a6180 	call	400a618 <__adddf3>
 4003684:	8009883a 	mov	r4,r16
 4003688:	1029883a 	mov	r20,r2
 400368c:	1823883a 	mov	r17,r3
 4003690:	400ca980 	call	400ca98 <__floatsidf>
 4003694:	019427f4 	movhi	r6,20639
 4003698:	01cff4f4 	movhi	r7,16339
 400369c:	319e7ec4 	addi	r6,r6,31227
 40036a0:	39d104c4 	addi	r7,r7,17427
 40036a4:	1009883a 	mov	r4,r2
 40036a8:	180b883a 	mov	r5,r3
 40036ac:	400ba040 	call	400ba04 <__muldf3>
 40036b0:	100d883a 	mov	r6,r2
 40036b4:	180f883a 	mov	r7,r3
 40036b8:	a009883a 	mov	r4,r20
 40036bc:	880b883a 	mov	r5,r17
 40036c0:	400a6180 	call	400a618 <__adddf3>
 40036c4:	1009883a 	mov	r4,r2
 40036c8:	180b883a 	mov	r5,r3
 40036cc:	1029883a 	mov	r20,r2
 40036d0:	1823883a 	mov	r17,r3
 40036d4:	400ca180 	call	400ca18 <__fixdfsi>
 40036d8:	000d883a 	mov	r6,zero
 40036dc:	000f883a 	mov	r7,zero
 40036e0:	a009883a 	mov	r4,r20
 40036e4:	880b883a 	mov	r5,r17
 40036e8:	d8800515 	stw	r2,20(sp)
 40036ec:	400b9100 	call	400b910 <__ledf2>
 40036f0:	10028716 	blt	r2,zero,4004110 <_dtoa_r+0xc88>
 40036f4:	d8c00517 	ldw	r3,20(sp)
 40036f8:	00800584 	movi	r2,22
 40036fc:	10c27536 	bltu	r2,r3,40040d4 <_dtoa_r+0xc4c>
 4003700:	180490fa 	slli	r2,r3,3
 4003704:	00c10074 	movhi	r3,1025
 4003708:	18fe1604 	addi	r3,r3,-1960
 400370c:	1885883a 	add	r2,r3,r2
 4003710:	11000017 	ldw	r4,0(r2)
 4003714:	11400117 	ldw	r5,4(r2)
 4003718:	900d883a 	mov	r6,r18
 400371c:	980f883a 	mov	r7,r19
 4003720:	400b8340 	call	400b834 <__gedf2>
 4003724:	00828d0e 	bge	zero,r2,400415c <_dtoa_r+0xcd4>
 4003728:	d9000517 	ldw	r4,20(sp)
 400372c:	d8000e15 	stw	zero,56(sp)
 4003730:	213fffc4 	addi	r4,r4,-1
 4003734:	d9000515 	stw	r4,20(sp)
 4003738:	b42dc83a 	sub	r22,r22,r16
 400373c:	b5bfffc4 	addi	r22,r22,-1
 4003740:	b0026f16 	blt	r22,zero,4004100 <_dtoa_r+0xc78>
 4003744:	d8000815 	stw	zero,32(sp)
 4003748:	d9c00517 	ldw	r7,20(sp)
 400374c:	38026416 	blt	r7,zero,40040e0 <_dtoa_r+0xc58>
 4003750:	b1ed883a 	add	r22,r22,r7
 4003754:	d9c00d15 	stw	r7,52(sp)
 4003758:	d8000a15 	stw	zero,40(sp)
 400375c:	d9800317 	ldw	r6,12(sp)
 4003760:	00800244 	movi	r2,9
 4003764:	11811436 	bltu	r2,r6,4003bb8 <_dtoa_r+0x730>
 4003768:	00800144 	movi	r2,5
 400376c:	1184e10e 	bge	r2,r6,4004af4 <_dtoa_r+0x166c>
 4003770:	31bfff04 	addi	r6,r6,-4
 4003774:	d9800315 	stw	r6,12(sp)
 4003778:	0023883a 	mov	r17,zero
 400377c:	d9800317 	ldw	r6,12(sp)
 4003780:	008000c4 	movi	r2,3
 4003784:	30836726 	beq	r6,r2,4004524 <_dtoa_r+0x109c>
 4003788:	1183410e 	bge	r2,r6,4004490 <_dtoa_r+0x1008>
 400378c:	d9c00317 	ldw	r7,12(sp)
 4003790:	00800104 	movi	r2,4
 4003794:	38827c26 	beq	r7,r2,4004188 <_dtoa_r+0xd00>
 4003798:	00800144 	movi	r2,5
 400379c:	3884c41e 	bne	r7,r2,4004ab0 <_dtoa_r+0x1628>
 40037a0:	00800044 	movi	r2,1
 40037a4:	d8800b15 	stw	r2,44(sp)
 40037a8:	d8c00517 	ldw	r3,20(sp)
 40037ac:	d9002217 	ldw	r4,136(sp)
 40037b0:	1907883a 	add	r3,r3,r4
 40037b4:	19800044 	addi	r6,r3,1
 40037b8:	d8c00c15 	stw	r3,48(sp)
 40037bc:	d9800615 	stw	r6,24(sp)
 40037c0:	0183a40e 	bge	zero,r6,4004654 <_dtoa_r+0x11cc>
 40037c4:	d9800617 	ldw	r6,24(sp)
 40037c8:	3021883a 	mov	r16,r6
 40037cc:	e0001115 	stw	zero,68(fp)
 40037d0:	008005c4 	movi	r2,23
 40037d4:	1184c92e 	bgeu	r2,r6,4004afc <_dtoa_r+0x1674>
 40037d8:	00c00044 	movi	r3,1
 40037dc:	00800104 	movi	r2,4
 40037e0:	1085883a 	add	r2,r2,r2
 40037e4:	11000504 	addi	r4,r2,20
 40037e8:	180b883a 	mov	r5,r3
 40037ec:	18c00044 	addi	r3,r3,1
 40037f0:	313ffb2e 	bgeu	r6,r4,40037e0 <__ram_exceptions_end+0xfbffb59c>
 40037f4:	e1401115 	stw	r5,68(fp)
 40037f8:	e009883a 	mov	r4,fp
 40037fc:	40061440 	call	4006144 <_Balloc>
 4003800:	d8800715 	stw	r2,28(sp)
 4003804:	e0801015 	stw	r2,64(fp)
 4003808:	00800384 	movi	r2,14
 400380c:	1400f736 	bltu	r2,r16,4003bec <_dtoa_r+0x764>
 4003810:	8800f626 	beq	r17,zero,4003bec <_dtoa_r+0x764>
 4003814:	d9c00517 	ldw	r7,20(sp)
 4003818:	01c39a0e 	bge	zero,r7,4004684 <_dtoa_r+0x11fc>
 400381c:	388003cc 	andi	r2,r7,15
 4003820:	100490fa 	slli	r2,r2,3
 4003824:	382bd13a 	srai	r21,r7,4
 4003828:	00c10074 	movhi	r3,1025
 400382c:	18fe1604 	addi	r3,r3,-1960
 4003830:	1885883a 	add	r2,r3,r2
 4003834:	a8c0040c 	andi	r3,r21,16
 4003838:	12400017 	ldw	r9,0(r2)
 400383c:	12000117 	ldw	r8,4(r2)
 4003840:	18037926 	beq	r3,zero,4004628 <_dtoa_r+0x11a0>
 4003844:	00810074 	movhi	r2,1025
 4003848:	10be0c04 	addi	r2,r2,-2000
 400384c:	11800817 	ldw	r6,32(r2)
 4003850:	11c00917 	ldw	r7,36(r2)
 4003854:	9009883a 	mov	r4,r18
 4003858:	980b883a 	mov	r5,r19
 400385c:	da001715 	stw	r8,92(sp)
 4003860:	da401615 	stw	r9,88(sp)
 4003864:	400aec40 	call	400aec4 <__divdf3>
 4003868:	da001717 	ldw	r8,92(sp)
 400386c:	da401617 	ldw	r9,88(sp)
 4003870:	ad4003cc 	andi	r21,r21,15
 4003874:	040000c4 	movi	r16,3
 4003878:	1023883a 	mov	r17,r2
 400387c:	1829883a 	mov	r20,r3
 4003880:	a8001126 	beq	r21,zero,40038c8 <_dtoa_r+0x440>
 4003884:	05c10074 	movhi	r23,1025
 4003888:	bdfe0c04 	addi	r23,r23,-2000
 400388c:	4805883a 	mov	r2,r9
 4003890:	4007883a 	mov	r3,r8
 4003894:	a980004c 	andi	r6,r21,1
 4003898:	1009883a 	mov	r4,r2
 400389c:	a82bd07a 	srai	r21,r21,1
 40038a0:	180b883a 	mov	r5,r3
 40038a4:	30000426 	beq	r6,zero,40038b8 <_dtoa_r+0x430>
 40038a8:	b9800017 	ldw	r6,0(r23)
 40038ac:	b9c00117 	ldw	r7,4(r23)
 40038b0:	84000044 	addi	r16,r16,1
 40038b4:	400ba040 	call	400ba04 <__muldf3>
 40038b8:	bdc00204 	addi	r23,r23,8
 40038bc:	a83ff51e 	bne	r21,zero,4003894 <__ram_exceptions_end+0xfbffb650>
 40038c0:	1013883a 	mov	r9,r2
 40038c4:	1811883a 	mov	r8,r3
 40038c8:	480d883a 	mov	r6,r9
 40038cc:	400f883a 	mov	r7,r8
 40038d0:	8809883a 	mov	r4,r17
 40038d4:	a00b883a 	mov	r5,r20
 40038d8:	400aec40 	call	400aec4 <__divdf3>
 40038dc:	d8800f15 	stw	r2,60(sp)
 40038e0:	d8c01015 	stw	r3,64(sp)
 40038e4:	d8c00e17 	ldw	r3,56(sp)
 40038e8:	18000626 	beq	r3,zero,4003904 <_dtoa_r+0x47c>
 40038ec:	d9000f17 	ldw	r4,60(sp)
 40038f0:	d9401017 	ldw	r5,64(sp)
 40038f4:	000d883a 	mov	r6,zero
 40038f8:	01cffc34 	movhi	r7,16368
 40038fc:	400b9100 	call	400b910 <__ledf2>
 4003900:	10040b16 	blt	r2,zero,4004930 <_dtoa_r+0x14a8>
 4003904:	8009883a 	mov	r4,r16
 4003908:	400ca980 	call	400ca98 <__floatsidf>
 400390c:	d9800f17 	ldw	r6,60(sp)
 4003910:	d9c01017 	ldw	r7,64(sp)
 4003914:	1009883a 	mov	r4,r2
 4003918:	180b883a 	mov	r5,r3
 400391c:	400ba040 	call	400ba04 <__muldf3>
 4003920:	000d883a 	mov	r6,zero
 4003924:	01d00734 	movhi	r7,16412
 4003928:	1009883a 	mov	r4,r2
 400392c:	180b883a 	mov	r5,r3
 4003930:	400a6180 	call	400a618 <__adddf3>
 4003934:	1021883a 	mov	r16,r2
 4003938:	d8800617 	ldw	r2,24(sp)
 400393c:	047f3034 	movhi	r17,64704
 4003940:	1c63883a 	add	r17,r3,r17
 4003944:	10031826 	beq	r2,zero,40045a8 <_dtoa_r+0x1120>
 4003948:	d8c00517 	ldw	r3,20(sp)
 400394c:	db000617 	ldw	r12,24(sp)
 4003950:	d8c01315 	stw	r3,76(sp)
 4003954:	d9000b17 	ldw	r4,44(sp)
 4003958:	20038f26 	beq	r4,zero,4004798 <_dtoa_r+0x1310>
 400395c:	60bfffc4 	addi	r2,r12,-1
 4003960:	100490fa 	slli	r2,r2,3
 4003964:	00c10074 	movhi	r3,1025
 4003968:	18fe1604 	addi	r3,r3,-1960
 400396c:	1885883a 	add	r2,r3,r2
 4003970:	11800017 	ldw	r6,0(r2)
 4003974:	11c00117 	ldw	r7,4(r2)
 4003978:	d8800717 	ldw	r2,28(sp)
 400397c:	0009883a 	mov	r4,zero
 4003980:	014ff834 	movhi	r5,16352
 4003984:	db001615 	stw	r12,88(sp)
 4003988:	15c00044 	addi	r23,r2,1
 400398c:	400aec40 	call	400aec4 <__divdf3>
 4003990:	800d883a 	mov	r6,r16
 4003994:	880f883a 	mov	r7,r17
 4003998:	1009883a 	mov	r4,r2
 400399c:	180b883a 	mov	r5,r3
 40039a0:	400c11c0 	call	400c11c <__subdf3>
 40039a4:	d9401017 	ldw	r5,64(sp)
 40039a8:	d9000f17 	ldw	r4,60(sp)
 40039ac:	102b883a 	mov	r21,r2
 40039b0:	d8c01215 	stw	r3,72(sp)
 40039b4:	400ca180 	call	400ca18 <__fixdfsi>
 40039b8:	1009883a 	mov	r4,r2
 40039bc:	1029883a 	mov	r20,r2
 40039c0:	400ca980 	call	400ca98 <__floatsidf>
 40039c4:	d9000f17 	ldw	r4,60(sp)
 40039c8:	d9401017 	ldw	r5,64(sp)
 40039cc:	100d883a 	mov	r6,r2
 40039d0:	180f883a 	mov	r7,r3
 40039d4:	400c11c0 	call	400c11c <__subdf3>
 40039d8:	1823883a 	mov	r17,r3
 40039dc:	d8c00717 	ldw	r3,28(sp)
 40039e0:	d9401217 	ldw	r5,72(sp)
 40039e4:	a2000c04 	addi	r8,r20,48
 40039e8:	1021883a 	mov	r16,r2
 40039ec:	1a000005 	stb	r8,0(r3)
 40039f0:	800d883a 	mov	r6,r16
 40039f4:	880f883a 	mov	r7,r17
 40039f8:	a809883a 	mov	r4,r21
 40039fc:	4029883a 	mov	r20,r8
 4003a00:	400b8340 	call	400b834 <__gedf2>
 4003a04:	00841d16 	blt	zero,r2,4004a7c <_dtoa_r+0x15f4>
 4003a08:	800d883a 	mov	r6,r16
 4003a0c:	880f883a 	mov	r7,r17
 4003a10:	0009883a 	mov	r4,zero
 4003a14:	014ffc34 	movhi	r5,16368
 4003a18:	400c11c0 	call	400c11c <__subdf3>
 4003a1c:	d9401217 	ldw	r5,72(sp)
 4003a20:	100d883a 	mov	r6,r2
 4003a24:	180f883a 	mov	r7,r3
 4003a28:	a809883a 	mov	r4,r21
 4003a2c:	400b8340 	call	400b834 <__gedf2>
 4003a30:	db001617 	ldw	r12,88(sp)
 4003a34:	00840e16 	blt	zero,r2,4004a70 <_dtoa_r+0x15e8>
 4003a38:	00800044 	movi	r2,1
 4003a3c:	13006b0e 	bge	r2,r12,4003bec <_dtoa_r+0x764>
 4003a40:	d9000717 	ldw	r4,28(sp)
 4003a44:	dd800f15 	stw	r22,60(sp)
 4003a48:	dcc01015 	stw	r19,64(sp)
 4003a4c:	2319883a 	add	r12,r4,r12
 4003a50:	dcc01217 	ldw	r19,72(sp)
 4003a54:	602d883a 	mov	r22,r12
 4003a58:	dc801215 	stw	r18,72(sp)
 4003a5c:	b825883a 	mov	r18,r23
 4003a60:	00000906 	br	4003a88 <_dtoa_r+0x600>
 4003a64:	400c11c0 	call	400c11c <__subdf3>
 4003a68:	a80d883a 	mov	r6,r21
 4003a6c:	980f883a 	mov	r7,r19
 4003a70:	1009883a 	mov	r4,r2
 4003a74:	180b883a 	mov	r5,r3
 4003a78:	400b9100 	call	400b910 <__ledf2>
 4003a7c:	1003e816 	blt	r2,zero,4004a20 <_dtoa_r+0x1598>
 4003a80:	b825883a 	mov	r18,r23
 4003a84:	bd83e926 	beq	r23,r22,4004a2c <_dtoa_r+0x15a4>
 4003a88:	a809883a 	mov	r4,r21
 4003a8c:	980b883a 	mov	r5,r19
 4003a90:	000d883a 	mov	r6,zero
 4003a94:	01d00934 	movhi	r7,16420
 4003a98:	400ba040 	call	400ba04 <__muldf3>
 4003a9c:	000d883a 	mov	r6,zero
 4003aa0:	01d00934 	movhi	r7,16420
 4003aa4:	8009883a 	mov	r4,r16
 4003aa8:	880b883a 	mov	r5,r17
 4003aac:	102b883a 	mov	r21,r2
 4003ab0:	1827883a 	mov	r19,r3
 4003ab4:	400ba040 	call	400ba04 <__muldf3>
 4003ab8:	180b883a 	mov	r5,r3
 4003abc:	1009883a 	mov	r4,r2
 4003ac0:	1821883a 	mov	r16,r3
 4003ac4:	1023883a 	mov	r17,r2
 4003ac8:	400ca180 	call	400ca18 <__fixdfsi>
 4003acc:	1009883a 	mov	r4,r2
 4003ad0:	1029883a 	mov	r20,r2
 4003ad4:	400ca980 	call	400ca98 <__floatsidf>
 4003ad8:	8809883a 	mov	r4,r17
 4003adc:	800b883a 	mov	r5,r16
 4003ae0:	100d883a 	mov	r6,r2
 4003ae4:	180f883a 	mov	r7,r3
 4003ae8:	400c11c0 	call	400c11c <__subdf3>
 4003aec:	a5000c04 	addi	r20,r20,48
 4003af0:	a80d883a 	mov	r6,r21
 4003af4:	980f883a 	mov	r7,r19
 4003af8:	1009883a 	mov	r4,r2
 4003afc:	180b883a 	mov	r5,r3
 4003b00:	95000005 	stb	r20,0(r18)
 4003b04:	1021883a 	mov	r16,r2
 4003b08:	1823883a 	mov	r17,r3
 4003b0c:	400b9100 	call	400b910 <__ledf2>
 4003b10:	bdc00044 	addi	r23,r23,1
 4003b14:	800d883a 	mov	r6,r16
 4003b18:	880f883a 	mov	r7,r17
 4003b1c:	0009883a 	mov	r4,zero
 4003b20:	014ffc34 	movhi	r5,16368
 4003b24:	103fcf0e 	bge	r2,zero,4003a64 <__ram_exceptions_end+0xfbffb820>
 4003b28:	d8c01317 	ldw	r3,76(sp)
 4003b2c:	d8c00515 	stw	r3,20(sp)
 4003b30:	d9400917 	ldw	r5,36(sp)
 4003b34:	e009883a 	mov	r4,fp
 4003b38:	40061ec0 	call	40061ec <_Bfree>
 4003b3c:	d9000517 	ldw	r4,20(sp)
 4003b40:	d9802317 	ldw	r6,140(sp)
 4003b44:	d9c02517 	ldw	r7,148(sp)
 4003b48:	b8000005 	stb	zero,0(r23)
 4003b4c:	20800044 	addi	r2,r4,1
 4003b50:	30800015 	stw	r2,0(r6)
 4003b54:	3802aa26 	beq	r7,zero,4004600 <_dtoa_r+0x1178>
 4003b58:	3dc00015 	stw	r23,0(r7)
 4003b5c:	d8800717 	ldw	r2,28(sp)
 4003b60:	003e7906 	br	4003548 <__ram_exceptions_end+0xfbffb304>
 4003b64:	00800434 	movhi	r2,16
 4003b68:	10bfffc4 	addi	r2,r2,-1
 4003b6c:	88a2703a 	and	r17,r17,r2
 4003b70:	883e851e 	bne	r17,zero,4003588 <__ram_exceptions_end+0xfbffb344>
 4003b74:	00810074 	movhi	r2,1025
 4003b78:	10bdf704 	addi	r2,r2,-2084
 4003b7c:	003e8406 	br	4003590 <__ram_exceptions_end+0xfbffb34c>
 4003b80:	10c00204 	addi	r3,r2,8
 4003b84:	003e8706 	br	40035a4 <__ram_exceptions_end+0xfbffb360>
 4003b88:	01400434 	movhi	r5,16
 4003b8c:	297fffc4 	addi	r5,r5,-1
 4003b90:	994a703a 	and	r5,r19,r5
 4003b94:	9009883a 	mov	r4,r18
 4003b98:	843f0044 	addi	r16,r16,-1023
 4003b9c:	294ffc34 	orhi	r5,r5,16368
 4003ba0:	dd800217 	ldw	r22,8(sp)
 4003ba4:	d8001115 	stw	zero,68(sp)
 4003ba8:	003ea506 	br	4003640 <__ram_exceptions_end+0xfbffb3fc>
 4003bac:	00810074 	movhi	r2,1025
 4003bb0:	10bdee04 	addi	r2,r2,-2120
 4003bb4:	003e6406 	br	4003548 <__ram_exceptions_end+0xfbffb304>
 4003bb8:	e0001115 	stw	zero,68(fp)
 4003bbc:	000b883a 	mov	r5,zero
 4003bc0:	e009883a 	mov	r4,fp
 4003bc4:	40061440 	call	4006144 <_Balloc>
 4003bc8:	01bfffc4 	movi	r6,-1
 4003bcc:	01c00044 	movi	r7,1
 4003bd0:	d8800715 	stw	r2,28(sp)
 4003bd4:	d9800c15 	stw	r6,48(sp)
 4003bd8:	e0801015 	stw	r2,64(fp)
 4003bdc:	d8000315 	stw	zero,12(sp)
 4003be0:	d9c00b15 	stw	r7,44(sp)
 4003be4:	d9800615 	stw	r6,24(sp)
 4003be8:	d8002215 	stw	zero,136(sp)
 4003bec:	d8800117 	ldw	r2,4(sp)
 4003bf0:	10008916 	blt	r2,zero,4003e18 <_dtoa_r+0x990>
 4003bf4:	d9000517 	ldw	r4,20(sp)
 4003bf8:	00c00384 	movi	r3,14
 4003bfc:	19008616 	blt	r3,r4,4003e18 <_dtoa_r+0x990>
 4003c00:	200490fa 	slli	r2,r4,3
 4003c04:	00c10074 	movhi	r3,1025
 4003c08:	d9802217 	ldw	r6,136(sp)
 4003c0c:	18fe1604 	addi	r3,r3,-1960
 4003c10:	1885883a 	add	r2,r3,r2
 4003c14:	14000017 	ldw	r16,0(r2)
 4003c18:	14400117 	ldw	r17,4(r2)
 4003c1c:	30016316 	blt	r6,zero,40041ac <_dtoa_r+0xd24>
 4003c20:	800d883a 	mov	r6,r16
 4003c24:	880f883a 	mov	r7,r17
 4003c28:	9009883a 	mov	r4,r18
 4003c2c:	980b883a 	mov	r5,r19
 4003c30:	400aec40 	call	400aec4 <__divdf3>
 4003c34:	180b883a 	mov	r5,r3
 4003c38:	1009883a 	mov	r4,r2
 4003c3c:	400ca180 	call	400ca18 <__fixdfsi>
 4003c40:	1009883a 	mov	r4,r2
 4003c44:	102b883a 	mov	r21,r2
 4003c48:	400ca980 	call	400ca98 <__floatsidf>
 4003c4c:	800d883a 	mov	r6,r16
 4003c50:	880f883a 	mov	r7,r17
 4003c54:	1009883a 	mov	r4,r2
 4003c58:	180b883a 	mov	r5,r3
 4003c5c:	400ba040 	call	400ba04 <__muldf3>
 4003c60:	100d883a 	mov	r6,r2
 4003c64:	180f883a 	mov	r7,r3
 4003c68:	9009883a 	mov	r4,r18
 4003c6c:	980b883a 	mov	r5,r19
 4003c70:	400c11c0 	call	400c11c <__subdf3>
 4003c74:	d9c00717 	ldw	r7,28(sp)
 4003c78:	1009883a 	mov	r4,r2
 4003c7c:	a8800c04 	addi	r2,r21,48
 4003c80:	38800005 	stb	r2,0(r7)
 4003c84:	3dc00044 	addi	r23,r7,1
 4003c88:	d9c00617 	ldw	r7,24(sp)
 4003c8c:	01800044 	movi	r6,1
 4003c90:	180b883a 	mov	r5,r3
 4003c94:	2005883a 	mov	r2,r4
 4003c98:	39803826 	beq	r7,r6,4003d7c <_dtoa_r+0x8f4>
 4003c9c:	000d883a 	mov	r6,zero
 4003ca0:	01d00934 	movhi	r7,16420
 4003ca4:	400ba040 	call	400ba04 <__muldf3>
 4003ca8:	000d883a 	mov	r6,zero
 4003cac:	000f883a 	mov	r7,zero
 4003cb0:	1009883a 	mov	r4,r2
 4003cb4:	180b883a 	mov	r5,r3
 4003cb8:	1025883a 	mov	r18,r2
 4003cbc:	1827883a 	mov	r19,r3
 4003cc0:	400b7ac0 	call	400b7ac <__eqdf2>
 4003cc4:	103f9a26 	beq	r2,zero,4003b30 <__ram_exceptions_end+0xfbffb8ec>
 4003cc8:	d9c00617 	ldw	r7,24(sp)
 4003ccc:	d8c00717 	ldw	r3,28(sp)
 4003cd0:	b829883a 	mov	r20,r23
 4003cd4:	38bfffc4 	addi	r2,r7,-1
 4003cd8:	18ad883a 	add	r22,r3,r2
 4003cdc:	00000a06 	br	4003d08 <_dtoa_r+0x880>
 4003ce0:	400ba040 	call	400ba04 <__muldf3>
 4003ce4:	000d883a 	mov	r6,zero
 4003ce8:	000f883a 	mov	r7,zero
 4003cec:	1009883a 	mov	r4,r2
 4003cf0:	180b883a 	mov	r5,r3
 4003cf4:	1025883a 	mov	r18,r2
 4003cf8:	1827883a 	mov	r19,r3
 4003cfc:	b829883a 	mov	r20,r23
 4003d00:	400b7ac0 	call	400b7ac <__eqdf2>
 4003d04:	103f8a26 	beq	r2,zero,4003b30 <__ram_exceptions_end+0xfbffb8ec>
 4003d08:	800d883a 	mov	r6,r16
 4003d0c:	880f883a 	mov	r7,r17
 4003d10:	9009883a 	mov	r4,r18
 4003d14:	980b883a 	mov	r5,r19
 4003d18:	400aec40 	call	400aec4 <__divdf3>
 4003d1c:	180b883a 	mov	r5,r3
 4003d20:	1009883a 	mov	r4,r2
 4003d24:	400ca180 	call	400ca18 <__fixdfsi>
 4003d28:	1009883a 	mov	r4,r2
 4003d2c:	102b883a 	mov	r21,r2
 4003d30:	400ca980 	call	400ca98 <__floatsidf>
 4003d34:	800d883a 	mov	r6,r16
 4003d38:	880f883a 	mov	r7,r17
 4003d3c:	1009883a 	mov	r4,r2
 4003d40:	180b883a 	mov	r5,r3
 4003d44:	400ba040 	call	400ba04 <__muldf3>
 4003d48:	100d883a 	mov	r6,r2
 4003d4c:	180f883a 	mov	r7,r3
 4003d50:	9009883a 	mov	r4,r18
 4003d54:	980b883a 	mov	r5,r19
 4003d58:	400c11c0 	call	400c11c <__subdf3>
 4003d5c:	aa000c04 	addi	r8,r21,48
 4003d60:	a2000005 	stb	r8,0(r20)
 4003d64:	000d883a 	mov	r6,zero
 4003d68:	01d00934 	movhi	r7,16420
 4003d6c:	1009883a 	mov	r4,r2
 4003d70:	180b883a 	mov	r5,r3
 4003d74:	a5c00044 	addi	r23,r20,1
 4003d78:	b53fd91e 	bne	r22,r20,4003ce0 <__ram_exceptions_end+0xfbffba9c>
 4003d7c:	100d883a 	mov	r6,r2
 4003d80:	180f883a 	mov	r7,r3
 4003d84:	1009883a 	mov	r4,r2
 4003d88:	180b883a 	mov	r5,r3
 4003d8c:	400a6180 	call	400a618 <__adddf3>
 4003d90:	100d883a 	mov	r6,r2
 4003d94:	180f883a 	mov	r7,r3
 4003d98:	8009883a 	mov	r4,r16
 4003d9c:	880b883a 	mov	r5,r17
 4003da0:	1027883a 	mov	r19,r2
 4003da4:	1825883a 	mov	r18,r3
 4003da8:	400b9100 	call	400b910 <__ledf2>
 4003dac:	10000816 	blt	r2,zero,4003dd0 <_dtoa_r+0x948>
 4003db0:	980d883a 	mov	r6,r19
 4003db4:	900f883a 	mov	r7,r18
 4003db8:	8009883a 	mov	r4,r16
 4003dbc:	880b883a 	mov	r5,r17
 4003dc0:	400b7ac0 	call	400b7ac <__eqdf2>
 4003dc4:	103f5a1e 	bne	r2,zero,4003b30 <__ram_exceptions_end+0xfbffb8ec>
 4003dc8:	ad40004c 	andi	r21,r21,1
 4003dcc:	a83f5826 	beq	r21,zero,4003b30 <__ram_exceptions_end+0xfbffb8ec>
 4003dd0:	bd3fffc3 	ldbu	r20,-1(r23)
 4003dd4:	b8bfffc4 	addi	r2,r23,-1
 4003dd8:	1007883a 	mov	r3,r2
 4003ddc:	01400e44 	movi	r5,57
 4003de0:	d9800717 	ldw	r6,28(sp)
 4003de4:	00000506 	br	4003dfc <_dtoa_r+0x974>
 4003de8:	18ffffc4 	addi	r3,r3,-1
 4003dec:	11824726 	beq	r2,r6,400470c <_dtoa_r+0x1284>
 4003df0:	1d000003 	ldbu	r20,0(r3)
 4003df4:	102f883a 	mov	r23,r2
 4003df8:	10bfffc4 	addi	r2,r2,-1
 4003dfc:	a1003fcc 	andi	r4,r20,255
 4003e00:	2100201c 	xori	r4,r4,128
 4003e04:	213fe004 	addi	r4,r4,-128
 4003e08:	217ff726 	beq	r4,r5,4003de8 <__ram_exceptions_end+0xfbffbba4>
 4003e0c:	a2000044 	addi	r8,r20,1
 4003e10:	12000005 	stb	r8,0(r2)
 4003e14:	003f4606 	br	4003b30 <__ram_exceptions_end+0xfbffb8ec>
 4003e18:	d9000b17 	ldw	r4,44(sp)
 4003e1c:	2000c826 	beq	r4,zero,4004140 <_dtoa_r+0xcb8>
 4003e20:	d9800317 	ldw	r6,12(sp)
 4003e24:	00c00044 	movi	r3,1
 4003e28:	1980f90e 	bge	r3,r6,4004210 <_dtoa_r+0xd88>
 4003e2c:	d8800617 	ldw	r2,24(sp)
 4003e30:	d8c00a17 	ldw	r3,40(sp)
 4003e34:	157fffc4 	addi	r21,r2,-1
 4003e38:	1d41f316 	blt	r3,r21,4004608 <_dtoa_r+0x1180>
 4003e3c:	1d6bc83a 	sub	r21,r3,r21
 4003e40:	d9c00617 	ldw	r7,24(sp)
 4003e44:	3802aa16 	blt	r7,zero,40048f0 <_dtoa_r+0x1468>
 4003e48:	dd000817 	ldw	r20,32(sp)
 4003e4c:	d8800617 	ldw	r2,24(sp)
 4003e50:	d8c00817 	ldw	r3,32(sp)
 4003e54:	01400044 	movi	r5,1
 4003e58:	e009883a 	mov	r4,fp
 4003e5c:	1887883a 	add	r3,r3,r2
 4003e60:	d8c00815 	stw	r3,32(sp)
 4003e64:	b0ad883a 	add	r22,r22,r2
 4003e68:	40065500 	call	4006550 <__i2b>
 4003e6c:	1023883a 	mov	r17,r2
 4003e70:	a0000826 	beq	r20,zero,4003e94 <_dtoa_r+0xa0c>
 4003e74:	0580070e 	bge	zero,r22,4003e94 <_dtoa_r+0xa0c>
 4003e78:	a005883a 	mov	r2,r20
 4003e7c:	b500b916 	blt	r22,r20,4004164 <_dtoa_r+0xcdc>
 4003e80:	d9000817 	ldw	r4,32(sp)
 4003e84:	a0a9c83a 	sub	r20,r20,r2
 4003e88:	b0adc83a 	sub	r22,r22,r2
 4003e8c:	2089c83a 	sub	r4,r4,r2
 4003e90:	d9000815 	stw	r4,32(sp)
 4003e94:	d9800a17 	ldw	r6,40(sp)
 4003e98:	0181810e 	bge	zero,r6,40044a0 <_dtoa_r+0x1018>
 4003e9c:	d9c00b17 	ldw	r7,44(sp)
 4003ea0:	3800b326 	beq	r7,zero,4004170 <_dtoa_r+0xce8>
 4003ea4:	a800b226 	beq	r21,zero,4004170 <_dtoa_r+0xce8>
 4003ea8:	880b883a 	mov	r5,r17
 4003eac:	a80d883a 	mov	r6,r21
 4003eb0:	e009883a 	mov	r4,fp
 4003eb4:	40067840 	call	4006784 <__pow5mult>
 4003eb8:	d9800917 	ldw	r6,36(sp)
 4003ebc:	100b883a 	mov	r5,r2
 4003ec0:	e009883a 	mov	r4,fp
 4003ec4:	1023883a 	mov	r17,r2
 4003ec8:	400658c0 	call	400658c <__multiply>
 4003ecc:	1021883a 	mov	r16,r2
 4003ed0:	d8800a17 	ldw	r2,40(sp)
 4003ed4:	d9400917 	ldw	r5,36(sp)
 4003ed8:	e009883a 	mov	r4,fp
 4003edc:	1545c83a 	sub	r2,r2,r21
 4003ee0:	d8800a15 	stw	r2,40(sp)
 4003ee4:	40061ec0 	call	40061ec <_Bfree>
 4003ee8:	d8c00a17 	ldw	r3,40(sp)
 4003eec:	18009f1e 	bne	r3,zero,400416c <_dtoa_r+0xce4>
 4003ef0:	05c00044 	movi	r23,1
 4003ef4:	e009883a 	mov	r4,fp
 4003ef8:	b80b883a 	mov	r5,r23
 4003efc:	40065500 	call	4006550 <__i2b>
 4003f00:	d9000d17 	ldw	r4,52(sp)
 4003f04:	102b883a 	mov	r21,r2
 4003f08:	2000ce26 	beq	r4,zero,4004244 <_dtoa_r+0xdbc>
 4003f0c:	200d883a 	mov	r6,r4
 4003f10:	100b883a 	mov	r5,r2
 4003f14:	e009883a 	mov	r4,fp
 4003f18:	40067840 	call	4006784 <__pow5mult>
 4003f1c:	d9800317 	ldw	r6,12(sp)
 4003f20:	102b883a 	mov	r21,r2
 4003f24:	b981810e 	bge	r23,r6,400452c <_dtoa_r+0x10a4>
 4003f28:	0027883a 	mov	r19,zero
 4003f2c:	a8800417 	ldw	r2,16(r21)
 4003f30:	05c00804 	movi	r23,32
 4003f34:	10800104 	addi	r2,r2,4
 4003f38:	1085883a 	add	r2,r2,r2
 4003f3c:	1085883a 	add	r2,r2,r2
 4003f40:	a885883a 	add	r2,r21,r2
 4003f44:	11000017 	ldw	r4,0(r2)
 4003f48:	40064380 	call	4006438 <__hi0bits>
 4003f4c:	b885c83a 	sub	r2,r23,r2
 4003f50:	1585883a 	add	r2,r2,r22
 4003f54:	108007cc 	andi	r2,r2,31
 4003f58:	1000b326 	beq	r2,zero,4004228 <_dtoa_r+0xda0>
 4003f5c:	00c00804 	movi	r3,32
 4003f60:	1887c83a 	sub	r3,r3,r2
 4003f64:	01000104 	movi	r4,4
 4003f68:	20c2cd0e 	bge	r4,r3,4004aa0 <_dtoa_r+0x1618>
 4003f6c:	00c00704 	movi	r3,28
 4003f70:	1885c83a 	sub	r2,r3,r2
 4003f74:	d8c00817 	ldw	r3,32(sp)
 4003f78:	a0a9883a 	add	r20,r20,r2
 4003f7c:	b0ad883a 	add	r22,r22,r2
 4003f80:	1887883a 	add	r3,r3,r2
 4003f84:	d8c00815 	stw	r3,32(sp)
 4003f88:	d9800817 	ldw	r6,32(sp)
 4003f8c:	0180040e 	bge	zero,r6,4003fa0 <_dtoa_r+0xb18>
 4003f90:	800b883a 	mov	r5,r16
 4003f94:	e009883a 	mov	r4,fp
 4003f98:	40068c40 	call	40068c4 <__lshift>
 4003f9c:	1021883a 	mov	r16,r2
 4003fa0:	0580050e 	bge	zero,r22,4003fb8 <_dtoa_r+0xb30>
 4003fa4:	a80b883a 	mov	r5,r21
 4003fa8:	b00d883a 	mov	r6,r22
 4003fac:	e009883a 	mov	r4,fp
 4003fb0:	40068c40 	call	40068c4 <__lshift>
 4003fb4:	102b883a 	mov	r21,r2
 4003fb8:	d9c00e17 	ldw	r7,56(sp)
 4003fbc:	3801211e 	bne	r7,zero,4004444 <_dtoa_r+0xfbc>
 4003fc0:	d9800617 	ldw	r6,24(sp)
 4003fc4:	0181380e 	bge	zero,r6,40044a8 <_dtoa_r+0x1020>
 4003fc8:	d8c00b17 	ldw	r3,44(sp)
 4003fcc:	1800ab1e 	bne	r3,zero,400427c <_dtoa_r+0xdf4>
 4003fd0:	dc800717 	ldw	r18,28(sp)
 4003fd4:	dcc00617 	ldw	r19,24(sp)
 4003fd8:	9029883a 	mov	r20,r18
 4003fdc:	00000206 	br	4003fe8 <_dtoa_r+0xb60>
 4003fe0:	40062140 	call	4006214 <__multadd>
 4003fe4:	1021883a 	mov	r16,r2
 4003fe8:	a80b883a 	mov	r5,r21
 4003fec:	8009883a 	mov	r4,r16
 4003ff0:	40032880 	call	4003288 <quorem>
 4003ff4:	10800c04 	addi	r2,r2,48
 4003ff8:	90800005 	stb	r2,0(r18)
 4003ffc:	94800044 	addi	r18,r18,1
 4004000:	9507c83a 	sub	r3,r18,r20
 4004004:	000f883a 	mov	r7,zero
 4004008:	01800284 	movi	r6,10
 400400c:	800b883a 	mov	r5,r16
 4004010:	e009883a 	mov	r4,fp
 4004014:	1cfff216 	blt	r3,r19,4003fe0 <__ram_exceptions_end+0xfbffbd9c>
 4004018:	1011883a 	mov	r8,r2
 400401c:	d8800617 	ldw	r2,24(sp)
 4004020:	0082370e 	bge	zero,r2,4004900 <_dtoa_r+0x1478>
 4004024:	d9000717 	ldw	r4,28(sp)
 4004028:	0025883a 	mov	r18,zero
 400402c:	20af883a 	add	r23,r4,r2
 4004030:	01800044 	movi	r6,1
 4004034:	800b883a 	mov	r5,r16
 4004038:	e009883a 	mov	r4,fp
 400403c:	da001715 	stw	r8,92(sp)
 4004040:	40068c40 	call	40068c4 <__lshift>
 4004044:	a80b883a 	mov	r5,r21
 4004048:	1009883a 	mov	r4,r2
 400404c:	d8800915 	stw	r2,36(sp)
 4004050:	4006a0c0 	call	4006a0c <__mcmp>
 4004054:	da001717 	ldw	r8,92(sp)
 4004058:	0081800e 	bge	zero,r2,400465c <_dtoa_r+0x11d4>
 400405c:	b93fffc3 	ldbu	r4,-1(r23)
 4004060:	b8bfffc4 	addi	r2,r23,-1
 4004064:	1007883a 	mov	r3,r2
 4004068:	01800e44 	movi	r6,57
 400406c:	d9c00717 	ldw	r7,28(sp)
 4004070:	00000506 	br	4004088 <_dtoa_r+0xc00>
 4004074:	18ffffc4 	addi	r3,r3,-1
 4004078:	11c12326 	beq	r2,r7,4004508 <_dtoa_r+0x1080>
 400407c:	19000003 	ldbu	r4,0(r3)
 4004080:	102f883a 	mov	r23,r2
 4004084:	10bfffc4 	addi	r2,r2,-1
 4004088:	21403fcc 	andi	r5,r4,255
 400408c:	2940201c 	xori	r5,r5,128
 4004090:	297fe004 	addi	r5,r5,-128
 4004094:	29bff726 	beq	r5,r6,4004074 <__ram_exceptions_end+0xfbffbe30>
 4004098:	21000044 	addi	r4,r4,1
 400409c:	11000005 	stb	r4,0(r2)
 40040a0:	a80b883a 	mov	r5,r21
 40040a4:	e009883a 	mov	r4,fp
 40040a8:	40061ec0 	call	40061ec <_Bfree>
 40040ac:	883ea026 	beq	r17,zero,4003b30 <__ram_exceptions_end+0xfbffb8ec>
 40040b0:	90000426 	beq	r18,zero,40040c4 <_dtoa_r+0xc3c>
 40040b4:	94400326 	beq	r18,r17,40040c4 <_dtoa_r+0xc3c>
 40040b8:	900b883a 	mov	r5,r18
 40040bc:	e009883a 	mov	r4,fp
 40040c0:	40061ec0 	call	40061ec <_Bfree>
 40040c4:	880b883a 	mov	r5,r17
 40040c8:	e009883a 	mov	r4,fp
 40040cc:	40061ec0 	call	40061ec <_Bfree>
 40040d0:	003e9706 	br	4003b30 <__ram_exceptions_end+0xfbffb8ec>
 40040d4:	01800044 	movi	r6,1
 40040d8:	d9800e15 	stw	r6,56(sp)
 40040dc:	003d9606 	br	4003738 <__ram_exceptions_end+0xfbffb4f4>
 40040e0:	d8800817 	ldw	r2,32(sp)
 40040e4:	d8c00517 	ldw	r3,20(sp)
 40040e8:	d8000d15 	stw	zero,52(sp)
 40040ec:	10c5c83a 	sub	r2,r2,r3
 40040f0:	00c9c83a 	sub	r4,zero,r3
 40040f4:	d8800815 	stw	r2,32(sp)
 40040f8:	d9000a15 	stw	r4,40(sp)
 40040fc:	003d9706 	br	400375c <__ram_exceptions_end+0xfbffb518>
 4004100:	05adc83a 	sub	r22,zero,r22
 4004104:	dd800815 	stw	r22,32(sp)
 4004108:	002d883a 	mov	r22,zero
 400410c:	003d8e06 	br	4003748 <__ram_exceptions_end+0xfbffb504>
 4004110:	d9000517 	ldw	r4,20(sp)
 4004114:	400ca980 	call	400ca98 <__floatsidf>
 4004118:	100d883a 	mov	r6,r2
 400411c:	180f883a 	mov	r7,r3
 4004120:	a009883a 	mov	r4,r20
 4004124:	880b883a 	mov	r5,r17
 4004128:	400b7ac0 	call	400b7ac <__eqdf2>
 400412c:	103d7126 	beq	r2,zero,40036f4 <__ram_exceptions_end+0xfbffb4b0>
 4004130:	d9c00517 	ldw	r7,20(sp)
 4004134:	39ffffc4 	addi	r7,r7,-1
 4004138:	d9c00515 	stw	r7,20(sp)
 400413c:	003d6d06 	br	40036f4 <__ram_exceptions_end+0xfbffb4b0>
 4004140:	dd400a17 	ldw	r21,40(sp)
 4004144:	dd000817 	ldw	r20,32(sp)
 4004148:	0023883a 	mov	r17,zero
 400414c:	003f4806 	br	4003e70 <__ram_exceptions_end+0xfbffbc2c>
 4004150:	10e3c83a 	sub	r17,r2,r3
 4004154:	9448983a 	sll	r4,r18,r17
 4004158:	003d3206 	br	4003624 <__ram_exceptions_end+0xfbffb3e0>
 400415c:	d8000e15 	stw	zero,56(sp)
 4004160:	003d7506 	br	4003738 <__ram_exceptions_end+0xfbffb4f4>
 4004164:	b005883a 	mov	r2,r22
 4004168:	003f4506 	br	4003e80 <__ram_exceptions_end+0xfbffbc3c>
 400416c:	dc000915 	stw	r16,36(sp)
 4004170:	d9800a17 	ldw	r6,40(sp)
 4004174:	d9400917 	ldw	r5,36(sp)
 4004178:	e009883a 	mov	r4,fp
 400417c:	40067840 	call	4006784 <__pow5mult>
 4004180:	1021883a 	mov	r16,r2
 4004184:	003f5a06 	br	4003ef0 <__ram_exceptions_end+0xfbffbcac>
 4004188:	01c00044 	movi	r7,1
 400418c:	d9c00b15 	stw	r7,44(sp)
 4004190:	d8802217 	ldw	r2,136(sp)
 4004194:	0081280e 	bge	zero,r2,4004638 <_dtoa_r+0x11b0>
 4004198:	100d883a 	mov	r6,r2
 400419c:	1021883a 	mov	r16,r2
 40041a0:	d8800c15 	stw	r2,48(sp)
 40041a4:	d8800615 	stw	r2,24(sp)
 40041a8:	003d8806 	br	40037cc <__ram_exceptions_end+0xfbffb588>
 40041ac:	d8800617 	ldw	r2,24(sp)
 40041b0:	00be9b16 	blt	zero,r2,4003c20 <__ram_exceptions_end+0xfbffb9dc>
 40041b4:	10010f1e 	bne	r2,zero,40045f4 <_dtoa_r+0x116c>
 40041b8:	880b883a 	mov	r5,r17
 40041bc:	000d883a 	mov	r6,zero
 40041c0:	01d00534 	movhi	r7,16404
 40041c4:	8009883a 	mov	r4,r16
 40041c8:	400ba040 	call	400ba04 <__muldf3>
 40041cc:	900d883a 	mov	r6,r18
 40041d0:	980f883a 	mov	r7,r19
 40041d4:	1009883a 	mov	r4,r2
 40041d8:	180b883a 	mov	r5,r3
 40041dc:	400b8340 	call	400b834 <__gedf2>
 40041e0:	002b883a 	mov	r21,zero
 40041e4:	0023883a 	mov	r17,zero
 40041e8:	1000bf16 	blt	r2,zero,40044e8 <_dtoa_r+0x1060>
 40041ec:	d9802217 	ldw	r6,136(sp)
 40041f0:	ddc00717 	ldw	r23,28(sp)
 40041f4:	018c303a 	nor	r6,zero,r6
 40041f8:	d9800515 	stw	r6,20(sp)
 40041fc:	a80b883a 	mov	r5,r21
 4004200:	e009883a 	mov	r4,fp
 4004204:	40061ec0 	call	40061ec <_Bfree>
 4004208:	883e4926 	beq	r17,zero,4003b30 <__ram_exceptions_end+0xfbffb8ec>
 400420c:	003fad06 	br	40040c4 <__ram_exceptions_end+0xfbffbe80>
 4004210:	d9c01117 	ldw	r7,68(sp)
 4004214:	3801bc26 	beq	r7,zero,4004908 <_dtoa_r+0x1480>
 4004218:	10810cc4 	addi	r2,r2,1075
 400421c:	dd400a17 	ldw	r21,40(sp)
 4004220:	dd000817 	ldw	r20,32(sp)
 4004224:	003f0a06 	br	4003e50 <__ram_exceptions_end+0xfbffbc0c>
 4004228:	00800704 	movi	r2,28
 400422c:	d9000817 	ldw	r4,32(sp)
 4004230:	a0a9883a 	add	r20,r20,r2
 4004234:	b0ad883a 	add	r22,r22,r2
 4004238:	2089883a 	add	r4,r4,r2
 400423c:	d9000815 	stw	r4,32(sp)
 4004240:	003f5106 	br	4003f88 <__ram_exceptions_end+0xfbffbd44>
 4004244:	d8c00317 	ldw	r3,12(sp)
 4004248:	b8c1fc0e 	bge	r23,r3,4004a3c <_dtoa_r+0x15b4>
 400424c:	0027883a 	mov	r19,zero
 4004250:	b805883a 	mov	r2,r23
 4004254:	003f3e06 	br	4003f50 <__ram_exceptions_end+0xfbffbd0c>
 4004258:	880b883a 	mov	r5,r17
 400425c:	e009883a 	mov	r4,fp
 4004260:	000f883a 	mov	r7,zero
 4004264:	01800284 	movi	r6,10
 4004268:	40062140 	call	4006214 <__multadd>
 400426c:	d9000c17 	ldw	r4,48(sp)
 4004270:	1023883a 	mov	r17,r2
 4004274:	0102040e 	bge	zero,r4,4004a88 <_dtoa_r+0x1600>
 4004278:	d9000615 	stw	r4,24(sp)
 400427c:	0500050e 	bge	zero,r20,4004294 <_dtoa_r+0xe0c>
 4004280:	880b883a 	mov	r5,r17
 4004284:	a00d883a 	mov	r6,r20
 4004288:	e009883a 	mov	r4,fp
 400428c:	40068c40 	call	40068c4 <__lshift>
 4004290:	1023883a 	mov	r17,r2
 4004294:	9801241e 	bne	r19,zero,4004728 <_dtoa_r+0x12a0>
 4004298:	8829883a 	mov	r20,r17
 400429c:	d9000617 	ldw	r4,24(sp)
 40042a0:	dcc00717 	ldw	r19,28(sp)
 40042a4:	9480004c 	andi	r18,r18,1
 40042a8:	20bfffc4 	addi	r2,r4,-1
 40042ac:	9885883a 	add	r2,r19,r2
 40042b0:	d8800415 	stw	r2,16(sp)
 40042b4:	dc800615 	stw	r18,24(sp)
 40042b8:	a80b883a 	mov	r5,r21
 40042bc:	8009883a 	mov	r4,r16
 40042c0:	40032880 	call	4003288 <quorem>
 40042c4:	880b883a 	mov	r5,r17
 40042c8:	8009883a 	mov	r4,r16
 40042cc:	102f883a 	mov	r23,r2
 40042d0:	4006a0c0 	call	4006a0c <__mcmp>
 40042d4:	a80b883a 	mov	r5,r21
 40042d8:	a00d883a 	mov	r6,r20
 40042dc:	e009883a 	mov	r4,fp
 40042e0:	102d883a 	mov	r22,r2
 40042e4:	4006a6c0 	call	4006a6c <__mdiff>
 40042e8:	1007883a 	mov	r3,r2
 40042ec:	10800317 	ldw	r2,12(r2)
 40042f0:	bc800c04 	addi	r18,r23,48
 40042f4:	180b883a 	mov	r5,r3
 40042f8:	10004e1e 	bne	r2,zero,4004434 <_dtoa_r+0xfac>
 40042fc:	8009883a 	mov	r4,r16
 4004300:	d8c01615 	stw	r3,88(sp)
 4004304:	4006a0c0 	call	4006a0c <__mcmp>
 4004308:	d8c01617 	ldw	r3,88(sp)
 400430c:	e009883a 	mov	r4,fp
 4004310:	d8801615 	stw	r2,88(sp)
 4004314:	180b883a 	mov	r5,r3
 4004318:	40061ec0 	call	40061ec <_Bfree>
 400431c:	d8801617 	ldw	r2,88(sp)
 4004320:	1000041e 	bne	r2,zero,4004334 <_dtoa_r+0xeac>
 4004324:	d9800317 	ldw	r6,12(sp)
 4004328:	3000021e 	bne	r6,zero,4004334 <_dtoa_r+0xeac>
 400432c:	d8c00617 	ldw	r3,24(sp)
 4004330:	18003726 	beq	r3,zero,4004410 <_dtoa_r+0xf88>
 4004334:	b0002016 	blt	r22,zero,40043b8 <_dtoa_r+0xf30>
 4004338:	b000041e 	bne	r22,zero,400434c <_dtoa_r+0xec4>
 400433c:	d9000317 	ldw	r4,12(sp)
 4004340:	2000021e 	bne	r4,zero,400434c <_dtoa_r+0xec4>
 4004344:	d8c00617 	ldw	r3,24(sp)
 4004348:	18001b26 	beq	r3,zero,40043b8 <_dtoa_r+0xf30>
 400434c:	00810716 	blt	zero,r2,400476c <_dtoa_r+0x12e4>
 4004350:	d8c00417 	ldw	r3,16(sp)
 4004354:	9d800044 	addi	r22,r19,1
 4004358:	9c800005 	stb	r18,0(r19)
 400435c:	b02f883a 	mov	r23,r22
 4004360:	98c10626 	beq	r19,r3,400477c <_dtoa_r+0x12f4>
 4004364:	800b883a 	mov	r5,r16
 4004368:	000f883a 	mov	r7,zero
 400436c:	01800284 	movi	r6,10
 4004370:	e009883a 	mov	r4,fp
 4004374:	40062140 	call	4006214 <__multadd>
 4004378:	1021883a 	mov	r16,r2
 400437c:	000f883a 	mov	r7,zero
 4004380:	01800284 	movi	r6,10
 4004384:	880b883a 	mov	r5,r17
 4004388:	e009883a 	mov	r4,fp
 400438c:	8d002526 	beq	r17,r20,4004424 <_dtoa_r+0xf9c>
 4004390:	40062140 	call	4006214 <__multadd>
 4004394:	a00b883a 	mov	r5,r20
 4004398:	000f883a 	mov	r7,zero
 400439c:	01800284 	movi	r6,10
 40043a0:	e009883a 	mov	r4,fp
 40043a4:	1023883a 	mov	r17,r2
 40043a8:	40062140 	call	4006214 <__multadd>
 40043ac:	1029883a 	mov	r20,r2
 40043b0:	b027883a 	mov	r19,r22
 40043b4:	003fc006 	br	40042b8 <__ram_exceptions_end+0xfbffc074>
 40043b8:	9011883a 	mov	r8,r18
 40043bc:	00800e0e 	bge	zero,r2,40043f8 <_dtoa_r+0xf70>
 40043c0:	800b883a 	mov	r5,r16
 40043c4:	01800044 	movi	r6,1
 40043c8:	e009883a 	mov	r4,fp
 40043cc:	da001715 	stw	r8,92(sp)
 40043d0:	40068c40 	call	40068c4 <__lshift>
 40043d4:	a80b883a 	mov	r5,r21
 40043d8:	1009883a 	mov	r4,r2
 40043dc:	1021883a 	mov	r16,r2
 40043e0:	4006a0c0 	call	4006a0c <__mcmp>
 40043e4:	da001717 	ldw	r8,92(sp)
 40043e8:	0081960e 	bge	zero,r2,4004a44 <_dtoa_r+0x15bc>
 40043ec:	00800e44 	movi	r2,57
 40043f0:	40817026 	beq	r8,r2,40049b4 <_dtoa_r+0x152c>
 40043f4:	ba000c44 	addi	r8,r23,49
 40043f8:	8825883a 	mov	r18,r17
 40043fc:	9dc00044 	addi	r23,r19,1
 4004400:	9a000005 	stb	r8,0(r19)
 4004404:	a023883a 	mov	r17,r20
 4004408:	dc000915 	stw	r16,36(sp)
 400440c:	003f2406 	br	40040a0 <__ram_exceptions_end+0xfbffbe5c>
 4004410:	00800e44 	movi	r2,57
 4004414:	9011883a 	mov	r8,r18
 4004418:	90816626 	beq	r18,r2,40049b4 <_dtoa_r+0x152c>
 400441c:	05bff516 	blt	zero,r22,40043f4 <__ram_exceptions_end+0xfbffc1b0>
 4004420:	003ff506 	br	40043f8 <__ram_exceptions_end+0xfbffc1b4>
 4004424:	40062140 	call	4006214 <__multadd>
 4004428:	1023883a 	mov	r17,r2
 400442c:	1029883a 	mov	r20,r2
 4004430:	003fdf06 	br	40043b0 <__ram_exceptions_end+0xfbffc16c>
 4004434:	e009883a 	mov	r4,fp
 4004438:	40061ec0 	call	40061ec <_Bfree>
 400443c:	00800044 	movi	r2,1
 4004440:	003fbc06 	br	4004334 <__ram_exceptions_end+0xfbffc0f0>
 4004444:	a80b883a 	mov	r5,r21
 4004448:	8009883a 	mov	r4,r16
 400444c:	4006a0c0 	call	4006a0c <__mcmp>
 4004450:	103edb0e 	bge	r2,zero,4003fc0 <__ram_exceptions_end+0xfbffbd7c>
 4004454:	800b883a 	mov	r5,r16
 4004458:	000f883a 	mov	r7,zero
 400445c:	01800284 	movi	r6,10
 4004460:	e009883a 	mov	r4,fp
 4004464:	40062140 	call	4006214 <__multadd>
 4004468:	1021883a 	mov	r16,r2
 400446c:	d8800517 	ldw	r2,20(sp)
 4004470:	d8c00b17 	ldw	r3,44(sp)
 4004474:	10bfffc4 	addi	r2,r2,-1
 4004478:	d8800515 	stw	r2,20(sp)
 400447c:	183f761e 	bne	r3,zero,4004258 <__ram_exceptions_end+0xfbffc014>
 4004480:	d9000c17 	ldw	r4,48(sp)
 4004484:	0101730e 	bge	zero,r4,4004a54 <_dtoa_r+0x15cc>
 4004488:	d9000615 	stw	r4,24(sp)
 400448c:	003ed006 	br	4003fd0 <__ram_exceptions_end+0xfbffbd8c>
 4004490:	00800084 	movi	r2,2
 4004494:	3081861e 	bne	r6,r2,4004ab0 <_dtoa_r+0x1628>
 4004498:	d8000b15 	stw	zero,44(sp)
 400449c:	003f3c06 	br	4004190 <__ram_exceptions_end+0xfbffbf4c>
 40044a0:	dc000917 	ldw	r16,36(sp)
 40044a4:	003e9206 	br	4003ef0 <__ram_exceptions_end+0xfbffbcac>
 40044a8:	d9c00317 	ldw	r7,12(sp)
 40044ac:	00800084 	movi	r2,2
 40044b0:	11fec50e 	bge	r2,r7,4003fc8 <__ram_exceptions_end+0xfbffbd84>
 40044b4:	d9000617 	ldw	r4,24(sp)
 40044b8:	20013c1e 	bne	r4,zero,40049ac <_dtoa_r+0x1524>
 40044bc:	a80b883a 	mov	r5,r21
 40044c0:	000f883a 	mov	r7,zero
 40044c4:	01800144 	movi	r6,5
 40044c8:	e009883a 	mov	r4,fp
 40044cc:	40062140 	call	4006214 <__multadd>
 40044d0:	100b883a 	mov	r5,r2
 40044d4:	8009883a 	mov	r4,r16
 40044d8:	102b883a 	mov	r21,r2
 40044dc:	4006a0c0 	call	4006a0c <__mcmp>
 40044e0:	dc000915 	stw	r16,36(sp)
 40044e4:	00bf410e 	bge	zero,r2,40041ec <__ram_exceptions_end+0xfbffbfa8>
 40044e8:	d9c00717 	ldw	r7,28(sp)
 40044ec:	00800c44 	movi	r2,49
 40044f0:	38800005 	stb	r2,0(r7)
 40044f4:	d8800517 	ldw	r2,20(sp)
 40044f8:	3dc00044 	addi	r23,r7,1
 40044fc:	10800044 	addi	r2,r2,1
 4004500:	d8800515 	stw	r2,20(sp)
 4004504:	003f3d06 	br	40041fc <__ram_exceptions_end+0xfbffbfb8>
 4004508:	d9800517 	ldw	r6,20(sp)
 400450c:	d9c00717 	ldw	r7,28(sp)
 4004510:	00800c44 	movi	r2,49
 4004514:	31800044 	addi	r6,r6,1
 4004518:	d9800515 	stw	r6,20(sp)
 400451c:	38800005 	stb	r2,0(r7)
 4004520:	003edf06 	br	40040a0 <__ram_exceptions_end+0xfbffbe5c>
 4004524:	d8000b15 	stw	zero,44(sp)
 4004528:	003c9f06 	br	40037a8 <__ram_exceptions_end+0xfbffb564>
 400452c:	903e7e1e 	bne	r18,zero,4003f28 <__ram_exceptions_end+0xfbffbce4>
 4004530:	00800434 	movhi	r2,16
 4004534:	10bfffc4 	addi	r2,r2,-1
 4004538:	9884703a 	and	r2,r19,r2
 400453c:	1000ea1e 	bne	r2,zero,40048e8 <_dtoa_r+0x1460>
 4004540:	9cdffc2c 	andhi	r19,r19,32752
 4004544:	9800e826 	beq	r19,zero,40048e8 <_dtoa_r+0x1460>
 4004548:	d9c00817 	ldw	r7,32(sp)
 400454c:	b5800044 	addi	r22,r22,1
 4004550:	04c00044 	movi	r19,1
 4004554:	39c00044 	addi	r7,r7,1
 4004558:	d9c00815 	stw	r7,32(sp)
 400455c:	d8800d17 	ldw	r2,52(sp)
 4004560:	103e721e 	bne	r2,zero,4003f2c <__ram_exceptions_end+0xfbffbce8>
 4004564:	00800044 	movi	r2,1
 4004568:	003e7906 	br	4003f50 <__ram_exceptions_end+0xfbffbd0c>
 400456c:	8009883a 	mov	r4,r16
 4004570:	400ca980 	call	400ca98 <__floatsidf>
 4004574:	d9800f17 	ldw	r6,60(sp)
 4004578:	d9c01017 	ldw	r7,64(sp)
 400457c:	1009883a 	mov	r4,r2
 4004580:	180b883a 	mov	r5,r3
 4004584:	400ba040 	call	400ba04 <__muldf3>
 4004588:	000d883a 	mov	r6,zero
 400458c:	01d00734 	movhi	r7,16412
 4004590:	1009883a 	mov	r4,r2
 4004594:	180b883a 	mov	r5,r3
 4004598:	400a6180 	call	400a618 <__adddf3>
 400459c:	047f3034 	movhi	r17,64704
 40045a0:	1021883a 	mov	r16,r2
 40045a4:	1c63883a 	add	r17,r3,r17
 40045a8:	d9000f17 	ldw	r4,60(sp)
 40045ac:	d9401017 	ldw	r5,64(sp)
 40045b0:	000d883a 	mov	r6,zero
 40045b4:	01d00534 	movhi	r7,16404
 40045b8:	400c11c0 	call	400c11c <__subdf3>
 40045bc:	800d883a 	mov	r6,r16
 40045c0:	880f883a 	mov	r7,r17
 40045c4:	1009883a 	mov	r4,r2
 40045c8:	180b883a 	mov	r5,r3
 40045cc:	102b883a 	mov	r21,r2
 40045d0:	1829883a 	mov	r20,r3
 40045d4:	400b8340 	call	400b834 <__gedf2>
 40045d8:	00806c16 	blt	zero,r2,400478c <_dtoa_r+0x1304>
 40045dc:	89e0003c 	xorhi	r7,r17,32768
 40045e0:	800d883a 	mov	r6,r16
 40045e4:	a809883a 	mov	r4,r21
 40045e8:	a00b883a 	mov	r5,r20
 40045ec:	400b9100 	call	400b910 <__ledf2>
 40045f0:	103d7e0e 	bge	r2,zero,4003bec <__ram_exceptions_end+0xfbffb9a8>
 40045f4:	002b883a 	mov	r21,zero
 40045f8:	0023883a 	mov	r17,zero
 40045fc:	003efb06 	br	40041ec <__ram_exceptions_end+0xfbffbfa8>
 4004600:	d8800717 	ldw	r2,28(sp)
 4004604:	003bd006 	br	4003548 <__ram_exceptions_end+0xfbffb304>
 4004608:	d9000a17 	ldw	r4,40(sp)
 400460c:	d9800d17 	ldw	r6,52(sp)
 4004610:	dd400a15 	stw	r21,40(sp)
 4004614:	a905c83a 	sub	r2,r21,r4
 4004618:	308d883a 	add	r6,r6,r2
 400461c:	d9800d15 	stw	r6,52(sp)
 4004620:	002b883a 	mov	r21,zero
 4004624:	003e0606 	br	4003e40 <__ram_exceptions_end+0xfbffbbfc>
 4004628:	9023883a 	mov	r17,r18
 400462c:	9829883a 	mov	r20,r19
 4004630:	04000084 	movi	r16,2
 4004634:	003c9206 	br	4003880 <__ram_exceptions_end+0xfbffb63c>
 4004638:	04000044 	movi	r16,1
 400463c:	dc000c15 	stw	r16,48(sp)
 4004640:	dc000615 	stw	r16,24(sp)
 4004644:	dc002215 	stw	r16,136(sp)
 4004648:	e0001115 	stw	zero,68(fp)
 400464c:	000b883a 	mov	r5,zero
 4004650:	003c6906 	br	40037f8 <__ram_exceptions_end+0xfbffb5b4>
 4004654:	3021883a 	mov	r16,r6
 4004658:	003ffb06 	br	4004648 <__ram_exceptions_end+0xfbffc404>
 400465c:	1000021e 	bne	r2,zero,4004668 <_dtoa_r+0x11e0>
 4004660:	4200004c 	andi	r8,r8,1
 4004664:	403e7d1e 	bne	r8,zero,400405c <__ram_exceptions_end+0xfbffbe18>
 4004668:	01000c04 	movi	r4,48
 400466c:	00000106 	br	4004674 <_dtoa_r+0x11ec>
 4004670:	102f883a 	mov	r23,r2
 4004674:	b8bfffc4 	addi	r2,r23,-1
 4004678:	10c00007 	ldb	r3,0(r2)
 400467c:	193ffc26 	beq	r3,r4,4004670 <__ram_exceptions_end+0xfbffc42c>
 4004680:	003e8706 	br	40040a0 <__ram_exceptions_end+0xfbffbe5c>
 4004684:	d8800517 	ldw	r2,20(sp)
 4004688:	00a3c83a 	sub	r17,zero,r2
 400468c:	8800a426 	beq	r17,zero,4004920 <_dtoa_r+0x1498>
 4004690:	888003cc 	andi	r2,r17,15
 4004694:	100490fa 	slli	r2,r2,3
 4004698:	00c10074 	movhi	r3,1025
 400469c:	18fe1604 	addi	r3,r3,-1960
 40046a0:	1885883a 	add	r2,r3,r2
 40046a4:	11800017 	ldw	r6,0(r2)
 40046a8:	11c00117 	ldw	r7,4(r2)
 40046ac:	9009883a 	mov	r4,r18
 40046b0:	980b883a 	mov	r5,r19
 40046b4:	8823d13a 	srai	r17,r17,4
 40046b8:	400ba040 	call	400ba04 <__muldf3>
 40046bc:	d8800f15 	stw	r2,60(sp)
 40046c0:	d8c01015 	stw	r3,64(sp)
 40046c4:	8800e826 	beq	r17,zero,4004a68 <_dtoa_r+0x15e0>
 40046c8:	05010074 	movhi	r20,1025
 40046cc:	a53e0c04 	addi	r20,r20,-2000
 40046d0:	04000084 	movi	r16,2
 40046d4:	8980004c 	andi	r6,r17,1
 40046d8:	1009883a 	mov	r4,r2
 40046dc:	8823d07a 	srai	r17,r17,1
 40046e0:	180b883a 	mov	r5,r3
 40046e4:	30000426 	beq	r6,zero,40046f8 <_dtoa_r+0x1270>
 40046e8:	a1800017 	ldw	r6,0(r20)
 40046ec:	a1c00117 	ldw	r7,4(r20)
 40046f0:	84000044 	addi	r16,r16,1
 40046f4:	400ba040 	call	400ba04 <__muldf3>
 40046f8:	a5000204 	addi	r20,r20,8
 40046fc:	883ff51e 	bne	r17,zero,40046d4 <__ram_exceptions_end+0xfbffc490>
 4004700:	d8800f15 	stw	r2,60(sp)
 4004704:	d8c01015 	stw	r3,64(sp)
 4004708:	003c7606 	br	40038e4 <__ram_exceptions_end+0xfbffb6a0>
 400470c:	00c00c04 	movi	r3,48
 4004710:	10c00005 	stb	r3,0(r2)
 4004714:	d8c00517 	ldw	r3,20(sp)
 4004718:	bd3fffc3 	ldbu	r20,-1(r23)
 400471c:	18c00044 	addi	r3,r3,1
 4004720:	d8c00515 	stw	r3,20(sp)
 4004724:	003db906 	br	4003e0c <__ram_exceptions_end+0xfbffbbc8>
 4004728:	89400117 	ldw	r5,4(r17)
 400472c:	e009883a 	mov	r4,fp
 4004730:	40061440 	call	4006144 <_Balloc>
 4004734:	89800417 	ldw	r6,16(r17)
 4004738:	89400304 	addi	r5,r17,12
 400473c:	11000304 	addi	r4,r2,12
 4004740:	31800084 	addi	r6,r6,2
 4004744:	318d883a 	add	r6,r6,r6
 4004748:	318d883a 	add	r6,r6,r6
 400474c:	1027883a 	mov	r19,r2
 4004750:	4000c400 	call	4000c40 <memcpy>
 4004754:	01800044 	movi	r6,1
 4004758:	980b883a 	mov	r5,r19
 400475c:	e009883a 	mov	r4,fp
 4004760:	40068c40 	call	40068c4 <__lshift>
 4004764:	1029883a 	mov	r20,r2
 4004768:	003ecc06 	br	400429c <__ram_exceptions_end+0xfbffc058>
 400476c:	00800e44 	movi	r2,57
 4004770:	90809026 	beq	r18,r2,40049b4 <_dtoa_r+0x152c>
 4004774:	92000044 	addi	r8,r18,1
 4004778:	003f1f06 	br	40043f8 <__ram_exceptions_end+0xfbffc1b4>
 400477c:	9011883a 	mov	r8,r18
 4004780:	8825883a 	mov	r18,r17
 4004784:	a023883a 	mov	r17,r20
 4004788:	003e2906 	br	4004030 <__ram_exceptions_end+0xfbffbdec>
 400478c:	002b883a 	mov	r21,zero
 4004790:	0023883a 	mov	r17,zero
 4004794:	003f5406 	br	40044e8 <__ram_exceptions_end+0xfbffc2a4>
 4004798:	61bfffc4 	addi	r6,r12,-1
 400479c:	300490fa 	slli	r2,r6,3
 40047a0:	00c10074 	movhi	r3,1025
 40047a4:	18fe1604 	addi	r3,r3,-1960
 40047a8:	1885883a 	add	r2,r3,r2
 40047ac:	11000017 	ldw	r4,0(r2)
 40047b0:	11400117 	ldw	r5,4(r2)
 40047b4:	d8800717 	ldw	r2,28(sp)
 40047b8:	880f883a 	mov	r7,r17
 40047bc:	d9801215 	stw	r6,72(sp)
 40047c0:	800d883a 	mov	r6,r16
 40047c4:	db001615 	stw	r12,88(sp)
 40047c8:	15c00044 	addi	r23,r2,1
 40047cc:	400ba040 	call	400ba04 <__muldf3>
 40047d0:	d9401017 	ldw	r5,64(sp)
 40047d4:	d9000f17 	ldw	r4,60(sp)
 40047d8:	d8c01515 	stw	r3,84(sp)
 40047dc:	d8801415 	stw	r2,80(sp)
 40047e0:	400ca180 	call	400ca18 <__fixdfsi>
 40047e4:	1009883a 	mov	r4,r2
 40047e8:	1021883a 	mov	r16,r2
 40047ec:	400ca980 	call	400ca98 <__floatsidf>
 40047f0:	d9000f17 	ldw	r4,60(sp)
 40047f4:	d9401017 	ldw	r5,64(sp)
 40047f8:	100d883a 	mov	r6,r2
 40047fc:	180f883a 	mov	r7,r3
 4004800:	400c11c0 	call	400c11c <__subdf3>
 4004804:	1829883a 	mov	r20,r3
 4004808:	d8c00717 	ldw	r3,28(sp)
 400480c:	84000c04 	addi	r16,r16,48
 4004810:	1023883a 	mov	r17,r2
 4004814:	1c000005 	stb	r16,0(r3)
 4004818:	db001617 	ldw	r12,88(sp)
 400481c:	00800044 	movi	r2,1
 4004820:	60802226 	beq	r12,r2,40048ac <_dtoa_r+0x1424>
 4004824:	d9c00717 	ldw	r7,28(sp)
 4004828:	8805883a 	mov	r2,r17
 400482c:	b82b883a 	mov	r21,r23
 4004830:	3b19883a 	add	r12,r7,r12
 4004834:	6023883a 	mov	r17,r12
 4004838:	a007883a 	mov	r3,r20
 400483c:	dc800f15 	stw	r18,60(sp)
 4004840:	000d883a 	mov	r6,zero
 4004844:	01d00934 	movhi	r7,16420
 4004848:	1009883a 	mov	r4,r2
 400484c:	180b883a 	mov	r5,r3
 4004850:	400ba040 	call	400ba04 <__muldf3>
 4004854:	180b883a 	mov	r5,r3
 4004858:	1009883a 	mov	r4,r2
 400485c:	1829883a 	mov	r20,r3
 4004860:	1025883a 	mov	r18,r2
 4004864:	400ca180 	call	400ca18 <__fixdfsi>
 4004868:	1009883a 	mov	r4,r2
 400486c:	1021883a 	mov	r16,r2
 4004870:	400ca980 	call	400ca98 <__floatsidf>
 4004874:	100d883a 	mov	r6,r2
 4004878:	180f883a 	mov	r7,r3
 400487c:	9009883a 	mov	r4,r18
 4004880:	a00b883a 	mov	r5,r20
 4004884:	84000c04 	addi	r16,r16,48
 4004888:	400c11c0 	call	400c11c <__subdf3>
 400488c:	ad400044 	addi	r21,r21,1
 4004890:	ac3fffc5 	stb	r16,-1(r21)
 4004894:	ac7fea1e 	bne	r21,r17,4004840 <__ram_exceptions_end+0xfbffc5fc>
 4004898:	1023883a 	mov	r17,r2
 400489c:	d8801217 	ldw	r2,72(sp)
 40048a0:	dc800f17 	ldw	r18,60(sp)
 40048a4:	1829883a 	mov	r20,r3
 40048a8:	b8af883a 	add	r23,r23,r2
 40048ac:	d9001417 	ldw	r4,80(sp)
 40048b0:	d9401517 	ldw	r5,84(sp)
 40048b4:	000d883a 	mov	r6,zero
 40048b8:	01cff834 	movhi	r7,16352
 40048bc:	400a6180 	call	400a618 <__adddf3>
 40048c0:	880d883a 	mov	r6,r17
 40048c4:	a00f883a 	mov	r7,r20
 40048c8:	1009883a 	mov	r4,r2
 40048cc:	180b883a 	mov	r5,r3
 40048d0:	400b9100 	call	400b910 <__ledf2>
 40048d4:	10003e0e 	bge	r2,zero,40049d0 <_dtoa_r+0x1548>
 40048d8:	d9001317 	ldw	r4,76(sp)
 40048dc:	bd3fffc3 	ldbu	r20,-1(r23)
 40048e0:	d9000515 	stw	r4,20(sp)
 40048e4:	003d3b06 	br	4003dd4 <__ram_exceptions_end+0xfbffbb90>
 40048e8:	0027883a 	mov	r19,zero
 40048ec:	003f1b06 	br	400455c <__ram_exceptions_end+0xfbffc318>
 40048f0:	d8800817 	ldw	r2,32(sp)
 40048f4:	11e9c83a 	sub	r20,r2,r7
 40048f8:	0005883a 	mov	r2,zero
 40048fc:	003d5406 	br	4003e50 <__ram_exceptions_end+0xfbffbc0c>
 4004900:	00800044 	movi	r2,1
 4004904:	003dc706 	br	4004024 <__ram_exceptions_end+0xfbffbde0>
 4004908:	d8c00217 	ldw	r3,8(sp)
 400490c:	00800d84 	movi	r2,54
 4004910:	dd400a17 	ldw	r21,40(sp)
 4004914:	10c5c83a 	sub	r2,r2,r3
 4004918:	dd000817 	ldw	r20,32(sp)
 400491c:	003d4c06 	br	4003e50 <__ram_exceptions_end+0xfbffbc0c>
 4004920:	dc800f15 	stw	r18,60(sp)
 4004924:	dcc01015 	stw	r19,64(sp)
 4004928:	04000084 	movi	r16,2
 400492c:	003bed06 	br	40038e4 <__ram_exceptions_end+0xfbffb6a0>
 4004930:	d9000617 	ldw	r4,24(sp)
 4004934:	203f0d26 	beq	r4,zero,400456c <__ram_exceptions_end+0xfbffc328>
 4004938:	d9800c17 	ldw	r6,48(sp)
 400493c:	01bcab0e 	bge	zero,r6,4003bec <__ram_exceptions_end+0xfbffb9a8>
 4004940:	d9401017 	ldw	r5,64(sp)
 4004944:	d9000f17 	ldw	r4,60(sp)
 4004948:	000d883a 	mov	r6,zero
 400494c:	01d00934 	movhi	r7,16420
 4004950:	400ba040 	call	400ba04 <__muldf3>
 4004954:	81000044 	addi	r4,r16,1
 4004958:	d8800f15 	stw	r2,60(sp)
 400495c:	d8c01015 	stw	r3,64(sp)
 4004960:	400ca980 	call	400ca98 <__floatsidf>
 4004964:	d9800f17 	ldw	r6,60(sp)
 4004968:	d9c01017 	ldw	r7,64(sp)
 400496c:	1009883a 	mov	r4,r2
 4004970:	180b883a 	mov	r5,r3
 4004974:	400ba040 	call	400ba04 <__muldf3>
 4004978:	01d00734 	movhi	r7,16412
 400497c:	000d883a 	mov	r6,zero
 4004980:	1009883a 	mov	r4,r2
 4004984:	180b883a 	mov	r5,r3
 4004988:	400a6180 	call	400a618 <__adddf3>
 400498c:	d9c00517 	ldw	r7,20(sp)
 4004990:	047f3034 	movhi	r17,64704
 4004994:	1021883a 	mov	r16,r2
 4004998:	39ffffc4 	addi	r7,r7,-1
 400499c:	d9c01315 	stw	r7,76(sp)
 40049a0:	1c63883a 	add	r17,r3,r17
 40049a4:	db000c17 	ldw	r12,48(sp)
 40049a8:	003bea06 	br	4003954 <__ram_exceptions_end+0xfbffb710>
 40049ac:	dc000915 	stw	r16,36(sp)
 40049b0:	003e0e06 	br	40041ec <__ram_exceptions_end+0xfbffbfa8>
 40049b4:	01000e44 	movi	r4,57
 40049b8:	8825883a 	mov	r18,r17
 40049bc:	9dc00044 	addi	r23,r19,1
 40049c0:	99000005 	stb	r4,0(r19)
 40049c4:	a023883a 	mov	r17,r20
 40049c8:	dc000915 	stw	r16,36(sp)
 40049cc:	003da406 	br	4004060 <__ram_exceptions_end+0xfbffbe1c>
 40049d0:	d9801417 	ldw	r6,80(sp)
 40049d4:	d9c01517 	ldw	r7,84(sp)
 40049d8:	0009883a 	mov	r4,zero
 40049dc:	014ff834 	movhi	r5,16352
 40049e0:	400c11c0 	call	400c11c <__subdf3>
 40049e4:	880d883a 	mov	r6,r17
 40049e8:	a00f883a 	mov	r7,r20
 40049ec:	1009883a 	mov	r4,r2
 40049f0:	180b883a 	mov	r5,r3
 40049f4:	400b8340 	call	400b834 <__gedf2>
 40049f8:	00bc7c0e 	bge	zero,r2,4003bec <__ram_exceptions_end+0xfbffb9a8>
 40049fc:	01000c04 	movi	r4,48
 4004a00:	00000106 	br	4004a08 <_dtoa_r+0x1580>
 4004a04:	102f883a 	mov	r23,r2
 4004a08:	b8bfffc4 	addi	r2,r23,-1
 4004a0c:	10c00007 	ldb	r3,0(r2)
 4004a10:	193ffc26 	beq	r3,r4,4004a04 <__ram_exceptions_end+0xfbffc7c0>
 4004a14:	d9801317 	ldw	r6,76(sp)
 4004a18:	d9800515 	stw	r6,20(sp)
 4004a1c:	003c4406 	br	4003b30 <__ram_exceptions_end+0xfbffb8ec>
 4004a20:	d9801317 	ldw	r6,76(sp)
 4004a24:	d9800515 	stw	r6,20(sp)
 4004a28:	003cea06 	br	4003dd4 <__ram_exceptions_end+0xfbffbb90>
 4004a2c:	dd800f17 	ldw	r22,60(sp)
 4004a30:	dcc01017 	ldw	r19,64(sp)
 4004a34:	dc801217 	ldw	r18,72(sp)
 4004a38:	003c6c06 	br	4003bec <__ram_exceptions_end+0xfbffb9a8>
 4004a3c:	903e031e 	bne	r18,zero,400424c <__ram_exceptions_end+0xfbffc008>
 4004a40:	003ebb06 	br	4004530 <__ram_exceptions_end+0xfbffc2ec>
 4004a44:	103e6c1e 	bne	r2,zero,40043f8 <__ram_exceptions_end+0xfbffc1b4>
 4004a48:	4080004c 	andi	r2,r8,1
 4004a4c:	103e6a26 	beq	r2,zero,40043f8 <__ram_exceptions_end+0xfbffc1b4>
 4004a50:	003e6606 	br	40043ec <__ram_exceptions_end+0xfbffc1a8>
 4004a54:	d8c00317 	ldw	r3,12(sp)
 4004a58:	00800084 	movi	r2,2
 4004a5c:	10c02916 	blt	r2,r3,4004b04 <_dtoa_r+0x167c>
 4004a60:	d9000c17 	ldw	r4,48(sp)
 4004a64:	003e8806 	br	4004488 <__ram_exceptions_end+0xfbffc244>
 4004a68:	04000084 	movi	r16,2
 4004a6c:	003b9d06 	br	40038e4 <__ram_exceptions_end+0xfbffb6a0>
 4004a70:	d9001317 	ldw	r4,76(sp)
 4004a74:	d9000515 	stw	r4,20(sp)
 4004a78:	003cd606 	br	4003dd4 <__ram_exceptions_end+0xfbffbb90>
 4004a7c:	d8801317 	ldw	r2,76(sp)
 4004a80:	d8800515 	stw	r2,20(sp)
 4004a84:	003c2a06 	br	4003b30 <__ram_exceptions_end+0xfbffb8ec>
 4004a88:	d9800317 	ldw	r6,12(sp)
 4004a8c:	00800084 	movi	r2,2
 4004a90:	11801516 	blt	r2,r6,4004ae8 <_dtoa_r+0x1660>
 4004a94:	d9c00c17 	ldw	r7,48(sp)
 4004a98:	d9c00615 	stw	r7,24(sp)
 4004a9c:	003df706 	br	400427c <__ram_exceptions_end+0xfbffc038>
 4004aa0:	193d3926 	beq	r3,r4,4003f88 <__ram_exceptions_end+0xfbffbd44>
 4004aa4:	00c00f04 	movi	r3,60
 4004aa8:	1885c83a 	sub	r2,r3,r2
 4004aac:	003ddf06 	br	400422c <__ram_exceptions_end+0xfbffbfe8>
 4004ab0:	e009883a 	mov	r4,fp
 4004ab4:	e0001115 	stw	zero,68(fp)
 4004ab8:	000b883a 	mov	r5,zero
 4004abc:	40061440 	call	4006144 <_Balloc>
 4004ac0:	d8800715 	stw	r2,28(sp)
 4004ac4:	d8c00717 	ldw	r3,28(sp)
 4004ac8:	00bfffc4 	movi	r2,-1
 4004acc:	01000044 	movi	r4,1
 4004ad0:	d8800c15 	stw	r2,48(sp)
 4004ad4:	e0c01015 	stw	r3,64(fp)
 4004ad8:	d9000b15 	stw	r4,44(sp)
 4004adc:	d8800615 	stw	r2,24(sp)
 4004ae0:	d8002215 	stw	zero,136(sp)
 4004ae4:	003c4106 	br	4003bec <__ram_exceptions_end+0xfbffb9a8>
 4004ae8:	d8c00c17 	ldw	r3,48(sp)
 4004aec:	d8c00615 	stw	r3,24(sp)
 4004af0:	003e7006 	br	40044b4 <__ram_exceptions_end+0xfbffc270>
 4004af4:	04400044 	movi	r17,1
 4004af8:	003b2006 	br	400377c <__ram_exceptions_end+0xfbffb538>
 4004afc:	000b883a 	mov	r5,zero
 4004b00:	003b3d06 	br	40037f8 <__ram_exceptions_end+0xfbffb5b4>
 4004b04:	d8800c17 	ldw	r2,48(sp)
 4004b08:	d8800615 	stw	r2,24(sp)
 4004b0c:	003e6906 	br	40044b4 <__ram_exceptions_end+0xfbffc270>

04004b10 <__fp_unlock>:
 4004b10:	0005883a 	mov	r2,zero
 4004b14:	f800283a 	ret

04004b18 <_cleanup_r>:
 4004b18:	01410074 	movhi	r5,1025
 4004b1c:	29641704 	addi	r5,r5,-28580
 4004b20:	40054301 	jmpi	4005430 <_fwalk_reent>

04004b24 <__sinit.part.1>:
 4004b24:	defff704 	addi	sp,sp,-36
 4004b28:	00c10034 	movhi	r3,1024
 4004b2c:	dfc00815 	stw	ra,32(sp)
 4004b30:	ddc00715 	stw	r23,28(sp)
 4004b34:	dd800615 	stw	r22,24(sp)
 4004b38:	dd400515 	stw	r21,20(sp)
 4004b3c:	dd000415 	stw	r20,16(sp)
 4004b40:	dcc00315 	stw	r19,12(sp)
 4004b44:	dc800215 	stw	r18,8(sp)
 4004b48:	dc400115 	stw	r17,4(sp)
 4004b4c:	dc000015 	stw	r16,0(sp)
 4004b50:	18d2c604 	addi	r3,r3,19224
 4004b54:	24000117 	ldw	r16,4(r4)
 4004b58:	20c00f15 	stw	r3,60(r4)
 4004b5c:	2080bb04 	addi	r2,r4,748
 4004b60:	00c000c4 	movi	r3,3
 4004b64:	20c0b915 	stw	r3,740(r4)
 4004b68:	2080ba15 	stw	r2,744(r4)
 4004b6c:	2000b815 	stw	zero,736(r4)
 4004b70:	05c00204 	movi	r23,8
 4004b74:	00800104 	movi	r2,4
 4004b78:	2025883a 	mov	r18,r4
 4004b7c:	b80d883a 	mov	r6,r23
 4004b80:	81001704 	addi	r4,r16,92
 4004b84:	000b883a 	mov	r5,zero
 4004b88:	80000015 	stw	zero,0(r16)
 4004b8c:	80000115 	stw	zero,4(r16)
 4004b90:	80000215 	stw	zero,8(r16)
 4004b94:	8080030d 	sth	r2,12(r16)
 4004b98:	80001915 	stw	zero,100(r16)
 4004b9c:	8000038d 	sth	zero,14(r16)
 4004ba0:	80000415 	stw	zero,16(r16)
 4004ba4:	80000515 	stw	zero,20(r16)
 4004ba8:	80000615 	stw	zero,24(r16)
 4004bac:	400601c0 	call	400601c <memset>
 4004bb0:	05810034 	movhi	r22,1024
 4004bb4:	94400217 	ldw	r17,8(r18)
 4004bb8:	05410034 	movhi	r21,1024
 4004bbc:	05010034 	movhi	r20,1024
 4004bc0:	04c10034 	movhi	r19,1024
 4004bc4:	b59ddb04 	addi	r22,r22,30572
 4004bc8:	ad5df204 	addi	r21,r21,30664
 4004bcc:	a51e1104 	addi	r20,r20,30788
 4004bd0:	9cde2804 	addi	r19,r19,30880
 4004bd4:	85800815 	stw	r22,32(r16)
 4004bd8:	85400915 	stw	r21,36(r16)
 4004bdc:	85000a15 	stw	r20,40(r16)
 4004be0:	84c00b15 	stw	r19,44(r16)
 4004be4:	84000715 	stw	r16,28(r16)
 4004be8:	00800284 	movi	r2,10
 4004bec:	8880030d 	sth	r2,12(r17)
 4004bf0:	00800044 	movi	r2,1
 4004bf4:	b80d883a 	mov	r6,r23
 4004bf8:	89001704 	addi	r4,r17,92
 4004bfc:	000b883a 	mov	r5,zero
 4004c00:	88000015 	stw	zero,0(r17)
 4004c04:	88000115 	stw	zero,4(r17)
 4004c08:	88000215 	stw	zero,8(r17)
 4004c0c:	88001915 	stw	zero,100(r17)
 4004c10:	8880038d 	sth	r2,14(r17)
 4004c14:	88000415 	stw	zero,16(r17)
 4004c18:	88000515 	stw	zero,20(r17)
 4004c1c:	88000615 	stw	zero,24(r17)
 4004c20:	400601c0 	call	400601c <memset>
 4004c24:	94000317 	ldw	r16,12(r18)
 4004c28:	00800484 	movi	r2,18
 4004c2c:	8c400715 	stw	r17,28(r17)
 4004c30:	8d800815 	stw	r22,32(r17)
 4004c34:	8d400915 	stw	r21,36(r17)
 4004c38:	8d000a15 	stw	r20,40(r17)
 4004c3c:	8cc00b15 	stw	r19,44(r17)
 4004c40:	8080030d 	sth	r2,12(r16)
 4004c44:	00800084 	movi	r2,2
 4004c48:	80000015 	stw	zero,0(r16)
 4004c4c:	80000115 	stw	zero,4(r16)
 4004c50:	80000215 	stw	zero,8(r16)
 4004c54:	80001915 	stw	zero,100(r16)
 4004c58:	8080038d 	sth	r2,14(r16)
 4004c5c:	80000415 	stw	zero,16(r16)
 4004c60:	80000515 	stw	zero,20(r16)
 4004c64:	80000615 	stw	zero,24(r16)
 4004c68:	b80d883a 	mov	r6,r23
 4004c6c:	000b883a 	mov	r5,zero
 4004c70:	81001704 	addi	r4,r16,92
 4004c74:	400601c0 	call	400601c <memset>
 4004c78:	00800044 	movi	r2,1
 4004c7c:	84000715 	stw	r16,28(r16)
 4004c80:	85800815 	stw	r22,32(r16)
 4004c84:	85400915 	stw	r21,36(r16)
 4004c88:	85000a15 	stw	r20,40(r16)
 4004c8c:	84c00b15 	stw	r19,44(r16)
 4004c90:	90800e15 	stw	r2,56(r18)
 4004c94:	dfc00817 	ldw	ra,32(sp)
 4004c98:	ddc00717 	ldw	r23,28(sp)
 4004c9c:	dd800617 	ldw	r22,24(sp)
 4004ca0:	dd400517 	ldw	r21,20(sp)
 4004ca4:	dd000417 	ldw	r20,16(sp)
 4004ca8:	dcc00317 	ldw	r19,12(sp)
 4004cac:	dc800217 	ldw	r18,8(sp)
 4004cb0:	dc400117 	ldw	r17,4(sp)
 4004cb4:	dc000017 	ldw	r16,0(sp)
 4004cb8:	dec00904 	addi	sp,sp,36
 4004cbc:	f800283a 	ret

04004cc0 <__fp_lock>:
 4004cc0:	0005883a 	mov	r2,zero
 4004cc4:	f800283a 	ret

04004cc8 <__sfmoreglue>:
 4004cc8:	defffc04 	addi	sp,sp,-16
 4004ccc:	dc400115 	stw	r17,4(sp)
 4004cd0:	2c7fffc4 	addi	r17,r5,-1
 4004cd4:	8c401a24 	muli	r17,r17,104
 4004cd8:	dc800215 	stw	r18,8(sp)
 4004cdc:	2825883a 	mov	r18,r5
 4004ce0:	89401d04 	addi	r5,r17,116
 4004ce4:	dc000015 	stw	r16,0(sp)
 4004ce8:	dfc00315 	stw	ra,12(sp)
 4004cec:	40055d00 	call	40055d0 <_malloc_r>
 4004cf0:	1021883a 	mov	r16,r2
 4004cf4:	10000726 	beq	r2,zero,4004d14 <__sfmoreglue+0x4c>
 4004cf8:	11000304 	addi	r4,r2,12
 4004cfc:	10000015 	stw	zero,0(r2)
 4004d00:	14800115 	stw	r18,4(r2)
 4004d04:	11000215 	stw	r4,8(r2)
 4004d08:	89801a04 	addi	r6,r17,104
 4004d0c:	000b883a 	mov	r5,zero
 4004d10:	400601c0 	call	400601c <memset>
 4004d14:	8005883a 	mov	r2,r16
 4004d18:	dfc00317 	ldw	ra,12(sp)
 4004d1c:	dc800217 	ldw	r18,8(sp)
 4004d20:	dc400117 	ldw	r17,4(sp)
 4004d24:	dc000017 	ldw	r16,0(sp)
 4004d28:	dec00404 	addi	sp,sp,16
 4004d2c:	f800283a 	ret

04004d30 <__sfp>:
 4004d30:	defffb04 	addi	sp,sp,-20
 4004d34:	dc000015 	stw	r16,0(sp)
 4004d38:	04010074 	movhi	r16,1025
 4004d3c:	84055104 	addi	r16,r16,5444
 4004d40:	dcc00315 	stw	r19,12(sp)
 4004d44:	2027883a 	mov	r19,r4
 4004d48:	81000017 	ldw	r4,0(r16)
 4004d4c:	dfc00415 	stw	ra,16(sp)
 4004d50:	dc800215 	stw	r18,8(sp)
 4004d54:	20800e17 	ldw	r2,56(r4)
 4004d58:	dc400115 	stw	r17,4(sp)
 4004d5c:	1000021e 	bne	r2,zero,4004d68 <__sfp+0x38>
 4004d60:	4004b240 	call	4004b24 <__sinit.part.1>
 4004d64:	81000017 	ldw	r4,0(r16)
 4004d68:	2480b804 	addi	r18,r4,736
 4004d6c:	047fffc4 	movi	r17,-1
 4004d70:	91000117 	ldw	r4,4(r18)
 4004d74:	94000217 	ldw	r16,8(r18)
 4004d78:	213fffc4 	addi	r4,r4,-1
 4004d7c:	20000a16 	blt	r4,zero,4004da8 <__sfp+0x78>
 4004d80:	8080030f 	ldh	r2,12(r16)
 4004d84:	10000c26 	beq	r2,zero,4004db8 <__sfp+0x88>
 4004d88:	80c01d04 	addi	r3,r16,116
 4004d8c:	00000206 	br	4004d98 <__sfp+0x68>
 4004d90:	18bfe60f 	ldh	r2,-104(r3)
 4004d94:	10000826 	beq	r2,zero,4004db8 <__sfp+0x88>
 4004d98:	213fffc4 	addi	r4,r4,-1
 4004d9c:	1c3ffd04 	addi	r16,r3,-12
 4004da0:	18c01a04 	addi	r3,r3,104
 4004da4:	247ffa1e 	bne	r4,r17,4004d90 <__ram_exceptions_end+0xfbffcb4c>
 4004da8:	90800017 	ldw	r2,0(r18)
 4004dac:	10001d26 	beq	r2,zero,4004e24 <__sfp+0xf4>
 4004db0:	1025883a 	mov	r18,r2
 4004db4:	003fee06 	br	4004d70 <__ram_exceptions_end+0xfbffcb2c>
 4004db8:	00bfffc4 	movi	r2,-1
 4004dbc:	8080038d 	sth	r2,14(r16)
 4004dc0:	00800044 	movi	r2,1
 4004dc4:	8080030d 	sth	r2,12(r16)
 4004dc8:	80001915 	stw	zero,100(r16)
 4004dcc:	80000015 	stw	zero,0(r16)
 4004dd0:	80000215 	stw	zero,8(r16)
 4004dd4:	80000115 	stw	zero,4(r16)
 4004dd8:	80000415 	stw	zero,16(r16)
 4004ddc:	80000515 	stw	zero,20(r16)
 4004de0:	80000615 	stw	zero,24(r16)
 4004de4:	01800204 	movi	r6,8
 4004de8:	000b883a 	mov	r5,zero
 4004dec:	81001704 	addi	r4,r16,92
 4004df0:	400601c0 	call	400601c <memset>
 4004df4:	8005883a 	mov	r2,r16
 4004df8:	80000c15 	stw	zero,48(r16)
 4004dfc:	80000d15 	stw	zero,52(r16)
 4004e00:	80001115 	stw	zero,68(r16)
 4004e04:	80001215 	stw	zero,72(r16)
 4004e08:	dfc00417 	ldw	ra,16(sp)
 4004e0c:	dcc00317 	ldw	r19,12(sp)
 4004e10:	dc800217 	ldw	r18,8(sp)
 4004e14:	dc400117 	ldw	r17,4(sp)
 4004e18:	dc000017 	ldw	r16,0(sp)
 4004e1c:	dec00504 	addi	sp,sp,20
 4004e20:	f800283a 	ret
 4004e24:	01400104 	movi	r5,4
 4004e28:	9809883a 	mov	r4,r19
 4004e2c:	4004cc80 	call	4004cc8 <__sfmoreglue>
 4004e30:	90800015 	stw	r2,0(r18)
 4004e34:	103fde1e 	bne	r2,zero,4004db0 <__ram_exceptions_end+0xfbffcb6c>
 4004e38:	00800304 	movi	r2,12
 4004e3c:	98800015 	stw	r2,0(r19)
 4004e40:	0005883a 	mov	r2,zero
 4004e44:	003ff006 	br	4004e08 <__ram_exceptions_end+0xfbffcbc4>

04004e48 <_cleanup>:
 4004e48:	00810074 	movhi	r2,1025
 4004e4c:	10855104 	addi	r2,r2,5444
 4004e50:	11000017 	ldw	r4,0(r2)
 4004e54:	01410074 	movhi	r5,1025
 4004e58:	29641704 	addi	r5,r5,-28580
 4004e5c:	40054301 	jmpi	4005430 <_fwalk_reent>

04004e60 <__sinit>:
 4004e60:	20800e17 	ldw	r2,56(r4)
 4004e64:	10000126 	beq	r2,zero,4004e6c <__sinit+0xc>
 4004e68:	f800283a 	ret
 4004e6c:	4004b241 	jmpi	4004b24 <__sinit.part.1>

04004e70 <__sfp_lock_acquire>:
 4004e70:	f800283a 	ret

04004e74 <__sfp_lock_release>:
 4004e74:	f800283a 	ret

04004e78 <__sinit_lock_acquire>:
 4004e78:	f800283a 	ret

04004e7c <__sinit_lock_release>:
 4004e7c:	f800283a 	ret

04004e80 <__fp_lock_all>:
 4004e80:	00810074 	movhi	r2,1025
 4004e84:	10855204 	addi	r2,r2,5448
 4004e88:	11000017 	ldw	r4,0(r2)
 4004e8c:	01410034 	movhi	r5,1024
 4004e90:	29533004 	addi	r5,r5,19648
 4004e94:	400536c1 	jmpi	400536c <_fwalk>

04004e98 <__fp_unlock_all>:
 4004e98:	00810074 	movhi	r2,1025
 4004e9c:	10855204 	addi	r2,r2,5448
 4004ea0:	11000017 	ldw	r4,0(r2)
 4004ea4:	01410034 	movhi	r5,1024
 4004ea8:	2952c404 	addi	r5,r5,19216
 4004eac:	400536c1 	jmpi	400536c <_fwalk>

04004eb0 <__sfvwrite_r>:
 4004eb0:	30800217 	ldw	r2,8(r6)
 4004eb4:	10006726 	beq	r2,zero,4005054 <__sfvwrite_r+0x1a4>
 4004eb8:	28c0030b 	ldhu	r3,12(r5)
 4004ebc:	defff404 	addi	sp,sp,-48
 4004ec0:	dd400715 	stw	r21,28(sp)
 4004ec4:	dd000615 	stw	r20,24(sp)
 4004ec8:	dc000215 	stw	r16,8(sp)
 4004ecc:	dfc00b15 	stw	ra,44(sp)
 4004ed0:	df000a15 	stw	fp,40(sp)
 4004ed4:	ddc00915 	stw	r23,36(sp)
 4004ed8:	dd800815 	stw	r22,32(sp)
 4004edc:	dcc00515 	stw	r19,20(sp)
 4004ee0:	dc800415 	stw	r18,16(sp)
 4004ee4:	dc400315 	stw	r17,12(sp)
 4004ee8:	1880020c 	andi	r2,r3,8
 4004eec:	2821883a 	mov	r16,r5
 4004ef0:	202b883a 	mov	r21,r4
 4004ef4:	3029883a 	mov	r20,r6
 4004ef8:	10002726 	beq	r2,zero,4004f98 <__sfvwrite_r+0xe8>
 4004efc:	28800417 	ldw	r2,16(r5)
 4004f00:	10002526 	beq	r2,zero,4004f98 <__sfvwrite_r+0xe8>
 4004f04:	1880008c 	andi	r2,r3,2
 4004f08:	a4400017 	ldw	r17,0(r20)
 4004f0c:	10002a26 	beq	r2,zero,4004fb8 <__sfvwrite_r+0x108>
 4004f10:	05a00034 	movhi	r22,32768
 4004f14:	0027883a 	mov	r19,zero
 4004f18:	0025883a 	mov	r18,zero
 4004f1c:	b5bf0004 	addi	r22,r22,-1024
 4004f20:	980d883a 	mov	r6,r19
 4004f24:	a809883a 	mov	r4,r21
 4004f28:	90004626 	beq	r18,zero,4005044 <__sfvwrite_r+0x194>
 4004f2c:	900f883a 	mov	r7,r18
 4004f30:	b480022e 	bgeu	r22,r18,4004f3c <__sfvwrite_r+0x8c>
 4004f34:	01e00034 	movhi	r7,32768
 4004f38:	39ff0004 	addi	r7,r7,-1024
 4004f3c:	80800917 	ldw	r2,36(r16)
 4004f40:	81400717 	ldw	r5,28(r16)
 4004f44:	103ee83a 	callr	r2
 4004f48:	0080570e 	bge	zero,r2,40050a8 <__sfvwrite_r+0x1f8>
 4004f4c:	a0c00217 	ldw	r3,8(r20)
 4004f50:	98a7883a 	add	r19,r19,r2
 4004f54:	90a5c83a 	sub	r18,r18,r2
 4004f58:	1885c83a 	sub	r2,r3,r2
 4004f5c:	a0800215 	stw	r2,8(r20)
 4004f60:	103fef1e 	bne	r2,zero,4004f20 <__ram_exceptions_end+0xfbffccdc>
 4004f64:	0005883a 	mov	r2,zero
 4004f68:	dfc00b17 	ldw	ra,44(sp)
 4004f6c:	df000a17 	ldw	fp,40(sp)
 4004f70:	ddc00917 	ldw	r23,36(sp)
 4004f74:	dd800817 	ldw	r22,32(sp)
 4004f78:	dd400717 	ldw	r21,28(sp)
 4004f7c:	dd000617 	ldw	r20,24(sp)
 4004f80:	dcc00517 	ldw	r19,20(sp)
 4004f84:	dc800417 	ldw	r18,16(sp)
 4004f88:	dc400317 	ldw	r17,12(sp)
 4004f8c:	dc000217 	ldw	r16,8(sp)
 4004f90:	dec00c04 	addi	sp,sp,48
 4004f94:	f800283a 	ret
 4004f98:	800b883a 	mov	r5,r16
 4004f9c:	a809883a 	mov	r4,r21
 4004fa0:	4008df00 	call	4008df0 <__swsetup_r>
 4004fa4:	1000eb1e 	bne	r2,zero,4005354 <__sfvwrite_r+0x4a4>
 4004fa8:	80c0030b 	ldhu	r3,12(r16)
 4004fac:	a4400017 	ldw	r17,0(r20)
 4004fb0:	1880008c 	andi	r2,r3,2
 4004fb4:	103fd61e 	bne	r2,zero,4004f10 <__ram_exceptions_end+0xfbffcccc>
 4004fb8:	1880004c 	andi	r2,r3,1
 4004fbc:	10003f1e 	bne	r2,zero,40050bc <__sfvwrite_r+0x20c>
 4004fc0:	0039883a 	mov	fp,zero
 4004fc4:	0025883a 	mov	r18,zero
 4004fc8:	90001a26 	beq	r18,zero,4005034 <__sfvwrite_r+0x184>
 4004fcc:	1880800c 	andi	r2,r3,512
 4004fd0:	84c00217 	ldw	r19,8(r16)
 4004fd4:	10002126 	beq	r2,zero,400505c <__sfvwrite_r+0x1ac>
 4004fd8:	982f883a 	mov	r23,r19
 4004fdc:	94c09336 	bltu	r18,r19,400522c <__sfvwrite_r+0x37c>
 4004fe0:	1881200c 	andi	r2,r3,1152
 4004fe4:	10009e1e 	bne	r2,zero,4005260 <__sfvwrite_r+0x3b0>
 4004fe8:	81000017 	ldw	r4,0(r16)
 4004fec:	b80d883a 	mov	r6,r23
 4004ff0:	e00b883a 	mov	r5,fp
 4004ff4:	4005ec00 	call	4005ec0 <memmove>
 4004ff8:	80c00217 	ldw	r3,8(r16)
 4004ffc:	81000017 	ldw	r4,0(r16)
 4005000:	9005883a 	mov	r2,r18
 4005004:	1ce7c83a 	sub	r19,r3,r19
 4005008:	25cf883a 	add	r7,r4,r23
 400500c:	84c00215 	stw	r19,8(r16)
 4005010:	81c00015 	stw	r7,0(r16)
 4005014:	a0c00217 	ldw	r3,8(r20)
 4005018:	e0b9883a 	add	fp,fp,r2
 400501c:	90a5c83a 	sub	r18,r18,r2
 4005020:	18a7c83a 	sub	r19,r3,r2
 4005024:	a4c00215 	stw	r19,8(r20)
 4005028:	983fce26 	beq	r19,zero,4004f64 <__ram_exceptions_end+0xfbffcd20>
 400502c:	80c0030b 	ldhu	r3,12(r16)
 4005030:	903fe61e 	bne	r18,zero,4004fcc <__ram_exceptions_end+0xfbffcd88>
 4005034:	8f000017 	ldw	fp,0(r17)
 4005038:	8c800117 	ldw	r18,4(r17)
 400503c:	8c400204 	addi	r17,r17,8
 4005040:	003fe106 	br	4004fc8 <__ram_exceptions_end+0xfbffcd84>
 4005044:	8cc00017 	ldw	r19,0(r17)
 4005048:	8c800117 	ldw	r18,4(r17)
 400504c:	8c400204 	addi	r17,r17,8
 4005050:	003fb306 	br	4004f20 <__ram_exceptions_end+0xfbffccdc>
 4005054:	0005883a 	mov	r2,zero
 4005058:	f800283a 	ret
 400505c:	81000017 	ldw	r4,0(r16)
 4005060:	80800417 	ldw	r2,16(r16)
 4005064:	11005736 	bltu	r2,r4,40051c4 <__sfvwrite_r+0x314>
 4005068:	85c00517 	ldw	r23,20(r16)
 400506c:	95c05536 	bltu	r18,r23,40051c4 <__sfvwrite_r+0x314>
 4005070:	00a00034 	movhi	r2,32768
 4005074:	10bfffc4 	addi	r2,r2,-1
 4005078:	9009883a 	mov	r4,r18
 400507c:	1480012e 	bgeu	r2,r18,4005084 <__sfvwrite_r+0x1d4>
 4005080:	1009883a 	mov	r4,r2
 4005084:	b80b883a 	mov	r5,r23
 4005088:	4000a8c0 	call	4000a8c <__divsi3>
 400508c:	15cf383a 	mul	r7,r2,r23
 4005090:	81400717 	ldw	r5,28(r16)
 4005094:	80800917 	ldw	r2,36(r16)
 4005098:	e00d883a 	mov	r6,fp
 400509c:	a809883a 	mov	r4,r21
 40050a0:	103ee83a 	callr	r2
 40050a4:	00bfdb16 	blt	zero,r2,4005014 <__ram_exceptions_end+0xfbffcdd0>
 40050a8:	8080030b 	ldhu	r2,12(r16)
 40050ac:	10801014 	ori	r2,r2,64
 40050b0:	8080030d 	sth	r2,12(r16)
 40050b4:	00bfffc4 	movi	r2,-1
 40050b8:	003fab06 	br	4004f68 <__ram_exceptions_end+0xfbffcd24>
 40050bc:	0027883a 	mov	r19,zero
 40050c0:	0011883a 	mov	r8,zero
 40050c4:	0039883a 	mov	fp,zero
 40050c8:	0025883a 	mov	r18,zero
 40050cc:	90001f26 	beq	r18,zero,400514c <__sfvwrite_r+0x29c>
 40050d0:	40005a26 	beq	r8,zero,400523c <__sfvwrite_r+0x38c>
 40050d4:	982d883a 	mov	r22,r19
 40050d8:	94c0012e 	bgeu	r18,r19,40050e0 <__sfvwrite_r+0x230>
 40050dc:	902d883a 	mov	r22,r18
 40050e0:	81000017 	ldw	r4,0(r16)
 40050e4:	80800417 	ldw	r2,16(r16)
 40050e8:	b02f883a 	mov	r23,r22
 40050ec:	81c00517 	ldw	r7,20(r16)
 40050f0:	1100032e 	bgeu	r2,r4,4005100 <__sfvwrite_r+0x250>
 40050f4:	80c00217 	ldw	r3,8(r16)
 40050f8:	38c7883a 	add	r3,r7,r3
 40050fc:	1d801816 	blt	r3,r22,4005160 <__sfvwrite_r+0x2b0>
 4005100:	b1c03e16 	blt	r22,r7,40051fc <__sfvwrite_r+0x34c>
 4005104:	80800917 	ldw	r2,36(r16)
 4005108:	81400717 	ldw	r5,28(r16)
 400510c:	e00d883a 	mov	r6,fp
 4005110:	da000115 	stw	r8,4(sp)
 4005114:	a809883a 	mov	r4,r21
 4005118:	103ee83a 	callr	r2
 400511c:	102f883a 	mov	r23,r2
 4005120:	da000117 	ldw	r8,4(sp)
 4005124:	00bfe00e 	bge	zero,r2,40050a8 <__ram_exceptions_end+0xfbffce64>
 4005128:	9de7c83a 	sub	r19,r19,r23
 400512c:	98001f26 	beq	r19,zero,40051ac <__sfvwrite_r+0x2fc>
 4005130:	a0800217 	ldw	r2,8(r20)
 4005134:	e5f9883a 	add	fp,fp,r23
 4005138:	95e5c83a 	sub	r18,r18,r23
 400513c:	15efc83a 	sub	r23,r2,r23
 4005140:	a5c00215 	stw	r23,8(r20)
 4005144:	b83f8726 	beq	r23,zero,4004f64 <__ram_exceptions_end+0xfbffcd20>
 4005148:	903fe11e 	bne	r18,zero,40050d0 <__ram_exceptions_end+0xfbffce8c>
 400514c:	8f000017 	ldw	fp,0(r17)
 4005150:	8c800117 	ldw	r18,4(r17)
 4005154:	0011883a 	mov	r8,zero
 4005158:	8c400204 	addi	r17,r17,8
 400515c:	003fdb06 	br	40050cc <__ram_exceptions_end+0xfbffce88>
 4005160:	180d883a 	mov	r6,r3
 4005164:	e00b883a 	mov	r5,fp
 4005168:	da000115 	stw	r8,4(sp)
 400516c:	d8c00015 	stw	r3,0(sp)
 4005170:	4005ec00 	call	4005ec0 <memmove>
 4005174:	d8c00017 	ldw	r3,0(sp)
 4005178:	80800017 	ldw	r2,0(r16)
 400517c:	800b883a 	mov	r5,r16
 4005180:	a809883a 	mov	r4,r21
 4005184:	10c5883a 	add	r2,r2,r3
 4005188:	80800015 	stw	r2,0(r16)
 400518c:	d8c00015 	stw	r3,0(sp)
 4005190:	400937c0 	call	400937c <_fflush_r>
 4005194:	d8c00017 	ldw	r3,0(sp)
 4005198:	da000117 	ldw	r8,4(sp)
 400519c:	103fc21e 	bne	r2,zero,40050a8 <__ram_exceptions_end+0xfbffce64>
 40051a0:	182f883a 	mov	r23,r3
 40051a4:	9de7c83a 	sub	r19,r19,r23
 40051a8:	983fe11e 	bne	r19,zero,4005130 <__ram_exceptions_end+0xfbffceec>
 40051ac:	800b883a 	mov	r5,r16
 40051b0:	a809883a 	mov	r4,r21
 40051b4:	400937c0 	call	400937c <_fflush_r>
 40051b8:	103fbb1e 	bne	r2,zero,40050a8 <__ram_exceptions_end+0xfbffce64>
 40051bc:	0011883a 	mov	r8,zero
 40051c0:	003fdb06 	br	4005130 <__ram_exceptions_end+0xfbffceec>
 40051c4:	94c0012e 	bgeu	r18,r19,40051cc <__sfvwrite_r+0x31c>
 40051c8:	9027883a 	mov	r19,r18
 40051cc:	980d883a 	mov	r6,r19
 40051d0:	e00b883a 	mov	r5,fp
 40051d4:	4005ec00 	call	4005ec0 <memmove>
 40051d8:	80800217 	ldw	r2,8(r16)
 40051dc:	80c00017 	ldw	r3,0(r16)
 40051e0:	14c5c83a 	sub	r2,r2,r19
 40051e4:	1cc7883a 	add	r3,r3,r19
 40051e8:	80800215 	stw	r2,8(r16)
 40051ec:	80c00015 	stw	r3,0(r16)
 40051f0:	10004326 	beq	r2,zero,4005300 <__sfvwrite_r+0x450>
 40051f4:	9805883a 	mov	r2,r19
 40051f8:	003f8606 	br	4005014 <__ram_exceptions_end+0xfbffcdd0>
 40051fc:	b00d883a 	mov	r6,r22
 4005200:	e00b883a 	mov	r5,fp
 4005204:	da000115 	stw	r8,4(sp)
 4005208:	4005ec00 	call	4005ec0 <memmove>
 400520c:	80800217 	ldw	r2,8(r16)
 4005210:	80c00017 	ldw	r3,0(r16)
 4005214:	da000117 	ldw	r8,4(sp)
 4005218:	1585c83a 	sub	r2,r2,r22
 400521c:	1dad883a 	add	r22,r3,r22
 4005220:	80800215 	stw	r2,8(r16)
 4005224:	85800015 	stw	r22,0(r16)
 4005228:	003fbf06 	br	4005128 <__ram_exceptions_end+0xfbffcee4>
 400522c:	81000017 	ldw	r4,0(r16)
 4005230:	9027883a 	mov	r19,r18
 4005234:	902f883a 	mov	r23,r18
 4005238:	003f6c06 	br	4004fec <__ram_exceptions_end+0xfbffcda8>
 400523c:	900d883a 	mov	r6,r18
 4005240:	01400284 	movi	r5,10
 4005244:	e009883a 	mov	r4,fp
 4005248:	4005ddc0 	call	4005ddc <memchr>
 400524c:	10003e26 	beq	r2,zero,4005348 <__sfvwrite_r+0x498>
 4005250:	10800044 	addi	r2,r2,1
 4005254:	1727c83a 	sub	r19,r2,fp
 4005258:	02000044 	movi	r8,1
 400525c:	003f9d06 	br	40050d4 <__ram_exceptions_end+0xfbffce90>
 4005260:	80800517 	ldw	r2,20(r16)
 4005264:	81400417 	ldw	r5,16(r16)
 4005268:	81c00017 	ldw	r7,0(r16)
 400526c:	10a7883a 	add	r19,r2,r2
 4005270:	9885883a 	add	r2,r19,r2
 4005274:	1026d7fa 	srli	r19,r2,31
