
control.elf:     file format elf32-littlenios2
control.elf
architecture: nios2:r1, flags 0x00000112:
EXEC_P, HAS_SYMS, D_PAGED
start address 0x04100224

Program Header:
    LOAD off    0x00001020 vaddr 0x08008020 paddr 0x04100000 align 2**12
         filesz 0x00000224 memsz 0x00000224 flags r-x
    LOAD off    0x00002224 vaddr 0x04100224 paddr 0x04100224 align 2**12
         filesz 0x0000e194 memsz 0x0000e194 flags r-x
    LOAD off    0x000103b8 vaddr 0x0410e3b8 paddr 0x0410febc align 2**12
         filesz 0x00001b04 memsz 0x00001b04 flags rw-
    LOAD off    0x000129c0 vaddr 0x041119c0 paddr 0x041119c0 align 2**12
         filesz 0x00000000 memsz 0x0000018c flags rw-
    LOAD off    0x00012000 vaddr 0x08008000 paddr 0x08008000 align 2**12
         filesz 0x00000020 memsz 0x00000020 flags r-x

Sections:
Idx Name          Size      VMA       LMA       File off  Algn
  0 .entry        00000020  08008000  08008000  00012000  2**5
                  CONTENTS, ALLOC, LOAD, READONLY, CODE
  1 .exceptions   00000224  08008020  04100000  00001020  2**2
                  CONTENTS, ALLOC, LOAD, READONLY, CODE
  2 .text         0000de08  04100224  04100224  00002224  2**2
                  CONTENTS, ALLOC, LOAD, READONLY, CODE
  3 .rodata       0000038c  0410e02c  0410e02c  0001002c  2**2
                  CONTENTS, ALLOC, LOAD, READONLY, DATA
  4 .rwdata       00001b04  0410e3b8  0410febc  000103b8  2**2
                  CONTENTS, ALLOC, LOAD, DATA, SMALL_DATA
  5 .bss          0000018c  041119c0  041119c0  000129c0  2**2
                  ALLOC, SMALL_DATA
  6 .new_sdram_controller_0 00000000  04111b4c  04111b4c  00012020  2**0
                  CONTENTS
  7 .control_mem  00000000  08008244  08008244  00012020  2**0
                  CONTENTS
  8 .comment      00000023  00000000  00000000  00012020  2**0
                  CONTENTS, READONLY
  9 .debug_aranges 00000b38  00000000  00000000  00012048  2**3
                  CONTENTS, READONLY, DEBUGGING
 10 .debug_info   00015ed5  00000000  00000000  00012b80  2**0
                  CONTENTS, READONLY, DEBUGGING
 11 .debug_abbrev 000060a3  00000000  00000000  00028a55  2**0
                  CONTENTS, READONLY, DEBUGGING
 12 .debug_line   00008145  00000000  00000000  0002eaf8  2**0
                  CONTENTS, READONLY, DEBUGGING
 13 .debug_frame  00001af4  00000000  00000000  00036c40  2**2
                  CONTENTS, READONLY, DEBUGGING
 14 .debug_str    0000330b  00000000  00000000  00038734  2**0
                  CONTENTS, READONLY, DEBUGGING
 15 .debug_loc    00014e4f  00000000  00000000  0003ba3f  2**0
                  CONTENTS, READONLY, DEBUGGING
 16 .debug_alt_sim_info 00000030  00000000  00000000  00050890  2**2
                  CONTENTS, READONLY, DEBUGGING
 17 .debug_ranges 000013d0  00000000  00000000  000508c0  2**3
                  CONTENTS, READONLY, DEBUGGING
 18 .thread_model 00000003  00000000  00000000  00054a0a  2**0
                  CONTENTS, READONLY
 19 .cpu          0000000c  00000000  00000000  00054a0d  2**0
                  CONTENTS, READONLY
 20 .qsys         00000001  00000000  00000000  00054a19  2**0
                  CONTENTS, READONLY
 21 .simulation_enabled 00000001  00000000  00000000  00054a1a  2**0
                  CONTENTS, READONLY
 22 .stderr_dev   0000000c  00000000  00000000  00054a1b  2**0
                  CONTENTS, READONLY
 23 .stdin_dev    0000000c  00000000  00000000  00054a27  2**0
                  CONTENTS, READONLY
 24 .stdout_dev   0000000c  00000000  00000000  00054a33  2**0
                  CONTENTS, READONLY
 25 .sopc_system_name 0000000c  00000000  00000000  00054a3f  2**0
                  CONTENTS, READONLY
 26 .quartus_project_dir 00000042  00000000  00000000  00054a4b  2**0
                  CONTENTS, READONLY
 27 .jdi          000106fb  00000000  00000000  00054a8d  2**0
                  CONTENTS, READONLY
 28 .sopcinfo     0014dfc1  00000000  00000000  00065188  2**0
                  CONTENTS, READONLY
SYMBOL TABLE:
08008000 l    d  .entry	00000000 .entry
08008020 l    d  .exceptions	00000000 .exceptions
04100224 l    d  .text	00000000 .text
0410e02c l    d  .rodata	00000000 .rodata
0410e3b8 l    d  .rwdata	00000000 .rwdata
041119c0 l    d  .bss	00000000 .bss
04111b4c l    d  .new_sdram_controller_0	00000000 .new_sdram_controller_0
08008244 l    d  .control_mem	00000000 .control_mem
00000000 l    d  .comment	00000000 .comment
00000000 l    d  .debug_aranges	00000000 .debug_aranges
00000000 l    d  .debug_info	00000000 .debug_info
00000000 l    d  .debug_abbrev	00000000 .debug_abbrev
00000000 l    d  .debug_line	00000000 .debug_line
00000000 l    d  .debug_frame	00000000 .debug_frame
00000000 l    d  .debug_str	00000000 .debug_str
00000000 l    d  .debug_loc	00000000 .debug_loc
00000000 l    d  .debug_alt_sim_info	00000000 .debug_alt_sim_info
00000000 l    d  .debug_ranges	00000000 .debug_ranges
00000000 l    df *ABS*	00000000 ../control_bsp//obj/HAL/src/crt0.o
0410026c l       .text	00000000 alt_after_alt_main
00000000 l    df *ABS*	00000000 alt_irq_handler.c
00000000 l    df *ABS*	00000000 alt_instruction_exception_entry.c
00000000 l    df *ABS*	00000000 main.c
00000000 l    df *ABS*	00000000 speaker.c
041119c0 l     O .bss	00000004 speaker_current
041119c4 l     O .bss	00000004 toggle_counter
041119c8 l     O .bss	00000004 frequency_threshold
041119cc l     O .bss	00000004 frequency_prev
00000000 l    df *ABS*	00000000 switches_key.c
041119dc l     O .bss	00000004 HEX_enable_bit
041119e0 l     O .bss	00000004 scroll_counter
041119e4 l     O .bss	00000004 scroll_offset
04100444 l     F .text	00000044 switch_isr
041004fc l     F .text	00000044 key_isr
041005b4 l     F .text	00000054 img_rx_isr
0410066c l     F .text	00000054 vga_rx_isr
00000000 l    df *ABS*	00000000 traffc_led.c
041119e8 l     O .bss	00000004 LED_state
00000000 l    df *ABS*	00000000 lib2-divmod.c
00000000 l    df *ABS*	00000000 memcpy.c
00000000 l    df *ABS*	00000000 snprintf.c
00000000 l    df *ABS*	00000000 strlen.c
00000000 l    df *ABS*	00000000 vfprintf.c
0410e0ee l     O .rodata	00000010 zeroes.4389
0410e0fe l     O .rodata	00000010 blanks.4388
00000000 l    df *ABS*	00000000 dtoa.c
0410351c l     F .text	00000200 quorem
00000000 l    df *ABS*	00000000 impure.c
0410e3b8 l     O .rwdata	00000424 impure_data
00000000 l    df *ABS*	00000000 locale.c
0410e7fc l     O .rwdata	00000020 lc_ctype_charset
0410e7dc l     O .rwdata	00000020 lc_message_charset
0410e81c l     O .rwdata	00000038 lconv
00000000 l    df *ABS*	00000000 mallocr.c
00000000 l    df *ABS*	00000000 memchr.c
00000000 l    df *ABS*	00000000 mprec.c
0410e130 l     O .rodata	0000000c p05.2768
00000000 l    df *ABS*	00000000 s_fpclassify.c
00000000 l    df *ABS*	00000000 sbrkr.c
00000000 l    df *ABS*	00000000 strcmp.c
00000000 l    df *ABS*	00000000 vfprintf.c
0410e264 l     O .rodata	00000010 blanks.4332
0410e254 l     O .rodata	00000010 zeroes.4333
00000000 l    df *ABS*	00000000 mallocr.c
00000000 l    df *ABS*	00000000 mallocr.c
00000000 l    df *ABS*	00000000 int_errno.c
00000000 l    df *ABS*	00000000 memmove.c
00000000 l    df *ABS*	00000000 memset.c
00000000 l    df *ABS*	00000000 mallocr.c
00000000 l    df *ABS*	00000000 libgcc2.c
00000000 l    df *ABS*	00000000 libgcc2.c
00000000 l    df *ABS*	00000000 adddf3.c
00000000 l    df *ABS*	00000000 divdf3.c
00000000 l    df *ABS*	00000000 eqdf2.c
00000000 l    df *ABS*	00000000 gedf2.c
00000000 l    df *ABS*	00000000 ledf2.c
00000000 l    df *ABS*	00000000 muldf3.c
00000000 l    df *ABS*	00000000 subdf3.c
00000000 l    df *ABS*	00000000 fixdfsi.c
00000000 l    df *ABS*	00000000 floatsidf.c
00000000 l    df *ABS*	00000000 floatunsidf.c
00000000 l    df *ABS*	00000000 libgcc2.c
00000000 l    df *ABS*	00000000 libgcc2.c
00000000 l    df *ABS*	00000000 alt_iic.c
00000000 l    df *ABS*	00000000 alt_iic_isr_register.c
00000000 l    df *ABS*	00000000 alt_irq_vars.c
00000000 l    df *ABS*	00000000 alt_load.c
0410bdb4 l     F .text	00000068 alt_load_section
00000000 l    df *ABS*	00000000 alt_main.c
00000000 l    df *ABS*	00000000 alt_malloc_lock.c
00000000 l    df *ABS*	00000000 alt_sbrk.c
0410fe90 l     O .rwdata	00000004 heap_end
00000000 l    df *ABS*	00000000 alt_sys_init.c
0410c014 l     F .text	00000034 alt_dev_reg
0410c048 l     F .text	0000003c alt_get_errno
0410c084 l     F .text	00000068 alt_avalon_mutex_reg
0410ec5c l     O .rwdata	00001060 jtag_control
0410fcbc l     O .rwdata	00000010 mutex_0
00000000 l    df *ABS*	00000000 altera_avalon_jtag_uart_fd.c
00000000 l    df *ABS*	00000000 altera_avalon_jtag_uart_init.c
0410c39c l     F .text	0000020c altera_avalon_jtag_uart_irq
0410c5a8 l     F .text	000000a0 altera_avalon_jtag_uart_timeout
00000000 l    df *ABS*	00000000 altera_avalon_jtag_uart_ioctl.c
00000000 l    df *ABS*	00000000 altera_avalon_jtag_uart_read.c
00000000 l    df *ABS*	00000000 altera_avalon_jtag_uart_write.c
00000000 l    df *ABS*	00000000 altera_avalon_mutex.c
0410cc24 l     F .text	0000003c alt_get_errno
0410cc60 l     F .text	0000007c alt_mutex_trylock
00000000 l    df *ABS*	00000000 alt_alarm_start.c
00000000 l    df *ABS*	00000000 alt_close.c
0410d01c l     F .text	0000003c alt_get_errno
00000000 l    df *ABS*	00000000 alt_dcache_flush_all.c
00000000 l    df *ABS*	00000000 alt_dev.c
0410d170 l     F .text	0000002c alt_dev_null_write
00000000 l    df *ABS*	00000000 alt_dev_llist_insert.c
0410d19c l     F .text	0000003c alt_get_errno
00000000 l    df *ABS*	00000000 alt_do_ctors.c
00000000 l    df *ABS*	00000000 alt_do_dtors.c
00000000 l    df *ABS*	00000000 alt_errno.c
00000000 l    df *ABS*	00000000 alt_find_dev.c
00000000 l    df *ABS*	00000000 alt_icache_flush_all.c
00000000 l    df *ABS*	00000000 alt_io_redirect.c
0410d49c l     F .text	000000c4 alt_open_fd
00000000 l    df *ABS*	00000000 alt_open.c
0410d5dc l     F .text	0000003c alt_get_errno
0410d618 l     F .text	000000c4 alt_file_locked
00000000 l    df *ABS*	00000000 alt_release_fd.c
00000000 l    df *ABS*	00000000 alt_tick.c
00000000 l    df *ABS*	00000000 altera_nios2_gen2_irq.c
00000000 l    df *ABS*	00000000 alt_find_file.c
00000000 l    df *ABS*	00000000 alt_get_fd.c
00000000 l    df *ABS*	00000000 alt_icache_flush.c
00000000 l    df *ABS*	00000000 atexit.c
00000000 l    df *ABS*	00000000 exit.c
00000000 l    df *ABS*	00000000 memcmp.c
00000000 l    df *ABS*	00000000 __atexit.c
00000000 l    df *ABS*	00000000 __call_atexit.c
00000000 l    df *ABS*	00000000 alt_exit.c
04111a18 g     O .bss	00000004 alt_instruction_exception_handler
041065f4 g     F .text	00000074 _mprec_log10
041066e0 g     F .text	0000008c __any_on
0410e13c g     O .rodata	00000028 __mprec_tinytens
0410bea0 g     F .text	0000007c alt_main
04111a4c g     O .bss	00000100 alt_irq
0410febc g       *ABS*	00000000 __flash_rwdata_start
0410a640 g     F .text	00000088 .hidden __eqdf2
04111b4c g       *ABS*	00000000 __alt_heap_start
04104da4 g     F .text	0000007c _setlocale_r
0410bf40 g     F .text	00000024 __malloc_unlock
04108214 g     F .text	0000015c memmove
04100488 g     F .text	00000074 switch_setup
041011c8 g     F .text	000000e4 snprintf
0410cd98 g     F .text	00000040 altera_avalon_mutex_trylock
04105770 g     F .text	000000a8 _Balloc
0410a6c8 g     F .text	000000dc .hidden __gtdf2
0410da38 g     F .text	00000024 altera_nios2_gen2_irq_init
04100810 g     F .text	000000a4 HEX_enable
08008000 g     F .entry	0000001c __reset
0410ce2c g     F .text	00000074 altera_avalon_mutex_is_mine
04100000 g       *ABS*	00000000 __flash_exceptions_start
04111a04 g     O .bss	00000004 errno
04106ae0 g     F .text	0000123c ___svfiprintf_internal_r
04111a10 g     O .bss	00000004 alt_argv
04117e74 g       *ABS*	00000000 _gp
0410fcf4 g     O .rwdata	00000180 alt_fd_list
0410d33c g     F .text	00000090 alt_find_dev
04100fa8 g     F .text	00000148 memcpy
0410b92c g     F .text	000000dc .hidden __floatsidf
0410d560 g     F .text	0000007c alt_io_redirect
0410a7a4 g     F .text	000000f4 .hidden __ltdf2
0410e02c g       *ABS*	00000000 __DTOR_END__
0410d400 g     F .text	0000009c alt_exception_cause_generated_bad_addr
0410676c g     F .text	00000074 __fpclassifyd
04106550 g     F .text	000000a4 __ratio
0410c7a0 g     F .text	0000021c altera_avalon_jtag_uart_read
04100eec g     F .text	00000064 .hidden __udivsi3
0410e18c g     O .rodata	000000c8 __mprec_tens
04104e20 g     F .text	0000000c __locale_charset
0410dc08 g     F .text	00000090 alt_icache_flush
04111a00 g     O .bss	00000004 __malloc_top_pad
0410fe74 g     O .rwdata	00000004 scroll_speed
0410fe80 g     O .rwdata	00000004 __mb_cur_max
04104e50 g     F .text	0000000c _localeconv_r
04105b7c g     F .text	0000003c __i2b
041067e0 g     F .text	00000054 _sbrk_r
041008b4 g     F .text	000001dc handle_switch2
0410feac g     O .rwdata	00000004 alt_max_fd
04100d8c g     F .text	00000068 green_light
041119fc g     O .bss	00000004 __malloc_max_sbrked_mem
041094ac g     F .text	000008ac .hidden __adddf3
041062f8 g     F .text	0000010c __b2d
04108f74 g     F .text	00000538 .hidden __umoddi3
0410cea0 g     F .text	00000050 altera_avalon_mutex_first_lock
0410fe78 g     O .rwdata	00000004 _global_impure_ptr
04108498 g     F .text	00000564 _realloc_r
04111b4c g       *ABS*	00000000 __bss_end
0410bcc4 g     F .text	000000f0 alt_iic_isr_register
0410d930 g     F .text	00000108 alt_tick
041089fc g     F .text	00000578 .hidden __udivdi3
0410e164 g     O .rodata	00000028 __mprec_bigtens
04105960 g     F .text	00000104 __s2b
0410ba08 g     F .text	000000a8 .hidden __floatunsidf
04106038 g     F .text	00000060 __mcmp
04100798 g     F .text	00000078 handle_key2
0410bc78 g     F .text	0000004c alt_ic_irq_enabled
0410d894 g     F .text	0000009c alt_alarm_stop
04111a08 g     O .bss	00000004 alt_irq_active
080080fc g     F .exceptions	000000d4 alt_irq_handler
0410fccc g     O .rwdata	00000028 alt_dev_null
0410ccdc g     F .text	00000054 altera_avalon_mutex_open
0410d128 g     F .text	00000048 alt_dcache_flush_all
04105a64 g     F .text	00000068 __hi0bits
04100724 g     F .text	00000074 handle_key1
0410b8ac g     F .text	00000080 .hidden __fixdfsi
041006c0 g     F .text	00000064 vga_rx_setup
0410febc g       *ABS*	00000000 __ram_rwdata_end
0410fea4 g     O .rwdata	00000008 alt_dev_list
0410fe94 g     O .rwdata	00000008 alt_mutex_list
0410e3b8 g       *ABS*	00000000 __ram_rodata_end
0410a7a4 g     F .text	000000f4 .hidden __ledf2
04105db0 g     F .text	00000140 __pow5mult
041119f4 g     O .bss	00000004 __nlocale_changed
04100f50 g     F .text	00000058 .hidden __umodsi3
04111b4c g       *ABS*	00000000 end
04100d24 g     F .text	00000068 yellow_light
04100540 g     F .text	00000074 key_setup
0410c2dc g     F .text	000000c0 altera_avalon_jtag_uart_init
080081d0 g     F .exceptions	00000074 alt_instruction_exception_entry
0410e02c g       *ABS*	00000000 __CTOR_LIST__
04200000 g       *ABS*	00000000 __alt_stack_pointer
0410bab0 g     F .text	00000064 .hidden __clzsi2
041010f0 g     F .text	000000d8 _snprintf_r
0410c9bc g     F .text	00000268 altera_avalon_jtag_uart_write
041119d8 g     O .bss	00000004 GPIO_state
0410568c g     F .text	000000e4 memchr
04107f04 g     F .text	00000310 _free_r
04104e2c g     F .text	00000010 __locale_mb_cur_max
0410de78 g     F .text	00000180 __call_exitprocs
041119f0 g     O .bss	00000004 __mlocale_changed
0410fe84 g     O .rwdata	00000004 __malloc_sbrk_base
04100224 g     F .text	0000004c _start
04111a1c g     O .bss	00000004 _alt_tick_rate
041119d0 g     O .bss	00000004 switch_state
04105ef0 g     F .text	00000148 __lshift
04111a20 g     O .bss	00000004 _alt_nticks
0410c124 g     F .text	00000054 alt_sys_init
04106910 g     F .text	000001d0 __ssprint_r
0410dd60 g     F .text	00000118 __register_exitproc
0410cdd8 g     F .text	00000054 altera_avalon_mutex_unlock
04105bb8 g     F .text	000001f8 __multiply
0410c648 g     F .text	00000068 altera_avalon_jtag_uart_close
0410e3b8 g       *ABS*	00000000 __ram_rwdata_start
0410e02c g       *ABS*	00000000 __ram_rodata_start
04111a24 g     O .bss	00000028 __malloc_current_mallinfo
04106404 g     F .text	0000014c __d2b
0410c178 g     F .text	00000060 altera_avalon_jtag_uart_read_fd
0410db64 g     F .text	000000a4 alt_get_fd
0410dce4 g     F .text	0000007c memcmp
0410c238 g     F .text	00000050 altera_avalon_jtag_uart_close_fd
04111b4c g       *ABS*	00000000 __alt_stack_base
0410c288 g     F .text	00000054 altera_avalon_jtag_uart_ioctl_fd
04109d58 g     F .text	000008e8 .hidden __divdf3
04106668 g     F .text	00000078 __copybits
0410e854 g     O .rwdata	00000408 __malloc_av_
0410a898 g     F .text	00000718 .hidden __muldf3
0410da5c g     F .text	00000108 alt_find_file
0410d1d8 g     F .text	000000a4 alt_dev_llist_insert
0410bf1c g     F .text	00000024 __malloc_lock
0410bf64 g     F .text	000000b0 sbrk
04101344 g     F .text	000021d8 ___svfprintf_internal_r
04107d1c g     F .text	000000c4 _calloc_r
041119c0 g       *ABS*	00000000 __bss_start
04100a90 g     F .text	00000090 handle_switch3
04108370 g     F .text	00000128 memset
04100270 g     F .text	000000f8 main
04111a14 g     O .bss	00000004 alt_envp
041119f8 g     O .bss	00000004 __malloc_max_total_mem
0410c1d8 g     F .text	00000060 altera_avalon_jtag_uart_write_fd
04200000 g       *ABS*	00000000 __alt_heap_limit
0410cd54 g     F .text	00000044 altera_avalon_mutex_lock
0410371c g     F .text	00001688 _dtoa_r
04104e80 g     F .text	0000080c _malloc_r
0410feb0 g     O .rwdata	00000004 alt_errno
04100df4 g     F .text	00000084 .hidden __divsi3
04107de0 g     F .text	00000124 _malloc_trim_r
0410e02c g       *ABS*	00000000 __CTOR_END__
04106834 g     F .text	000000dc strcmp
0410e02c g       *ABS*	00000000 __flash_rodata_start
0410e02c g       *ABS*	00000000 __DTOR_LIST__
0410a640 g     F .text	00000088 .hidden __nedf2
0410c0ec g     F .text	00000038 alt_irq_init
0410d830 g     F .text	00000064 alt_release_fd
0410e274 g     O .rodata	00000100 .hidden __clz_tab
041119ec g     O .bss	00000004 _PathLocale
0410dc98 g     F .text	00000014 atexit
04104e5c g     F .text	00000018 setlocale
0410fe7c g     O .rwdata	00000004 _impure_ptr
04100b70 g     F .text	0000014c translator
04111a0c g     O .bss	00000004 alt_argc
0410d2dc g     F .text	00000060 _do_dtors
04104e48 g     F .text	00000008 __locale_cjk_lang
08008020 g       .exceptions	00000000 alt_irq_entry
04106294 g     F .text	00000064 __ulp
0410fe9c g     O .rwdata	00000008 alt_fs_list
08008020 g       *ABS*	00000000 __ram_exceptions_start
04104e74 g     F .text	0000000c localeconv
04000000 g       *ABS*	00000000 __alt_mem_new_sdram_controller_0
0410bb14 g     F .text	00000050 alt_ic_isr_register
0410febc g       *ABS*	00000000 _edata
04111b4c g       *ABS*	00000000 _end
08008244 g       *ABS*	00000000 __ram_exceptions_end
0410c6b0 g     F .text	000000f0 altera_avalon_jtag_uart_ioctl
0410bbec g     F .text	0000008c alt_ic_irq_disable
0410fe88 g     O .rwdata	00000004 __malloc_trim_threshold
04104e3c g     F .text	0000000c __locale_msgcharset
0410dcac g     F .text	00000038 exit
04106098 g     F .text	000001fc __mdiff
08008000 g       *ABS*	00000000 __alt_mem_control_mem
04100e78 g     F .text	00000074 .hidden __modsi3
04200000 g       *ABS*	00000000 __alt_data_end
08008020 g     F .exceptions	00000000 alt_exception
0410dff8 g     F .text	00000034 _exit
0410cef0 g     F .text	0000012c alt_alarm_start
041012ac g     F .text	00000098 strlen
0410d6dc g     F .text	00000154 open
04100608 g     F .text	00000064 img_rx_setup
0410a6c8 g     F .text	000000dc .hidden __gedf2
0410d3cc g     F .text	00000034 alt_icache_flush_all
04100cbc g     F .text	00000068 red_light
0410fe8c g     O .rwdata	00000004 alt_priority_mask
0410bb64 g     F .text	00000088 alt_ic_irq_enable
0410cd30 g     F .text	00000024 altera_avalon_mutex_close
0410afb0 g     F .text	000008fc .hidden __subdf3
04105acc g     F .text	000000b0 __lo0bits
04100b20 g     F .text	00000050 handle_switch4
04100368 g     F .text	000000dc play_speaker
0410feb4 g     O .rwdata	00000008 alt_alarm_list
0410d27c g     F .text	00000060 _do_ctors
041119d4 g     O .bss	00000004 key_state
0410d058 g     F .text	000000d0 close
0410be1c g     F .text	00000084 alt_load
04105840 g     F .text	00000120 __multadd
04105818 g     F .text	00000028 _Bfree



Disassembly of section .entry:

08008000 <__reset>:
#if NIOS2_ICACHE_SIZE > 0 && defined(ALT_ALLOW_CODE_AT_RESET) && (!defined(ALT_SIM_OPTIMIZE) || defined(NIOS2_ECC_PRESENT))
    /* Assume the instruction cache size is always a power of two. */
#if NIOS2_ICACHE_SIZE > 0x8000
    movhi r2, %hi(NIOS2_ICACHE_SIZE)
#else
    movui r2, NIOS2_ICACHE_SIZE
 8008000:	00840014 	movui	r2,4096
#endif

0:
    initi r2
 8008004:	1001483a 	initi	r2
    addi r2, r2, -NIOS2_ICACHE_LINE_SIZE
 8008008:	10bff804 	addi	r2,r2,-32
    bgt r2, zero, 0b
 800800c:	00bffd16 	blt	zero,r2,8008004 <__ram_exceptions_end+0xfffffdc0>
 * Jump to the _start entry point in the .text section if reset code
 * is allowed or if optimizing for RTL simulation.
 */
#if defined(ALT_ALLOW_CODE_AT_RESET) || defined(ALT_SIM_OPTIMIZE)
    /* Jump to the _start entry point in the .text section. */
    movhi r1, %hi(_start)
 8008010:	00410434 	movhi	at,1040
    ori r1, r1, %lo(_start)
 8008014:	08408914 	ori	at,at,548
    jmp r1
 8008018:	0800683a 	jmp	at
 800801c:	00000000 	call	0 <__alt_mem_new_sdram_controller_0-0x4000000>

Disassembly of section .exceptions:

08008020 <alt_exception>:

#else /* ALT_EXCEPTION_STACK disabled */
        /* 
         * Reserve space on normal stack for registers about to be pushed.
         */
        addi  sp, sp, -76
 8008020:	deffed04 	addi	sp,sp,-76
         * documentation for details).
         *
         * Leave a gap in the stack frame at 4(sp) for the muldiv handler to
         * store zero into.
         */
        stw   ra,  0(sp)
 8008024:	dfc00015 	stw	ra,0(sp)
        stw   r1,   8(sp)
 8008028:	d8400215 	stw	at,8(sp)
        stw   r2,  12(sp)
 800802c:	d8800315 	stw	r2,12(sp)
        stw   r3,  16(sp)
 8008030:	d8c00415 	stw	r3,16(sp)
        stw   r4,  20(sp)
 8008034:	d9000515 	stw	r4,20(sp)
        stw   r5,  24(sp)
 8008038:	d9400615 	stw	r5,24(sp)
        stw   r6,  28(sp)
 800803c:	d9800715 	stw	r6,28(sp)
        stw   r7,  32(sp)
 8008040:	d9c00815 	stw	r7,32(sp)
        rdctl r5, estatus   /* Read early to avoid usage stall */
 8008044:	000b307a 	rdctl	r5,estatus
        stw   r8,  36(sp)
 8008048:	da000915 	stw	r8,36(sp)
        stw   r9,  40(sp)
 800804c:	da400a15 	stw	r9,40(sp)
        stw   r10, 44(sp)
 8008050:	da800b15 	stw	r10,44(sp)
        stw   r11, 48(sp)
 8008054:	dac00c15 	stw	r11,48(sp)
        stw   r12, 52(sp)
 8008058:	db000d15 	stw	r12,52(sp)
        stw   r13, 56(sp)
 800805c:	db400e15 	stw	r13,56(sp)
        stw   r14, 60(sp)
 8008060:	db800f15 	stw	r14,60(sp)
        stw   r15, 64(sp)
 8008064:	dbc01015 	stw	r15,64(sp)
        /*
         * ea-4 contains the address of the instruction being executed
         * when the exception occured. For interrupt exceptions, we will
         * will be re-issue the isntruction. Store it in 72(sp)
         */
        stw   r5,  68(sp)  /* estatus */
 8008068:	d9401115 	stw	r5,68(sp)
        addi  r15, ea, -4  /* instruction that caused exception */
 800806c:	ebffff04 	addi	r15,ea,-4
        stw   r15,  72(sp)
 8008070:	dbc01215 	stw	r15,72(sp)
#else
        /*
         * Test to see if the exception was a software exception or caused 
         * by an external interrupt, and vector accordingly.
         */
        rdctl r4, ipending
 8008074:	0009313a 	rdctl	r4,ipending
        andi  r2, r5, 1
 8008078:	2880004c 	andi	r2,r5,1
        beq   r2, zero, .Lnot_irq
 800807c:	10000326 	beq	r2,zero,800808c <alt_exception+0x6c>
        beq   r4, zero, .Lnot_irq
 8008080:	20000226 	beq	r4,zero,800808c <alt_exception+0x6c>
        /*
         * Now that all necessary registers have been preserved, call 
         * alt_irq_handler() to process the interrupts.
         */

        call alt_irq_handler
 8008084:	80080fc0 	call	80080fc <alt_irq_handler>

        .section .exceptions.irqreturn, "xa"

        br    .Lexception_exit
 8008088:	00000706 	br	80080a8 <alt_exception+0x88>
         * upon completion, so we write ea (address of instruction *after*
         * the one where the exception occured) into 72(sp). The actual
         * instruction that caused the exception is written in r2, which these
         * handlers will utilize.
         */
        stw ea, 72(sp) /* EA is PC+4 so will skip over instruction causing exception */
 800808c:	df401215 	stw	ea,72(sp)
.Lunknown_16bit:
        addi.n r4, r4, 2 /* Need PC+2 to skip over instruction causing exception */
        stw r4, 72(sp)

#else /* CDX is not Enabled and all instructions are 32bits */
        ldw r2, -4(ea) /* Instruction value that caused exception */
 8008090:	e8bfff17 	ldw	r2,-4(ea)
         * debugger is present) or go into an infinite loop since the
         * handling behavior is undefined; in that case we will not return here.
         */

        /* Load exception-causing address as first argument (r4) */
        addi   r4, ea, -4
 8008094:	e93fff04 	addi	r4,ea,-4

        /* Call the instruction-exception entry */
        call   alt_instruction_exception_entry
 8008098:	80081d00 	call	80081d0 <alt_instruction_exception_entry>
         * instruction
         *
         * Return code was 0: Skip. The instruction after the exception is
         * already stored in 72(sp).
         */
        bne   r2, r0, .Lexception_exit
 800809c:	1000021e 	bne	r2,zero,80080a8 <alt_exception+0x88>

        /*
         * Otherwise, modify 72(sp) to re-issue the instruction that caused the
         * exception.
         */
        addi  r15, ea, -4  /* instruction that caused exception */
 80080a0:	ebffff04 	addi	r15,ea,-4
        stw   r15,  72(sp)
 80080a4:	dbc01215 	stw	r15,72(sp)
        /* 
         * Restore the saved registers, so that all general purpose registers 
         * have been restored to their state at the time the interrupt occured.
         */

        ldw   r5,  68(sp)
 80080a8:	d9401117 	ldw	r5,68(sp)
        ldw   ea,  72(sp)  /* This becomes the PC once eret is executed */
 80080ac:	df401217 	ldw	ea,72(sp)
        ldw   ra,   0(sp)
 80080b0:	dfc00017 	ldw	ra,0(sp)

        wrctl estatus, r5
 80080b4:	2801707a 	wrctl	estatus,r5

        ldw   r1,   8(sp)
 80080b8:	d8400217 	ldw	at,8(sp)
        ldw   r2,  12(sp)
 80080bc:	d8800317 	ldw	r2,12(sp)
        ldw   r3,  16(sp)
 80080c0:	d8c00417 	ldw	r3,16(sp)
        ldw   r4,  20(sp)
 80080c4:	d9000517 	ldw	r4,20(sp)
        ldw   r5,  24(sp)
 80080c8:	d9400617 	ldw	r5,24(sp)
        ldw   r6,  28(sp)
 80080cc:	d9800717 	ldw	r6,28(sp)
        ldw   r7,  32(sp)
 80080d0:	d9c00817 	ldw	r7,32(sp)

#if defined(ALT_EXCEPTION_STACK) && defined(ALT_STACK_CHECK)
        ldw   et, %gprel(alt_exception_old_stack_limit)(gp)
#endif

        ldw   r8,  36(sp)
 80080d4:	da000917 	ldw	r8,36(sp)
        ldw   r9,  40(sp)
 80080d8:	da400a17 	ldw	r9,40(sp)
        ldw   r10, 44(sp)
 80080dc:	da800b17 	ldw	r10,44(sp)
        ldw   r11, 48(sp)
 80080e0:	dac00c17 	ldw	r11,48(sp)
        ldw   r12, 52(sp)
 80080e4:	db000d17 	ldw	r12,52(sp)
        ldw   r13, 56(sp)
 80080e8:	db400e17 	ldw	r13,56(sp)
        ldw   r14, 60(sp)
 80080ec:	db800f17 	ldw	r14,60(sp)
        ldw   r15, 64(sp)
 80080f0:	dbc01017 	ldw	r15,64(sp)
        stw   et, %gprel(alt_stack_limit_value)(gp)
        stw   zero, %gprel(alt_exception_old_stack_limit)(gp)
#endif /* ALT_STACK_CHECK */
        ldw   sp,  76(sp)
#else /* ALT_EXCEPTION_STACK disabled */
        addi  sp, sp, 76
 80080f4:	dec01304 	addi	sp,sp,76

        /*
         * Return to the interrupted instruction.
         */

        eret
 80080f8:	ef80083a 	eret

080080fc <alt_irq_handler>:
 * instruction is present if the macro ALT_CI_INTERRUPT_VECTOR defined.
 */

void alt_irq_handler (void) __attribute__ ((section (".exceptions")));
void alt_irq_handler (void)
{
 80080fc:	defff904 	addi	sp,sp,-28
 8008100:	dfc00615 	stw	ra,24(sp)
 8008104:	df000515 	stw	fp,20(sp)
 8008108:	df000504 	addi	fp,sp,20
  
  /*
   * Notify the operating system that we are at interrupt level.
   */ 
  
  ALT_OS_INT_ENTER();
 800810c:	0001883a 	nop
#ifndef NIOS2_EIC_PRESENT
static ALT_INLINE alt_u32 ALT_ALWAYS_INLINE alt_irq_pending (void)
{
  alt_u32 active;

  NIOS2_READ_IPENDING (active);
 8008110:	0005313a 	rdctl	r2,ipending
 8008114:	e0bffe15 	stw	r2,-8(fp)

  return active;
 8008118:	e0bffe17 	ldw	r2,-8(fp)
   * Consider the case where the high priority interupt is asserted during
   * the interrupt entry sequence for a lower priority interrupt to see why
   * this is the case.
   */

  active = alt_irq_pending ();
 800811c:	e0bffb15 	stw	r2,-20(fp)

  do
  {
    i = 0;
 8008120:	e03ffd15 	stw	zero,-12(fp)
    mask = 1;
 8008124:	00800044 	movi	r2,1
 8008128:	e0bffc15 	stw	r2,-16(fp)
     * called to clear the interrupt condition.
     */

    do
    {
      if (active & mask)
 800812c:	e0fffb17 	ldw	r3,-20(fp)
 8008130:	e0bffc17 	ldw	r2,-16(fp)
 8008134:	1884703a 	and	r2,r3,r2
 8008138:	10001426 	beq	r2,zero,800818c <alt_irq_handler+0x90>
      { 
#ifdef ALT_ENHANCED_INTERRUPT_API_PRESENT
        alt_irq[i].handler(alt_irq[i].context); 
 800813c:	00810474 	movhi	r2,1041
 8008140:	10869304 	addi	r2,r2,6732
 8008144:	e0fffd17 	ldw	r3,-12(fp)
 8008148:	180690fa 	slli	r3,r3,3
 800814c:	10c5883a 	add	r2,r2,r3
 8008150:	10c00017 	ldw	r3,0(r2)
 8008154:	00810474 	movhi	r2,1041
 8008158:	10869304 	addi	r2,r2,6732
 800815c:	e13ffd17 	ldw	r4,-12(fp)
 8008160:	200890fa 	slli	r4,r4,3
 8008164:	1105883a 	add	r2,r2,r4
 8008168:	10800104 	addi	r2,r2,4
 800816c:	10800017 	ldw	r2,0(r2)
 8008170:	1009883a 	mov	r4,r2
 8008174:	183ee83a 	callr	r3
#else
        alt_irq[i].handler(alt_irq[i].context, i); 
#endif
        break;
 8008178:	0001883a 	nop
#ifndef NIOS2_EIC_PRESENT
static ALT_INLINE alt_u32 ALT_ALWAYS_INLINE alt_irq_pending (void)
{
  alt_u32 active;

  NIOS2_READ_IPENDING (active);
 800817c:	0005313a 	rdctl	r2,ipending
 8008180:	e0bfff15 	stw	r2,-4(fp)

  return active;
 8008184:	e0bfff17 	ldw	r2,-4(fp)
 8008188:	00000706 	br	80081a8 <alt_irq_handler+0xac>
      }
      mask <<= 1;
 800818c:	e0bffc17 	ldw	r2,-16(fp)
 8008190:	1085883a 	add	r2,r2,r2
 8008194:	e0bffc15 	stw	r2,-16(fp)
      i++;
 8008198:	e0bffd17 	ldw	r2,-12(fp)
 800819c:	10800044 	addi	r2,r2,1
 80081a0:	e0bffd15 	stw	r2,-12(fp)

    } while (1);
 80081a4:	003fe106 	br	800812c <__ram_exceptions_end+0xfffffee8>

    active = alt_irq_pending ();
 80081a8:	e0bffb15 	stw	r2,-20(fp)
    
  } while (active);
 80081ac:	e0bffb17 	ldw	r2,-20(fp)
 80081b0:	103fdb1e 	bne	r2,zero,8008120 <__ram_exceptions_end+0xfffffedc>

  /*
   * Notify the operating system that interrupt processing is complete.
   */ 

  ALT_OS_INT_EXIT();
 80081b4:	0001883a 	nop
}
 80081b8:	0001883a 	nop
 80081bc:	e037883a 	mov	sp,fp
 80081c0:	dfc00117 	ldw	ra,4(sp)
 80081c4:	df000017 	ldw	fp,0(sp)
 80081c8:	dec00204 	addi	sp,sp,8
 80081cc:	f800283a 	ret

080081d0 <alt_instruction_exception_entry>:
 * that handler if it has been registered. Absent a handler, it will
 * break break or hang as discussed below.
 */
int 
alt_instruction_exception_entry (alt_u32 exception_pc)
{
 80081d0:	defffb04 	addi	sp,sp,-20
 80081d4:	dfc00415 	stw	ra,16(sp)
 80081d8:	df000315 	stw	fp,12(sp)
 80081dc:	df000304 	addi	fp,sp,12
 80081e0:	e13fff15 	stw	r4,-4(fp)
 * NIOS2_EXCEPTION_CAUSE_NOT_PRESENT. Your handling routine should
 * check the validity of the cause argument before proceeding.
 */
#ifdef NIOS2_HAS_EXTRA_EXCEPTION_INFO
  /* Get exception cause & "badaddr" */
  NIOS2_READ_EXCEPTION(cause);
 80081e4:	000531fa 	rdctl	r2,exception
 80081e8:	e0bffd15 	stw	r2,-12(fp)
  cause = ( (cause & NIOS2_EXCEPTION_REG_CAUSE_MASK) >>
 80081ec:	e0bffd17 	ldw	r2,-12(fp)
 80081f0:	10801f0c 	andi	r2,r2,124
 80081f4:	1004d0ba 	srli	r2,r2,2
 80081f8:	e0bffd15 	stw	r2,-12(fp)
              NIOS2_EXCEPTION_REG_CAUSE_OFST );

  NIOS2_READ_BADADDR(badaddr);
 80081fc:	0005333a 	rdctl	r2,badaddr
 8008200:	e0bffe15 	stw	r2,-8(fp)
#else
  cause = NIOS2_EXCEPTION_CAUSE_NOT_PRESENT;
  badaddr = 0;
#endif /* NIOS2_HAS_EXTRA_EXCEPTION_INFO */

  if(alt_instruction_exception_handler) {
 8008204:	d0a6e917 	ldw	r2,-25692(gp)
 8008208:	10000726 	beq	r2,zero,8008228 <alt_instruction_exception_entry+0x58>
     * Call handler. Its return value indicates whether the exception-causing
     * instruction should be re-issued. The code that called us,
     * alt_eceptions_entry.S, will look at this value and adjust the ea
     * register as necessary
     */
    return alt_instruction_exception_handler(cause, exception_pc, badaddr);
 800820c:	d0a6e917 	ldw	r2,-25692(gp)
 8008210:	e0fffd17 	ldw	r3,-12(fp)
 8008214:	e1bffe17 	ldw	r6,-8(fp)
 8008218:	e17fff17 	ldw	r5,-4(fp)
 800821c:	1809883a 	mov	r4,r3
 8008220:	103ee83a 	callr	r2
 8008224:	00000206 	br	8008230 <alt_instruction_exception_entry+0x60>
   *    (a peripheral which negates its interrupt output before its
   *    interrupt handler has been executed will cause spurious interrupts)
   */
  else {
#ifdef NIOS2_HAS_DEBUG_STUB
    NIOS2_BREAK();
 8008228:	003da03a 	break	0
      ;
#endif /* NIOS2_HAS_DEBUG_STUB */
  }

  /* We should not get here. Remove compiler warning. */
  return NIOS2_EXCEPTION_RETURN_REISSUE_INST;
 800822c:	0005883a 	mov	r2,zero
}
 8008230:	e037883a 	mov	sp,fp
 8008234:	dfc00117 	ldw	ra,4(sp)
 8008238:	df000017 	ldw	fp,0(sp)
 800823c:	dec00204 	addi	sp,sp,8
 8008240:	f800283a 	ret

Disassembly of section .text:

04100224 <_start>:

    /* Assume the data cache size is always a power of two. */
#if NIOS2_DCACHE_SIZE > 0x8000
    movhi r2, %hi(NIOS2_DCACHE_SIZE)
#else
    movui r2, NIOS2_DCACHE_SIZE
 4100224:	00820014 	movui	r2,2048
#endif

0:
    initd 0(r2)
 4100228:	10000033 	initd	0(r2)
#ifdef NIOS2_ECC_PRESENT
    addi r2, r2, -4
#else
    addi r2, r2, -NIOS2_DCACHE_LINE_SIZE
 410022c:	10bff804 	addi	r2,r2,-32
#endif
    bgt r2, zero, 0b
 4100230:	00bffd16 	blt	zero,r2,4100228 <__ram_exceptions_end+0xfc0f7fe4>

    /*
     * Now that the caches are initialized, set up the stack pointer and global pointer.
     * The values provided by the linker are assumed to be correctly aligned.
     */
    movhi sp, %hi(__alt_stack_pointer)
 4100234:	06c10834 	movhi	sp,1056
    ori sp, sp, %lo(__alt_stack_pointer)
 4100238:	dec00014 	ori	sp,sp,0
    movhi gp, %hi(_gp)
 410023c:	06810474 	movhi	gp,1041
    ori gp, gp, %lo(_gp)
 4100240:	d69f9d14 	ori	gp,gp,32372
 */
#ifndef ALT_SIM_OPTIMIZE
    /* Log that the BSS is about to be cleared. */
    ALT_LOG_PUTS(alt_log_msg_bss)

    movhi r2, %hi(__bss_start)
 4100244:	00810474 	movhi	r2,1041
    ori r2, r2, %lo(__bss_start)
 4100248:	10867014 	ori	r2,r2,6592

    movhi r3, %hi(__bss_end)
 410024c:	00c10474 	movhi	r3,1041
    ori r3, r3, %lo(__bss_end)
 4100250:	18c6d314 	ori	r3,r3,6988

    beq r2, r3, 1f
 4100254:	10c00326 	beq	r2,r3,4100264 <_start+0x40>

0:
    stw zero, (r2)
 4100258:	10000015 	stw	zero,0(r2)
    addi r2, r2, 4
 410025c:	10800104 	addi	r2,r2,4
    bltu r2, r3, 0b
 4100260:	10fffd36 	bltu	r2,r3,4100258 <__ram_exceptions_end+0xfc0f8014>
     * section aren't defined until alt_load() has been called).
     */
    mov   et, zero
#endif

    call alt_load
 4100264:	410be1c0 	call	410be1c <alt_load>

    /* Log that alt_main is about to be called. */
    ALT_LOG_PUTS(alt_log_msg_alt_main)

    /* Call the C entry point. It should never return. */
    call alt_main
 4100268:	410bea00 	call	410bea0 <alt_main>

0410026c <alt_after_alt_main>:

    /* Wait in infinite loop in case alt_main does return. */
alt_after_alt_main:
    br alt_after_alt_main
 410026c:	003fff06 	br	410026c <__ram_exceptions_end+0xfc0f8028>

04100270 <main>:

#define TRAFFIC_THRESHOLD 20000
#define ACCEL_THRESHOLD 5000

int main(void)
{
 4100270:	defffc04 	addi	sp,sp,-16
 4100274:	dfc00315 	stw	ra,12(sp)
 4100278:	df000215 	stw	fp,8(sp)
 410027c:	df000204 	addi	fp,sp,8
    // Setup Traffic Light
    int traffic_counter = 0;
 4100280:	e03ffe15 	stw	zero,-8(fp)
    int traffic_state = 0;   /* 0=green, 1=yellow, 2=red */
 4100284:	e03fff15 	stw	zero,-4(fp)

    /* initial traffic light */
    green_light(1);
 4100288:	01000044 	movi	r4,1
 410028c:	4100d8c0 	call	4100d8c <green_light>
    yellow_light(0);
 4100290:	0009883a 	mov	r4,zero
 4100294:	4100d240 	call	4100d24 <yellow_light>
    red_light(0);
 4100298:	0009883a 	mov	r4,zero
 410029c:	4100cbc0 	call	4100cbc <red_light>

    // Setup the switch and key interrupts
    switch_setup();
 41002a0:	41004880 	call	4100488 <switch_setup>
    key_setup();
 41002a4:	41005400 	call	4100540 <key_setup>
    img_rx_setup();
 41002a8:	41006080 	call	4100608 <img_rx_setup>
    vga_rx_setup();
 41002ac:	41006c00 	call	41006c0 <vga_rx_setup>

    while (1)
    {
    	// Key Operations
    	handle_key1();
 41002b0:	41007240 	call	4100724 <handle_key1>
    	handle_key2();
 41002b4:	41007980 	call	4100798 <handle_key2>

        // Flag Switch and Reset HEX
        HEX_enable();
 41002b8:	41008100 	call	4100810 <HEX_enable>

        // Handle CPU and Speaker switch
        handle_switch2("TEST123");
 41002bc:	01010474 	movhi	r4,1041
 41002c0:	21380b04 	addi	r4,r4,-8148
 41002c4:	41008b40 	call	41008b4 <handle_switch2>
        handle_switch3();
 41002c8:	4100a900 	call	4100a90 <handle_switch3>
        handle_switch4();
 41002cc:	4100b200 	call	4100b20 <handle_switch4>

        // Traffic Light operation
        traffic_counter++;
 41002d0:	e0bffe17 	ldw	r2,-8(fp)
 41002d4:	10800044 	addi	r2,r2,1
 41002d8:	e0bffe15 	stw	r2,-8(fp)
        if (traffic_counter >= TRAFFIC_THRESHOLD)
 41002dc:	e0bffe17 	ldw	r2,-8(fp)
 41002e0:	10938810 	cmplti	r2,r2,20000
 41002e4:	103ff21e 	bne	r2,zero,41002b0 <__ram_exceptions_end+0xfc0f806c>
        {
            if (traffic_state == 0) {
 41002e8:	e0bfff17 	ldw	r2,-4(fp)
 41002ec:	1000091e 	bne	r2,zero,4100314 <main+0xa4>
                green_light(0);
 41002f0:	0009883a 	mov	r4,zero
 41002f4:	4100d8c0 	call	4100d8c <green_light>
                yellow_light(1);
 41002f8:	01000044 	movi	r4,1
 41002fc:	4100d240 	call	4100d24 <yellow_light>
                red_light(0);
 4100300:	0009883a 	mov	r4,zero
 4100304:	4100cbc0 	call	4100cbc <red_light>
                traffic_state = 1;
 4100308:	00800044 	movi	r2,1
 410030c:	e0bfff15 	stw	r2,-4(fp)
 4100310:	00001306 	br	4100360 <main+0xf0>
            }
            else if (traffic_state == 1) {
 4100314:	e0bfff17 	ldw	r2,-4(fp)
 4100318:	10800058 	cmpnei	r2,r2,1
 410031c:	1000091e 	bne	r2,zero,4100344 <main+0xd4>
                green_light(0);
 4100320:	0009883a 	mov	r4,zero
 4100324:	4100d8c0 	call	4100d8c <green_light>
                yellow_light(0);
 4100328:	0009883a 	mov	r4,zero
 410032c:	4100d240 	call	4100d24 <yellow_light>
                red_light(1);
 4100330:	01000044 	movi	r4,1
 4100334:	4100cbc0 	call	4100cbc <red_light>
                traffic_state = 2;
 4100338:	00800084 	movi	r2,2
 410033c:	e0bfff15 	stw	r2,-4(fp)
 4100340:	00000706 	br	4100360 <main+0xf0>
            }
            else {
                green_light(1);
 4100344:	01000044 	movi	r4,1
 4100348:	4100d8c0 	call	4100d8c <green_light>
                yellow_light(0);
 410034c:	0009883a 	mov	r4,zero
 4100350:	4100d240 	call	4100d24 <yellow_light>
                red_light(0);
 4100354:	0009883a 	mov	r4,zero
 4100358:	4100cbc0 	call	4100cbc <red_light>
                traffic_state = 0;
 410035c:	e03fff15 	stw	zero,-4(fp)
            }

            traffic_counter = 0;
 4100360:	e03ffe15 	stw	zero,-8(fp)
        }
    }
 4100364:	003fd206 	br	41002b0 <__ram_exceptions_end+0xfc0f806c>

04100368 <play_speaker>:
static int frequency_threshold = 0; // threshold before toggling and resetting counter
static int frequency_prev = 0; // remembers previous frequency to avoid redundant calculations


// Play a given tone
void play_speaker (int frequency, int on_off){
 4100368:	defffc04 	addi	sp,sp,-16
 410036c:	dfc00315 	stw	ra,12(sp)
 4100370:	df000215 	stw	fp,8(sp)
 4100374:	df000204 	addi	fp,sp,8
 4100378:	e13ffe15 	stw	r4,-8(fp)
 410037c:	e17fff15 	stw	r5,-4(fp)

	// check if frequency is new and valid
	if (frequency > 0) {
 4100380:	e0bffe17 	ldw	r2,-8(fp)
 4100384:	00800d0e 	bge	zero,r2,41003bc <play_speaker+0x54>
		if (frequency != frequency_prev)
 4100388:	d0a6d617 	ldw	r2,-25768(gp)
 410038c:	e0fffe17 	ldw	r3,-8(fp)
 4100390:	18800c26 	beq	r3,r2,41003c4 <play_speaker+0x5c>
		{
			// updates the required parameters
			frequency_threshold = (500000/(frequency*2));
 4100394:	e0bffe17 	ldw	r2,-8(fp)
 4100398:	1085883a 	add	r2,r2,r2
 410039c:	100b883a 	mov	r5,r2
 41003a0:	01000234 	movhi	r4,8
 41003a4:	21284804 	addi	r4,r4,-24288
 41003a8:	4100df40 	call	4100df4 <__divsi3>
 41003ac:	d0a6d515 	stw	r2,-25772(gp)
			frequency_prev = frequency;
 41003b0:	e0bffe17 	ldw	r2,-8(fp)
 41003b4:	d0a6d615 	stw	r2,-25768(gp)
 41003b8:	00000206 	br	41003c4 <play_speaker+0x5c>
		}
	}
	else {
		frequency_prev = frequency;
 41003bc:	e0bffe17 	ldw	r2,-8(fp)
 41003c0:	d0a6d615 	stw	r2,-25768(gp)
	}

	// toggles if on
	if (on_off && (frequency > 0)){
 41003c4:	e0bfff17 	ldw	r2,-4(fp)
 41003c8:	10001226 	beq	r2,zero,4100414 <play_speaker+0xac>
 41003cc:	e0bffe17 	ldw	r2,-8(fp)
 41003d0:	0080100e 	bge	zero,r2,4100414 <play_speaker+0xac>
		toggle_counter++;
 41003d4:	d0a6d417 	ldw	r2,-25776(gp)
 41003d8:	10800044 	addi	r2,r2,1
 41003dc:	d0a6d415 	stw	r2,-25776(gp)
		if (toggle_counter >= frequency_threshold){
 41003e0:	d0e6d417 	ldw	r3,-25776(gp)
 41003e4:	d0a6d517 	ldw	r2,-25772(gp)
 41003e8:	18801016 	blt	r3,r2,410042c <play_speaker+0xc4>
			speaker_current = (!speaker_current);
 41003ec:	d0a6d317 	ldw	r2,-25780(gp)
 41003f0:	1005003a 	cmpeq	r2,r2,zero
 41003f4:	10803fcc 	andi	r2,r2,255
 41003f8:	d0a6d315 	stw	r2,-25780(gp)
			IOWR_ALTERA_AVALON_PIO_DATA(PIO_SPEAKER_BASE, speaker_current);
 41003fc:	d0e6d317 	ldw	r3,-25780(gp)
 4100400:	00820074 	movhi	r2,2049
 4100404:	10845004 	addi	r2,r2,4416
 4100408:	10c00035 	stwio	r3,0(r2)
			toggle_counter = 0;
 410040c:	d026d415 	stw	zero,-25776(gp)
	}

	// toggles if on
	if (on_off && (frequency > 0)){
		toggle_counter++;
		if (toggle_counter >= frequency_threshold){
 4100410:	00000606 	br	410042c <play_speaker+0xc4>
			toggle_counter = 0;
		}
	}
	// silences if off
	else {
		IOWR_ALTERA_AVALON_PIO_DATA(PIO_SPEAKER_BASE, 0);
 4100414:	0007883a 	mov	r3,zero
 4100418:	00820074 	movhi	r2,2049
 410041c:	10845004 	addi	r2,r2,4416
 4100420:	10c00035 	stwio	r3,0(r2)
		speaker_current = 0;
 4100424:	d026d315 	stw	zero,-25780(gp)
		toggle_counter = 0;
 4100428:	d026d415 	stw	zero,-25776(gp)
	}
}
 410042c:	0001883a 	nop
 4100430:	e037883a 	mov	sp,fp
 4100434:	dfc00117 	ldw	ra,4(sp)
 4100438:	df000017 	ldw	fp,0(sp)
 410043c:	dec00204 	addi	sp,sp,8
 4100440:	f800283a 	ret

04100444 <switch_isr>:
#define CON_IMG_IRQ_TX_BASE 0x8011130
#define CON_VGA_IRQ_TX_BASE 0x8011110
#define CON_IMG_IRQ_RX_IRQ 3
#define CON_VGA_IRQ_RX_IRQ 4

static void switch_isr(void* context) {
 4100444:	defffe04 	addi	sp,sp,-8
 4100448:	df000115 	stw	fp,4(sp)
 410044c:	df000104 	addi	fp,sp,4
 4100450:	e13fff15 	stw	r4,-4(fp)
    // Clear the edge capture register
    IOWR_ALTERA_AVALON_PIO_EDGE_CAP(PIO_SW_BASE, 0xF);
 4100454:	00c003c4 	movi	r3,15
 4100458:	00820074 	movhi	r2,2049
 410045c:	10847b04 	addi	r2,r2,4588
 4100460:	10c00035 	stwio	r3,0(r2)

    // Updates the switch switch_state
    switch_state = IORD_ALTERA_AVALON_PIO_DATA(PIO_SW_BASE);
 4100464:	00820074 	movhi	r2,2049
 4100468:	10847804 	addi	r2,r2,4576
 410046c:	10800037 	ldwio	r2,0(r2)
 4100470:	d0a6d715 	stw	r2,-25764(gp)
}
 4100474:	0001883a 	nop
 4100478:	e037883a 	mov	sp,fp
 410047c:	df000017 	ldw	fp,0(sp)
 4100480:	dec00104 	addi	sp,sp,4
 4100484:	f800283a 	ret

04100488 <switch_setup>:

void switch_setup(void) {
 4100488:	defffd04 	addi	sp,sp,-12
 410048c:	dfc00215 	stw	ra,8(sp)
 4100490:	df000115 	stw	fp,4(sp)
 4100494:	df000104 	addi	fp,sp,4
    // Clear pending switch triggers
    IOWR_ALTERA_AVALON_PIO_EDGE_CAP(PIO_SW_BASE, 0xF);
 4100498:	00c003c4 	movi	r3,15
 410049c:	00820074 	movhi	r2,2049
 41004a0:	10847b04 	addi	r2,r2,4588
 41004a4:	10c00035 	stwio	r3,0(r2)

    // Enable hardware interrupts
    IOWR_ALTERA_AVALON_PIO_IRQ_MASK(PIO_SW_BASE, 0xF);
 41004a8:	00c003c4 	movi	r3,15
 41004ac:	00820074 	movhi	r2,2049
 41004b0:	10847a04 	addi	r2,r2,4584
 41004b4:	10c00035 	stwio	r3,0(r2)

    // Register the ISR with the processor
    alt_ic_isr_register(
 41004b8:	d8000015 	stw	zero,0(sp)
 41004bc:	000f883a 	mov	r7,zero
 41004c0:	01810434 	movhi	r6,1040
 41004c4:	31811104 	addi	r6,r6,1092
 41004c8:	01400084 	movi	r5,2
 41004cc:	0009883a 	mov	r4,zero
 41004d0:	410bb140 	call	410bb14 <alt_ic_isr_register>
        NULL,
        NULL
    );

    // Setup initial switch switch_state
    switch_state = IORD_ALTERA_AVALON_PIO_DATA(PIO_SW_BASE);
 41004d4:	00820074 	movhi	r2,2049
 41004d8:	10847804 	addi	r2,r2,4576
 41004dc:	10800037 	ldwio	r2,0(r2)
 41004e0:	d0a6d715 	stw	r2,-25764(gp)
}
 41004e4:	0001883a 	nop
 41004e8:	e037883a 	mov	sp,fp
 41004ec:	dfc00117 	ldw	ra,4(sp)
 41004f0:	df000017 	ldw	fp,0(sp)
 41004f4:	dec00204 	addi	sp,sp,8
 41004f8:	f800283a 	ret

041004fc <key_isr>:

static void key_isr(void* context) {
 41004fc:	defffe04 	addi	sp,sp,-8
 4100500:	df000115 	stw	fp,4(sp)
 4100504:	df000104 	addi	fp,sp,4
 4100508:	e13fff15 	stw	r4,-4(fp)
    // Clear the edge capture register
    IOWR_ALTERA_AVALON_PIO_EDGE_CAP(PIO_PB_BASE, 0x3);
 410050c:	00c000c4 	movi	r3,3
 4100510:	00820074 	movhi	r2,2049
 4100514:	10847704 	addi	r2,r2,4572
 4100518:	10c00035 	stwio	r3,0(r2)

    // Updates the key key_state
    key_state = IORD_ALTERA_AVALON_PIO_DATA(PIO_PB_BASE);
 410051c:	00820074 	movhi	r2,2049
 4100520:	10847404 	addi	r2,r2,4560
 4100524:	10800037 	ldwio	r2,0(r2)
 4100528:	d0a6d815 	stw	r2,-25760(gp)
}
 410052c:	0001883a 	nop
 4100530:	e037883a 	mov	sp,fp
 4100534:	df000017 	ldw	fp,0(sp)
 4100538:	dec00104 	addi	sp,sp,4
 410053c:	f800283a 	ret

04100540 <key_setup>:

void key_setup(void) {
 4100540:	defffd04 	addi	sp,sp,-12
 4100544:	dfc00215 	stw	ra,8(sp)
 4100548:	df000115 	stw	fp,4(sp)
 410054c:	df000104 	addi	fp,sp,4
    // Clear pending key triggers
    IOWR_ALTERA_AVALON_PIO_EDGE_CAP(PIO_PB_BASE, 0x3);
 4100550:	00c000c4 	movi	r3,3
 4100554:	00820074 	movhi	r2,2049
 4100558:	10847704 	addi	r2,r2,4572
 410055c:	10c00035 	stwio	r3,0(r2)

    // Enable hardware interrupts
    IOWR_ALTERA_AVALON_PIO_IRQ_MASK(PIO_PB_BASE, 0x3);
 4100560:	00c000c4 	movi	r3,3
 4100564:	00820074 	movhi	r2,2049
 4100568:	10847604 	addi	r2,r2,4568
 410056c:	10c00035 	stwio	r3,0(r2)

    // Register the ISR with the processor
    alt_ic_isr_register(
 4100570:	d8000015 	stw	zero,0(sp)
 4100574:	000f883a 	mov	r7,zero
 4100578:	01810434 	movhi	r6,1040
 410057c:	31813f04 	addi	r6,r6,1276
 4100580:	01400044 	movi	r5,1
 4100584:	0009883a 	mov	r4,zero
 4100588:	410bb140 	call	410bb14 <alt_ic_isr_register>
        NULL,
        NULL
    );

    // Setup initial key key_state
    key_state = IORD_ALTERA_AVALON_PIO_DATA(PIO_PB_BASE);
 410058c:	00820074 	movhi	r2,2049
 4100590:	10847404 	addi	r2,r2,4560
 4100594:	10800037 	ldwio	r2,0(r2)
 4100598:	d0a6d815 	stw	r2,-25760(gp)
}
 410059c:	0001883a 	nop
 41005a0:	e037883a 	mov	sp,fp
 41005a4:	dfc00117 	ldw	ra,4(sp)
 41005a8:	df000017 	ldw	fp,0(sp)
 41005ac:	dec00204 	addi	sp,sp,8
 41005b0:	f800283a 	ret

041005b4 <img_rx_isr>:

static void img_rx_isr(void* context) {
 41005b4:	defffe04 	addi	sp,sp,-8
 41005b8:	df000115 	stw	fp,4(sp)
 41005bc:	df000104 	addi	fp,sp,4
 41005c0:	e13fff15 	stw	r4,-4(fp)
    // Clear the edge capture register
    IOWR_ALTERA_AVALON_PIO_EDGE_CAP(CON_IMG_IRQ_RX_BASE, 0x1);
 41005c4:	00c00044 	movi	r3,1
 41005c8:	00820074 	movhi	r2,2049
 41005cc:	10844b04 	addi	r2,r2,4396
 41005d0:	10c00035 	stwio	r3,0(r2)

    // Resets the GPIO [0]
    IOWR_ALTERA_AVALON_PIO_DATA(PIO_GPIO_BASE, (GPIO_state & 0x2));
 41005d4:	d0a6d917 	ldw	r2,-25756(gp)
 41005d8:	10c0008c 	andi	r3,r2,2
 41005dc:	00820074 	movhi	r2,2049
 41005e0:	10847004 	addi	r2,r2,4544
 41005e4:	10c00035 	stwio	r3,0(r2)
    GPIO_state = GPIO_state & 0x2;
 41005e8:	d0a6d917 	ldw	r2,-25756(gp)
 41005ec:	1080008c 	andi	r2,r2,2
 41005f0:	d0a6d915 	stw	r2,-25756(gp)
}
 41005f4:	0001883a 	nop
 41005f8:	e037883a 	mov	sp,fp
 41005fc:	df000017 	ldw	fp,0(sp)
 4100600:	dec00104 	addi	sp,sp,4
 4100604:	f800283a 	ret

04100608 <img_rx_setup>:

void img_rx_setup(void) {
 4100608:	defffd04 	addi	sp,sp,-12
 410060c:	dfc00215 	stw	ra,8(sp)
 4100610:	df000115 	stw	fp,4(sp)
 4100614:	df000104 	addi	fp,sp,4
    // Clear GPIO triggers
    IOWR_ALTERA_AVALON_PIO_EDGE_CAP(CON_IMG_IRQ_RX_BASE, 0x1);
 4100618:	00c00044 	movi	r3,1
 410061c:	00820074 	movhi	r2,2049
 4100620:	10844b04 	addi	r2,r2,4396
 4100624:	10c00035 	stwio	r3,0(r2)

    // Enable hardware interrupts
    IOWR_ALTERA_AVALON_PIO_IRQ_MASK(CON_IMG_IRQ_RX_BASE, 0x1);
 4100628:	00c00044 	movi	r3,1
 410062c:	00820074 	movhi	r2,2049
 4100630:	10844a04 	addi	r2,r2,4392
 4100634:	10c00035 	stwio	r3,0(r2)

    // Register the ISR with the processor
    alt_ic_isr_register(
 4100638:	d8000015 	stw	zero,0(sp)
 410063c:	000f883a 	mov	r7,zero
 4100640:	01810434 	movhi	r6,1040
 4100644:	31816d04 	addi	r6,r6,1460
 4100648:	014000c4 	movi	r5,3
 410064c:	0009883a 	mov	r4,zero
 4100650:	410bb140 	call	410bb14 <alt_ic_isr_register>
		CON_IMG_IRQ_RX_IRQ,
        img_rx_isr,
        NULL,
        NULL
    );
}
 4100654:	0001883a 	nop
 4100658:	e037883a 	mov	sp,fp
 410065c:	dfc00117 	ldw	ra,4(sp)
 4100660:	df000017 	ldw	fp,0(sp)
 4100664:	dec00204 	addi	sp,sp,8
 4100668:	f800283a 	ret

0410066c <vga_rx_isr>:

static void vga_rx_isr(void* context) {
 410066c:	defffe04 	addi	sp,sp,-8
 4100670:	df000115 	stw	fp,4(sp)
 4100674:	df000104 	addi	fp,sp,4
 4100678:	e13fff15 	stw	r4,-4(fp)
    // Clear the edge capture register
    IOWR_ALTERA_AVALON_PIO_EDGE_CAP(CON_VGA_IRQ_RX_BASE, 0x1);
 410067c:	00c00044 	movi	r3,1
 4100680:	00820074 	movhi	r2,2049
 4100684:	10844304 	addi	r2,r2,4364
 4100688:	10c00035 	stwio	r3,0(r2)

    // Resets the GPIO [1]
    IOWR_ALTERA_AVALON_PIO_DATA(PIO_GPIO_BASE, (GPIO_state & 0x1));
 410068c:	d0a6d917 	ldw	r2,-25756(gp)
 4100690:	10c0004c 	andi	r3,r2,1
 4100694:	00820074 	movhi	r2,2049
 4100698:	10847004 	addi	r2,r2,4544
 410069c:	10c00035 	stwio	r3,0(r2)
    GPIO_state = GPIO_state & 0x1;
 41006a0:	d0a6d917 	ldw	r2,-25756(gp)
 41006a4:	1080004c 	andi	r2,r2,1
 41006a8:	d0a6d915 	stw	r2,-25756(gp)
}
 41006ac:	0001883a 	nop
 41006b0:	e037883a 	mov	sp,fp
 41006b4:	df000017 	ldw	fp,0(sp)
 41006b8:	dec00104 	addi	sp,sp,4
 41006bc:	f800283a 	ret

041006c0 <vga_rx_setup>:

void vga_rx_setup(void) {
 41006c0:	defffd04 	addi	sp,sp,-12
 41006c4:	dfc00215 	stw	ra,8(sp)
 41006c8:	df000115 	stw	fp,4(sp)
 41006cc:	df000104 	addi	fp,sp,4
    // Clear GPIO triggers
    IOWR_ALTERA_AVALON_PIO_EDGE_CAP(CON_VGA_IRQ_RX_BASE, 0x1);
 41006d0:	00c00044 	movi	r3,1
 41006d4:	00820074 	movhi	r2,2049
 41006d8:	10844304 	addi	r2,r2,4364
 41006dc:	10c00035 	stwio	r3,0(r2)

    // Enable hardware interrupts
    IOWR_ALTERA_AVALON_PIO_IRQ_MASK(CON_VGA_IRQ_RX_BASE, 0x1);
 41006e0:	00c00044 	movi	r3,1
 41006e4:	00820074 	movhi	r2,2049
 41006e8:	10844204 	addi	r2,r2,4360
 41006ec:	10c00035 	stwio	r3,0(r2)

    // Register the ISR with the processor
    alt_ic_isr_register(
 41006f0:	d8000015 	stw	zero,0(sp)
 41006f4:	000f883a 	mov	r7,zero
 41006f8:	01810434 	movhi	r6,1040
 41006fc:	31819b04 	addi	r6,r6,1644
 4100700:	01400104 	movi	r5,4
 4100704:	0009883a 	mov	r4,zero
 4100708:	410bb140 	call	410bb14 <alt_ic_isr_register>
		CON_VGA_IRQ_RX_IRQ,
        vga_rx_isr,
        NULL,
        NULL
    );
}
 410070c:	0001883a 	nop
 4100710:	e037883a 	mov	sp,fp
 4100714:	dfc00117 	ldw	ra,4(sp)
 4100718:	df000017 	ldw	fp,0(sp)
 410071c:	dec00204 	addi	sp,sp,8
 4100720:	f800283a 	ret

04100724 <handle_key1>:

void handle_key1(void)
{
 4100724:	deffff04 	addi	sp,sp,-4
 4100728:	df000015 	stw	fp,0(sp)
 410072c:	d839883a 	mov	fp,sp
	if ((~key_state) & 0x01)
 4100730:	d0a6d817 	ldw	r2,-25760(gp)
 4100734:	1080004c 	andi	r2,r2,1
 4100738:	1000121e 	bne	r2,zero,4100784 <handle_key1+0x60>
	{
		IOWR_ALTERA_AVALON_PIO_DATA(CON_IMG_IRQ_TX_BASE, 0x1);
 410073c:	00c00044 	movi	r3,1
 4100740:	00820074 	movhi	r2,2049
 4100744:	10844c04 	addi	r2,r2,4400
 4100748:	10c00035 	stwio	r3,0(r2)
		IOWR_ALTERA_AVALON_PIO_DATA(CON_IMG_IRQ_TX_BASE, 0x0);
 410074c:	0007883a 	mov	r3,zero
 4100750:	00820074 	movhi	r2,2049
 4100754:	10844c04 	addi	r2,r2,4400
 4100758:	10c00035 	stwio	r3,0(r2)
		GPIO_state = GPIO_state | 0x1;
 410075c:	d0a6d917 	ldw	r2,-25756(gp)
 4100760:	10800054 	ori	r2,r2,1
 4100764:	d0a6d915 	stw	r2,-25756(gp)
		IOWR_ALTERA_AVALON_PIO_DATA(PIO_GPIO_BASE, GPIO_state);
 4100768:	d0e6d917 	ldw	r3,-25756(gp)
 410076c:	00820074 	movhi	r2,2049
 4100770:	10847004 	addi	r2,r2,4544
 4100774:	10c00035 	stwio	r3,0(r2)
		key_state = (key_state | 0x01);
 4100778:	d0a6d817 	ldw	r2,-25760(gp)
 410077c:	10800054 	ori	r2,r2,1
 4100780:	d0a6d815 	stw	r2,-25760(gp)
	}
}
 4100784:	0001883a 	nop
 4100788:	e037883a 	mov	sp,fp
 410078c:	df000017 	ldw	fp,0(sp)
 4100790:	dec00104 	addi	sp,sp,4
 4100794:	f800283a 	ret

04100798 <handle_key2>:

void handle_key2(void)
{
 4100798:	deffff04 	addi	sp,sp,-4
 410079c:	df000015 	stw	fp,0(sp)
 41007a0:	d839883a 	mov	fp,sp
	if ((~key_state) & 0x02)
 41007a4:	d0a6d817 	ldw	r2,-25760(gp)
 41007a8:	0084303a 	nor	r2,zero,r2
 41007ac:	1080008c 	andi	r2,r2,2
 41007b0:	10001226 	beq	r2,zero,41007fc <handle_key2+0x64>
	{
		IOWR_ALTERA_AVALON_PIO_DATA(CON_VGA_IRQ_TX_BASE, 0x1);
 41007b4:	00c00044 	movi	r3,1
 41007b8:	00820074 	movhi	r2,2049
 41007bc:	10844404 	addi	r2,r2,4368
 41007c0:	10c00035 	stwio	r3,0(r2)
		IOWR_ALTERA_AVALON_PIO_DATA(CON_VGA_IRQ_TX_BASE, 0x0);
 41007c4:	0007883a 	mov	r3,zero
 41007c8:	00820074 	movhi	r2,2049
 41007cc:	10844404 	addi	r2,r2,4368
 41007d0:	10c00035 	stwio	r3,0(r2)
		GPIO_state = GPIO_state | 0x2;
 41007d4:	d0a6d917 	ldw	r2,-25756(gp)
 41007d8:	10800094 	ori	r2,r2,2
 41007dc:	d0a6d915 	stw	r2,-25756(gp)
		IOWR_ALTERA_AVALON_PIO_DATA(PIO_GPIO_BASE, GPIO_state);
 41007e0:	d0e6d917 	ldw	r3,-25756(gp)
 41007e4:	00820074 	movhi	r2,2049
 41007e8:	10847004 	addi	r2,r2,4544
 41007ec:	10c00035 	stwio	r3,0(r2)
		key_state = (key_state | 0x02);
 41007f0:	d0a6d817 	ldw	r2,-25760(gp)
 41007f4:	10800094 	ori	r2,r2,2
 41007f8:	d0a6d815 	stw	r2,-25760(gp)
	}
}
 41007fc:	0001883a 	nop
 4100800:	e037883a 	mov	sp,fp
 4100804:	df000017 	ldw	fp,0(sp)
 4100808:	dec00104 	addi	sp,sp,4
 410080c:	f800283a 	ret

04100810 <HEX_enable>:

void HEX_enable(void)
{
 4100810:	deffff04 	addi	sp,sp,-4
 4100814:	df000015 	stw	fp,0(sp)
 4100818:	d839883a 	mov	fp,sp
    if (switch_state & 0x01) {
 410081c:	d0a6d717 	ldw	r2,-25764(gp)
 4100820:	1080004c 	andi	r2,r2,1
 4100824:	10000326 	beq	r2,zero,4100834 <HEX_enable+0x24>
        HEX_enable_bit = 1;
 4100828:	00800044 	movi	r2,1
 410082c:	d0a6da15 	stw	r2,-25752(gp)

        HEX_enable_bit = 0;
        scroll_counter = 0;
        scroll_offset = 0;
    }
}
 4100830:	00001b06 	br	41008a0 <HEX_enable+0x90>
void HEX_enable(void)
{
    if (switch_state & 0x01) {
        HEX_enable_bit = 1;
    } else {
        IOWR_ALTERA_AVALON_PIO_DATA(PIO_HEX0_BASE, 0xFF);
 4100834:	00c03fc4 	movi	r3,255
 4100838:	00820074 	movhi	r2,2049
 410083c:	10846c04 	addi	r2,r2,4528
 4100840:	10c00035 	stwio	r3,0(r2)
        IOWR_ALTERA_AVALON_PIO_DATA(PIO_HEX1_BASE, 0xFF);
 4100844:	00c03fc4 	movi	r3,255
 4100848:	00820074 	movhi	r2,2049
 410084c:	10846804 	addi	r2,r2,4512
 4100850:	10c00035 	stwio	r3,0(r2)
        IOWR_ALTERA_AVALON_PIO_DATA(PIO_HEX2_BASE, 0xFF);
 4100854:	00c03fc4 	movi	r3,255
 4100858:	00820074 	movhi	r2,2049
 410085c:	10846404 	addi	r2,r2,4496
 4100860:	10c00035 	stwio	r3,0(r2)
        IOWR_ALTERA_AVALON_PIO_DATA(PIO_HEX3_BASE, 0xFF);
 4100864:	00c03fc4 	movi	r3,255
 4100868:	00820074 	movhi	r2,2049
 410086c:	10846004 	addi	r2,r2,4480
 4100870:	10c00035 	stwio	r3,0(r2)
        IOWR_ALTERA_AVALON_PIO_DATA(PIO_HEX4_BASE, 0xFF);
 4100874:	00c03fc4 	movi	r3,255
 4100878:	00820074 	movhi	r2,2049
 410087c:	10845c04 	addi	r2,r2,4464
 4100880:	10c00035 	stwio	r3,0(r2)
        IOWR_ALTERA_AVALON_PIO_DATA(PIO_HEX5_BASE, 0xFF);
 4100884:	00c03fc4 	movi	r3,255
 4100888:	00820074 	movhi	r2,2049
 410088c:	10845804 	addi	r2,r2,4448
 4100890:	10c00035 	stwio	r3,0(r2)

        HEX_enable_bit = 0;
 4100894:	d026da15 	stw	zero,-25752(gp)
        scroll_counter = 0;
 4100898:	d026db15 	stw	zero,-25748(gp)
        scroll_offset = 0;
 410089c:	d026dc15 	stw	zero,-25744(gp)
    }
}
 41008a0:	0001883a 	nop
 41008a4:	e037883a 	mov	sp,fp
 41008a8:	df000017 	ldw	fp,0(sp)
 41008ac:	dec00104 	addi	sp,sp,4
 41008b0:	f800283a 	ret

041008b4 <handle_switch2>:

void handle_switch2(const char *message)
{
 41008b4:	deffeb04 	addi	sp,sp,-84
 41008b8:	dfc01415 	stw	ra,80(sp)
 41008bc:	df001315 	stw	fp,76(sp)
 41008c0:	df001304 	addi	fp,sp,76
 41008c4:	e13fff15 	stw	r4,-4(fp)
    if ((switch_state & 0x02) && HEX_enable_bit) {
 41008c8:	d0a6d717 	ldw	r2,-25764(gp)
 41008cc:	1080008c 	andi	r2,r2,2
 41008d0:	10005526 	beq	r2,zero,4100a28 <handle_switch2+0x174>
 41008d4:	d0a6da17 	ldw	r2,-25752(gp)
 41008d8:	10005326 	beq	r2,zero,4100a28 <handle_switch2+0x174>
        char padded_message[64];
        int msg_len;

        if (message == 0) {
 41008dc:	e0bfff17 	ldw	r2,-4(fp)
 41008e0:	1000031e 	bne	r2,zero,41008f0 <handle_switch2+0x3c>
            message = "";
 41008e4:	00810474 	movhi	r2,1041
 41008e8:	10b80d04 	addi	r2,r2,-8140
 41008ec:	e0bfff15 	stw	r2,-4(fp)
        }

        snprintf(padded_message, sizeof(padded_message), "    %s    ", message);
 41008f0:	e0bfef04 	addi	r2,fp,-68
 41008f4:	e1ffff17 	ldw	r7,-4(fp)
 41008f8:	01810474 	movhi	r6,1041
 41008fc:	31b80e04 	addi	r6,r6,-8136
 4100900:	01401004 	movi	r5,64
 4100904:	1009883a 	mov	r4,r2
 4100908:	41011c80 	call	41011c8 <snprintf>
        msg_len = strlen(padded_message);
 410090c:	e0bfef04 	addi	r2,fp,-68
 4100910:	1009883a 	mov	r4,r2
 4100914:	41012ac0 	call	41012ac <strlen>
 4100918:	e0bfed15 	stw	r2,-76(fp)

        scroll_counter++;
 410091c:	d0a6db17 	ldw	r2,-25748(gp)
 4100920:	10800044 	addi	r2,r2,1
 4100924:	d0a6db15 	stw	r2,-25748(gp)

        if (scroll_counter >= scroll_speed) {
 4100928:	d0e6db17 	ldw	r3,-25748(gp)
 410092c:	0081f404 	movi	r2,2000
 4100930:	18805016 	blt	r3,r2,4100a74 <handle_switch2+0x1c0>
            char c5 = padded_message[scroll_offset];
 4100934:	d0a6dc17 	ldw	r2,-25744(gp)
 4100938:	e0ffef04 	addi	r3,fp,-68
 410093c:	1885883a 	add	r2,r3,r2
 4100940:	10800003 	ldbu	r2,0(r2)
 4100944:	e0bfee05 	stb	r2,-72(fp)
            char c4 = padded_message[scroll_offset + 1];
 4100948:	d0a6dc17 	ldw	r2,-25744(gp)
 410094c:	10800044 	addi	r2,r2,1
 4100950:	e0ffef04 	addi	r3,fp,-68
 4100954:	1885883a 	add	r2,r3,r2
 4100958:	10800003 	ldbu	r2,0(r2)
 410095c:	e0bfee45 	stb	r2,-71(fp)
            char c3 = padded_message[scroll_offset + 2];
 4100960:	d0a6dc17 	ldw	r2,-25744(gp)
 4100964:	10800084 	addi	r2,r2,2
 4100968:	e0ffef04 	addi	r3,fp,-68
 410096c:	1885883a 	add	r2,r3,r2
 4100970:	10800003 	ldbu	r2,0(r2)
 4100974:	e0bfee85 	stb	r2,-70(fp)
            char c2 = padded_message[scroll_offset + 3];
 4100978:	d0a6dc17 	ldw	r2,-25744(gp)
 410097c:	108000c4 	addi	r2,r2,3
 4100980:	e0ffef04 	addi	r3,fp,-68
 4100984:	1885883a 	add	r2,r3,r2
 4100988:	10800003 	ldbu	r2,0(r2)
 410098c:	e0bfeec5 	stb	r2,-69(fp)

            IOWR_ALTERA_AVALON_PIO_DATA(PIO_HEX5_BASE, translator(c5));
 4100990:	e0bfee07 	ldb	r2,-72(fp)
 4100994:	1009883a 	mov	r4,r2
 4100998:	4100b700 	call	4100b70 <translator>
 410099c:	1007883a 	mov	r3,r2
 41009a0:	00820074 	movhi	r2,2049
 41009a4:	10845804 	addi	r2,r2,4448
 41009a8:	10c00035 	stwio	r3,0(r2)
            IOWR_ALTERA_AVALON_PIO_DATA(PIO_HEX4_BASE, translator(c4));
 41009ac:	e0bfee47 	ldb	r2,-71(fp)
 41009b0:	1009883a 	mov	r4,r2
 41009b4:	4100b700 	call	4100b70 <translator>
 41009b8:	1007883a 	mov	r3,r2
 41009bc:	00820074 	movhi	r2,2049
 41009c0:	10845c04 	addi	r2,r2,4464
 41009c4:	10c00035 	stwio	r3,0(r2)
            IOWR_ALTERA_AVALON_PIO_DATA(PIO_HEX3_BASE, translator(c3));
 41009c8:	e0bfee87 	ldb	r2,-70(fp)
 41009cc:	1009883a 	mov	r4,r2
 41009d0:	4100b700 	call	4100b70 <translator>
 41009d4:	1007883a 	mov	r3,r2
 41009d8:	00820074 	movhi	r2,2049
 41009dc:	10846004 	addi	r2,r2,4480
 41009e0:	10c00035 	stwio	r3,0(r2)
            IOWR_ALTERA_AVALON_PIO_DATA(PIO_HEX2_BASE, translator(c2));
 41009e4:	e0bfeec7 	ldb	r2,-69(fp)
 41009e8:	1009883a 	mov	r4,r2
 41009ec:	4100b700 	call	4100b70 <translator>
 41009f0:	1007883a 	mov	r3,r2
 41009f4:	00820074 	movhi	r2,2049
 41009f8:	10846404 	addi	r2,r2,4496
 41009fc:	10c00035 	stwio	r3,0(r2)

            scroll_offset++;
 4100a00:	d0a6dc17 	ldw	r2,-25744(gp)
 4100a04:	10800044 	addi	r2,r2,1
 4100a08:	d0a6dc15 	stw	r2,-25744(gp)
            if (scroll_offset > (msg_len - 4)) {
 4100a0c:	e0bfed17 	ldw	r2,-76(fp)
 4100a10:	10ffff04 	addi	r3,r2,-4
 4100a14:	d0a6dc17 	ldw	r2,-25744(gp)
 4100a18:	1880010e 	bge	r3,r2,4100a20 <handle_switch2+0x16c>
                scroll_offset = 0;
 4100a1c:	d026dc15 	stw	zero,-25744(gp)
            }

            scroll_counter = 0;
 4100a20:	d026db15 	stw	zero,-25748(gp)
    }
}

void handle_switch2(const char *message)
{
    if ((switch_state & 0x02) && HEX_enable_bit) {
 4100a24:	00001306 	br	4100a74 <handle_switch2+0x1c0>
            }

            scroll_counter = 0;
        }
    } else {
        IOWR_ALTERA_AVALON_PIO_DATA(PIO_HEX5_BASE, 0xFF);
 4100a28:	00c03fc4 	movi	r3,255
 4100a2c:	00820074 	movhi	r2,2049
 4100a30:	10845804 	addi	r2,r2,4448
 4100a34:	10c00035 	stwio	r3,0(r2)
        IOWR_ALTERA_AVALON_PIO_DATA(PIO_HEX4_BASE, 0xFF);
 4100a38:	00c03fc4 	movi	r3,255
 4100a3c:	00820074 	movhi	r2,2049
 4100a40:	10845c04 	addi	r2,r2,4464
 4100a44:	10c00035 	stwio	r3,0(r2)
        IOWR_ALTERA_AVALON_PIO_DATA(PIO_HEX3_BASE, 0xFF);
 4100a48:	00c03fc4 	movi	r3,255
 4100a4c:	00820074 	movhi	r2,2049
 4100a50:	10846004 	addi	r2,r2,4480
 4100a54:	10c00035 	stwio	r3,0(r2)
        IOWR_ALTERA_AVALON_PIO_DATA(PIO_HEX2_BASE, 0xFF);
 4100a58:	00c03fc4 	movi	r3,255
 4100a5c:	00820074 	movhi	r2,2049
 4100a60:	10846404 	addi	r2,r2,4496
 4100a64:	10c00035 	stwio	r3,0(r2)

        scroll_counter = 0;
 4100a68:	d026db15 	stw	zero,-25748(gp)
        scroll_offset = 0;
 4100a6c:	d026dc15 	stw	zero,-25744(gp)
    }
}
 4100a70:	00000106 	br	4100a78 <handle_switch2+0x1c4>
    }
}

void handle_switch2(const char *message)
{
    if ((switch_state & 0x02) && HEX_enable_bit) {
 4100a74:	0001883a 	nop
        IOWR_ALTERA_AVALON_PIO_DATA(PIO_HEX2_BASE, 0xFF);

        scroll_counter = 0;
        scroll_offset = 0;
    }
}
 4100a78:	0001883a 	nop
 4100a7c:	e037883a 	mov	sp,fp
 4100a80:	dfc00117 	ldw	ra,4(sp)
 4100a84:	df000017 	ldw	fp,0(sp)
 4100a88:	dec00204 	addi	sp,sp,8
 4100a8c:	f800283a 	ret

04100a90 <handle_switch3>:

void handle_switch3(void)
{
 4100a90:	defffe04 	addi	sp,sp,-8
 4100a94:	dfc00115 	stw	ra,4(sp)
 4100a98:	df000015 	stw	fp,0(sp)
 4100a9c:	d839883a 	mov	fp,sp
    if ((switch_state & 0x04) && HEX_enable_bit) {
 4100aa0:	d0a6d717 	ldw	r2,-25764(gp)
 4100aa4:	1080010c 	andi	r2,r2,4
 4100aa8:	10000f26 	beq	r2,zero,4100ae8 <handle_switch3+0x58>
 4100aac:	d0a6da17 	ldw	r2,-25752(gp)
 4100ab0:	10000d26 	beq	r2,zero,4100ae8 <handle_switch3+0x58>
        /* placeholder CPU utilization */
        IOWR_ALTERA_AVALON_PIO_DATA(PIO_HEX1_BASE, translator('8'));
 4100ab4:	01000e04 	movi	r4,56
 4100ab8:	4100b700 	call	4100b70 <translator>
 4100abc:	1007883a 	mov	r3,r2
 4100ac0:	00820074 	movhi	r2,2049
 4100ac4:	10846804 	addi	r2,r2,4512
 4100ac8:	10c00035 	stwio	r3,0(r2)
        IOWR_ALTERA_AVALON_PIO_DATA(PIO_HEX0_BASE, translator('7'));
 4100acc:	01000dc4 	movi	r4,55
 4100ad0:	4100b700 	call	4100b70 <translator>
 4100ad4:	1007883a 	mov	r3,r2
 4100ad8:	00820074 	movhi	r2,2049
 4100adc:	10846c04 	addi	r2,r2,4528
 4100ae0:	10c00035 	stwio	r3,0(r2)
 4100ae4:	00000806 	br	4100b08 <handle_switch3+0x78>
    } else {
        IOWR_ALTERA_AVALON_PIO_DATA(PIO_HEX1_BASE, 0xFF);
 4100ae8:	00c03fc4 	movi	r3,255
 4100aec:	00820074 	movhi	r2,2049
 4100af0:	10846804 	addi	r2,r2,4512
 4100af4:	10c00035 	stwio	r3,0(r2)
        IOWR_ALTERA_AVALON_PIO_DATA(PIO_HEX0_BASE, 0xFF);
 4100af8:	00c03fc4 	movi	r3,255
 4100afc:	00820074 	movhi	r2,2049
 4100b00:	10846c04 	addi	r2,r2,4528
 4100b04:	10c00035 	stwio	r3,0(r2)
    }
}
 4100b08:	0001883a 	nop
 4100b0c:	e037883a 	mov	sp,fp
 4100b10:	dfc00117 	ldw	ra,4(sp)
 4100b14:	df000017 	ldw	fp,0(sp)
 4100b18:	dec00204 	addi	sp,sp,8
 4100b1c:	f800283a 	ret

04100b20 <handle_switch4>:

void handle_switch4(void)
{
 4100b20:	defffe04 	addi	sp,sp,-8
 4100b24:	dfc00115 	stw	ra,4(sp)
 4100b28:	df000015 	stw	fp,0(sp)
 4100b2c:	d839883a 	mov	fp,sp
	if (switch_state & 0x08) {
 4100b30:	d0a6d717 	ldw	r2,-25764(gp)
 4100b34:	1080020c 	andi	r2,r2,8
 4100b38:	10000426 	beq	r2,zero,4100b4c <handle_switch4+0x2c>
		play_speaker(1000, 1);
 4100b3c:	01400044 	movi	r5,1
 4100b40:	0100fa04 	movi	r4,1000
 4100b44:	41003680 	call	4100368 <play_speaker>
	} else {
		play_speaker(1000, 0);
	}
}
 4100b48:	00000306 	br	4100b58 <handle_switch4+0x38>
void handle_switch4(void)
{
	if (switch_state & 0x08) {
		play_speaker(1000, 1);
	} else {
		play_speaker(1000, 0);
 4100b4c:	000b883a 	mov	r5,zero
 4100b50:	0100fa04 	movi	r4,1000
 4100b54:	41003680 	call	4100368 <play_speaker>
	}
}
 4100b58:	0001883a 	nop
 4100b5c:	e037883a 	mov	sp,fp
 4100b60:	dfc00117 	ldw	ra,4(sp)
 4100b64:	df000017 	ldw	fp,0(sp)
 4100b68:	dec00204 	addi	sp,sp,8
 4100b6c:	f800283a 	ret

04100b70 <translator>:

int translator(char a)
{
 4100b70:	deffe304 	addi	sp,sp,-116
 4100b74:	dfc01c15 	stw	ra,112(sp)
 4100b78:	df001b15 	stw	fp,108(sp)
 4100b7c:	df001b04 	addi	fp,sp,108
 4100b80:	2005883a 	mov	r2,r4
 4100b84:	e0bfff05 	stb	r2,-4(fp)
    if (a >= '0' && a <= '9') {
 4100b88:	e0bfff07 	ldb	r2,-4(fp)
 4100b8c:	10800c10 	cmplti	r2,r2,48
 4100b90:	10001f1e 	bne	r2,zero,4100c10 <translator+0xa0>
 4100b94:	e0bfff07 	ldb	r2,-4(fp)
 4100b98:	10800e88 	cmpgei	r2,r2,58
 4100b9c:	10001c1e 	bne	r2,zero,4100c10 <translator+0xa0>
        const int num_table[10] = {
 4100ba0:	00803004 	movi	r2,192
 4100ba4:	e0bfe515 	stw	r2,-108(fp)
 4100ba8:	00803e44 	movi	r2,249
 4100bac:	e0bfe615 	stw	r2,-104(fp)
 4100bb0:	00802904 	movi	r2,164
 4100bb4:	e0bfe715 	stw	r2,-100(fp)
 4100bb8:	00802c04 	movi	r2,176
 4100bbc:	e0bfe815 	stw	r2,-96(fp)
 4100bc0:	00802644 	movi	r2,153
 4100bc4:	e0bfe915 	stw	r2,-92(fp)
 4100bc8:	00802484 	movi	r2,146
 4100bcc:	e0bfea15 	stw	r2,-88(fp)
 4100bd0:	00802084 	movi	r2,130
 4100bd4:	e0bfeb15 	stw	r2,-84(fp)
 4100bd8:	00803e04 	movi	r2,248
 4100bdc:	e0bfec15 	stw	r2,-80(fp)
 4100be0:	00802004 	movi	r2,128
 4100be4:	e0bfed15 	stw	r2,-76(fp)
 4100be8:	00802404 	movi	r2,144
 4100bec:	e0bfee15 	stw	r2,-72(fp)
            0xC0, 0xF9, 0xA4, 0xB0, 0x99,
            0x92, 0x82, 0xF8, 0x80, 0x90
        };
        return num_table[a - '0'];
 4100bf0:	e0bfff07 	ldb	r2,-4(fp)
 4100bf4:	10bff404 	addi	r2,r2,-48
 4100bf8:	1085883a 	add	r2,r2,r2
 4100bfc:	1085883a 	add	r2,r2,r2
 4100c00:	e0ffe504 	addi	r3,fp,-108
 4100c04:	1885883a 	add	r2,r3,r2
 4100c08:	10800017 	ldw	r2,0(r2)
 4100c0c:	00002606 	br	4100ca8 <translator+0x138>
    }

    if (a >= 'a' && a <= 'z') {
 4100c10:	e0bfff07 	ldb	r2,-4(fp)
 4100c14:	10801850 	cmplti	r2,r2,97
 4100c18:	1000061e 	bne	r2,zero,4100c34 <translator+0xc4>
 4100c1c:	e0bfff07 	ldb	r2,-4(fp)
 4100c20:	10801ec8 	cmpgei	r2,r2,123
 4100c24:	1000031e 	bne	r2,zero,4100c34 <translator+0xc4>
        a = a - 'a' + 'A';
 4100c28:	e0bfff03 	ldbu	r2,-4(fp)
 4100c2c:	10bff804 	addi	r2,r2,-32
 4100c30:	e0bfff05 	stb	r2,-4(fp)
    }

    if (a >= 'A' && a <= 'Z') {
 4100c34:	e0bfff07 	ldb	r2,-4(fp)
 4100c38:	10801050 	cmplti	r2,r2,65
 4100c3c:	1000141e 	bne	r2,zero,4100c90 <translator+0x120>
 4100c40:	e0bfff07 	ldb	r2,-4(fp)
 4100c44:	108016c8 	cmpgei	r2,r2,91
 4100c48:	1000111e 	bne	r2,zero,4100c90 <translator+0x120>
        const int alpha_table[26] = {
 4100c4c:	00810474 	movhi	r2,1041
 4100c50:	10b81104 	addi	r2,r2,-8124
 4100c54:	e0ffe504 	addi	r3,fp,-108
 4100c58:	1009883a 	mov	r4,r2
 4100c5c:	00801a04 	movi	r2,104
 4100c60:	100d883a 	mov	r6,r2
 4100c64:	200b883a 	mov	r5,r4
 4100c68:	1809883a 	mov	r4,r3
 4100c6c:	4100fa80 	call	4100fa8 <memcpy>
            0x88, 0x83, 0xC6, 0xA1, 0x86, 0x8E, 0x90, 0x89, 0xF9, 0xF1,
            0x8A, 0xC7, 0xC8, 0xAB, 0xC0, 0x8C, 0x98, 0xAF, 0x92, 0x87,
            0xC1, 0xE3, 0x81, 0x89, 0x91, 0xA4
        };
        return alpha_table[a - 'A'];
 4100c70:	e0bfff07 	ldb	r2,-4(fp)
 4100c74:	10bfefc4 	addi	r2,r2,-65
 4100c78:	1085883a 	add	r2,r2,r2
 4100c7c:	1085883a 	add	r2,r2,r2
 4100c80:	e0ffe504 	addi	r3,fp,-108
 4100c84:	1885883a 	add	r2,r3,r2
 4100c88:	10800017 	ldw	r2,0(r2)
 4100c8c:	00000606 	br	4100ca8 <translator+0x138>
    }

    if (a == ' ') {
 4100c90:	e0bfff07 	ldb	r2,-4(fp)
 4100c94:	10800818 	cmpnei	r2,r2,32
 4100c98:	1000021e 	bne	r2,zero,4100ca4 <translator+0x134>
        return 0xFF;
 4100c9c:	00803fc4 	movi	r2,255
 4100ca0:	00000106 	br	4100ca8 <translator+0x138>
    }

    return 0xFF;
 4100ca4:	00803fc4 	movi	r2,255
}
 4100ca8:	e037883a 	mov	sp,fp
 4100cac:	dfc00117 	ldw	ra,4(sp)
 4100cb0:	df000017 	ldw	fp,0(sp)
 4100cb4:	dec00204 	addi	sp,sp,8
 4100cb8:	f800283a 	ret

04100cbc <red_light>:
#include "system.h"
#include "control.h"

static int LED_state = 0b000;

void red_light (int on_off) {
 4100cbc:	defffe04 	addi	sp,sp,-8
 4100cc0:	df000115 	stw	fp,4(sp)
 4100cc4:	df000104 	addi	fp,sp,4
 4100cc8:	e13fff15 	stw	r4,-4(fp)
	if (on_off) {
 4100ccc:	e0bfff17 	ldw	r2,-4(fp)
 4100cd0:	10000826 	beq	r2,zero,4100cf4 <red_light+0x38>
		LED_state = (LED_state | 0b001);
 4100cd4:	d0a6dd17 	ldw	r2,-25740(gp)
 4100cd8:	10800054 	ori	r2,r2,1
 4100cdc:	d0a6dd15 	stw	r2,-25740(gp)
		IOWR_ALTERA_AVALON_PIO_DATA (PIO_LED_MODULE_BASE, (LED_state));
 4100ce0:	d0e6dd17 	ldw	r3,-25740(gp)
 4100ce4:	00820074 	movhi	r2,2049
 4100ce8:	10845404 	addi	r2,r2,4432
 4100cec:	10c00035 	stwio	r3,0(r2)
	}
	else {
		LED_state = (LED_state & 0b110);
		IOWR_ALTERA_AVALON_PIO_DATA (PIO_LED_MODULE_BASE, (LED_state));
	}
}
 4100cf0:	00000706 	br	4100d10 <red_light+0x54>
	if (on_off) {
		LED_state = (LED_state | 0b001);
		IOWR_ALTERA_AVALON_PIO_DATA (PIO_LED_MODULE_BASE, (LED_state));
	}
	else {
		LED_state = (LED_state & 0b110);
 4100cf4:	d0a6dd17 	ldw	r2,-25740(gp)
 4100cf8:	1080018c 	andi	r2,r2,6
 4100cfc:	d0a6dd15 	stw	r2,-25740(gp)
		IOWR_ALTERA_AVALON_PIO_DATA (PIO_LED_MODULE_BASE, (LED_state));
 4100d00:	d0e6dd17 	ldw	r3,-25740(gp)
 4100d04:	00820074 	movhi	r2,2049
 4100d08:	10845404 	addi	r2,r2,4432
 4100d0c:	10c00035 	stwio	r3,0(r2)
	}
}
 4100d10:	0001883a 	nop
 4100d14:	e037883a 	mov	sp,fp
 4100d18:	df000017 	ldw	fp,0(sp)
 4100d1c:	dec00104 	addi	sp,sp,4
 4100d20:	f800283a 	ret

04100d24 <yellow_light>:

void yellow_light (int on_off) {
 4100d24:	defffe04 	addi	sp,sp,-8
 4100d28:	df000115 	stw	fp,4(sp)
 4100d2c:	df000104 	addi	fp,sp,4
 4100d30:	e13fff15 	stw	r4,-4(fp)
	if (on_off) {
 4100d34:	e0bfff17 	ldw	r2,-4(fp)
 4100d38:	10000826 	beq	r2,zero,4100d5c <yellow_light+0x38>
		LED_state = (LED_state | 0b010);
 4100d3c:	d0a6dd17 	ldw	r2,-25740(gp)
 4100d40:	10800094 	ori	r2,r2,2
 4100d44:	d0a6dd15 	stw	r2,-25740(gp)
		IOWR_ALTERA_AVALON_PIO_DATA (PIO_LED_MODULE_BASE, (LED_state));
 4100d48:	d0e6dd17 	ldw	r3,-25740(gp)
 4100d4c:	00820074 	movhi	r2,2049
 4100d50:	10845404 	addi	r2,r2,4432
 4100d54:	10c00035 	stwio	r3,0(r2)
	}
	else {
		LED_state = (LED_state & 0b101);
		IOWR_ALTERA_AVALON_PIO_DATA (PIO_LED_MODULE_BASE, (LED_state));
	}
}
 4100d58:	00000706 	br	4100d78 <yellow_light+0x54>
	if (on_off) {
		LED_state = (LED_state | 0b010);
		IOWR_ALTERA_AVALON_PIO_DATA (PIO_LED_MODULE_BASE, (LED_state));
	}
	else {
		LED_state = (LED_state & 0b101);
 4100d5c:	d0a6dd17 	ldw	r2,-25740(gp)
 4100d60:	1080014c 	andi	r2,r2,5
 4100d64:	d0a6dd15 	stw	r2,-25740(gp)
		IOWR_ALTERA_AVALON_PIO_DATA (PIO_LED_MODULE_BASE, (LED_state));
 4100d68:	d0e6dd17 	ldw	r3,-25740(gp)
 4100d6c:	00820074 	movhi	r2,2049
 4100d70:	10845404 	addi	r2,r2,4432
 4100d74:	10c00035 	stwio	r3,0(r2)
	}
}
 4100d78:	0001883a 	nop
 4100d7c:	e037883a 	mov	sp,fp
 4100d80:	df000017 	ldw	fp,0(sp)
 4100d84:	dec00104 	addi	sp,sp,4
 4100d88:	f800283a 	ret

04100d8c <green_light>:
void green_light (int on_off) {
 4100d8c:	defffe04 	addi	sp,sp,-8
 4100d90:	df000115 	stw	fp,4(sp)
 4100d94:	df000104 	addi	fp,sp,4
 4100d98:	e13fff15 	stw	r4,-4(fp)
	if (on_off) {
 4100d9c:	e0bfff17 	ldw	r2,-4(fp)
 4100da0:	10000826 	beq	r2,zero,4100dc4 <green_light+0x38>
		LED_state = (LED_state | 0b100);
 4100da4:	d0a6dd17 	ldw	r2,-25740(gp)
 4100da8:	10800114 	ori	r2,r2,4
 4100dac:	d0a6dd15 	stw	r2,-25740(gp)
		IOWR_ALTERA_AVALON_PIO_DATA (PIO_LED_MODULE_BASE, (LED_state));
 4100db0:	d0e6dd17 	ldw	r3,-25740(gp)
 4100db4:	00820074 	movhi	r2,2049
 4100db8:	10845404 	addi	r2,r2,4432
 4100dbc:	10c00035 	stwio	r3,0(r2)
	}
	else {
		LED_state = (LED_state & 0b011);
		IOWR_ALTERA_AVALON_PIO_DATA (PIO_LED_MODULE_BASE, (LED_state));
	}
}
 4100dc0:	00000706 	br	4100de0 <green_light+0x54>
	if (on_off) {
		LED_state = (LED_state | 0b100);
		IOWR_ALTERA_AVALON_PIO_DATA (PIO_LED_MODULE_BASE, (LED_state));
	}
	else {
		LED_state = (LED_state & 0b011);
 4100dc4:	d0a6dd17 	ldw	r2,-25740(gp)
 4100dc8:	108000cc 	andi	r2,r2,3
 4100dcc:	d0a6dd15 	stw	r2,-25740(gp)
		IOWR_ALTERA_AVALON_PIO_DATA (PIO_LED_MODULE_BASE, (LED_state));
 4100dd0:	d0e6dd17 	ldw	r3,-25740(gp)
 4100dd4:	00820074 	movhi	r2,2049
 4100dd8:	10845404 	addi	r2,r2,4432
 4100ddc:	10c00035 	stwio	r3,0(r2)
	}
}
 4100de0:	0001883a 	nop
 4100de4:	e037883a 	mov	sp,fp
 4100de8:	df000017 	ldw	fp,0(sp)
 4100dec:	dec00104 	addi	sp,sp,4
 4100df0:	f800283a 	ret

04100df4 <__divsi3>:
 4100df4:	20001b16 	blt	r4,zero,4100e64 <__divsi3+0x70>
 4100df8:	000f883a 	mov	r7,zero
 4100dfc:	28001616 	blt	r5,zero,4100e58 <__divsi3+0x64>
 4100e00:	200d883a 	mov	r6,r4
 4100e04:	29001a2e 	bgeu	r5,r4,4100e70 <__divsi3+0x7c>
 4100e08:	00800804 	movi	r2,32
 4100e0c:	00c00044 	movi	r3,1
 4100e10:	00000106 	br	4100e18 <__divsi3+0x24>
 4100e14:	10000d26 	beq	r2,zero,4100e4c <__divsi3+0x58>
 4100e18:	294b883a 	add	r5,r5,r5
 4100e1c:	10bfffc4 	addi	r2,r2,-1
 4100e20:	18c7883a 	add	r3,r3,r3
 4100e24:	293ffb36 	bltu	r5,r4,4100e14 <__ram_exceptions_end+0xfc0f8bd0>
 4100e28:	0005883a 	mov	r2,zero
 4100e2c:	18000726 	beq	r3,zero,4100e4c <__divsi3+0x58>
 4100e30:	0005883a 	mov	r2,zero
 4100e34:	31400236 	bltu	r6,r5,4100e40 <__divsi3+0x4c>
 4100e38:	314dc83a 	sub	r6,r6,r5
 4100e3c:	10c4b03a 	or	r2,r2,r3
 4100e40:	1806d07a 	srli	r3,r3,1
 4100e44:	280ad07a 	srli	r5,r5,1
 4100e48:	183ffa1e 	bne	r3,zero,4100e34 <__ram_exceptions_end+0xfc0f8bf0>
 4100e4c:	38000126 	beq	r7,zero,4100e54 <__divsi3+0x60>
 4100e50:	0085c83a 	sub	r2,zero,r2
 4100e54:	f800283a 	ret
 4100e58:	014bc83a 	sub	r5,zero,r5
 4100e5c:	39c0005c 	xori	r7,r7,1
 4100e60:	003fe706 	br	4100e00 <__ram_exceptions_end+0xfc0f8bbc>
 4100e64:	0109c83a 	sub	r4,zero,r4
 4100e68:	01c00044 	movi	r7,1
 4100e6c:	003fe306 	br	4100dfc <__ram_exceptions_end+0xfc0f8bb8>
 4100e70:	00c00044 	movi	r3,1
 4100e74:	003fee06 	br	4100e30 <__ram_exceptions_end+0xfc0f8bec>

04100e78 <__modsi3>:
 4100e78:	20001716 	blt	r4,zero,4100ed8 <__modsi3+0x60>
 4100e7c:	000f883a 	mov	r7,zero
 4100e80:	2005883a 	mov	r2,r4
 4100e84:	28001216 	blt	r5,zero,4100ed0 <__modsi3+0x58>
 4100e88:	2900162e 	bgeu	r5,r4,4100ee4 <__modsi3+0x6c>
 4100e8c:	01800804 	movi	r6,32
 4100e90:	00c00044 	movi	r3,1
 4100e94:	00000106 	br	4100e9c <__modsi3+0x24>
 4100e98:	30000a26 	beq	r6,zero,4100ec4 <__modsi3+0x4c>
 4100e9c:	294b883a 	add	r5,r5,r5
 4100ea0:	31bfffc4 	addi	r6,r6,-1
 4100ea4:	18c7883a 	add	r3,r3,r3
 4100ea8:	293ffb36 	bltu	r5,r4,4100e98 <__ram_exceptions_end+0xfc0f8c54>
 4100eac:	18000526 	beq	r3,zero,4100ec4 <__modsi3+0x4c>
 4100eb0:	1806d07a 	srli	r3,r3,1
 4100eb4:	11400136 	bltu	r2,r5,4100ebc <__modsi3+0x44>
 4100eb8:	1145c83a 	sub	r2,r2,r5
 4100ebc:	280ad07a 	srli	r5,r5,1
 4100ec0:	183ffb1e 	bne	r3,zero,4100eb0 <__ram_exceptions_end+0xfc0f8c6c>
 4100ec4:	38000126 	beq	r7,zero,4100ecc <__modsi3+0x54>
 4100ec8:	0085c83a 	sub	r2,zero,r2
 4100ecc:	f800283a 	ret
 4100ed0:	014bc83a 	sub	r5,zero,r5
 4100ed4:	003fec06 	br	4100e88 <__ram_exceptions_end+0xfc0f8c44>
 4100ed8:	0109c83a 	sub	r4,zero,r4
 4100edc:	01c00044 	movi	r7,1
 4100ee0:	003fe706 	br	4100e80 <__ram_exceptions_end+0xfc0f8c3c>
 4100ee4:	00c00044 	movi	r3,1
 4100ee8:	003ff106 	br	4100eb0 <__ram_exceptions_end+0xfc0f8c6c>

04100eec <__udivsi3>:
 4100eec:	200d883a 	mov	r6,r4
 4100ef0:	2900152e 	bgeu	r5,r4,4100f48 <__udivsi3+0x5c>
 4100ef4:	28001416 	blt	r5,zero,4100f48 <__udivsi3+0x5c>
 4100ef8:	00800804 	movi	r2,32
 4100efc:	00c00044 	movi	r3,1
 4100f00:	00000206 	br	4100f0c <__udivsi3+0x20>
 4100f04:	10000e26 	beq	r2,zero,4100f40 <__udivsi3+0x54>
 4100f08:	28000516 	blt	r5,zero,4100f20 <__udivsi3+0x34>
 4100f0c:	294b883a 	add	r5,r5,r5
 4100f10:	10bfffc4 	addi	r2,r2,-1
 4100f14:	18c7883a 	add	r3,r3,r3
 4100f18:	293ffa36 	bltu	r5,r4,4100f04 <__ram_exceptions_end+0xfc0f8cc0>
 4100f1c:	18000826 	beq	r3,zero,4100f40 <__udivsi3+0x54>
 4100f20:	0005883a 	mov	r2,zero
 4100f24:	31400236 	bltu	r6,r5,4100f30 <__udivsi3+0x44>
 4100f28:	314dc83a 	sub	r6,r6,r5
 4100f2c:	10c4b03a 	or	r2,r2,r3
 4100f30:	1806d07a 	srli	r3,r3,1
 4100f34:	280ad07a 	srli	r5,r5,1
 4100f38:	183ffa1e 	bne	r3,zero,4100f24 <__ram_exceptions_end+0xfc0f8ce0>
 4100f3c:	f800283a 	ret
 4100f40:	0005883a 	mov	r2,zero
 4100f44:	f800283a 	ret
 4100f48:	00c00044 	movi	r3,1
 4100f4c:	003ff406 	br	4100f20 <__ram_exceptions_end+0xfc0f8cdc>

04100f50 <__umodsi3>:
 4100f50:	2005883a 	mov	r2,r4
 4100f54:	2900122e 	bgeu	r5,r4,4100fa0 <__umodsi3+0x50>
 4100f58:	28001116 	blt	r5,zero,4100fa0 <__umodsi3+0x50>
 4100f5c:	01800804 	movi	r6,32
 4100f60:	00c00044 	movi	r3,1
 4100f64:	00000206 	br	4100f70 <__umodsi3+0x20>
 4100f68:	30000c26 	beq	r6,zero,4100f9c <__umodsi3+0x4c>
 4100f6c:	28000516 	blt	r5,zero,4100f84 <__umodsi3+0x34>
 4100f70:	294b883a 	add	r5,r5,r5
 4100f74:	31bfffc4 	addi	r6,r6,-1
 4100f78:	18c7883a 	add	r3,r3,r3
 4100f7c:	293ffa36 	bltu	r5,r4,4100f68 <__ram_exceptions_end+0xfc0f8d24>
 4100f80:	18000626 	beq	r3,zero,4100f9c <__umodsi3+0x4c>
 4100f84:	1806d07a 	srli	r3,r3,1
 4100f88:	11400136 	bltu	r2,r5,4100f90 <__umodsi3+0x40>
 4100f8c:	1145c83a 	sub	r2,r2,r5
 4100f90:	280ad07a 	srli	r5,r5,1
 4100f94:	183ffb1e 	bne	r3,zero,4100f84 <__ram_exceptions_end+0xfc0f8d40>
 4100f98:	f800283a 	ret
 4100f9c:	f800283a 	ret
 4100fa0:	00c00044 	movi	r3,1
 4100fa4:	003ff706 	br	4100f84 <__ram_exceptions_end+0xfc0f8d40>

04100fa8 <memcpy>:
 4100fa8:	defffd04 	addi	sp,sp,-12
 4100fac:	dfc00215 	stw	ra,8(sp)
 4100fb0:	dc400115 	stw	r17,4(sp)
 4100fb4:	dc000015 	stw	r16,0(sp)
 4100fb8:	00c003c4 	movi	r3,15
 4100fbc:	2005883a 	mov	r2,r4
 4100fc0:	1980452e 	bgeu	r3,r6,41010d8 <memcpy+0x130>
 4100fc4:	2906b03a 	or	r3,r5,r4
 4100fc8:	18c000cc 	andi	r3,r3,3
 4100fcc:	1800441e 	bne	r3,zero,41010e0 <memcpy+0x138>
 4100fd0:	347ffc04 	addi	r17,r6,-16
 4100fd4:	8822d13a 	srli	r17,r17,4
 4100fd8:	28c00104 	addi	r3,r5,4
 4100fdc:	23400104 	addi	r13,r4,4
 4100fe0:	8820913a 	slli	r16,r17,4
 4100fe4:	2b000204 	addi	r12,r5,8
 4100fe8:	22c00204 	addi	r11,r4,8
 4100fec:	84000504 	addi	r16,r16,20
 4100ff0:	2a800304 	addi	r10,r5,12
 4100ff4:	22400304 	addi	r9,r4,12
 4100ff8:	2c21883a 	add	r16,r5,r16
 4100ffc:	2811883a 	mov	r8,r5
 4101000:	200f883a 	mov	r7,r4
 4101004:	41000017 	ldw	r4,0(r8)
 4101008:	1fc00017 	ldw	ra,0(r3)
 410100c:	63c00017 	ldw	r15,0(r12)
 4101010:	39000015 	stw	r4,0(r7)
 4101014:	53800017 	ldw	r14,0(r10)
 4101018:	6fc00015 	stw	ra,0(r13)
 410101c:	5bc00015 	stw	r15,0(r11)
 4101020:	4b800015 	stw	r14,0(r9)
 4101024:	18c00404 	addi	r3,r3,16
 4101028:	39c00404 	addi	r7,r7,16
 410102c:	42000404 	addi	r8,r8,16
 4101030:	6b400404 	addi	r13,r13,16
 4101034:	63000404 	addi	r12,r12,16
 4101038:	5ac00404 	addi	r11,r11,16
 410103c:	52800404 	addi	r10,r10,16
 4101040:	4a400404 	addi	r9,r9,16
 4101044:	1c3fef1e 	bne	r3,r16,4101004 <__ram_exceptions_end+0xfc0f8dc0>
 4101048:	89c00044 	addi	r7,r17,1
 410104c:	380e913a 	slli	r7,r7,4
 4101050:	310003cc 	andi	r4,r6,15
 4101054:	02c000c4 	movi	r11,3
 4101058:	11c7883a 	add	r3,r2,r7
 410105c:	29cb883a 	add	r5,r5,r7
 4101060:	5900212e 	bgeu	r11,r4,41010e8 <memcpy+0x140>
 4101064:	1813883a 	mov	r9,r3
 4101068:	2811883a 	mov	r8,r5
 410106c:	200f883a 	mov	r7,r4
 4101070:	42800017 	ldw	r10,0(r8)
 4101074:	4a400104 	addi	r9,r9,4
 4101078:	39ffff04 	addi	r7,r7,-4
 410107c:	4abfff15 	stw	r10,-4(r9)
 4101080:	42000104 	addi	r8,r8,4
 4101084:	59fffa36 	bltu	r11,r7,4101070 <__ram_exceptions_end+0xfc0f8e2c>
 4101088:	213fff04 	addi	r4,r4,-4
 410108c:	2008d0ba 	srli	r4,r4,2
 4101090:	318000cc 	andi	r6,r6,3
 4101094:	21000044 	addi	r4,r4,1
 4101098:	2109883a 	add	r4,r4,r4
 410109c:	2109883a 	add	r4,r4,r4
 41010a0:	1907883a 	add	r3,r3,r4
 41010a4:	290b883a 	add	r5,r5,r4
 41010a8:	30000626 	beq	r6,zero,41010c4 <memcpy+0x11c>
 41010ac:	198d883a 	add	r6,r3,r6
 41010b0:	29c00003 	ldbu	r7,0(r5)
 41010b4:	18c00044 	addi	r3,r3,1
 41010b8:	29400044 	addi	r5,r5,1
 41010bc:	19ffffc5 	stb	r7,-1(r3)
 41010c0:	19bffb1e 	bne	r3,r6,41010b0 <__ram_exceptions_end+0xfc0f8e6c>
 41010c4:	dfc00217 	ldw	ra,8(sp)
 41010c8:	dc400117 	ldw	r17,4(sp)
 41010cc:	dc000017 	ldw	r16,0(sp)
 41010d0:	dec00304 	addi	sp,sp,12
 41010d4:	f800283a 	ret
 41010d8:	2007883a 	mov	r3,r4
 41010dc:	003ff206 	br	41010a8 <__ram_exceptions_end+0xfc0f8e64>
 41010e0:	2007883a 	mov	r3,r4
 41010e4:	003ff106 	br	41010ac <__ram_exceptions_end+0xfc0f8e68>
 41010e8:	200d883a 	mov	r6,r4
 41010ec:	003fee06 	br	41010a8 <__ram_exceptions_end+0xfc0f8e64>

041010f0 <_snprintf_r>:
 41010f0:	30003116 	blt	r6,zero,41011b8 <_snprintf_r+0xc8>
 41010f4:	deffe404 	addi	sp,sp,-112
 41010f8:	00c08204 	movi	r3,520
 41010fc:	dc001a15 	stw	r16,104(sp)
 4101100:	3005883a 	mov	r2,r6
 4101104:	dfc01b15 	stw	ra,108(sp)
 4101108:	d8c0030d 	sth	r3,12(sp)
 410110c:	d9400015 	stw	r5,0(sp)
 4101110:	d9400415 	stw	r5,16(sp)
 4101114:	380d883a 	mov	r6,r7
 4101118:	2021883a 	mov	r16,r4
 410111c:	10001026 	beq	r2,zero,4101160 <_snprintf_r+0x70>
 4101120:	10bfffc4 	addi	r2,r2,-1
 4101124:	d8800215 	stw	r2,8(sp)
 4101128:	d8800515 	stw	r2,20(sp)
 410112c:	d9c01c04 	addi	r7,sp,112
 4101130:	00bfffc4 	movi	r2,-1
 4101134:	d80b883a 	mov	r5,sp
 4101138:	d880038d 	sth	r2,14(sp)
 410113c:	41013440 	call	4101344 <___svfprintf_internal_r>
 4101140:	00ffffc4 	movi	r3,-1
 4101144:	10c01316 	blt	r2,r3,4101194 <_snprintf_r+0xa4>
 4101148:	d8c00017 	ldw	r3,0(sp)
 410114c:	18000005 	stb	zero,0(r3)
 4101150:	dfc01b17 	ldw	ra,108(sp)
 4101154:	dc001a17 	ldw	r16,104(sp)
 4101158:	dec01c04 	addi	sp,sp,112
 410115c:	f800283a 	ret
 4101160:	00bfffc4 	movi	r2,-1
 4101164:	d9c01c04 	addi	r7,sp,112
 4101168:	d80b883a 	mov	r5,sp
 410116c:	d8000215 	stw	zero,8(sp)
 4101170:	d8000515 	stw	zero,20(sp)
 4101174:	d880038d 	sth	r2,14(sp)
 4101178:	41013440 	call	4101344 <___svfprintf_internal_r>
 410117c:	00ffffc4 	movi	r3,-1
 4101180:	10c00716 	blt	r2,r3,41011a0 <_snprintf_r+0xb0>
 4101184:	dfc01b17 	ldw	ra,108(sp)
 4101188:	dc001a17 	ldw	r16,104(sp)
 410118c:	dec01c04 	addi	sp,sp,112
 4101190:	f800283a 	ret
 4101194:	00c022c4 	movi	r3,139
 4101198:	80c00015 	stw	r3,0(r16)
 410119c:	003fea06 	br	4101148 <__ram_exceptions_end+0xfc0f8f04>
 41011a0:	00c022c4 	movi	r3,139
 41011a4:	80c00015 	stw	r3,0(r16)
 41011a8:	dfc01b17 	ldw	ra,108(sp)
 41011ac:	dc001a17 	ldw	r16,104(sp)
 41011b0:	dec01c04 	addi	sp,sp,112
 41011b4:	f800283a 	ret
 41011b8:	008022c4 	movi	r2,139
 41011bc:	20800015 	stw	r2,0(r4)
 41011c0:	00bfffc4 	movi	r2,-1
 41011c4:	f800283a 	ret

041011c8 <snprintf>:
 41011c8:	deffe304 	addi	sp,sp,-116
 41011cc:	dfc01b15 	stw	ra,108(sp)
 41011d0:	dc001a15 	stw	r16,104(sp)
 41011d4:	d9c01c15 	stw	r7,112(sp)
 41011d8:	00810474 	movhi	r2,1041
 41011dc:	10bf9f04 	addi	r2,r2,-388
 41011e0:	14000017 	ldw	r16,0(r2)
 41011e4:	28002d16 	blt	r5,zero,410129c <snprintf+0xd4>
 41011e8:	00808204 	movi	r2,520
 41011ec:	d880030d 	sth	r2,12(sp)
 41011f0:	d9000015 	stw	r4,0(sp)
 41011f4:	d9000415 	stw	r4,16(sp)
 41011f8:	28001126 	beq	r5,zero,4101240 <snprintf+0x78>
 41011fc:	28bfffc4 	addi	r2,r5,-1
 4101200:	d8800215 	stw	r2,8(sp)
 4101204:	d8800515 	stw	r2,20(sp)
 4101208:	d9c01c04 	addi	r7,sp,112
 410120c:	00bfffc4 	movi	r2,-1
 4101210:	d80b883a 	mov	r5,sp
 4101214:	8009883a 	mov	r4,r16
 4101218:	d880038d 	sth	r2,14(sp)
 410121c:	41013440 	call	4101344 <___svfprintf_internal_r>
 4101220:	00ffffc4 	movi	r3,-1
 4101224:	10c01416 	blt	r2,r3,4101278 <snprintf+0xb0>
 4101228:	d8c00017 	ldw	r3,0(sp)
 410122c:	18000005 	stb	zero,0(r3)
 4101230:	dfc01b17 	ldw	ra,108(sp)
 4101234:	dc001a17 	ldw	r16,104(sp)
 4101238:	dec01d04 	addi	sp,sp,116
 410123c:	f800283a 	ret
 4101240:	00bfffc4 	movi	r2,-1
 4101244:	d9c01c04 	addi	r7,sp,112
 4101248:	d80b883a 	mov	r5,sp
 410124c:	8009883a 	mov	r4,r16
 4101250:	d8000215 	stw	zero,8(sp)
 4101254:	d8000515 	stw	zero,20(sp)
 4101258:	d880038d 	sth	r2,14(sp)
 410125c:	41013440 	call	4101344 <___svfprintf_internal_r>
 4101260:	00ffffc4 	movi	r3,-1
 4101264:	10c00716 	blt	r2,r3,4101284 <snprintf+0xbc>
 4101268:	dfc01b17 	ldw	ra,108(sp)
 410126c:	dc001a17 	ldw	r16,104(sp)
 4101270:	dec01d04 	addi	sp,sp,116
 4101274:	f800283a 	ret
 4101278:	00c022c4 	movi	r3,139
 410127c:	80c00015 	stw	r3,0(r16)
 4101280:	003fe906 	br	4101228 <__ram_exceptions_end+0xfc0f8fe4>
 4101284:	00c022c4 	movi	r3,139
 4101288:	80c00015 	stw	r3,0(r16)
 410128c:	dfc01b17 	ldw	ra,108(sp)
 4101290:	dc001a17 	ldw	r16,104(sp)
 4101294:	dec01d04 	addi	sp,sp,116
 4101298:	f800283a 	ret
 410129c:	008022c4 	movi	r2,139
 41012a0:	80800015 	stw	r2,0(r16)
 41012a4:	00bfffc4 	movi	r2,-1
 41012a8:	003fef06 	br	4101268 <__ram_exceptions_end+0xfc0f9024>

041012ac <strlen>:
 41012ac:	208000cc 	andi	r2,r4,3
 41012b0:	10002026 	beq	r2,zero,4101334 <strlen+0x88>
 41012b4:	20800007 	ldb	r2,0(r4)
 41012b8:	10002026 	beq	r2,zero,410133c <strlen+0x90>
 41012bc:	2005883a 	mov	r2,r4
 41012c0:	00000206 	br	41012cc <strlen+0x20>
 41012c4:	10c00007 	ldb	r3,0(r2)
 41012c8:	18001826 	beq	r3,zero,410132c <strlen+0x80>
 41012cc:	10800044 	addi	r2,r2,1
 41012d0:	10c000cc 	andi	r3,r2,3
 41012d4:	183ffb1e 	bne	r3,zero,41012c4 <__ram_exceptions_end+0xfc0f9080>
 41012d8:	10c00017 	ldw	r3,0(r2)
 41012dc:	01ffbff4 	movhi	r7,65279
 41012e0:	39ffbfc4 	addi	r7,r7,-257
 41012e4:	00ca303a 	nor	r5,zero,r3
 41012e8:	01a02074 	movhi	r6,32897
 41012ec:	19c7883a 	add	r3,r3,r7
 41012f0:	31a02004 	addi	r6,r6,-32640
 41012f4:	1946703a 	and	r3,r3,r5
 41012f8:	1986703a 	and	r3,r3,r6
 41012fc:	1800091e 	bne	r3,zero,4101324 <strlen+0x78>
 4101300:	10800104 	addi	r2,r2,4
 4101304:	10c00017 	ldw	r3,0(r2)
 4101308:	19cb883a 	add	r5,r3,r7
 410130c:	00c6303a 	nor	r3,zero,r3
 4101310:	28c6703a 	and	r3,r5,r3
 4101314:	1986703a 	and	r3,r3,r6
 4101318:	183ff926 	beq	r3,zero,4101300 <__ram_exceptions_end+0xfc0f90bc>
 410131c:	00000106 	br	4101324 <strlen+0x78>
 4101320:	10800044 	addi	r2,r2,1
 4101324:	10c00007 	ldb	r3,0(r2)
 4101328:	183ffd1e 	bne	r3,zero,4101320 <__ram_exceptions_end+0xfc0f90dc>
 410132c:	1105c83a 	sub	r2,r2,r4
 4101330:	f800283a 	ret
 4101334:	2005883a 	mov	r2,r4
 4101338:	003fe706 	br	41012d8 <__ram_exceptions_end+0xfc0f9094>
 410133c:	0005883a 	mov	r2,zero
 4101340:	f800283a 	ret

04101344 <___svfprintf_internal_r>:
 4101344:	deffb704 	addi	sp,sp,-292
 4101348:	dfc04815 	stw	ra,288(sp)
 410134c:	ddc04615 	stw	r23,280(sp)
 4101350:	d9402c15 	stw	r5,176(sp)
 4101354:	d9003915 	stw	r4,228(sp)
 4101358:	302f883a 	mov	r23,r6
 410135c:	d9c02d15 	stw	r7,180(sp)
 4101360:	df004715 	stw	fp,284(sp)
 4101364:	dd804515 	stw	r22,276(sp)
 4101368:	dd404415 	stw	r21,272(sp)
 410136c:	dd004315 	stw	r20,268(sp)
 4101370:	dcc04215 	stw	r19,264(sp)
 4101374:	dc804115 	stw	r18,260(sp)
 4101378:	dc404015 	stw	r17,256(sp)
 410137c:	dc003f15 	stw	r16,252(sp)
 4101380:	4104e500 	call	4104e50 <_localeconv_r>
 4101384:	10800017 	ldw	r2,0(r2)
 4101388:	1009883a 	mov	r4,r2
 410138c:	d8803415 	stw	r2,208(sp)
 4101390:	41012ac0 	call	41012ac <strlen>
 4101394:	d8c02c17 	ldw	r3,176(sp)
 4101398:	d8803815 	stw	r2,224(sp)
 410139c:	1880030b 	ldhu	r2,12(r3)
 41013a0:	1080200c 	andi	r2,r2,128
 41013a4:	10000226 	beq	r2,zero,41013b0 <___svfprintf_internal_r+0x6c>
 41013a8:	18800417 	ldw	r2,16(r3)
 41013ac:	10067f26 	beq	r2,zero,4102dac <___svfprintf_internal_r+0x1a68>
 41013b0:	dcc03917 	ldw	r19,228(sp)
 41013b4:	d8c00404 	addi	r3,sp,16
 41013b8:	05410474 	movhi	r21,1041
 41013bc:	d9001e04 	addi	r4,sp,120
 41013c0:	ad783b84 	addi	r21,r21,-7954
 41013c4:	d8c01e15 	stw	r3,120(sp)
 41013c8:	d8002015 	stw	zero,128(sp)
 41013cc:	d8001f15 	stw	zero,124(sp)
 41013d0:	d8003315 	stw	zero,204(sp)
 41013d4:	d8003615 	stw	zero,216(sp)
 41013d8:	d8003715 	stw	zero,220(sp)
 41013dc:	1811883a 	mov	r8,r3
 41013e0:	d8003a15 	stw	zero,232(sp)
 41013e4:	d8003b15 	stw	zero,236(sp)
 41013e8:	d8002f15 	stw	zero,188(sp)
 41013ec:	d9002815 	stw	r4,160(sp)
 41013f0:	b8800007 	ldb	r2,0(r23)
 41013f4:	10026726 	beq	r2,zero,4101d94 <___svfprintf_internal_r+0xa50>
 41013f8:	00c00944 	movi	r3,37
 41013fc:	b821883a 	mov	r16,r23
 4101400:	10c0021e 	bne	r2,r3,410140c <___svfprintf_internal_r+0xc8>
 4101404:	00001406 	br	4101458 <___svfprintf_internal_r+0x114>
 4101408:	10c00326 	beq	r2,r3,4101418 <___svfprintf_internal_r+0xd4>
 410140c:	84000044 	addi	r16,r16,1
 4101410:	80800007 	ldb	r2,0(r16)
 4101414:	103ffc1e 	bne	r2,zero,4101408 <__ram_exceptions_end+0xfc0f91c4>
 4101418:	85e3c83a 	sub	r17,r16,r23
 410141c:	88000e26 	beq	r17,zero,4101458 <___svfprintf_internal_r+0x114>
 4101420:	d8c02017 	ldw	r3,128(sp)
 4101424:	d8801f17 	ldw	r2,124(sp)
 4101428:	45c00015 	stw	r23,0(r8)
 410142c:	1c47883a 	add	r3,r3,r17
 4101430:	10800044 	addi	r2,r2,1
 4101434:	d8c02015 	stw	r3,128(sp)
 4101438:	44400115 	stw	r17,4(r8)
 410143c:	d8801f15 	stw	r2,124(sp)
 4101440:	00c001c4 	movi	r3,7
 4101444:	18809716 	blt	r3,r2,41016a4 <___svfprintf_internal_r+0x360>
 4101448:	42000204 	addi	r8,r8,8
 410144c:	d9402f17 	ldw	r5,188(sp)
 4101450:	2c4b883a 	add	r5,r5,r17
 4101454:	d9402f15 	stw	r5,188(sp)
 4101458:	80800007 	ldb	r2,0(r16)
 410145c:	10009826 	beq	r2,zero,41016c0 <___svfprintf_internal_r+0x37c>
 4101460:	84400047 	ldb	r17,1(r16)
 4101464:	00bfffc4 	movi	r2,-1
 4101468:	85c00044 	addi	r23,r16,1
 410146c:	d8002785 	stb	zero,158(sp)
 4101470:	0007883a 	mov	r3,zero
 4101474:	000f883a 	mov	r7,zero
 4101478:	d8802915 	stw	r2,164(sp)
 410147c:	d8003115 	stw	zero,196(sp)
 4101480:	0025883a 	mov	r18,zero
 4101484:	01401604 	movi	r5,88
 4101488:	01800244 	movi	r6,9
 410148c:	02800a84 	movi	r10,42
 4101490:	02401b04 	movi	r9,108
 4101494:	bdc00044 	addi	r23,r23,1
 4101498:	88bff804 	addi	r2,r17,-32
 410149c:	2882f036 	bltu	r5,r2,4102060 <___svfprintf_internal_r+0xd1c>
 41014a0:	100490ba 	slli	r2,r2,2
 41014a4:	01010434 	movhi	r4,1040
 41014a8:	21052e04 	addi	r4,r4,5304
 41014ac:	1105883a 	add	r2,r2,r4
 41014b0:	10800017 	ldw	r2,0(r2)
 41014b4:	1000683a 	jmp	r2
 41014b8:	04101fc8 	cmpgei	r16,zero,16511
 41014bc:	04102060 	cmpeqi	r16,zero,16513
 41014c0:	04102060 	cmpeqi	r16,zero,16513
 41014c4:	04101fbc 	xorhi	r16,zero,16510
 41014c8:	04102060 	cmpeqi	r16,zero,16513
 41014cc:	04102060 	cmpeqi	r16,zero,16513
 41014d0:	04102060 	cmpeqi	r16,zero,16513
 41014d4:	04102060 	cmpeqi	r16,zero,16513
 41014d8:	04102060 	cmpeqi	r16,zero,16513
 41014dc:	04102060 	cmpeqi	r16,zero,16513
 41014e0:	0410171c 	xori	r16,zero,16476
 41014e4:	04101ef8 	rdprs	r16,zero,16507
 41014e8:	04102060 	cmpeqi	r16,zero,16513
 41014ec:	0410162c 	andhi	r16,zero,16472
 41014f0:	04101744 	movi	r16,16477
 41014f4:	04102060 	cmpeqi	r16,zero,16513
 41014f8:	041017b8 	rdprs	r16,zero,16478
 41014fc:	04101784 	movi	r16,16478
 4101500:	04101784 	movi	r16,16478
 4101504:	04101784 	movi	r16,16478
 4101508:	04101784 	movi	r16,16478
 410150c:	04101784 	movi	r16,16478
 4101510:	04101784 	movi	r16,16478
 4101514:	04101784 	movi	r16,16478
 4101518:	04101784 	movi	r16,16478
 410151c:	04101784 	movi	r16,16478
 4101520:	04102060 	cmpeqi	r16,zero,16513
 4101524:	04102060 	cmpeqi	r16,zero,16513
 4101528:	04102060 	cmpeqi	r16,zero,16513
 410152c:	04102060 	cmpeqi	r16,zero,16513
 4101530:	04102060 	cmpeqi	r16,zero,16513
 4101534:	04102060 	cmpeqi	r16,zero,16513
 4101538:	04102060 	cmpeqi	r16,zero,16513
 410153c:	04102060 	cmpeqi	r16,zero,16513
 4101540:	04102060 	cmpeqi	r16,zero,16513
 4101544:	04102060 	cmpeqi	r16,zero,16513
 4101548:	04101870 	cmpltui	r16,zero,16481
 410154c:	041017c4 	movi	r16,16479
 4101550:	04102060 	cmpeqi	r16,zero,16513
 4101554:	041017c4 	movi	r16,16479
 4101558:	04102060 	cmpeqi	r16,zero,16513
 410155c:	04102060 	cmpeqi	r16,zero,16513
 4101560:	04102060 	cmpeqi	r16,zero,16513
 4101564:	04102060 	cmpeqi	r16,zero,16513
 4101568:	04101864 	muli	r16,zero,16481
 410156c:	04102060 	cmpeqi	r16,zero,16513
 4101570:	04102060 	cmpeqi	r16,zero,16513
 4101574:	0410192c 	andhi	r16,zero,16484
 4101578:	04102060 	cmpeqi	r16,zero,16513
 410157c:	04102060 	cmpeqi	r16,zero,16513
 4101580:	04102060 	cmpeqi	r16,zero,16513
 4101584:	04102060 	cmpeqi	r16,zero,16513
 4101588:	04102060 	cmpeqi	r16,zero,16513
 410158c:	04101d9c 	xori	r16,zero,16502
 4101590:	04102060 	cmpeqi	r16,zero,16513
 4101594:	04102060 	cmpeqi	r16,zero,16513
 4101598:	04101dfc 	xorhi	r16,zero,16503
 410159c:	04102060 	cmpeqi	r16,zero,16513
 41015a0:	04102060 	cmpeqi	r16,zero,16513
 41015a4:	04102060 	cmpeqi	r16,zero,16513
 41015a8:	04102060 	cmpeqi	r16,zero,16513
 41015ac:	04102060 	cmpeqi	r16,zero,16513
 41015b0:	04102060 	cmpeqi	r16,zero,16513
 41015b4:	04102060 	cmpeqi	r16,zero,16513
 41015b8:	04102060 	cmpeqi	r16,zero,16513
 41015bc:	04102060 	cmpeqi	r16,zero,16513
 41015c0:	04102060 	cmpeqi	r16,zero,16513
 41015c4:	04101eac 	andhi	r16,zero,16506
 41015c8:	04101fe8 	cmpgeui	r16,zero,16511
 41015cc:	041017c4 	movi	r16,16479
 41015d0:	041017c4 	movi	r16,16479
 41015d4:	041017c4 	movi	r16,16479
 41015d8:	0410203c 	xorhi	r16,zero,16512
 41015dc:	04101fe8 	cmpgeui	r16,zero,16511
 41015e0:	04102060 	cmpeqi	r16,zero,16513
 41015e4:	04102060 	cmpeqi	r16,zero,16513
 41015e8:	04101ff8 	rdprs	r16,zero,16511
 41015ec:	04102060 	cmpeqi	r16,zero,16513
 41015f0:	04102008 	cmpgei	r16,zero,16512
 41015f4:	04101ee8 	cmpgeui	r16,zero,16507
 41015f8:	04101638 	rdprs	r16,zero,16472
 41015fc:	04101f08 	cmpgei	r16,zero,16508
 4101600:	04102060 	cmpeqi	r16,zero,16513
 4101604:	04101f14 	movui	r16,16508
 4101608:	04102060 	cmpeqi	r16,zero,16513
 410160c:	04101f70 	cmpltui	r16,zero,16509
 4101610:	04102060 	cmpeqi	r16,zero,16513
 4101614:	04102060 	cmpeqi	r16,zero,16513
 4101618:	04101f80 	call	4101f8 <__alt_mem_new_sdram_controller_0-0x3befe08>
 410161c:	d9003117 	ldw	r4,196(sp)
 4101620:	d8802d15 	stw	r2,180(sp)
 4101624:	0109c83a 	sub	r4,zero,r4
 4101628:	d9003115 	stw	r4,196(sp)
 410162c:	94800114 	ori	r18,r18,4
 4101630:	bc400007 	ldb	r17,0(r23)
 4101634:	003f9706 	br	4101494 <__ram_exceptions_end+0xfc0f9250>
 4101638:	00800c04 	movi	r2,48
 410163c:	d9002d17 	ldw	r4,180(sp)
 4101640:	d9402917 	ldw	r5,164(sp)
 4101644:	d8802705 	stb	r2,156(sp)
 4101648:	00801e04 	movi	r2,120
 410164c:	d8802745 	stb	r2,157(sp)
 4101650:	d8002785 	stb	zero,158(sp)
 4101654:	20c00104 	addi	r3,r4,4
 4101658:	25000017 	ldw	r20,0(r4)
 410165c:	002d883a 	mov	r22,zero
 4101660:	90800094 	ori	r2,r18,2
 4101664:	28028616 	blt	r5,zero,4102080 <___svfprintf_internal_r+0xd3c>
 4101668:	00bfdfc4 	movi	r2,-129
 410166c:	90a4703a 	and	r18,r18,r2
 4101670:	d8c02d15 	stw	r3,180(sp)
 4101674:	94800094 	ori	r18,r18,2
 4101678:	a002731e 	bne	r20,zero,4102048 <___svfprintf_internal_r+0xd04>
 410167c:	00810474 	movhi	r2,1041
 4101680:	10b83404 	addi	r2,r2,-7984
 4101684:	d8803a15 	stw	r2,232(sp)
 4101688:	04401e04 	movi	r17,120
 410168c:	d8c02917 	ldw	r3,164(sp)
 4101690:	0039883a 	mov	fp,zero
 4101694:	1801d526 	beq	r3,zero,4101dec <___svfprintf_internal_r+0xaa8>
 4101698:	0029883a 	mov	r20,zero
 410169c:	002d883a 	mov	r22,zero
 41016a0:	0001f106 	br	4101e68 <___svfprintf_internal_r+0xb24>
 41016a4:	d9402c17 	ldw	r5,176(sp)
 41016a8:	d9801e04 	addi	r6,sp,120
 41016ac:	9809883a 	mov	r4,r19
 41016b0:	41069100 	call	4106910 <__ssprint_r>
 41016b4:	1000081e 	bne	r2,zero,41016d8 <___svfprintf_internal_r+0x394>
 41016b8:	da000404 	addi	r8,sp,16
 41016bc:	003f6306 	br	410144c <__ram_exceptions_end+0xfc0f9208>
 41016c0:	d8802017 	ldw	r2,128(sp)
 41016c4:	10000426 	beq	r2,zero,41016d8 <___svfprintf_internal_r+0x394>
 41016c8:	d9402c17 	ldw	r5,176(sp)
 41016cc:	d9003917 	ldw	r4,228(sp)
 41016d0:	d9801e04 	addi	r6,sp,120
 41016d4:	41069100 	call	4106910 <__ssprint_r>
 41016d8:	d8802c17 	ldw	r2,176(sp)
 41016dc:	10c0030b 	ldhu	r3,12(r2)
 41016e0:	d8802f17 	ldw	r2,188(sp)
 41016e4:	18c0100c 	andi	r3,r3,64
 41016e8:	1805f51e 	bne	r3,zero,4102ec0 <___svfprintf_internal_r+0x1b7c>
 41016ec:	dfc04817 	ldw	ra,288(sp)
 41016f0:	df004717 	ldw	fp,284(sp)
 41016f4:	ddc04617 	ldw	r23,280(sp)
 41016f8:	dd804517 	ldw	r22,276(sp)
 41016fc:	dd404417 	ldw	r21,272(sp)
 4101700:	dd004317 	ldw	r20,268(sp)
 4101704:	dcc04217 	ldw	r19,264(sp)
 4101708:	dc804117 	ldw	r18,260(sp)
 410170c:	dc404017 	ldw	r17,256(sp)
 4101710:	dc003f17 	ldw	r16,252(sp)
 4101714:	dec04904 	addi	sp,sp,292
 4101718:	f800283a 	ret
 410171c:	d8802d17 	ldw	r2,180(sp)
 4101720:	d9002d17 	ldw	r4,180(sp)
 4101724:	10800017 	ldw	r2,0(r2)
 4101728:	d8803115 	stw	r2,196(sp)
 410172c:	20800104 	addi	r2,r4,4
 4101730:	d9003117 	ldw	r4,196(sp)
 4101734:	203fb916 	blt	r4,zero,410161c <__ram_exceptions_end+0xfc0f93d8>
 4101738:	d8802d15 	stw	r2,180(sp)
 410173c:	bc400007 	ldb	r17,0(r23)
 4101740:	003f5406 	br	4101494 <__ram_exceptions_end+0xfc0f9250>
 4101744:	bc400007 	ldb	r17,0(r23)
 4101748:	bac00044 	addi	r11,r23,1
 410174c:	8a873926 	beq	r17,r10,4103434 <___svfprintf_internal_r+0x20f0>
 4101750:	88bff404 	addi	r2,r17,-48
 4101754:	0009883a 	mov	r4,zero
 4101758:	30868836 	bltu	r6,r2,410317c <___svfprintf_internal_r+0x1e38>
 410175c:	5c400007 	ldb	r17,0(r11)
 4101760:	210002a4 	muli	r4,r4,10
 4101764:	5dc00044 	addi	r23,r11,1
 4101768:	b817883a 	mov	r11,r23
 410176c:	2089883a 	add	r4,r4,r2
 4101770:	88bff404 	addi	r2,r17,-48
 4101774:	30bff92e 	bgeu	r6,r2,410175c <__ram_exceptions_end+0xfc0f9518>
 4101778:	2005d716 	blt	r4,zero,4102ed8 <___svfprintf_internal_r+0x1b94>
 410177c:	d9002915 	stw	r4,164(sp)
 4101780:	003f4506 	br	4101498 <__ram_exceptions_end+0xfc0f9254>
 4101784:	b809883a 	mov	r4,r23
 4101788:	d8003115 	stw	zero,196(sp)
 410178c:	88bff404 	addi	r2,r17,-48
 4101790:	0017883a 	mov	r11,zero
 4101794:	24400007 	ldb	r17,0(r4)
 4101798:	5ac002a4 	muli	r11,r11,10
 410179c:	bdc00044 	addi	r23,r23,1
 41017a0:	b809883a 	mov	r4,r23
 41017a4:	12d7883a 	add	r11,r2,r11
 41017a8:	88bff404 	addi	r2,r17,-48
 41017ac:	30bff92e 	bgeu	r6,r2,4101794 <__ram_exceptions_end+0xfc0f9550>
 41017b0:	dac03115 	stw	r11,196(sp)
 41017b4:	003f3806 	br	4101498 <__ram_exceptions_end+0xfc0f9254>
 41017b8:	94802014 	ori	r18,r18,128
 41017bc:	bc400007 	ldb	r17,0(r23)
 41017c0:	003f3406 	br	4101494 <__ram_exceptions_end+0xfc0f9250>
 41017c4:	18c03fcc 	andi	r3,r3,255
 41017c8:	1807471e 	bne	r3,zero,41034e8 <___svfprintf_internal_r+0x21a4>
 41017cc:	9080020c 	andi	r2,r18,8
 41017d0:	10047d26 	beq	r2,zero,41029c8 <___svfprintf_internal_r+0x1684>
 41017d4:	d8c02d17 	ldw	r3,180(sp)
 41017d8:	d9002d17 	ldw	r4,180(sp)
 41017dc:	d9402d17 	ldw	r5,180(sp)
 41017e0:	18c00017 	ldw	r3,0(r3)
 41017e4:	21000117 	ldw	r4,4(r4)
 41017e8:	29400204 	addi	r5,r5,8
 41017ec:	d8c03615 	stw	r3,216(sp)
 41017f0:	d9003715 	stw	r4,220(sp)
 41017f4:	d9402d15 	stw	r5,180(sp)
 41017f8:	d9003617 	ldw	r4,216(sp)
 41017fc:	d9403717 	ldw	r5,220(sp)
 4101800:	da003e15 	stw	r8,248(sp)
 4101804:	04000044 	movi	r16,1
 4101808:	410676c0 	call	410676c <__fpclassifyd>
 410180c:	da003e17 	ldw	r8,248(sp)
 4101810:	14044b1e 	bne	r2,r16,4102940 <___svfprintf_internal_r+0x15fc>
 4101814:	d9003617 	ldw	r4,216(sp)
 4101818:	d9403717 	ldw	r5,220(sp)
 410181c:	000d883a 	mov	r6,zero
 4101820:	000f883a 	mov	r7,zero
 4101824:	410a7a40 	call	410a7a4 <__ledf2>
 4101828:	da003e17 	ldw	r8,248(sp)
 410182c:	1005f316 	blt	r2,zero,4102ffc <___svfprintf_internal_r+0x1cb8>
 4101830:	df002783 	ldbu	fp,158(sp)
 4101834:	008011c4 	movi	r2,71
 4101838:	1445590e 	bge	r2,r17,4102da0 <___svfprintf_internal_r+0x1a5c>
 410183c:	04010474 	movhi	r16,1041
 4101840:	84382c04 	addi	r16,r16,-8016
 4101844:	00c000c4 	movi	r3,3
 4101848:	00bfdfc4 	movi	r2,-129
 410184c:	d8c02a15 	stw	r3,168(sp)
 4101850:	90a4703a 	and	r18,r18,r2
 4101854:	d8c02e15 	stw	r3,184(sp)
 4101858:	d8002915 	stw	zero,164(sp)
 410185c:	d8003215 	stw	zero,200(sp)
 4101860:	00006606 	br	41019fc <___svfprintf_internal_r+0x6b8>
 4101864:	94800214 	ori	r18,r18,8
 4101868:	bc400007 	ldb	r17,0(r23)
 410186c:	003f0906 	br	4101494 <__ram_exceptions_end+0xfc0f9250>
 4101870:	18c03fcc 	andi	r3,r3,255
 4101874:	1807181e 	bne	r3,zero,41034d8 <___svfprintf_internal_r+0x2194>
 4101878:	94800414 	ori	r18,r18,16
 410187c:	9080080c 	andi	r2,r18,32
 4101880:	10039626 	beq	r2,zero,41026dc <___svfprintf_internal_r+0x1398>
 4101884:	d9402d17 	ldw	r5,180(sp)
 4101888:	28800117 	ldw	r2,4(r5)
 410188c:	2d000017 	ldw	r20,0(r5)
 4101890:	29400204 	addi	r5,r5,8
 4101894:	d9402d15 	stw	r5,180(sp)
 4101898:	102d883a 	mov	r22,r2
 410189c:	10039816 	blt	r2,zero,4102700 <___svfprintf_internal_r+0x13bc>
 41018a0:	d9402917 	ldw	r5,164(sp)
 41018a4:	df002783 	ldbu	fp,158(sp)
 41018a8:	2803ab16 	blt	r5,zero,4102758 <___svfprintf_internal_r+0x1414>
 41018ac:	00ffdfc4 	movi	r3,-129
 41018b0:	a584b03a 	or	r2,r20,r22
 41018b4:	90e4703a 	and	r18,r18,r3
 41018b8:	10014a26 	beq	r2,zero,4101de4 <___svfprintf_internal_r+0xaa0>
 41018bc:	b0034b26 	beq	r22,zero,41025ec <___svfprintf_internal_r+0x12a8>
 41018c0:	dc402a15 	stw	r17,168(sp)
 41018c4:	dc001e04 	addi	r16,sp,120
 41018c8:	b023883a 	mov	r17,r22
 41018cc:	402d883a 	mov	r22,r8
 41018d0:	a009883a 	mov	r4,r20
 41018d4:	880b883a 	mov	r5,r17
 41018d8:	01800284 	movi	r6,10
 41018dc:	000f883a 	mov	r7,zero
 41018e0:	4108f740 	call	4108f74 <__umoddi3>
 41018e4:	10800c04 	addi	r2,r2,48
 41018e8:	843fffc4 	addi	r16,r16,-1
 41018ec:	a009883a 	mov	r4,r20
 41018f0:	880b883a 	mov	r5,r17
 41018f4:	80800005 	stb	r2,0(r16)
 41018f8:	01800284 	movi	r6,10
 41018fc:	000f883a 	mov	r7,zero
 4101900:	41089fc0 	call	41089fc <__udivdi3>
 4101904:	1029883a 	mov	r20,r2
 4101908:	10c4b03a 	or	r2,r2,r3
 410190c:	1823883a 	mov	r17,r3
 4101910:	103fef1e 	bne	r2,zero,41018d0 <__ram_exceptions_end+0xfc0f968c>
 4101914:	d8c02817 	ldw	r3,160(sp)
 4101918:	dc402a17 	ldw	r17,168(sp)
 410191c:	b011883a 	mov	r8,r22
 4101920:	1c07c83a 	sub	r3,r3,r16
 4101924:	d8c02e15 	stw	r3,184(sp)
 4101928:	00002e06 	br	41019e4 <___svfprintf_internal_r+0x6a0>
 410192c:	18c03fcc 	andi	r3,r3,255
 4101930:	1806e71e 	bne	r3,zero,41034d0 <___svfprintf_internal_r+0x218c>
 4101934:	94800414 	ori	r18,r18,16
 4101938:	9080080c 	andi	r2,r18,32
 410193c:	1002d426 	beq	r2,zero,4102490 <___svfprintf_internal_r+0x114c>
 4101940:	d9402d17 	ldw	r5,180(sp)
 4101944:	d8c02917 	ldw	r3,164(sp)
 4101948:	d8002785 	stb	zero,158(sp)
 410194c:	28800204 	addi	r2,r5,8
 4101950:	2d000017 	ldw	r20,0(r5)
 4101954:	2d800117 	ldw	r22,4(r5)
 4101958:	18041516 	blt	r3,zero,41029b0 <___svfprintf_internal_r+0x166c>
 410195c:	013fdfc4 	movi	r4,-129
 4101960:	a586b03a 	or	r3,r20,r22
 4101964:	d8802d15 	stw	r2,180(sp)
 4101968:	9124703a 	and	r18,r18,r4
 410196c:	1802d51e 	bne	r3,zero,41024c4 <___svfprintf_internal_r+0x1180>
 4101970:	d9402917 	ldw	r5,164(sp)
 4101974:	0039883a 	mov	fp,zero
 4101978:	2806be26 	beq	r5,zero,4103474 <___svfprintf_internal_r+0x2130>
 410197c:	0029883a 	mov	r20,zero
 4101980:	002d883a 	mov	r22,zero
 4101984:	dc001e04 	addi	r16,sp,120
 4101988:	a006d0fa 	srli	r3,r20,3
 410198c:	b008977a 	slli	r4,r22,29
 4101990:	b02cd0fa 	srli	r22,r22,3
 4101994:	a50001cc 	andi	r20,r20,7
 4101998:	a0800c04 	addi	r2,r20,48
 410199c:	843fffc4 	addi	r16,r16,-1
 41019a0:	20e8b03a 	or	r20,r4,r3
 41019a4:	80800005 	stb	r2,0(r16)
 41019a8:	a586b03a 	or	r3,r20,r22
 41019ac:	183ff61e 	bne	r3,zero,4101988 <__ram_exceptions_end+0xfc0f9744>
 41019b0:	90c0004c 	andi	r3,r18,1
 41019b4:	18013926 	beq	r3,zero,4101e9c <___svfprintf_internal_r+0xb58>
 41019b8:	10803fcc 	andi	r2,r2,255
 41019bc:	1080201c 	xori	r2,r2,128
 41019c0:	10bfe004 	addi	r2,r2,-128
 41019c4:	00c00c04 	movi	r3,48
 41019c8:	10c13426 	beq	r2,r3,4101e9c <___svfprintf_internal_r+0xb58>
 41019cc:	80ffffc5 	stb	r3,-1(r16)
 41019d0:	d8c02817 	ldw	r3,160(sp)
 41019d4:	80bfffc4 	addi	r2,r16,-1
 41019d8:	1021883a 	mov	r16,r2
 41019dc:	1887c83a 	sub	r3,r3,r2
 41019e0:	d8c02e15 	stw	r3,184(sp)
 41019e4:	d8802e17 	ldw	r2,184(sp)
 41019e8:	d9002917 	ldw	r4,164(sp)
 41019ec:	1100010e 	bge	r2,r4,41019f4 <___svfprintf_internal_r+0x6b0>
 41019f0:	2005883a 	mov	r2,r4
 41019f4:	d8802a15 	stw	r2,168(sp)
 41019f8:	d8003215 	stw	zero,200(sp)
 41019fc:	e7003fcc 	andi	fp,fp,255
 4101a00:	e700201c 	xori	fp,fp,128
 4101a04:	e73fe004 	addi	fp,fp,-128
 4101a08:	e0000326 	beq	fp,zero,4101a18 <___svfprintf_internal_r+0x6d4>
 4101a0c:	d8c02a17 	ldw	r3,168(sp)
 4101a10:	18c00044 	addi	r3,r3,1
 4101a14:	d8c02a15 	stw	r3,168(sp)
 4101a18:	90c0008c 	andi	r3,r18,2
 4101a1c:	d8c02b15 	stw	r3,172(sp)
 4101a20:	18000326 	beq	r3,zero,4101a30 <___svfprintf_internal_r+0x6ec>
 4101a24:	d8c02a17 	ldw	r3,168(sp)
 4101a28:	18c00084 	addi	r3,r3,2
 4101a2c:	d8c02a15 	stw	r3,168(sp)
 4101a30:	90c0210c 	andi	r3,r18,132
 4101a34:	d8c03015 	stw	r3,192(sp)
 4101a38:	1801a11e 	bne	r3,zero,41020c0 <___svfprintf_internal_r+0xd7c>
 4101a3c:	d9003117 	ldw	r4,196(sp)
 4101a40:	d8c02a17 	ldw	r3,168(sp)
 4101a44:	20e9c83a 	sub	r20,r4,r3
 4101a48:	05019d0e 	bge	zero,r20,41020c0 <___svfprintf_internal_r+0xd7c>
 4101a4c:	02400404 	movi	r9,16
 4101a50:	d8c02017 	ldw	r3,128(sp)
 4101a54:	d8801f17 	ldw	r2,124(sp)
 4101a58:	4d051b0e 	bge	r9,r20,4102ec8 <___svfprintf_internal_r+0x1b84>
 4101a5c:	01410474 	movhi	r5,1041
 4101a60:	29783f84 	addi	r5,r5,-7938
 4101a64:	dc403c15 	stw	r17,240(sp)
 4101a68:	d9403515 	stw	r5,212(sp)
 4101a6c:	a023883a 	mov	r17,r20
 4101a70:	482d883a 	mov	r22,r9
 4101a74:	9029883a 	mov	r20,r18
 4101a78:	070001c4 	movi	fp,7
 4101a7c:	8025883a 	mov	r18,r16
 4101a80:	dc002c17 	ldw	r16,176(sp)
 4101a84:	00000306 	br	4101a94 <___svfprintf_internal_r+0x750>
 4101a88:	8c7ffc04 	addi	r17,r17,-16
 4101a8c:	42000204 	addi	r8,r8,8
 4101a90:	b440130e 	bge	r22,r17,4101ae0 <___svfprintf_internal_r+0x79c>
 4101a94:	01010474 	movhi	r4,1041
 4101a98:	18c00404 	addi	r3,r3,16
 4101a9c:	10800044 	addi	r2,r2,1
 4101aa0:	21383f84 	addi	r4,r4,-7938
 4101aa4:	41000015 	stw	r4,0(r8)
 4101aa8:	45800115 	stw	r22,4(r8)
 4101aac:	d8c02015 	stw	r3,128(sp)
 4101ab0:	d8801f15 	stw	r2,124(sp)
 4101ab4:	e0bff40e 	bge	fp,r2,4101a88 <__ram_exceptions_end+0xfc0f9844>
 4101ab8:	d9801e04 	addi	r6,sp,120
 4101abc:	800b883a 	mov	r5,r16
 4101ac0:	9809883a 	mov	r4,r19
 4101ac4:	41069100 	call	4106910 <__ssprint_r>
 4101ac8:	103f031e 	bne	r2,zero,41016d8 <__ram_exceptions_end+0xfc0f9494>
 4101acc:	8c7ffc04 	addi	r17,r17,-16
 4101ad0:	d8c02017 	ldw	r3,128(sp)
 4101ad4:	d8801f17 	ldw	r2,124(sp)
 4101ad8:	da000404 	addi	r8,sp,16
 4101adc:	b47fed16 	blt	r22,r17,4101a94 <__ram_exceptions_end+0xfc0f9850>
 4101ae0:	9021883a 	mov	r16,r18
 4101ae4:	a025883a 	mov	r18,r20
 4101ae8:	8829883a 	mov	r20,r17
 4101aec:	dc403c17 	ldw	r17,240(sp)
 4101af0:	d9403517 	ldw	r5,212(sp)
 4101af4:	a0c7883a 	add	r3,r20,r3
 4101af8:	10800044 	addi	r2,r2,1
 4101afc:	41400015 	stw	r5,0(r8)
 4101b00:	45000115 	stw	r20,4(r8)
 4101b04:	d8c02015 	stw	r3,128(sp)
 4101b08:	d8801f15 	stw	r2,124(sp)
 4101b0c:	010001c4 	movi	r4,7
 4101b10:	20829f16 	blt	r4,r2,4102590 <___svfprintf_internal_r+0x124c>
 4101b14:	df002787 	ldb	fp,158(sp)
 4101b18:	42000204 	addi	r8,r8,8
 4101b1c:	e0000c26 	beq	fp,zero,4101b50 <___svfprintf_internal_r+0x80c>
 4101b20:	d8801f17 	ldw	r2,124(sp)
 4101b24:	d9002784 	addi	r4,sp,158
 4101b28:	18c00044 	addi	r3,r3,1
 4101b2c:	10800044 	addi	r2,r2,1
 4101b30:	41000015 	stw	r4,0(r8)
 4101b34:	01000044 	movi	r4,1
 4101b38:	41000115 	stw	r4,4(r8)
 4101b3c:	d8c02015 	stw	r3,128(sp)
 4101b40:	d8801f15 	stw	r2,124(sp)
 4101b44:	010001c4 	movi	r4,7
 4101b48:	20823816 	blt	r4,r2,410242c <___svfprintf_internal_r+0x10e8>
 4101b4c:	42000204 	addi	r8,r8,8
 4101b50:	d8802b17 	ldw	r2,172(sp)
 4101b54:	10000c26 	beq	r2,zero,4101b88 <___svfprintf_internal_r+0x844>
 4101b58:	d8801f17 	ldw	r2,124(sp)
 4101b5c:	d9002704 	addi	r4,sp,156
 4101b60:	18c00084 	addi	r3,r3,2
 4101b64:	10800044 	addi	r2,r2,1
 4101b68:	41000015 	stw	r4,0(r8)
 4101b6c:	01000084 	movi	r4,2
 4101b70:	41000115 	stw	r4,4(r8)
 4101b74:	d8c02015 	stw	r3,128(sp)
 4101b78:	d8801f15 	stw	r2,124(sp)
 4101b7c:	010001c4 	movi	r4,7
 4101b80:	20823216 	blt	r4,r2,410244c <___svfprintf_internal_r+0x1108>
 4101b84:	42000204 	addi	r8,r8,8
 4101b88:	d9003017 	ldw	r4,192(sp)
 4101b8c:	00802004 	movi	r2,128
 4101b90:	20819726 	beq	r4,r2,41021f0 <___svfprintf_internal_r+0xeac>
 4101b94:	d9402917 	ldw	r5,164(sp)
 4101b98:	d8802e17 	ldw	r2,184(sp)
 4101b9c:	28adc83a 	sub	r22,r5,r2
 4101ba0:	05802f0e 	bge	zero,r22,4101c60 <___svfprintf_internal_r+0x91c>
 4101ba4:	07000404 	movi	fp,16
 4101ba8:	d8801f17 	ldw	r2,124(sp)
 4101bac:	e583c00e 	bge	fp,r22,4102ab0 <___svfprintf_internal_r+0x176c>
 4101bb0:	01410474 	movhi	r5,1041
 4101bb4:	29783b84 	addi	r5,r5,-7954
 4101bb8:	dc402915 	stw	r17,164(sp)
 4101bbc:	d9402b15 	stw	r5,172(sp)
 4101bc0:	b023883a 	mov	r17,r22
 4101bc4:	050001c4 	movi	r20,7
 4101bc8:	902d883a 	mov	r22,r18
 4101bcc:	8025883a 	mov	r18,r16
 4101bd0:	dc002c17 	ldw	r16,176(sp)
 4101bd4:	00000306 	br	4101be4 <___svfprintf_internal_r+0x8a0>
 4101bd8:	8c7ffc04 	addi	r17,r17,-16
 4101bdc:	42000204 	addi	r8,r8,8
 4101be0:	e440110e 	bge	fp,r17,4101c28 <___svfprintf_internal_r+0x8e4>
 4101be4:	18c00404 	addi	r3,r3,16
 4101be8:	10800044 	addi	r2,r2,1
 4101bec:	45400015 	stw	r21,0(r8)
 4101bf0:	47000115 	stw	fp,4(r8)
 4101bf4:	d8c02015 	stw	r3,128(sp)
 4101bf8:	d8801f15 	stw	r2,124(sp)
 4101bfc:	a0bff60e 	bge	r20,r2,4101bd8 <__ram_exceptions_end+0xfc0f9994>
 4101c00:	d9801e04 	addi	r6,sp,120
 4101c04:	800b883a 	mov	r5,r16
 4101c08:	9809883a 	mov	r4,r19
 4101c0c:	41069100 	call	4106910 <__ssprint_r>
 4101c10:	103eb11e 	bne	r2,zero,41016d8 <__ram_exceptions_end+0xfc0f9494>
 4101c14:	8c7ffc04 	addi	r17,r17,-16
 4101c18:	d8c02017 	ldw	r3,128(sp)
 4101c1c:	d8801f17 	ldw	r2,124(sp)
 4101c20:	da000404 	addi	r8,sp,16
 4101c24:	e47fef16 	blt	fp,r17,4101be4 <__ram_exceptions_end+0xfc0f99a0>
 4101c28:	9021883a 	mov	r16,r18
 4101c2c:	b025883a 	mov	r18,r22
 4101c30:	882d883a 	mov	r22,r17
 4101c34:	dc402917 	ldw	r17,164(sp)
 4101c38:	d9002b17 	ldw	r4,172(sp)
 4101c3c:	1d87883a 	add	r3,r3,r22
 4101c40:	10800044 	addi	r2,r2,1
 4101c44:	41000015 	stw	r4,0(r8)
 4101c48:	45800115 	stw	r22,4(r8)
 4101c4c:	d8c02015 	stw	r3,128(sp)
 4101c50:	d8801f15 	stw	r2,124(sp)
 4101c54:	010001c4 	movi	r4,7
 4101c58:	2081ec16 	blt	r4,r2,410240c <___svfprintf_internal_r+0x10c8>
 4101c5c:	42000204 	addi	r8,r8,8
 4101c60:	9080400c 	andi	r2,r18,256
 4101c64:	1001181e 	bne	r2,zero,41020c8 <___svfprintf_internal_r+0xd84>
 4101c68:	d9402e17 	ldw	r5,184(sp)
 4101c6c:	d8801f17 	ldw	r2,124(sp)
 4101c70:	44000015 	stw	r16,0(r8)
 4101c74:	1947883a 	add	r3,r3,r5
 4101c78:	10800044 	addi	r2,r2,1
 4101c7c:	41400115 	stw	r5,4(r8)
 4101c80:	d8c02015 	stw	r3,128(sp)
 4101c84:	d8801f15 	stw	r2,124(sp)
 4101c88:	010001c4 	movi	r4,7
 4101c8c:	2081d116 	blt	r4,r2,41023d4 <___svfprintf_internal_r+0x1090>
 4101c90:	42000204 	addi	r8,r8,8
 4101c94:	9480010c 	andi	r18,r18,4
 4101c98:	90003226 	beq	r18,zero,4101d64 <___svfprintf_internal_r+0xa20>
 4101c9c:	d9403117 	ldw	r5,196(sp)
 4101ca0:	d8802a17 	ldw	r2,168(sp)
 4101ca4:	28a1c83a 	sub	r16,r5,r2
 4101ca8:	04002e0e 	bge	zero,r16,4101d64 <___svfprintf_internal_r+0xa20>
 4101cac:	04400404 	movi	r17,16
 4101cb0:	d8801f17 	ldw	r2,124(sp)
 4101cb4:	8c04b90e 	bge	r17,r16,4102f9c <___svfprintf_internal_r+0x1c58>
 4101cb8:	01410474 	movhi	r5,1041
 4101cbc:	29783f84 	addi	r5,r5,-7938
 4101cc0:	d9403515 	stw	r5,212(sp)
 4101cc4:	048001c4 	movi	r18,7
 4101cc8:	dd002c17 	ldw	r20,176(sp)
 4101ccc:	00000306 	br	4101cdc <___svfprintf_internal_r+0x998>
 4101cd0:	843ffc04 	addi	r16,r16,-16
 4101cd4:	42000204 	addi	r8,r8,8
 4101cd8:	8c00130e 	bge	r17,r16,4101d28 <___svfprintf_internal_r+0x9e4>
 4101cdc:	01010474 	movhi	r4,1041
 4101ce0:	18c00404 	addi	r3,r3,16
 4101ce4:	10800044 	addi	r2,r2,1
 4101ce8:	21383f84 	addi	r4,r4,-7938
 4101cec:	41000015 	stw	r4,0(r8)
 4101cf0:	44400115 	stw	r17,4(r8)
 4101cf4:	d8c02015 	stw	r3,128(sp)
 4101cf8:	d8801f15 	stw	r2,124(sp)
 4101cfc:	90bff40e 	bge	r18,r2,4101cd0 <__ram_exceptions_end+0xfc0f9a8c>
 4101d00:	d9801e04 	addi	r6,sp,120
 4101d04:	a00b883a 	mov	r5,r20
 4101d08:	9809883a 	mov	r4,r19
 4101d0c:	41069100 	call	4106910 <__ssprint_r>
 4101d10:	103e711e 	bne	r2,zero,41016d8 <__ram_exceptions_end+0xfc0f9494>
 4101d14:	843ffc04 	addi	r16,r16,-16
 4101d18:	d8c02017 	ldw	r3,128(sp)
 4101d1c:	d8801f17 	ldw	r2,124(sp)
 4101d20:	da000404 	addi	r8,sp,16
 4101d24:	8c3fed16 	blt	r17,r16,4101cdc <__ram_exceptions_end+0xfc0f9a98>
 4101d28:	d9403517 	ldw	r5,212(sp)
 4101d2c:	1c07883a 	add	r3,r3,r16
 4101d30:	10800044 	addi	r2,r2,1
 4101d34:	41400015 	stw	r5,0(r8)
 4101d38:	44000115 	stw	r16,4(r8)
 4101d3c:	d8c02015 	stw	r3,128(sp)
 4101d40:	d8801f15 	stw	r2,124(sp)
 4101d44:	010001c4 	movi	r4,7
 4101d48:	2080060e 	bge	r4,r2,4101d64 <___svfprintf_internal_r+0xa20>
 4101d4c:	d9402c17 	ldw	r5,176(sp)
 4101d50:	d9801e04 	addi	r6,sp,120
 4101d54:	9809883a 	mov	r4,r19
 4101d58:	41069100 	call	4106910 <__ssprint_r>
 4101d5c:	103e5e1e 	bne	r2,zero,41016d8 <__ram_exceptions_end+0xfc0f9494>
 4101d60:	d8c02017 	ldw	r3,128(sp)
 4101d64:	d8803117 	ldw	r2,196(sp)
 4101d68:	d9002a17 	ldw	r4,168(sp)
 4101d6c:	1100010e 	bge	r2,r4,4101d74 <___svfprintf_internal_r+0xa30>
 4101d70:	2005883a 	mov	r2,r4
 4101d74:	d9402f17 	ldw	r5,188(sp)
 4101d78:	288b883a 	add	r5,r5,r2
 4101d7c:	d9402f15 	stw	r5,188(sp)
 4101d80:	18019c1e 	bne	r3,zero,41023f4 <___svfprintf_internal_r+0x10b0>
 4101d84:	b8800007 	ldb	r2,0(r23)
 4101d88:	d8001f15 	stw	zero,124(sp)
 4101d8c:	da000404 	addi	r8,sp,16
 4101d90:	103d991e 	bne	r2,zero,41013f8 <__ram_exceptions_end+0xfc0f91b4>
 4101d94:	b821883a 	mov	r16,r23
 4101d98:	003daf06 	br	4101458 <__ram_exceptions_end+0xfc0f9214>
 4101d9c:	18c03fcc 	andi	r3,r3,255
 4101da0:	1805c71e 	bne	r3,zero,41034c0 <___svfprintf_internal_r+0x217c>
 4101da4:	94800414 	ori	r18,r18,16
 4101da8:	9080080c 	andi	r2,r18,32
 4101dac:	10020126 	beq	r2,zero,41025b4 <___svfprintf_internal_r+0x1270>
 4101db0:	d8802d17 	ldw	r2,180(sp)
 4101db4:	d9002917 	ldw	r4,164(sp)
 4101db8:	d8002785 	stb	zero,158(sp)
 4101dbc:	10c00204 	addi	r3,r2,8
 4101dc0:	15000017 	ldw	r20,0(r2)
 4101dc4:	15800117 	ldw	r22,4(r2)
 4101dc8:	20038e16 	blt	r4,zero,4102c04 <___svfprintf_internal_r+0x18c0>
 4101dcc:	013fdfc4 	movi	r4,-129
 4101dd0:	a584b03a 	or	r2,r20,r22
 4101dd4:	d8c02d15 	stw	r3,180(sp)
 4101dd8:	9124703a 	and	r18,r18,r4
 4101ddc:	0039883a 	mov	fp,zero
 4101de0:	103eb61e 	bne	r2,zero,41018bc <__ram_exceptions_end+0xfc0f9678>
 4101de4:	d8802917 	ldw	r2,164(sp)
 4101de8:	1002c81e 	bne	r2,zero,410290c <___svfprintf_internal_r+0x15c8>
 4101dec:	d8002915 	stw	zero,164(sp)
 4101df0:	d8002e15 	stw	zero,184(sp)
 4101df4:	dc001e04 	addi	r16,sp,120
 4101df8:	003efa06 	br	41019e4 <__ram_exceptions_end+0xfc0f97a0>
 4101dfc:	18c03fcc 	andi	r3,r3,255
 4101e00:	1805ad1e 	bne	r3,zero,41034b8 <___svfprintf_internal_r+0x2174>
 4101e04:	01410474 	movhi	r5,1041
 4101e08:	29782f04 	addi	r5,r5,-8004
 4101e0c:	d9403a15 	stw	r5,232(sp)
 4101e10:	9080080c 	andi	r2,r18,32
 4101e14:	10006126 	beq	r2,zero,4101f9c <___svfprintf_internal_r+0xc58>
 4101e18:	d8802d17 	ldw	r2,180(sp)
 4101e1c:	15000017 	ldw	r20,0(r2)
 4101e20:	15800117 	ldw	r22,4(r2)
 4101e24:	10800204 	addi	r2,r2,8
 4101e28:	d8802d15 	stw	r2,180(sp)
 4101e2c:	9080004c 	andi	r2,r18,1
 4101e30:	10018e26 	beq	r2,zero,410246c <___svfprintf_internal_r+0x1128>
 4101e34:	a584b03a 	or	r2,r20,r22
 4101e38:	10030926 	beq	r2,zero,4102a60 <___svfprintf_internal_r+0x171c>
 4101e3c:	d8c02917 	ldw	r3,164(sp)
 4101e40:	00800c04 	movi	r2,48
 4101e44:	d8802705 	stb	r2,156(sp)
 4101e48:	dc402745 	stb	r17,157(sp)
 4101e4c:	d8002785 	stb	zero,158(sp)
 4101e50:	90800094 	ori	r2,r18,2
 4101e54:	18048716 	blt	r3,zero,4103074 <___svfprintf_internal_r+0x1d30>
 4101e58:	00bfdfc4 	movi	r2,-129
 4101e5c:	90a4703a 	and	r18,r18,r2
 4101e60:	94800094 	ori	r18,r18,2
 4101e64:	0039883a 	mov	fp,zero
 4101e68:	d9003a17 	ldw	r4,232(sp)
 4101e6c:	dc001e04 	addi	r16,sp,120
 4101e70:	a08003cc 	andi	r2,r20,15
 4101e74:	b006973a 	slli	r3,r22,28
 4101e78:	2085883a 	add	r2,r4,r2
 4101e7c:	a028d13a 	srli	r20,r20,4
 4101e80:	10800003 	ldbu	r2,0(r2)
 4101e84:	b02cd13a 	srli	r22,r22,4
 4101e88:	843fffc4 	addi	r16,r16,-1
 4101e8c:	1d28b03a 	or	r20,r3,r20
 4101e90:	80800005 	stb	r2,0(r16)
 4101e94:	a584b03a 	or	r2,r20,r22
 4101e98:	103ff51e 	bne	r2,zero,4101e70 <__ram_exceptions_end+0xfc0f9c2c>
 4101e9c:	d8c02817 	ldw	r3,160(sp)
 4101ea0:	1c07c83a 	sub	r3,r3,r16
 4101ea4:	d8c02e15 	stw	r3,184(sp)
 4101ea8:	003ece06 	br	41019e4 <__ram_exceptions_end+0xfc0f97a0>
 4101eac:	d8c02d17 	ldw	r3,180(sp)
 4101eb0:	d9002d17 	ldw	r4,180(sp)
 4101eb4:	d8002785 	stb	zero,158(sp)
 4101eb8:	18800017 	ldw	r2,0(r3)
 4101ebc:	21000104 	addi	r4,r4,4
 4101ec0:	00c00044 	movi	r3,1
 4101ec4:	d8c02a15 	stw	r3,168(sp)
 4101ec8:	d8801405 	stb	r2,80(sp)
 4101ecc:	d9002d15 	stw	r4,180(sp)
 4101ed0:	d8c02e15 	stw	r3,184(sp)
 4101ed4:	d8002915 	stw	zero,164(sp)
 4101ed8:	d8003215 	stw	zero,200(sp)
 4101edc:	dc001404 	addi	r16,sp,80
 4101ee0:	0039883a 	mov	fp,zero
 4101ee4:	003ecc06 	br	4101a18 <__ram_exceptions_end+0xfc0f97d4>
 4101ee8:	18c03fcc 	andi	r3,r3,255
 4101eec:	183e9226 	beq	r3,zero,4101938 <__ram_exceptions_end+0xfc0f96f4>
 4101ef0:	d9c02785 	stb	r7,158(sp)
 4101ef4:	003e9006 	br	4101938 <__ram_exceptions_end+0xfc0f96f4>
 4101ef8:	00c00044 	movi	r3,1
 4101efc:	01c00ac4 	movi	r7,43
 4101f00:	bc400007 	ldb	r17,0(r23)
 4101f04:	003d6306 	br	4101494 <__ram_exceptions_end+0xfc0f9250>
 4101f08:	94800814 	ori	r18,r18,32
 4101f0c:	bc400007 	ldb	r17,0(r23)
 4101f10:	003d6006 	br	4101494 <__ram_exceptions_end+0xfc0f9250>
 4101f14:	d8c02d17 	ldw	r3,180(sp)
 4101f18:	d8002785 	stb	zero,158(sp)
 4101f1c:	1c000017 	ldw	r16,0(r3)
 4101f20:	1d000104 	addi	r20,r3,4
 4101f24:	80040f26 	beq	r16,zero,4102f64 <___svfprintf_internal_r+0x1c20>
 4101f28:	d9002917 	ldw	r4,164(sp)
 4101f2c:	2003dc16 	blt	r4,zero,4102ea0 <___svfprintf_internal_r+0x1b5c>
 4101f30:	200d883a 	mov	r6,r4
 4101f34:	000b883a 	mov	r5,zero
 4101f38:	8009883a 	mov	r4,r16
 4101f3c:	da003e15 	stw	r8,248(sp)
 4101f40:	410568c0 	call	410568c <memchr>
 4101f44:	da003e17 	ldw	r8,248(sp)
 4101f48:	10045826 	beq	r2,zero,41030ac <___svfprintf_internal_r+0x1d68>
 4101f4c:	1405c83a 	sub	r2,r2,r16
 4101f50:	d8802e15 	stw	r2,184(sp)
 4101f54:	1003d816 	blt	r2,zero,4102eb8 <___svfprintf_internal_r+0x1b74>
 4101f58:	df002783 	ldbu	fp,158(sp)
 4101f5c:	d8802a15 	stw	r2,168(sp)
 4101f60:	dd002d15 	stw	r20,180(sp)
 4101f64:	d8002915 	stw	zero,164(sp)
 4101f68:	d8003215 	stw	zero,200(sp)
 4101f6c:	003ea306 	br	41019fc <__ram_exceptions_end+0xfc0f97b8>
 4101f70:	18c03fcc 	andi	r3,r3,255
 4101f74:	183f8c26 	beq	r3,zero,4101da8 <__ram_exceptions_end+0xfc0f9b64>
 4101f78:	d9c02785 	stb	r7,158(sp)
 4101f7c:	003f8a06 	br	4101da8 <__ram_exceptions_end+0xfc0f9b64>
 4101f80:	18c03fcc 	andi	r3,r3,255
 4101f84:	1805631e 	bne	r3,zero,4103514 <___svfprintf_internal_r+0x21d0>
 4101f88:	01410474 	movhi	r5,1041
 4101f8c:	29783404 	addi	r5,r5,-7984
 4101f90:	d9403a15 	stw	r5,232(sp)
 4101f94:	9080080c 	andi	r2,r18,32
 4101f98:	103f9f1e 	bne	r2,zero,4101e18 <__ram_exceptions_end+0xfc0f9bd4>
 4101f9c:	9080040c 	andi	r2,r18,16
 4101fa0:	10029c26 	beq	r2,zero,4102a14 <___svfprintf_internal_r+0x16d0>
 4101fa4:	d8c02d17 	ldw	r3,180(sp)
 4101fa8:	002d883a 	mov	r22,zero
 4101fac:	1d000017 	ldw	r20,0(r3)
 4101fb0:	18c00104 	addi	r3,r3,4
 4101fb4:	d8c02d15 	stw	r3,180(sp)
 4101fb8:	003f9c06 	br	4101e2c <__ram_exceptions_end+0xfc0f9be8>
 4101fbc:	94800054 	ori	r18,r18,1
 4101fc0:	bc400007 	ldb	r17,0(r23)
 4101fc4:	003d3306 	br	4101494 <__ram_exceptions_end+0xfc0f9250>
 4101fc8:	38803fcc 	andi	r2,r7,255
 4101fcc:	1080201c 	xori	r2,r2,128
 4101fd0:	10bfe004 	addi	r2,r2,-128
 4101fd4:	1002971e 	bne	r2,zero,4102a34 <___svfprintf_internal_r+0x16f0>
 4101fd8:	00c00044 	movi	r3,1
 4101fdc:	01c00804 	movi	r7,32
 4101fe0:	bc400007 	ldb	r17,0(r23)
 4101fe4:	003d2b06 	br	4101494 <__ram_exceptions_end+0xfc0f9250>
 4101fe8:	18c03fcc 	andi	r3,r3,255
 4101fec:	183e2326 	beq	r3,zero,410187c <__ram_exceptions_end+0xfc0f9638>
 4101ff0:	d9c02785 	stb	r7,158(sp)
 4101ff4:	003e2106 	br	410187c <__ram_exceptions_end+0xfc0f9638>
 4101ff8:	bc400007 	ldb	r17,0(r23)
 4101ffc:	8a430426 	beq	r17,r9,4102c10 <___svfprintf_internal_r+0x18cc>
 4102000:	94800414 	ori	r18,r18,16
 4102004:	003d2306 	br	4101494 <__ram_exceptions_end+0xfc0f9250>
 4102008:	18c03fcc 	andi	r3,r3,255
 410200c:	18053f1e 	bne	r3,zero,410350c <___svfprintf_internal_r+0x21c8>
 4102010:	9080080c 	andi	r2,r18,32
 4102014:	10028926 	beq	r2,zero,4102a3c <___svfprintf_internal_r+0x16f8>
 4102018:	d9402d17 	ldw	r5,180(sp)
 410201c:	d9002f17 	ldw	r4,188(sp)
 4102020:	28800017 	ldw	r2,0(r5)
 4102024:	2007d7fa 	srai	r3,r4,31
 4102028:	29400104 	addi	r5,r5,4
 410202c:	d9402d15 	stw	r5,180(sp)
 4102030:	11000015 	stw	r4,0(r2)
 4102034:	10c00115 	stw	r3,4(r2)
 4102038:	003ced06 	br	41013f0 <__ram_exceptions_end+0xfc0f91ac>
 410203c:	94801014 	ori	r18,r18,64
 4102040:	bc400007 	ldb	r17,0(r23)
 4102044:	003d1306 	br	4101494 <__ram_exceptions_end+0xfc0f9250>
 4102048:	01010474 	movhi	r4,1041
 410204c:	21383404 	addi	r4,r4,-7984
 4102050:	0039883a 	mov	fp,zero
 4102054:	d9003a15 	stw	r4,232(sp)
 4102058:	04401e04 	movi	r17,120
 410205c:	003f8206 	br	4101e68 <__ram_exceptions_end+0xfc0f9c24>
 4102060:	18c03fcc 	andi	r3,r3,255
 4102064:	1805221e 	bne	r3,zero,41034f0 <___svfprintf_internal_r+0x21ac>
 4102068:	883d9526 	beq	r17,zero,41016c0 <__ram_exceptions_end+0xfc0f947c>
 410206c:	00c00044 	movi	r3,1
 4102070:	d8c02a15 	stw	r3,168(sp)
 4102074:	dc401405 	stb	r17,80(sp)
 4102078:	d8002785 	stb	zero,158(sp)
 410207c:	003f9406 	br	4101ed0 <__ram_exceptions_end+0xfc0f9c8c>
 4102080:	01010474 	movhi	r4,1041
 4102084:	21383404 	addi	r4,r4,-7984
 4102088:	d9003a15 	stw	r4,232(sp)
 410208c:	d8c02d15 	stw	r3,180(sp)
 4102090:	1025883a 	mov	r18,r2
 4102094:	04401e04 	movi	r17,120
 4102098:	a584b03a 	or	r2,r20,r22
 410209c:	1000fa1e 	bne	r2,zero,4102488 <___svfprintf_internal_r+0x1144>
 41020a0:	0039883a 	mov	fp,zero
 41020a4:	00800084 	movi	r2,2
 41020a8:	10803fcc 	andi	r2,r2,255
 41020ac:	00c00044 	movi	r3,1
 41020b0:	10c21626 	beq	r2,r3,410290c <___svfprintf_internal_r+0x15c8>
 41020b4:	00c00084 	movi	r3,2
 41020b8:	10fe301e 	bne	r2,r3,410197c <__ram_exceptions_end+0xfc0f9738>
 41020bc:	003d7606 	br	4101698 <__ram_exceptions_end+0xfc0f9454>
 41020c0:	d8c02017 	ldw	r3,128(sp)
 41020c4:	003e9506 	br	4101b1c <__ram_exceptions_end+0xfc0f98d8>
 41020c8:	00801944 	movi	r2,101
 41020cc:	14407c0e 	bge	r2,r17,41022c0 <___svfprintf_internal_r+0xf7c>
 41020d0:	d9003617 	ldw	r4,216(sp)
 41020d4:	d9403717 	ldw	r5,220(sp)
 41020d8:	000d883a 	mov	r6,zero
 41020dc:	000f883a 	mov	r7,zero
 41020e0:	d8c03d15 	stw	r3,244(sp)
 41020e4:	da003e15 	stw	r8,248(sp)
 41020e8:	410a6400 	call	410a640 <__eqdf2>
 41020ec:	d8c03d17 	ldw	r3,244(sp)
 41020f0:	da003e17 	ldw	r8,248(sp)
 41020f4:	1000f51e 	bne	r2,zero,41024cc <___svfprintf_internal_r+0x1188>
 41020f8:	d8801f17 	ldw	r2,124(sp)
 41020fc:	01010474 	movhi	r4,1041
 4102100:	21383b04 	addi	r4,r4,-7956
 4102104:	18c00044 	addi	r3,r3,1
 4102108:	10800044 	addi	r2,r2,1
 410210c:	41000015 	stw	r4,0(r8)
 4102110:	01000044 	movi	r4,1
 4102114:	41000115 	stw	r4,4(r8)
 4102118:	d8c02015 	stw	r3,128(sp)
 410211c:	d8801f15 	stw	r2,124(sp)
 4102120:	010001c4 	movi	r4,7
 4102124:	20826616 	blt	r4,r2,4102ac0 <___svfprintf_internal_r+0x177c>
 4102128:	42000204 	addi	r8,r8,8
 410212c:	d8802617 	ldw	r2,152(sp)
 4102130:	d9403317 	ldw	r5,204(sp)
 4102134:	11400216 	blt	r2,r5,4102140 <___svfprintf_internal_r+0xdfc>
 4102138:	9080004c 	andi	r2,r18,1
 410213c:	103ed526 	beq	r2,zero,4101c94 <__ram_exceptions_end+0xfc0f9a50>
 4102140:	d8803817 	ldw	r2,224(sp)
 4102144:	d9003417 	ldw	r4,208(sp)
 4102148:	d9403817 	ldw	r5,224(sp)
 410214c:	1887883a 	add	r3,r3,r2
 4102150:	d8801f17 	ldw	r2,124(sp)
 4102154:	41000015 	stw	r4,0(r8)
 4102158:	41400115 	stw	r5,4(r8)
 410215c:	10800044 	addi	r2,r2,1
 4102160:	d8c02015 	stw	r3,128(sp)
 4102164:	d8801f15 	stw	r2,124(sp)
 4102168:	010001c4 	movi	r4,7
 410216c:	2082af16 	blt	r4,r2,4102c2c <___svfprintf_internal_r+0x18e8>
 4102170:	42000204 	addi	r8,r8,8
 4102174:	d8803317 	ldw	r2,204(sp)
 4102178:	143fffc4 	addi	r16,r2,-1
 410217c:	043ec50e 	bge	zero,r16,4101c94 <__ram_exceptions_end+0xfc0f9a50>
 4102180:	04400404 	movi	r17,16
 4102184:	d8801f17 	ldw	r2,124(sp)
 4102188:	8c00860e 	bge	r17,r16,41023a4 <___svfprintf_internal_r+0x1060>
 410218c:	01410474 	movhi	r5,1041
 4102190:	29783b84 	addi	r5,r5,-7954
 4102194:	d9402b15 	stw	r5,172(sp)
 4102198:	058001c4 	movi	r22,7
 410219c:	dd002c17 	ldw	r20,176(sp)
 41021a0:	00000306 	br	41021b0 <___svfprintf_internal_r+0xe6c>
 41021a4:	42000204 	addi	r8,r8,8
 41021a8:	843ffc04 	addi	r16,r16,-16
 41021ac:	8c00800e 	bge	r17,r16,41023b0 <___svfprintf_internal_r+0x106c>
 41021b0:	18c00404 	addi	r3,r3,16
 41021b4:	10800044 	addi	r2,r2,1
 41021b8:	45400015 	stw	r21,0(r8)
 41021bc:	44400115 	stw	r17,4(r8)
 41021c0:	d8c02015 	stw	r3,128(sp)
 41021c4:	d8801f15 	stw	r2,124(sp)
 41021c8:	b0bff60e 	bge	r22,r2,41021a4 <__ram_exceptions_end+0xfc0f9f60>
 41021cc:	d9801e04 	addi	r6,sp,120
 41021d0:	a00b883a 	mov	r5,r20
 41021d4:	9809883a 	mov	r4,r19
 41021d8:	41069100 	call	4106910 <__ssprint_r>
 41021dc:	103d3e1e 	bne	r2,zero,41016d8 <__ram_exceptions_end+0xfc0f9494>
 41021e0:	d8c02017 	ldw	r3,128(sp)
 41021e4:	d8801f17 	ldw	r2,124(sp)
 41021e8:	da000404 	addi	r8,sp,16
 41021ec:	003fee06 	br	41021a8 <__ram_exceptions_end+0xfc0f9f64>
 41021f0:	d9403117 	ldw	r5,196(sp)
 41021f4:	d8802a17 	ldw	r2,168(sp)
 41021f8:	28adc83a 	sub	r22,r5,r2
 41021fc:	05be650e 	bge	zero,r22,4101b94 <__ram_exceptions_end+0xfc0f9950>
 4102200:	07000404 	movi	fp,16
 4102204:	d8801f17 	ldw	r2,124(sp)
 4102208:	e583a20e 	bge	fp,r22,4103094 <___svfprintf_internal_r+0x1d50>
 410220c:	01410474 	movhi	r5,1041
 4102210:	29783b84 	addi	r5,r5,-7954
 4102214:	dc403015 	stw	r17,192(sp)
 4102218:	d9402b15 	stw	r5,172(sp)
 410221c:	b023883a 	mov	r17,r22
 4102220:	050001c4 	movi	r20,7
 4102224:	902d883a 	mov	r22,r18
 4102228:	8025883a 	mov	r18,r16
 410222c:	dc002c17 	ldw	r16,176(sp)
 4102230:	00000306 	br	4102240 <___svfprintf_internal_r+0xefc>
 4102234:	8c7ffc04 	addi	r17,r17,-16
 4102238:	42000204 	addi	r8,r8,8
 410223c:	e440110e 	bge	fp,r17,4102284 <___svfprintf_internal_r+0xf40>
 4102240:	18c00404 	addi	r3,r3,16
 4102244:	10800044 	addi	r2,r2,1
 4102248:	45400015 	stw	r21,0(r8)
 410224c:	47000115 	stw	fp,4(r8)
 4102250:	d8c02015 	stw	r3,128(sp)
 4102254:	d8801f15 	stw	r2,124(sp)
 4102258:	a0bff60e 	bge	r20,r2,4102234 <__ram_exceptions_end+0xfc0f9ff0>
 410225c:	d9801e04 	addi	r6,sp,120
 4102260:	800b883a 	mov	r5,r16
 4102264:	9809883a 	mov	r4,r19
 4102268:	41069100 	call	4106910 <__ssprint_r>
 410226c:	103d1a1e 	bne	r2,zero,41016d8 <__ram_exceptions_end+0xfc0f9494>
 4102270:	8c7ffc04 	addi	r17,r17,-16
 4102274:	d8c02017 	ldw	r3,128(sp)
 4102278:	d8801f17 	ldw	r2,124(sp)
 410227c:	da000404 	addi	r8,sp,16
 4102280:	e47fef16 	blt	fp,r17,4102240 <__ram_exceptions_end+0xfc0f9ffc>
 4102284:	9021883a 	mov	r16,r18
 4102288:	b025883a 	mov	r18,r22
 410228c:	882d883a 	mov	r22,r17
 4102290:	dc403017 	ldw	r17,192(sp)
 4102294:	d9002b17 	ldw	r4,172(sp)
 4102298:	1d87883a 	add	r3,r3,r22
 410229c:	10800044 	addi	r2,r2,1
 41022a0:	41000015 	stw	r4,0(r8)
 41022a4:	45800115 	stw	r22,4(r8)
 41022a8:	d8c02015 	stw	r3,128(sp)
 41022ac:	d8801f15 	stw	r2,124(sp)
 41022b0:	010001c4 	movi	r4,7
 41022b4:	20819a16 	blt	r4,r2,4102920 <___svfprintf_internal_r+0x15dc>
 41022b8:	42000204 	addi	r8,r8,8
 41022bc:	003e3506 	br	4101b94 <__ram_exceptions_end+0xfc0f9950>
 41022c0:	d9403317 	ldw	r5,204(sp)
 41022c4:	00800044 	movi	r2,1
 41022c8:	18c00044 	addi	r3,r3,1
 41022cc:	1141710e 	bge	r2,r5,4102894 <___svfprintf_internal_r+0x1550>
 41022d0:	dc401f17 	ldw	r17,124(sp)
 41022d4:	00800044 	movi	r2,1
 41022d8:	40800115 	stw	r2,4(r8)
 41022dc:	8c400044 	addi	r17,r17,1
 41022e0:	44000015 	stw	r16,0(r8)
 41022e4:	d8c02015 	stw	r3,128(sp)
 41022e8:	dc401f15 	stw	r17,124(sp)
 41022ec:	008001c4 	movi	r2,7
 41022f0:	14417416 	blt	r2,r17,41028c4 <___svfprintf_internal_r+0x1580>
 41022f4:	42000204 	addi	r8,r8,8
 41022f8:	d8803817 	ldw	r2,224(sp)
 41022fc:	d9003417 	ldw	r4,208(sp)
 4102300:	8c400044 	addi	r17,r17,1
 4102304:	10c7883a 	add	r3,r2,r3
 4102308:	40800115 	stw	r2,4(r8)
 410230c:	41000015 	stw	r4,0(r8)
 4102310:	d8c02015 	stw	r3,128(sp)
 4102314:	dc401f15 	stw	r17,124(sp)
 4102318:	008001c4 	movi	r2,7
 410231c:	14417216 	blt	r2,r17,41028e8 <___svfprintf_internal_r+0x15a4>
 4102320:	45800204 	addi	r22,r8,8
 4102324:	d9003617 	ldw	r4,216(sp)
 4102328:	d9403717 	ldw	r5,220(sp)
 410232c:	000d883a 	mov	r6,zero
 4102330:	000f883a 	mov	r7,zero
 4102334:	d8c03d15 	stw	r3,244(sp)
 4102338:	410a6400 	call	410a640 <__eqdf2>
 410233c:	d8c03d17 	ldw	r3,244(sp)
 4102340:	1000b326 	beq	r2,zero,4102610 <___svfprintf_internal_r+0x12cc>
 4102344:	d9403317 	ldw	r5,204(sp)
 4102348:	84000044 	addi	r16,r16,1
 410234c:	8c400044 	addi	r17,r17,1
 4102350:	28bfffc4 	addi	r2,r5,-1
 4102354:	1887883a 	add	r3,r3,r2
 4102358:	b0800115 	stw	r2,4(r22)
 410235c:	b4000015 	stw	r16,0(r22)
 4102360:	d8c02015 	stw	r3,128(sp)
 4102364:	dc401f15 	stw	r17,124(sp)
 4102368:	008001c4 	movi	r2,7
 410236c:	1440d216 	blt	r2,r17,41026b8 <___svfprintf_internal_r+0x1374>
 4102370:	b5800204 	addi	r22,r22,8
 4102374:	d9003b17 	ldw	r4,236(sp)
 4102378:	df0022c4 	addi	fp,sp,139
 410237c:	8c400044 	addi	r17,r17,1
 4102380:	20c7883a 	add	r3,r4,r3
 4102384:	b7000015 	stw	fp,0(r22)
 4102388:	b1000115 	stw	r4,4(r22)
 410238c:	d8c02015 	stw	r3,128(sp)
 4102390:	dc401f15 	stw	r17,124(sp)
 4102394:	008001c4 	movi	r2,7
 4102398:	14400e16 	blt	r2,r17,41023d4 <___svfprintf_internal_r+0x1090>
 410239c:	b2000204 	addi	r8,r22,8
 41023a0:	003e3c06 	br	4101c94 <__ram_exceptions_end+0xfc0f9a50>
 41023a4:	01010474 	movhi	r4,1041
 41023a8:	21383b84 	addi	r4,r4,-7954
 41023ac:	d9002b15 	stw	r4,172(sp)
 41023b0:	d9002b17 	ldw	r4,172(sp)
 41023b4:	1c07883a 	add	r3,r3,r16
 41023b8:	44000115 	stw	r16,4(r8)
 41023bc:	41000015 	stw	r4,0(r8)
 41023c0:	10800044 	addi	r2,r2,1
 41023c4:	d8c02015 	stw	r3,128(sp)
 41023c8:	d8801f15 	stw	r2,124(sp)
 41023cc:	010001c4 	movi	r4,7
 41023d0:	20be2f0e 	bge	r4,r2,4101c90 <__ram_exceptions_end+0xfc0f9a4c>
 41023d4:	d9402c17 	ldw	r5,176(sp)
 41023d8:	d9801e04 	addi	r6,sp,120
 41023dc:	9809883a 	mov	r4,r19
 41023e0:	41069100 	call	4106910 <__ssprint_r>
 41023e4:	103cbc1e 	bne	r2,zero,41016d8 <__ram_exceptions_end+0xfc0f9494>
 41023e8:	d8c02017 	ldw	r3,128(sp)
 41023ec:	da000404 	addi	r8,sp,16
 41023f0:	003e2806 	br	4101c94 <__ram_exceptions_end+0xfc0f9a50>
 41023f4:	d9402c17 	ldw	r5,176(sp)
 41023f8:	d9801e04 	addi	r6,sp,120
 41023fc:	9809883a 	mov	r4,r19
 4102400:	41069100 	call	4106910 <__ssprint_r>
 4102404:	103e5f26 	beq	r2,zero,4101d84 <__ram_exceptions_end+0xfc0f9b40>
 4102408:	003cb306 	br	41016d8 <__ram_exceptions_end+0xfc0f9494>
 410240c:	d9402c17 	ldw	r5,176(sp)
 4102410:	d9801e04 	addi	r6,sp,120
 4102414:	9809883a 	mov	r4,r19
 4102418:	41069100 	call	4106910 <__ssprint_r>
 410241c:	103cae1e 	bne	r2,zero,41016d8 <__ram_exceptions_end+0xfc0f9494>
 4102420:	d8c02017 	ldw	r3,128(sp)
 4102424:	da000404 	addi	r8,sp,16
 4102428:	003e0d06 	br	4101c60 <__ram_exceptions_end+0xfc0f9a1c>
 410242c:	d9402c17 	ldw	r5,176(sp)
 4102430:	d9801e04 	addi	r6,sp,120
 4102434:	9809883a 	mov	r4,r19
 4102438:	41069100 	call	4106910 <__ssprint_r>
 410243c:	103ca61e 	bne	r2,zero,41016d8 <__ram_exceptions_end+0xfc0f9494>
 4102440:	d8c02017 	ldw	r3,128(sp)
 4102444:	da000404 	addi	r8,sp,16
 4102448:	003dc106 	br	4101b50 <__ram_exceptions_end+0xfc0f990c>
 410244c:	d9402c17 	ldw	r5,176(sp)
 4102450:	d9801e04 	addi	r6,sp,120
 4102454:	9809883a 	mov	r4,r19
 4102458:	41069100 	call	4106910 <__ssprint_r>
 410245c:	103c9e1e 	bne	r2,zero,41016d8 <__ram_exceptions_end+0xfc0f9494>
 4102460:	d8c02017 	ldw	r3,128(sp)
 4102464:	da000404 	addi	r8,sp,16
 4102468:	003dc706 	br	4101b88 <__ram_exceptions_end+0xfc0f9944>
 410246c:	d8802917 	ldw	r2,164(sp)
 4102470:	d8002785 	stb	zero,158(sp)
 4102474:	103f0816 	blt	r2,zero,4102098 <__ram_exceptions_end+0xfc0f9e54>
 4102478:	00ffdfc4 	movi	r3,-129
 410247c:	a584b03a 	or	r2,r20,r22
 4102480:	90e4703a 	and	r18,r18,r3
 4102484:	103c8126 	beq	r2,zero,410168c <__ram_exceptions_end+0xfc0f9448>
 4102488:	0039883a 	mov	fp,zero
 410248c:	003e7606 	br	4101e68 <__ram_exceptions_end+0xfc0f9c24>
 4102490:	9080040c 	andi	r2,r18,16
 4102494:	10013d26 	beq	r2,zero,410298c <___svfprintf_internal_r+0x1648>
 4102498:	d9002d17 	ldw	r4,180(sp)
 410249c:	d9402917 	ldw	r5,164(sp)
 41024a0:	d8002785 	stb	zero,158(sp)
 41024a4:	20800104 	addi	r2,r4,4
 41024a8:	25000017 	ldw	r20,0(r4)
 41024ac:	002d883a 	mov	r22,zero
 41024b0:	28013f16 	blt	r5,zero,41029b0 <___svfprintf_internal_r+0x166c>
 41024b4:	00ffdfc4 	movi	r3,-129
 41024b8:	d8802d15 	stw	r2,180(sp)
 41024bc:	90e4703a 	and	r18,r18,r3
 41024c0:	a03d2b26 	beq	r20,zero,4101970 <__ram_exceptions_end+0xfc0f972c>
 41024c4:	0039883a 	mov	fp,zero
 41024c8:	003d2e06 	br	4101984 <__ram_exceptions_end+0xfc0f9740>
 41024cc:	dc402617 	ldw	r17,152(sp)
 41024d0:	0441830e 	bge	zero,r17,4102ae0 <___svfprintf_internal_r+0x179c>
 41024d4:	dc403217 	ldw	r17,200(sp)
 41024d8:	d8803317 	ldw	r2,204(sp)
 41024dc:	1440010e 	bge	r2,r17,41024e4 <___svfprintf_internal_r+0x11a0>
 41024e0:	1023883a 	mov	r17,r2
 41024e4:	04400a0e 	bge	zero,r17,4102510 <___svfprintf_internal_r+0x11cc>
 41024e8:	d8801f17 	ldw	r2,124(sp)
 41024ec:	1c47883a 	add	r3,r3,r17
 41024f0:	44000015 	stw	r16,0(r8)
 41024f4:	10800044 	addi	r2,r2,1
 41024f8:	44400115 	stw	r17,4(r8)
 41024fc:	d8c02015 	stw	r3,128(sp)
 4102500:	d8801f15 	stw	r2,124(sp)
 4102504:	010001c4 	movi	r4,7
 4102508:	20827516 	blt	r4,r2,4102ee0 <___svfprintf_internal_r+0x1b9c>
 410250c:	42000204 	addi	r8,r8,8
 4102510:	88027b16 	blt	r17,zero,4102f00 <___svfprintf_internal_r+0x1bbc>
 4102514:	d9003217 	ldw	r4,200(sp)
 4102518:	2463c83a 	sub	r17,r4,r17
 410251c:	0440990e 	bge	zero,r17,4102784 <___svfprintf_internal_r+0x1440>
 4102520:	05800404 	movi	r22,16
 4102524:	d8801f17 	ldw	r2,124(sp)
 4102528:	b441530e 	bge	r22,r17,4102a78 <___svfprintf_internal_r+0x1734>
 410252c:	01010474 	movhi	r4,1041
 4102530:	21383b84 	addi	r4,r4,-7954
 4102534:	d9002b15 	stw	r4,172(sp)
 4102538:	070001c4 	movi	fp,7
 410253c:	dd002c17 	ldw	r20,176(sp)
 4102540:	00000306 	br	4102550 <___svfprintf_internal_r+0x120c>
 4102544:	42000204 	addi	r8,r8,8
 4102548:	8c7ffc04 	addi	r17,r17,-16
 410254c:	b4414d0e 	bge	r22,r17,4102a84 <___svfprintf_internal_r+0x1740>
 4102550:	18c00404 	addi	r3,r3,16
 4102554:	10800044 	addi	r2,r2,1
 4102558:	45400015 	stw	r21,0(r8)
 410255c:	45800115 	stw	r22,4(r8)
 4102560:	d8c02015 	stw	r3,128(sp)
 4102564:	d8801f15 	stw	r2,124(sp)
 4102568:	e0bff60e 	bge	fp,r2,4102544 <__ram_exceptions_end+0xfc0fa300>
 410256c:	d9801e04 	addi	r6,sp,120
 4102570:	a00b883a 	mov	r5,r20
 4102574:	9809883a 	mov	r4,r19
 4102578:	41069100 	call	4106910 <__ssprint_r>
 410257c:	103c561e 	bne	r2,zero,41016d8 <__ram_exceptions_end+0xfc0f9494>
 4102580:	d8c02017 	ldw	r3,128(sp)
 4102584:	d8801f17 	ldw	r2,124(sp)
 4102588:	da000404 	addi	r8,sp,16
 410258c:	003fee06 	br	4102548 <__ram_exceptions_end+0xfc0fa304>
 4102590:	d9402c17 	ldw	r5,176(sp)
 4102594:	d9801e04 	addi	r6,sp,120
 4102598:	9809883a 	mov	r4,r19
 410259c:	41069100 	call	4106910 <__ssprint_r>
 41025a0:	103c4d1e 	bne	r2,zero,41016d8 <__ram_exceptions_end+0xfc0f9494>
 41025a4:	d8c02017 	ldw	r3,128(sp)
 41025a8:	df002787 	ldb	fp,158(sp)
 41025ac:	da000404 	addi	r8,sp,16
 41025b0:	003d5a06 	br	4101b1c <__ram_exceptions_end+0xfc0f98d8>
 41025b4:	9080040c 	andi	r2,r18,16
 41025b8:	10005c26 	beq	r2,zero,410272c <___svfprintf_internal_r+0x13e8>
 41025bc:	d9402d17 	ldw	r5,180(sp)
 41025c0:	d8c02917 	ldw	r3,164(sp)
 41025c4:	d8002785 	stb	zero,158(sp)
 41025c8:	28800104 	addi	r2,r5,4
 41025cc:	2d000017 	ldw	r20,0(r5)
 41025d0:	002d883a 	mov	r22,zero
 41025d4:	18005e16 	blt	r3,zero,4102750 <___svfprintf_internal_r+0x140c>
 41025d8:	00ffdfc4 	movi	r3,-129
 41025dc:	d8802d15 	stw	r2,180(sp)
 41025e0:	90e4703a 	and	r18,r18,r3
 41025e4:	0039883a 	mov	fp,zero
 41025e8:	a03dfe26 	beq	r20,zero,4101de4 <__ram_exceptions_end+0xfc0f9ba0>
 41025ec:	00800244 	movi	r2,9
 41025f0:	153cb336 	bltu	r2,r20,41018c0 <__ram_exceptions_end+0xfc0f967c>
 41025f4:	a5000c04 	addi	r20,r20,48
 41025f8:	dc001dc4 	addi	r16,sp,119
 41025fc:	dd001dc5 	stb	r20,119(sp)
 4102600:	d8c02817 	ldw	r3,160(sp)
 4102604:	1c07c83a 	sub	r3,r3,r16
 4102608:	d8c02e15 	stw	r3,184(sp)
 410260c:	003cf506 	br	41019e4 <__ram_exceptions_end+0xfc0f97a0>
 4102610:	d8803317 	ldw	r2,204(sp)
 4102614:	143fffc4 	addi	r16,r2,-1
 4102618:	043f560e 	bge	zero,r16,4102374 <__ram_exceptions_end+0xfc0fa130>
 410261c:	07000404 	movi	fp,16
 4102620:	e403530e 	bge	fp,r16,4103370 <___svfprintf_internal_r+0x202c>
 4102624:	01410474 	movhi	r5,1041
 4102628:	29783b84 	addi	r5,r5,-7954
 410262c:	d9402b15 	stw	r5,172(sp)
 4102630:	01c001c4 	movi	r7,7
 4102634:	dd002c17 	ldw	r20,176(sp)
 4102638:	00000306 	br	4102648 <___svfprintf_internal_r+0x1304>
 410263c:	843ffc04 	addi	r16,r16,-16
 4102640:	b5800204 	addi	r22,r22,8
 4102644:	e400130e 	bge	fp,r16,4102694 <___svfprintf_internal_r+0x1350>
 4102648:	18c00404 	addi	r3,r3,16
 410264c:	8c400044 	addi	r17,r17,1
 4102650:	b5400015 	stw	r21,0(r22)
 4102654:	b7000115 	stw	fp,4(r22)
 4102658:	d8c02015 	stw	r3,128(sp)
 410265c:	dc401f15 	stw	r17,124(sp)
 4102660:	3c7ff60e 	bge	r7,r17,410263c <__ram_exceptions_end+0xfc0fa3f8>
 4102664:	d9801e04 	addi	r6,sp,120
 4102668:	a00b883a 	mov	r5,r20
 410266c:	9809883a 	mov	r4,r19
 4102670:	d9c03d15 	stw	r7,244(sp)
 4102674:	41069100 	call	4106910 <__ssprint_r>
 4102678:	d9c03d17 	ldw	r7,244(sp)
 410267c:	103c161e 	bne	r2,zero,41016d8 <__ram_exceptions_end+0xfc0f9494>
 4102680:	843ffc04 	addi	r16,r16,-16
 4102684:	d8c02017 	ldw	r3,128(sp)
 4102688:	dc401f17 	ldw	r17,124(sp)
 410268c:	dd800404 	addi	r22,sp,16
 4102690:	e43fed16 	blt	fp,r16,4102648 <__ram_exceptions_end+0xfc0fa404>
 4102694:	d8802b17 	ldw	r2,172(sp)
 4102698:	1c07883a 	add	r3,r3,r16
 410269c:	8c400044 	addi	r17,r17,1
 41026a0:	b0800015 	stw	r2,0(r22)
 41026a4:	b4000115 	stw	r16,4(r22)
 41026a8:	d8c02015 	stw	r3,128(sp)
 41026ac:	dc401f15 	stw	r17,124(sp)
 41026b0:	008001c4 	movi	r2,7
 41026b4:	147f2e0e 	bge	r2,r17,4102370 <__ram_exceptions_end+0xfc0fa12c>
 41026b8:	d9402c17 	ldw	r5,176(sp)
 41026bc:	d9801e04 	addi	r6,sp,120
 41026c0:	9809883a 	mov	r4,r19
 41026c4:	41069100 	call	4106910 <__ssprint_r>
 41026c8:	103c031e 	bne	r2,zero,41016d8 <__ram_exceptions_end+0xfc0f9494>
 41026cc:	d8c02017 	ldw	r3,128(sp)
 41026d0:	dc401f17 	ldw	r17,124(sp)
 41026d4:	dd800404 	addi	r22,sp,16
 41026d8:	003f2606 	br	4102374 <__ram_exceptions_end+0xfc0fa130>
 41026dc:	9080040c 	andi	r2,r18,16
 41026e0:	1000c326 	beq	r2,zero,41029f0 <___svfprintf_internal_r+0x16ac>
 41026e4:	d8802d17 	ldw	r2,180(sp)
 41026e8:	15000017 	ldw	r20,0(r2)
 41026ec:	10800104 	addi	r2,r2,4
 41026f0:	d8802d15 	stw	r2,180(sp)
 41026f4:	a02dd7fa 	srai	r22,r20,31
 41026f8:	b005883a 	mov	r2,r22
 41026fc:	103c680e 	bge	r2,zero,41018a0 <__ram_exceptions_end+0xfc0f965c>
 4102700:	0529c83a 	sub	r20,zero,r20
 4102704:	a004c03a 	cmpne	r2,r20,zero
 4102708:	05adc83a 	sub	r22,zero,r22
 410270c:	b0adc83a 	sub	r22,r22,r2
 4102710:	d8802917 	ldw	r2,164(sp)
 4102714:	07000b44 	movi	fp,45
 4102718:	df002785 	stb	fp,158(sp)
 410271c:	10022e16 	blt	r2,zero,4102fd8 <___svfprintf_internal_r+0x1c94>
 4102720:	00bfdfc4 	movi	r2,-129
 4102724:	90a4703a 	and	r18,r18,r2
 4102728:	003c6406 	br	41018bc <__ram_exceptions_end+0xfc0f9678>
 410272c:	9080100c 	andi	r2,r18,64
 4102730:	d8002785 	stb	zero,158(sp)
 4102734:	10012526 	beq	r2,zero,4102bcc <___svfprintf_internal_r+0x1888>
 4102738:	d9002d17 	ldw	r4,180(sp)
 410273c:	d9402917 	ldw	r5,164(sp)
 4102740:	002d883a 	mov	r22,zero
 4102744:	20800104 	addi	r2,r4,4
 4102748:	2500000b 	ldhu	r20,0(r4)
 410274c:	283fa20e 	bge	r5,zero,41025d8 <__ram_exceptions_end+0xfc0fa394>
 4102750:	d8802d15 	stw	r2,180(sp)
 4102754:	0039883a 	mov	fp,zero
 4102758:	a584b03a 	or	r2,r20,r22
 410275c:	103c571e 	bne	r2,zero,41018bc <__ram_exceptions_end+0xfc0f9678>
 4102760:	00800044 	movi	r2,1
 4102764:	003e5006 	br	41020a8 <__ram_exceptions_end+0xfc0f9e64>
 4102768:	d9402c17 	ldw	r5,176(sp)
 410276c:	d9801e04 	addi	r6,sp,120
 4102770:	9809883a 	mov	r4,r19
 4102774:	41069100 	call	4106910 <__ssprint_r>
 4102778:	103bd71e 	bne	r2,zero,41016d8 <__ram_exceptions_end+0xfc0f9494>
 410277c:	d8c02017 	ldw	r3,128(sp)
 4102780:	da000404 	addi	r8,sp,16
 4102784:	d9003217 	ldw	r4,200(sp)
 4102788:	d8802617 	ldw	r2,152(sp)
 410278c:	d9403317 	ldw	r5,204(sp)
 4102790:	8123883a 	add	r17,r16,r4
 4102794:	11400216 	blt	r2,r5,41027a0 <___svfprintf_internal_r+0x145c>
 4102798:	9100004c 	andi	r4,r18,1
 410279c:	20000d26 	beq	r4,zero,41027d4 <___svfprintf_internal_r+0x1490>
 41027a0:	d9003817 	ldw	r4,224(sp)
 41027a4:	d9403417 	ldw	r5,208(sp)
 41027a8:	1907883a 	add	r3,r3,r4
 41027ac:	d9001f17 	ldw	r4,124(sp)
 41027b0:	41400015 	stw	r5,0(r8)
 41027b4:	d9403817 	ldw	r5,224(sp)
 41027b8:	21000044 	addi	r4,r4,1
 41027bc:	d8c02015 	stw	r3,128(sp)
 41027c0:	41400115 	stw	r5,4(r8)
 41027c4:	d9001f15 	stw	r4,124(sp)
 41027c8:	014001c4 	movi	r5,7
 41027cc:	2901dc16 	blt	r5,r4,4102f40 <___svfprintf_internal_r+0x1bfc>
 41027d0:	42000204 	addi	r8,r8,8
 41027d4:	d9003317 	ldw	r4,204(sp)
 41027d8:	8121883a 	add	r16,r16,r4
 41027dc:	2085c83a 	sub	r2,r4,r2
 41027e0:	8461c83a 	sub	r16,r16,r17
 41027e4:	1400010e 	bge	r2,r16,41027ec <___svfprintf_internal_r+0x14a8>
 41027e8:	1021883a 	mov	r16,r2
 41027ec:	04000a0e 	bge	zero,r16,4102818 <___svfprintf_internal_r+0x14d4>
 41027f0:	d9001f17 	ldw	r4,124(sp)
 41027f4:	1c07883a 	add	r3,r3,r16
 41027f8:	44400015 	stw	r17,0(r8)
 41027fc:	21000044 	addi	r4,r4,1
 4102800:	44000115 	stw	r16,4(r8)
 4102804:	d8c02015 	stw	r3,128(sp)
 4102808:	d9001f15 	stw	r4,124(sp)
 410280c:	014001c4 	movi	r5,7
 4102810:	2901e616 	blt	r5,r4,4102fac <___svfprintf_internal_r+0x1c68>
 4102814:	42000204 	addi	r8,r8,8
 4102818:	8001f616 	blt	r16,zero,4102ff4 <___svfprintf_internal_r+0x1cb0>
 410281c:	1421c83a 	sub	r16,r2,r16
 4102820:	043d1c0e 	bge	zero,r16,4101c94 <__ram_exceptions_end+0xfc0f9a50>
 4102824:	04400404 	movi	r17,16
 4102828:	d8801f17 	ldw	r2,124(sp)
 410282c:	8c3edd0e 	bge	r17,r16,41023a4 <__ram_exceptions_end+0xfc0fa160>
 4102830:	01410474 	movhi	r5,1041
 4102834:	29783b84 	addi	r5,r5,-7954
 4102838:	d9402b15 	stw	r5,172(sp)
 410283c:	058001c4 	movi	r22,7
 4102840:	dd002c17 	ldw	r20,176(sp)
 4102844:	00000306 	br	4102854 <___svfprintf_internal_r+0x1510>
 4102848:	42000204 	addi	r8,r8,8
 410284c:	843ffc04 	addi	r16,r16,-16
 4102850:	8c3ed70e 	bge	r17,r16,41023b0 <__ram_exceptions_end+0xfc0fa16c>
 4102854:	18c00404 	addi	r3,r3,16
 4102858:	10800044 	addi	r2,r2,1
 410285c:	45400015 	stw	r21,0(r8)
 4102860:	44400115 	stw	r17,4(r8)
 4102864:	d8c02015 	stw	r3,128(sp)
 4102868:	d8801f15 	stw	r2,124(sp)
 410286c:	b0bff60e 	bge	r22,r2,4102848 <__ram_exceptions_end+0xfc0fa604>
 4102870:	d9801e04 	addi	r6,sp,120
 4102874:	a00b883a 	mov	r5,r20
 4102878:	9809883a 	mov	r4,r19
 410287c:	41069100 	call	4106910 <__ssprint_r>
 4102880:	103b951e 	bne	r2,zero,41016d8 <__ram_exceptions_end+0xfc0f9494>
 4102884:	d8c02017 	ldw	r3,128(sp)
 4102888:	d8801f17 	ldw	r2,124(sp)
 410288c:	da000404 	addi	r8,sp,16
 4102890:	003fee06 	br	410284c <__ram_exceptions_end+0xfc0fa608>
 4102894:	9088703a 	and	r4,r18,r2
 4102898:	203e8d1e 	bne	r4,zero,41022d0 <__ram_exceptions_end+0xfc0fa08c>
 410289c:	dc401f17 	ldw	r17,124(sp)
 41028a0:	40800115 	stw	r2,4(r8)
 41028a4:	44000015 	stw	r16,0(r8)
 41028a8:	8c400044 	addi	r17,r17,1
 41028ac:	d8c02015 	stw	r3,128(sp)
 41028b0:	dc401f15 	stw	r17,124(sp)
 41028b4:	008001c4 	movi	r2,7
 41028b8:	147f7f16 	blt	r2,r17,41026b8 <__ram_exceptions_end+0xfc0fa474>
 41028bc:	45800204 	addi	r22,r8,8
 41028c0:	003eac06 	br	4102374 <__ram_exceptions_end+0xfc0fa130>
 41028c4:	d9402c17 	ldw	r5,176(sp)
 41028c8:	d9801e04 	addi	r6,sp,120
 41028cc:	9809883a 	mov	r4,r19
 41028d0:	41069100 	call	4106910 <__ssprint_r>
 41028d4:	103b801e 	bne	r2,zero,41016d8 <__ram_exceptions_end+0xfc0f9494>
 41028d8:	d8c02017 	ldw	r3,128(sp)
 41028dc:	dc401f17 	ldw	r17,124(sp)
 41028e0:	da000404 	addi	r8,sp,16
 41028e4:	003e8406 	br	41022f8 <__ram_exceptions_end+0xfc0fa0b4>
 41028e8:	d9402c17 	ldw	r5,176(sp)
 41028ec:	d9801e04 	addi	r6,sp,120
 41028f0:	9809883a 	mov	r4,r19
 41028f4:	41069100 	call	4106910 <__ssprint_r>
 41028f8:	103b771e 	bne	r2,zero,41016d8 <__ram_exceptions_end+0xfc0f9494>
 41028fc:	d8c02017 	ldw	r3,128(sp)
 4102900:	dc401f17 	ldw	r17,124(sp)
 4102904:	dd800404 	addi	r22,sp,16
 4102908:	003e8606 	br	4102324 <__ram_exceptions_end+0xfc0fa0e0>
 410290c:	0029883a 	mov	r20,zero
 4102910:	a5000c04 	addi	r20,r20,48
 4102914:	dc001dc4 	addi	r16,sp,119
 4102918:	dd001dc5 	stb	r20,119(sp)
 410291c:	003f3806 	br	4102600 <__ram_exceptions_end+0xfc0fa3bc>
 4102920:	d9402c17 	ldw	r5,176(sp)
 4102924:	d9801e04 	addi	r6,sp,120
 4102928:	9809883a 	mov	r4,r19
 410292c:	41069100 	call	4106910 <__ssprint_r>
 4102930:	103b691e 	bne	r2,zero,41016d8 <__ram_exceptions_end+0xfc0f9494>
 4102934:	d8c02017 	ldw	r3,128(sp)
 4102938:	da000404 	addi	r8,sp,16
 410293c:	003c9506 	br	4101b94 <__ram_exceptions_end+0xfc0f9950>
 4102940:	d9003617 	ldw	r4,216(sp)
 4102944:	d9403717 	ldw	r5,220(sp)
 4102948:	da003e15 	stw	r8,248(sp)
 410294c:	410676c0 	call	410676c <__fpclassifyd>
 4102950:	da003e17 	ldw	r8,248(sp)
 4102954:	1000bd1e 	bne	r2,zero,4102c4c <___svfprintf_internal_r+0x1908>
 4102958:	008011c4 	movi	r2,71
 410295c:	14411e0e 	bge	r2,r17,4102dd8 <___svfprintf_internal_r+0x1a94>
 4102960:	04010474 	movhi	r16,1041
 4102964:	84382e04 	addi	r16,r16,-8008
 4102968:	00c000c4 	movi	r3,3
 410296c:	00bfdfc4 	movi	r2,-129
 4102970:	d8c02a15 	stw	r3,168(sp)
 4102974:	90a4703a 	and	r18,r18,r2
 4102978:	df002783 	ldbu	fp,158(sp)
 410297c:	d8c02e15 	stw	r3,184(sp)
 4102980:	d8002915 	stw	zero,164(sp)
 4102984:	d8003215 	stw	zero,200(sp)
 4102988:	003c1c06 	br	41019fc <__ram_exceptions_end+0xfc0f97b8>
 410298c:	9080100c 	andi	r2,r18,64
 4102990:	d8002785 	stb	zero,158(sp)
 4102994:	10009426 	beq	r2,zero,4102be8 <___svfprintf_internal_r+0x18a4>
 4102998:	d8c02d17 	ldw	r3,180(sp)
 410299c:	d9002917 	ldw	r4,164(sp)
 41029a0:	002d883a 	mov	r22,zero
 41029a4:	18800104 	addi	r2,r3,4
 41029a8:	1d00000b 	ldhu	r20,0(r3)
 41029ac:	203ec10e 	bge	r4,zero,41024b4 <__ram_exceptions_end+0xfc0fa270>
 41029b0:	a586b03a 	or	r3,r20,r22
 41029b4:	d8802d15 	stw	r2,180(sp)
 41029b8:	183ec21e 	bne	r3,zero,41024c4 <__ram_exceptions_end+0xfc0fa280>
 41029bc:	0039883a 	mov	fp,zero
 41029c0:	0005883a 	mov	r2,zero
 41029c4:	003db806 	br	41020a8 <__ram_exceptions_end+0xfc0f9e64>
 41029c8:	d8802d17 	ldw	r2,180(sp)
 41029cc:	d8c02d17 	ldw	r3,180(sp)
 41029d0:	d9002d17 	ldw	r4,180(sp)
 41029d4:	10800017 	ldw	r2,0(r2)
 41029d8:	18c00117 	ldw	r3,4(r3)
 41029dc:	21000204 	addi	r4,r4,8
 41029e0:	d8803615 	stw	r2,216(sp)
 41029e4:	d8c03715 	stw	r3,220(sp)
 41029e8:	d9002d15 	stw	r4,180(sp)
 41029ec:	003b8206 	br	41017f8 <__ram_exceptions_end+0xfc0f95b4>
 41029f0:	9080100c 	andi	r2,r18,64
 41029f4:	10010726 	beq	r2,zero,4102e14 <___svfprintf_internal_r+0x1ad0>
 41029f8:	d8c02d17 	ldw	r3,180(sp)
 41029fc:	1d00000f 	ldh	r20,0(r3)
 4102a00:	18c00104 	addi	r3,r3,4
 4102a04:	d8c02d15 	stw	r3,180(sp)
 4102a08:	a02dd7fa 	srai	r22,r20,31
 4102a0c:	b005883a 	mov	r2,r22
 4102a10:	003ba206 	br	410189c <__ram_exceptions_end+0xfc0f9658>
 4102a14:	9080100c 	andi	r2,r18,64
 4102a18:	10010526 	beq	r2,zero,4102e30 <___svfprintf_internal_r+0x1aec>
 4102a1c:	d9002d17 	ldw	r4,180(sp)
 4102a20:	002d883a 	mov	r22,zero
 4102a24:	2500000b 	ldhu	r20,0(r4)
 4102a28:	21000104 	addi	r4,r4,4
 4102a2c:	d9002d15 	stw	r4,180(sp)
 4102a30:	003cfe06 	br	4101e2c <__ram_exceptions_end+0xfc0f9be8>
 4102a34:	bc400007 	ldb	r17,0(r23)
 4102a38:	003a9606 	br	4101494 <__ram_exceptions_end+0xfc0f9250>
 4102a3c:	9080040c 	andi	r2,r18,16
 4102a40:	10010126 	beq	r2,zero,4102e48 <___svfprintf_internal_r+0x1b04>
 4102a44:	d9402d17 	ldw	r5,180(sp)
 4102a48:	d8c02f17 	ldw	r3,188(sp)
 4102a4c:	28800017 	ldw	r2,0(r5)
 4102a50:	29400104 	addi	r5,r5,4
 4102a54:	d9402d15 	stw	r5,180(sp)
 4102a58:	10c00015 	stw	r3,0(r2)
 4102a5c:	003a6406 	br	41013f0 <__ram_exceptions_end+0xfc0f91ac>
 4102a60:	d9002917 	ldw	r4,164(sp)
 4102a64:	d8002785 	stb	zero,158(sp)
 4102a68:	203d8d16 	blt	r4,zero,41020a0 <__ram_exceptions_end+0xfc0f9e5c>
 4102a6c:	00bfdfc4 	movi	r2,-129
 4102a70:	90a4703a 	and	r18,r18,r2
 4102a74:	003b0506 	br	410168c <__ram_exceptions_end+0xfc0f9448>
 4102a78:	01410474 	movhi	r5,1041
 4102a7c:	29783b84 	addi	r5,r5,-7954
 4102a80:	d9402b15 	stw	r5,172(sp)
 4102a84:	d9402b17 	ldw	r5,172(sp)
 4102a88:	1c47883a 	add	r3,r3,r17
 4102a8c:	10800044 	addi	r2,r2,1
 4102a90:	41400015 	stw	r5,0(r8)
 4102a94:	44400115 	stw	r17,4(r8)
 4102a98:	d8c02015 	stw	r3,128(sp)
 4102a9c:	d8801f15 	stw	r2,124(sp)
 4102aa0:	010001c4 	movi	r4,7
 4102aa4:	20bf3016 	blt	r4,r2,4102768 <__ram_exceptions_end+0xfc0fa524>
 4102aa8:	42000204 	addi	r8,r8,8
 4102aac:	003f3506 	br	4102784 <__ram_exceptions_end+0xfc0fa540>
 4102ab0:	01010474 	movhi	r4,1041
 4102ab4:	21383b84 	addi	r4,r4,-7954
 4102ab8:	d9002b15 	stw	r4,172(sp)
 4102abc:	003c5e06 	br	4101c38 <__ram_exceptions_end+0xfc0f99f4>
 4102ac0:	d9402c17 	ldw	r5,176(sp)
 4102ac4:	d9801e04 	addi	r6,sp,120
 4102ac8:	9809883a 	mov	r4,r19
 4102acc:	41069100 	call	4106910 <__ssprint_r>
 4102ad0:	103b011e 	bne	r2,zero,41016d8 <__ram_exceptions_end+0xfc0f9494>
 4102ad4:	d8c02017 	ldw	r3,128(sp)
 4102ad8:	da000404 	addi	r8,sp,16
 4102adc:	003d9306 	br	410212c <__ram_exceptions_end+0xfc0f9ee8>
 4102ae0:	d8801f17 	ldw	r2,124(sp)
 4102ae4:	01410474 	movhi	r5,1041
 4102ae8:	01000044 	movi	r4,1
 4102aec:	18c00044 	addi	r3,r3,1
 4102af0:	10800044 	addi	r2,r2,1
 4102af4:	29783b04 	addi	r5,r5,-7956
 4102af8:	41000115 	stw	r4,4(r8)
 4102afc:	41400015 	stw	r5,0(r8)
 4102b00:	d8c02015 	stw	r3,128(sp)
 4102b04:	d8801f15 	stw	r2,124(sp)
 4102b08:	010001c4 	movi	r4,7
 4102b0c:	2080b516 	blt	r4,r2,4102de4 <___svfprintf_internal_r+0x1aa0>
 4102b10:	42000204 	addi	r8,r8,8
 4102b14:	8800041e 	bne	r17,zero,4102b28 <___svfprintf_internal_r+0x17e4>
 4102b18:	d8803317 	ldw	r2,204(sp)
 4102b1c:	1000021e 	bne	r2,zero,4102b28 <___svfprintf_internal_r+0x17e4>
 4102b20:	9080004c 	andi	r2,r18,1
 4102b24:	103c5b26 	beq	r2,zero,4101c94 <__ram_exceptions_end+0xfc0f9a50>
 4102b28:	d9003817 	ldw	r4,224(sp)
 4102b2c:	d8801f17 	ldw	r2,124(sp)
 4102b30:	d9403417 	ldw	r5,208(sp)
 4102b34:	20c7883a 	add	r3,r4,r3
 4102b38:	10800044 	addi	r2,r2,1
 4102b3c:	41000115 	stw	r4,4(r8)
 4102b40:	41400015 	stw	r5,0(r8)
 4102b44:	d8c02015 	stw	r3,128(sp)
 4102b48:	d8801f15 	stw	r2,124(sp)
 4102b4c:	010001c4 	movi	r4,7
 4102b50:	20818016 	blt	r4,r2,4103154 <___svfprintf_internal_r+0x1e10>
 4102b54:	42000204 	addi	r8,r8,8
 4102b58:	0463c83a 	sub	r17,zero,r17
 4102b5c:	0440cb0e 	bge	zero,r17,4102e8c <___svfprintf_internal_r+0x1b48>
 4102b60:	05800404 	movi	r22,16
 4102b64:	b440e80e 	bge	r22,r17,4102f08 <___svfprintf_internal_r+0x1bc4>
 4102b68:	01410474 	movhi	r5,1041
 4102b6c:	29783b84 	addi	r5,r5,-7954
 4102b70:	d9402b15 	stw	r5,172(sp)
 4102b74:	070001c4 	movi	fp,7
 4102b78:	dd002c17 	ldw	r20,176(sp)
 4102b7c:	00000306 	br	4102b8c <___svfprintf_internal_r+0x1848>
 4102b80:	42000204 	addi	r8,r8,8
 4102b84:	8c7ffc04 	addi	r17,r17,-16
 4102b88:	b440e20e 	bge	r22,r17,4102f14 <___svfprintf_internal_r+0x1bd0>
 4102b8c:	18c00404 	addi	r3,r3,16
 4102b90:	10800044 	addi	r2,r2,1
 4102b94:	45400015 	stw	r21,0(r8)
 4102b98:	45800115 	stw	r22,4(r8)
 4102b9c:	d8c02015 	stw	r3,128(sp)
 4102ba0:	d8801f15 	stw	r2,124(sp)
 4102ba4:	e0bff60e 	bge	fp,r2,4102b80 <__ram_exceptions_end+0xfc0fa93c>
 4102ba8:	d9801e04 	addi	r6,sp,120
 4102bac:	a00b883a 	mov	r5,r20
 4102bb0:	9809883a 	mov	r4,r19
 4102bb4:	41069100 	call	4106910 <__ssprint_r>
 4102bb8:	103ac71e 	bne	r2,zero,41016d8 <__ram_exceptions_end+0xfc0f9494>
 4102bbc:	d8c02017 	ldw	r3,128(sp)
 4102bc0:	d8801f17 	ldw	r2,124(sp)
 4102bc4:	da000404 	addi	r8,sp,16
 4102bc8:	003fee06 	br	4102b84 <__ram_exceptions_end+0xfc0fa940>
 4102bcc:	d8c02d17 	ldw	r3,180(sp)
 4102bd0:	d9002917 	ldw	r4,164(sp)
 4102bd4:	002d883a 	mov	r22,zero
 4102bd8:	18800104 	addi	r2,r3,4
 4102bdc:	1d000017 	ldw	r20,0(r3)
 4102be0:	203e7d0e 	bge	r4,zero,41025d8 <__ram_exceptions_end+0xfc0fa394>
 4102be4:	003eda06 	br	4102750 <__ram_exceptions_end+0xfc0fa50c>
 4102be8:	d9402d17 	ldw	r5,180(sp)
 4102bec:	d8c02917 	ldw	r3,164(sp)
 4102bf0:	002d883a 	mov	r22,zero
 4102bf4:	28800104 	addi	r2,r5,4
 4102bf8:	2d000017 	ldw	r20,0(r5)
 4102bfc:	183e2d0e 	bge	r3,zero,41024b4 <__ram_exceptions_end+0xfc0fa270>
 4102c00:	003f6b06 	br	41029b0 <__ram_exceptions_end+0xfc0fa76c>
 4102c04:	d8c02d15 	stw	r3,180(sp)
 4102c08:	0039883a 	mov	fp,zero
 4102c0c:	003ed206 	br	4102758 <__ram_exceptions_end+0xfc0fa514>
 4102c10:	bc400043 	ldbu	r17,1(r23)
 4102c14:	94800814 	ori	r18,r18,32
 4102c18:	bdc00044 	addi	r23,r23,1
 4102c1c:	8c403fcc 	andi	r17,r17,255
 4102c20:	8c40201c 	xori	r17,r17,128
 4102c24:	8c7fe004 	addi	r17,r17,-128
 4102c28:	003a1a06 	br	4101494 <__ram_exceptions_end+0xfc0f9250>
 4102c2c:	d9402c17 	ldw	r5,176(sp)
 4102c30:	d9801e04 	addi	r6,sp,120
 4102c34:	9809883a 	mov	r4,r19
 4102c38:	41069100 	call	4106910 <__ssprint_r>
 4102c3c:	103aa61e 	bne	r2,zero,41016d8 <__ram_exceptions_end+0xfc0f9494>
 4102c40:	d8c02017 	ldw	r3,128(sp)
 4102c44:	da000404 	addi	r8,sp,16
 4102c48:	003d4a06 	br	4102174 <__ram_exceptions_end+0xfc0f9f30>
 4102c4c:	d9002917 	ldw	r4,164(sp)
 4102c50:	05bff7c4 	movi	r22,-33
 4102c54:	00bfffc4 	movi	r2,-1
 4102c58:	8dac703a 	and	r22,r17,r22
 4102c5c:	20806a26 	beq	r4,r2,4102e08 <___svfprintf_internal_r+0x1ac4>
 4102c60:	008011c4 	movi	r2,71
 4102c64:	b0813726 	beq	r22,r2,4103144 <___svfprintf_internal_r+0x1e00>
 4102c68:	d9003717 	ldw	r4,220(sp)
 4102c6c:	90c04014 	ori	r3,r18,256
 4102c70:	d8c02b15 	stw	r3,172(sp)
 4102c74:	20015d16 	blt	r4,zero,41031ec <___svfprintf_internal_r+0x1ea8>
 4102c78:	dd003717 	ldw	r20,220(sp)
 4102c7c:	d8002a05 	stb	zero,168(sp)
 4102c80:	00801984 	movi	r2,102
 4102c84:	88814026 	beq	r17,r2,4103188 <___svfprintf_internal_r+0x1e44>
 4102c88:	00801184 	movi	r2,70
 4102c8c:	88817126 	beq	r17,r2,4103254 <___svfprintf_internal_r+0x1f10>
 4102c90:	00801144 	movi	r2,69
 4102c94:	b0816226 	beq	r22,r2,4103220 <___svfprintf_internal_r+0x1edc>
 4102c98:	d8c02917 	ldw	r3,164(sp)
 4102c9c:	d8802104 	addi	r2,sp,132
 4102ca0:	d8800315 	stw	r2,12(sp)
 4102ca4:	d9403617 	ldw	r5,216(sp)
 4102ca8:	d8802504 	addi	r2,sp,148
 4102cac:	d8800215 	stw	r2,8(sp)
 4102cb0:	d8802604 	addi	r2,sp,152
 4102cb4:	d8c00015 	stw	r3,0(sp)
 4102cb8:	d8800115 	stw	r2,4(sp)
 4102cbc:	01c00084 	movi	r7,2
 4102cc0:	a00d883a 	mov	r6,r20
 4102cc4:	9809883a 	mov	r4,r19
 4102cc8:	d8c03d15 	stw	r3,244(sp)
 4102ccc:	da003e15 	stw	r8,248(sp)
 4102cd0:	410371c0 	call	410371c <_dtoa_r>
 4102cd4:	1021883a 	mov	r16,r2
 4102cd8:	008019c4 	movi	r2,103
 4102cdc:	d8c03d17 	ldw	r3,244(sp)
 4102ce0:	da003e17 	ldw	r8,248(sp)
 4102ce4:	8880e726 	beq	r17,r2,4103084 <___svfprintf_internal_r+0x1d40>
 4102ce8:	008011c4 	movi	r2,71
 4102cec:	8880d426 	beq	r17,r2,4103040 <___svfprintf_internal_r+0x1cfc>
 4102cf0:	80f9883a 	add	fp,r16,r3
 4102cf4:	d9003617 	ldw	r4,216(sp)
 4102cf8:	000d883a 	mov	r6,zero
 4102cfc:	000f883a 	mov	r7,zero
 4102d00:	a00b883a 	mov	r5,r20
 4102d04:	da003e15 	stw	r8,248(sp)
 4102d08:	410a6400 	call	410a640 <__eqdf2>
 4102d0c:	da003e17 	ldw	r8,248(sp)
 4102d10:	1000e426 	beq	r2,zero,41030a4 <___svfprintf_internal_r+0x1d60>
 4102d14:	d8802117 	ldw	r2,132(sp)
 4102d18:	1700062e 	bgeu	r2,fp,4102d34 <___svfprintf_internal_r+0x19f0>
 4102d1c:	01000c04 	movi	r4,48
 4102d20:	10c00044 	addi	r3,r2,1
 4102d24:	d8c02115 	stw	r3,132(sp)
 4102d28:	11000005 	stb	r4,0(r2)
 4102d2c:	d8802117 	ldw	r2,132(sp)
 4102d30:	173ffb36 	bltu	r2,fp,4102d20 <__ram_exceptions_end+0xfc0faadc>
 4102d34:	1405c83a 	sub	r2,r2,r16
 4102d38:	d8803315 	stw	r2,204(sp)
 4102d3c:	008011c4 	movi	r2,71
 4102d40:	b080c526 	beq	r22,r2,4103058 <___svfprintf_internal_r+0x1d14>
 4102d44:	00801944 	movi	r2,101
 4102d48:	1441d90e 	bge	r2,r17,41034b0 <___svfprintf_internal_r+0x216c>
 4102d4c:	d8c02617 	ldw	r3,152(sp)
 4102d50:	00801984 	movi	r2,102
 4102d54:	d8c03215 	stw	r3,200(sp)
 4102d58:	88813426 	beq	r17,r2,410322c <___svfprintf_internal_r+0x1ee8>
 4102d5c:	d8c03217 	ldw	r3,200(sp)
 4102d60:	d9003317 	ldw	r4,204(sp)
 4102d64:	19012516 	blt	r3,r4,41031fc <___svfprintf_internal_r+0x1eb8>
 4102d68:	9480004c 	andi	r18,r18,1
 4102d6c:	9001841e 	bne	r18,zero,4103380 <___svfprintf_internal_r+0x203c>
 4102d70:	1805883a 	mov	r2,r3
 4102d74:	1801cc16 	blt	r3,zero,41034a8 <___svfprintf_internal_r+0x2164>
 4102d78:	d8c03217 	ldw	r3,200(sp)
 4102d7c:	044019c4 	movi	r17,103
 4102d80:	d8c02e15 	stw	r3,184(sp)
 4102d84:	df002a07 	ldb	fp,168(sp)
 4102d88:	e000a61e 	bne	fp,zero,4103024 <___svfprintf_internal_r+0x1ce0>
 4102d8c:	df002783 	ldbu	fp,158(sp)
 4102d90:	d8802a15 	stw	r2,168(sp)
 4102d94:	dc802b17 	ldw	r18,172(sp)
 4102d98:	d8002915 	stw	zero,164(sp)
 4102d9c:	003b1706 	br	41019fc <__ram_exceptions_end+0xfc0f97b8>
 4102da0:	04010474 	movhi	r16,1041
 4102da4:	84382b04 	addi	r16,r16,-8020
 4102da8:	003aa606 	br	4101844 <__ram_exceptions_end+0xfc0f9600>
 4102dac:	d9003917 	ldw	r4,228(sp)
 4102db0:	04001004 	movi	r16,64
 4102db4:	800b883a 	mov	r5,r16
 4102db8:	4104e800 	call	4104e80 <_malloc_r>
 4102dbc:	d9002c17 	ldw	r4,176(sp)
 4102dc0:	20800015 	stw	r2,0(r4)
 4102dc4:	20800415 	stw	r2,16(r4)
 4102dc8:	1001cb26 	beq	r2,zero,41034f8 <___svfprintf_internal_r+0x21b4>
 4102dcc:	d8802c17 	ldw	r2,176(sp)
 4102dd0:	14000515 	stw	r16,20(r2)
 4102dd4:	00397606 	br	41013b0 <__ram_exceptions_end+0xfc0f916c>
 4102dd8:	04010474 	movhi	r16,1041
 4102ddc:	84382d04 	addi	r16,r16,-8012
 4102de0:	003ee106 	br	4102968 <__ram_exceptions_end+0xfc0fa724>
 4102de4:	d9402c17 	ldw	r5,176(sp)
 4102de8:	d9801e04 	addi	r6,sp,120
 4102dec:	9809883a 	mov	r4,r19
 4102df0:	41069100 	call	4106910 <__ssprint_r>
 4102df4:	103a381e 	bne	r2,zero,41016d8 <__ram_exceptions_end+0xfc0f9494>
 4102df8:	dc402617 	ldw	r17,152(sp)
 4102dfc:	d8c02017 	ldw	r3,128(sp)
 4102e00:	da000404 	addi	r8,sp,16
 4102e04:	003f4306 	br	4102b14 <__ram_exceptions_end+0xfc0fa8d0>
 4102e08:	01400184 	movi	r5,6
 4102e0c:	d9402915 	stw	r5,164(sp)
 4102e10:	003f9506 	br	4102c68 <__ram_exceptions_end+0xfc0faa24>
 4102e14:	d9002d17 	ldw	r4,180(sp)
 4102e18:	25000017 	ldw	r20,0(r4)
 4102e1c:	21000104 	addi	r4,r4,4
 4102e20:	d9002d15 	stw	r4,180(sp)
 4102e24:	a02dd7fa 	srai	r22,r20,31
 4102e28:	b005883a 	mov	r2,r22
 4102e2c:	003a9b06 	br	410189c <__ram_exceptions_end+0xfc0f9658>
 4102e30:	d9402d17 	ldw	r5,180(sp)
 4102e34:	002d883a 	mov	r22,zero
 4102e38:	2d000017 	ldw	r20,0(r5)
 4102e3c:	29400104 	addi	r5,r5,4
 4102e40:	d9402d15 	stw	r5,180(sp)
 4102e44:	003bf906 	br	4101e2c <__ram_exceptions_end+0xfc0f9be8>
 4102e48:	9480100c 	andi	r18,r18,64
 4102e4c:	90006e26 	beq	r18,zero,4103008 <___svfprintf_internal_r+0x1cc4>
 4102e50:	d9002d17 	ldw	r4,180(sp)
 4102e54:	d9402f17 	ldw	r5,188(sp)
 4102e58:	20800017 	ldw	r2,0(r4)
 4102e5c:	21000104 	addi	r4,r4,4
 4102e60:	d9002d15 	stw	r4,180(sp)
 4102e64:	1140000d 	sth	r5,0(r2)
 4102e68:	00396106 	br	41013f0 <__ram_exceptions_end+0xfc0f91ac>
 4102e6c:	d9402c17 	ldw	r5,176(sp)
 4102e70:	d9801e04 	addi	r6,sp,120
 4102e74:	9809883a 	mov	r4,r19
 4102e78:	41069100 	call	4106910 <__ssprint_r>
 4102e7c:	103a161e 	bne	r2,zero,41016d8 <__ram_exceptions_end+0xfc0f9494>
 4102e80:	d8c02017 	ldw	r3,128(sp)
 4102e84:	d8801f17 	ldw	r2,124(sp)
 4102e88:	da000404 	addi	r8,sp,16
 4102e8c:	d9403317 	ldw	r5,204(sp)
 4102e90:	10800044 	addi	r2,r2,1
 4102e94:	44000015 	stw	r16,0(r8)
 4102e98:	28c7883a 	add	r3,r5,r3
 4102e9c:	003b7706 	br	4101c7c <__ram_exceptions_end+0xfc0f9a38>
 4102ea0:	8009883a 	mov	r4,r16
 4102ea4:	da003e15 	stw	r8,248(sp)
 4102ea8:	41012ac0 	call	41012ac <strlen>
 4102eac:	d8802e15 	stw	r2,184(sp)
 4102eb0:	da003e17 	ldw	r8,248(sp)
 4102eb4:	103c280e 	bge	r2,zero,4101f58 <__ram_exceptions_end+0xfc0f9d14>
 4102eb8:	0005883a 	mov	r2,zero
 4102ebc:	003c2606 	br	4101f58 <__ram_exceptions_end+0xfc0f9d14>
 4102ec0:	00bfffc4 	movi	r2,-1
 4102ec4:	003a0906 	br	41016ec <__ram_exceptions_end+0xfc0f94a8>
 4102ec8:	01010474 	movhi	r4,1041
 4102ecc:	21383f84 	addi	r4,r4,-7938
 4102ed0:	d9003515 	stw	r4,212(sp)
 4102ed4:	003b0606 	br	4101af0 <__ram_exceptions_end+0xfc0f98ac>
 4102ed8:	013fffc4 	movi	r4,-1
 4102edc:	003a2706 	br	410177c <__ram_exceptions_end+0xfc0f9538>
 4102ee0:	d9402c17 	ldw	r5,176(sp)
 4102ee4:	d9801e04 	addi	r6,sp,120
 4102ee8:	9809883a 	mov	r4,r19
 4102eec:	41069100 	call	4106910 <__ssprint_r>
 4102ef0:	1039f91e 	bne	r2,zero,41016d8 <__ram_exceptions_end+0xfc0f9494>
 4102ef4:	d8c02017 	ldw	r3,128(sp)
 4102ef8:	da000404 	addi	r8,sp,16
 4102efc:	003d8406 	br	4102510 <__ram_exceptions_end+0xfc0fa2cc>
 4102f00:	0023883a 	mov	r17,zero
 4102f04:	003d8306 	br	4102514 <__ram_exceptions_end+0xfc0fa2d0>
 4102f08:	01010474 	movhi	r4,1041
 4102f0c:	21383b84 	addi	r4,r4,-7954
 4102f10:	d9002b15 	stw	r4,172(sp)
 4102f14:	d9002b17 	ldw	r4,172(sp)
 4102f18:	1c47883a 	add	r3,r3,r17
 4102f1c:	10800044 	addi	r2,r2,1
 4102f20:	41000015 	stw	r4,0(r8)
 4102f24:	44400115 	stw	r17,4(r8)
 4102f28:	d8c02015 	stw	r3,128(sp)
 4102f2c:	d8801f15 	stw	r2,124(sp)
 4102f30:	010001c4 	movi	r4,7
 4102f34:	20bfcd16 	blt	r4,r2,4102e6c <__ram_exceptions_end+0xfc0fac28>
 4102f38:	42000204 	addi	r8,r8,8
 4102f3c:	003fd306 	br	4102e8c <__ram_exceptions_end+0xfc0fac48>
 4102f40:	d9402c17 	ldw	r5,176(sp)
 4102f44:	d9801e04 	addi	r6,sp,120
 4102f48:	9809883a 	mov	r4,r19
 4102f4c:	41069100 	call	4106910 <__ssprint_r>
 4102f50:	1039e11e 	bne	r2,zero,41016d8 <__ram_exceptions_end+0xfc0f9494>
 4102f54:	d8802617 	ldw	r2,152(sp)
 4102f58:	d8c02017 	ldw	r3,128(sp)
 4102f5c:	da000404 	addi	r8,sp,16
 4102f60:	003e1c06 	br	41027d4 <__ram_exceptions_end+0xfc0fa590>
 4102f64:	d8802917 	ldw	r2,164(sp)
 4102f68:	00c00184 	movi	r3,6
 4102f6c:	1880012e 	bgeu	r3,r2,4102f74 <___svfprintf_internal_r+0x1c30>
 4102f70:	1805883a 	mov	r2,r3
 4102f74:	d8802e15 	stw	r2,184(sp)
 4102f78:	1000f316 	blt	r2,zero,4103348 <___svfprintf_internal_r+0x2004>
 4102f7c:	04010474 	movhi	r16,1041
 4102f80:	d8802a15 	stw	r2,168(sp)
 4102f84:	dd002d15 	stw	r20,180(sp)
 4102f88:	d8002915 	stw	zero,164(sp)
 4102f8c:	d8003215 	stw	zero,200(sp)
 4102f90:	84383904 	addi	r16,r16,-7964
 4102f94:	0039883a 	mov	fp,zero
 4102f98:	003a9f06 	br	4101a18 <__ram_exceptions_end+0xfc0f97d4>
 4102f9c:	01010474 	movhi	r4,1041
 4102fa0:	21383f84 	addi	r4,r4,-7938
 4102fa4:	d9003515 	stw	r4,212(sp)
 4102fa8:	003b5f06 	br	4101d28 <__ram_exceptions_end+0xfc0f9ae4>
 4102fac:	d9402c17 	ldw	r5,176(sp)
 4102fb0:	d9801e04 	addi	r6,sp,120
 4102fb4:	9809883a 	mov	r4,r19
 4102fb8:	41069100 	call	4106910 <__ssprint_r>
 4102fbc:	1039c61e 	bne	r2,zero,41016d8 <__ram_exceptions_end+0xfc0f9494>
 4102fc0:	d8802617 	ldw	r2,152(sp)
 4102fc4:	d9403317 	ldw	r5,204(sp)
 4102fc8:	d8c02017 	ldw	r3,128(sp)
 4102fcc:	da000404 	addi	r8,sp,16
 4102fd0:	2885c83a 	sub	r2,r5,r2
 4102fd4:	003e1006 	br	4102818 <__ram_exceptions_end+0xfc0fa5d4>
 4102fd8:	00800044 	movi	r2,1
 4102fdc:	10803fcc 	andi	r2,r2,255
 4102fe0:	00c00044 	movi	r3,1
 4102fe4:	10fa3526 	beq	r2,r3,41018bc <__ram_exceptions_end+0xfc0f9678>
 4102fe8:	00c00084 	movi	r3,2
 4102fec:	10fb9e26 	beq	r2,r3,4101e68 <__ram_exceptions_end+0xfc0f9c24>
 4102ff0:	003a6406 	br	4101984 <__ram_exceptions_end+0xfc0f9740>
 4102ff4:	0021883a 	mov	r16,zero
 4102ff8:	003e0806 	br	410281c <__ram_exceptions_end+0xfc0fa5d8>
 4102ffc:	07000b44 	movi	fp,45
 4103000:	df002785 	stb	fp,158(sp)
 4103004:	003a0b06 	br	4101834 <__ram_exceptions_end+0xfc0f95f0>
 4103008:	d8c02d17 	ldw	r3,180(sp)
 410300c:	d9002f17 	ldw	r4,188(sp)
 4103010:	18800017 	ldw	r2,0(r3)
 4103014:	18c00104 	addi	r3,r3,4
 4103018:	d8c02d15 	stw	r3,180(sp)
 410301c:	11000015 	stw	r4,0(r2)
 4103020:	0038f306 	br	41013f0 <__ram_exceptions_end+0xfc0f91ac>
 4103024:	00c00b44 	movi	r3,45
 4103028:	d8c02785 	stb	r3,158(sp)
 410302c:	d8802a15 	stw	r2,168(sp)
 4103030:	dc802b17 	ldw	r18,172(sp)
 4103034:	d8002915 	stw	zero,164(sp)
 4103038:	07000b44 	movi	fp,45
 410303c:	003a7306 	br	4101a0c <__ram_exceptions_end+0xfc0f97c8>
 4103040:	9080004c 	andi	r2,r18,1
 4103044:	1000941e 	bne	r2,zero,4103298 <___svfprintf_internal_r+0x1f54>
 4103048:	d8802117 	ldw	r2,132(sp)
 410304c:	1405c83a 	sub	r2,r2,r16
 4103050:	d8803315 	stw	r2,204(sp)
 4103054:	b441161e 	bne	r22,r17,41034b0 <___svfprintf_internal_r+0x216c>
 4103058:	dd802617 	ldw	r22,152(sp)
 410305c:	00bfff44 	movi	r2,-3
 4103060:	b0801a16 	blt	r22,r2,41030cc <___svfprintf_internal_r+0x1d88>
 4103064:	d9402917 	ldw	r5,164(sp)
 4103068:	2d801816 	blt	r5,r22,41030cc <___svfprintf_internal_r+0x1d88>
 410306c:	dd803215 	stw	r22,200(sp)
 4103070:	003f3a06 	br	4102d5c <__ram_exceptions_end+0xfc0fab18>
 4103074:	1025883a 	mov	r18,r2
 4103078:	0039883a 	mov	fp,zero
 410307c:	00800084 	movi	r2,2
 4103080:	003fd606 	br	4102fdc <__ram_exceptions_end+0xfc0fad98>
 4103084:	9080004c 	andi	r2,r18,1
 4103088:	103f191e 	bne	r2,zero,4102cf0 <__ram_exceptions_end+0xfc0faaac>
 410308c:	d8802117 	ldw	r2,132(sp)
 4103090:	003f2806 	br	4102d34 <__ram_exceptions_end+0xfc0faaf0>
 4103094:	01010474 	movhi	r4,1041
 4103098:	21383b84 	addi	r4,r4,-7954
 410309c:	d9002b15 	stw	r4,172(sp)
 41030a0:	003c7c06 	br	4102294 <__ram_exceptions_end+0xfc0fa050>
 41030a4:	e005883a 	mov	r2,fp
 41030a8:	003f2206 	br	4102d34 <__ram_exceptions_end+0xfc0faaf0>
 41030ac:	d9402917 	ldw	r5,164(sp)
 41030b0:	df002783 	ldbu	fp,158(sp)
 41030b4:	dd002d15 	stw	r20,180(sp)
 41030b8:	d9402a15 	stw	r5,168(sp)
 41030bc:	d9402e15 	stw	r5,184(sp)
 41030c0:	d8002915 	stw	zero,164(sp)
 41030c4:	d8003215 	stw	zero,200(sp)
 41030c8:	003a4c06 	br	41019fc <__ram_exceptions_end+0xfc0f97b8>
 41030cc:	8c7fff84 	addi	r17,r17,-2
 41030d0:	b5bfffc4 	addi	r22,r22,-1
 41030d4:	dd802615 	stw	r22,152(sp)
 41030d8:	dc4022c5 	stb	r17,139(sp)
 41030dc:	b000c316 	blt	r22,zero,41033ec <___svfprintf_internal_r+0x20a8>
 41030e0:	00800ac4 	movi	r2,43
 41030e4:	d8802305 	stb	r2,140(sp)
 41030e8:	00800244 	movi	r2,9
 41030ec:	15806e16 	blt	r2,r22,41032a8 <___svfprintf_internal_r+0x1f64>
 41030f0:	00800c04 	movi	r2,48
 41030f4:	b5800c04 	addi	r22,r22,48
 41030f8:	d8802345 	stb	r2,141(sp)
 41030fc:	dd802385 	stb	r22,142(sp)
 4103100:	d88023c4 	addi	r2,sp,143
 4103104:	df0022c4 	addi	fp,sp,139
 4103108:	d8c03317 	ldw	r3,204(sp)
 410310c:	1739c83a 	sub	fp,r2,fp
 4103110:	d9003317 	ldw	r4,204(sp)
 4103114:	e0c7883a 	add	r3,fp,r3
 4103118:	df003b15 	stw	fp,236(sp)
 410311c:	d8c02e15 	stw	r3,184(sp)
 4103120:	00800044 	movi	r2,1
 4103124:	1100b70e 	bge	r2,r4,4103404 <___svfprintf_internal_r+0x20c0>
 4103128:	d8c02e17 	ldw	r3,184(sp)
 410312c:	18c00044 	addi	r3,r3,1
 4103130:	d8c02e15 	stw	r3,184(sp)
 4103134:	1805883a 	mov	r2,r3
 4103138:	1800b016 	blt	r3,zero,41033fc <___svfprintf_internal_r+0x20b8>
 410313c:	d8003215 	stw	zero,200(sp)
 4103140:	003f1006 	br	4102d84 <__ram_exceptions_end+0xfc0fab40>
 4103144:	d8802917 	ldw	r2,164(sp)
 4103148:	103ec71e 	bne	r2,zero,4102c68 <__ram_exceptions_end+0xfc0faa24>
 410314c:	dc002915 	stw	r16,164(sp)
 4103150:	003ec506 	br	4102c68 <__ram_exceptions_end+0xfc0faa24>
 4103154:	d9402c17 	ldw	r5,176(sp)
 4103158:	d9801e04 	addi	r6,sp,120
 410315c:	9809883a 	mov	r4,r19
 4103160:	41069100 	call	4106910 <__ssprint_r>
 4103164:	10395c1e 	bne	r2,zero,41016d8 <__ram_exceptions_end+0xfc0f9494>
 4103168:	dc402617 	ldw	r17,152(sp)
 410316c:	d8c02017 	ldw	r3,128(sp)
 4103170:	d8801f17 	ldw	r2,124(sp)
 4103174:	da000404 	addi	r8,sp,16
 4103178:	003e7706 	br	4102b58 <__ram_exceptions_end+0xfc0fa914>
 410317c:	582f883a 	mov	r23,r11
 4103180:	d8002915 	stw	zero,164(sp)
 4103184:	0038c406 	br	4101498 <__ram_exceptions_end+0xfc0f9254>
 4103188:	d8c02917 	ldw	r3,164(sp)
 410318c:	d8802104 	addi	r2,sp,132
 4103190:	d8800315 	stw	r2,12(sp)
 4103194:	d9403617 	ldw	r5,216(sp)
 4103198:	d8802504 	addi	r2,sp,148
 410319c:	d8800215 	stw	r2,8(sp)
 41031a0:	d8802604 	addi	r2,sp,152
 41031a4:	d8c00015 	stw	r3,0(sp)
 41031a8:	9809883a 	mov	r4,r19
 41031ac:	d8800115 	stw	r2,4(sp)
 41031b0:	01c000c4 	movi	r7,3
 41031b4:	a00d883a 	mov	r6,r20
 41031b8:	da003e15 	stw	r8,248(sp)
 41031bc:	410371c0 	call	410371c <_dtoa_r>
 41031c0:	d9002917 	ldw	r4,164(sp)
 41031c4:	da003e17 	ldw	r8,248(sp)
 41031c8:	1021883a 	mov	r16,r2
 41031cc:	1139883a 	add	fp,r2,r4
 41031d0:	2007883a 	mov	r3,r4
 41031d4:	81000007 	ldb	r4,0(r16)
 41031d8:	00800c04 	movi	r2,48
 41031dc:	20806f26 	beq	r4,r2,410339c <___svfprintf_internal_r+0x2058>
 41031e0:	d8c02617 	ldw	r3,152(sp)
 41031e4:	e0f9883a 	add	fp,fp,r3
 41031e8:	003ec206 	br	4102cf4 <__ram_exceptions_end+0xfc0faab0>
 41031ec:	00c00b44 	movi	r3,45
 41031f0:	2520003c 	xorhi	r20,r4,32768
 41031f4:	d8c02a05 	stb	r3,168(sp)
 41031f8:	003ea106 	br	4102c80 <__ram_exceptions_end+0xfc0faa3c>
 41031fc:	d8c03217 	ldw	r3,200(sp)
 4103200:	00c0890e 	bge	zero,r3,4103428 <___svfprintf_internal_r+0x20e4>
 4103204:	00800044 	movi	r2,1
 4103208:	d9003317 	ldw	r4,204(sp)
 410320c:	1105883a 	add	r2,r2,r4
 4103210:	d8802e15 	stw	r2,184(sp)
 4103214:	10005f16 	blt	r2,zero,4103394 <___svfprintf_internal_r+0x2050>
 4103218:	044019c4 	movi	r17,103
 410321c:	003ed906 	br	4102d84 <__ram_exceptions_end+0xfc0fab40>
 4103220:	d9002917 	ldw	r4,164(sp)
 4103224:	20c00044 	addi	r3,r4,1
 4103228:	003e9c06 	br	4102c9c <__ram_exceptions_end+0xfc0faa58>
 410322c:	d9002917 	ldw	r4,164(sp)
 4103230:	00c0680e 	bge	zero,r3,41033d4 <___svfprintf_internal_r+0x2090>
 4103234:	2000461e 	bne	r4,zero,4103350 <___svfprintf_internal_r+0x200c>
 4103238:	9480004c 	andi	r18,r18,1
 410323c:	9000441e 	bne	r18,zero,4103350 <___svfprintf_internal_r+0x200c>
 4103240:	1805883a 	mov	r2,r3
 4103244:	1800a016 	blt	r3,zero,41034c8 <___svfprintf_internal_r+0x2184>
 4103248:	d8c03217 	ldw	r3,200(sp)
 410324c:	d8c02e15 	stw	r3,184(sp)
 4103250:	003ecc06 	br	4102d84 <__ram_exceptions_end+0xfc0fab40>
 4103254:	d9402917 	ldw	r5,164(sp)
 4103258:	d8802104 	addi	r2,sp,132
 410325c:	d8800315 	stw	r2,12(sp)
 4103260:	d9400015 	stw	r5,0(sp)
 4103264:	d8802504 	addi	r2,sp,148
 4103268:	d9403617 	ldw	r5,216(sp)
 410326c:	d8800215 	stw	r2,8(sp)
 4103270:	d8802604 	addi	r2,sp,152
 4103274:	d8800115 	stw	r2,4(sp)
 4103278:	01c000c4 	movi	r7,3
 410327c:	a00d883a 	mov	r6,r20
 4103280:	9809883a 	mov	r4,r19
 4103284:	da003e15 	stw	r8,248(sp)
 4103288:	410371c0 	call	410371c <_dtoa_r>
 410328c:	d8c02917 	ldw	r3,164(sp)
 4103290:	da003e17 	ldw	r8,248(sp)
 4103294:	1021883a 	mov	r16,r2
 4103298:	00801184 	movi	r2,70
 410329c:	80f9883a 	add	fp,r16,r3
 41032a0:	88bfcc26 	beq	r17,r2,41031d4 <__ram_exceptions_end+0xfc0faf90>
 41032a4:	003e9306 	br	4102cf4 <__ram_exceptions_end+0xfc0faab0>
 41032a8:	df0022c4 	addi	fp,sp,139
 41032ac:	dc002915 	stw	r16,164(sp)
 41032b0:	9829883a 	mov	r20,r19
 41032b4:	e021883a 	mov	r16,fp
 41032b8:	4027883a 	mov	r19,r8
 41032bc:	b009883a 	mov	r4,r22
 41032c0:	01400284 	movi	r5,10
 41032c4:	4100e780 	call	4100e78 <__modsi3>
 41032c8:	10800c04 	addi	r2,r2,48
 41032cc:	843fffc4 	addi	r16,r16,-1
 41032d0:	b009883a 	mov	r4,r22
 41032d4:	01400284 	movi	r5,10
 41032d8:	80800005 	stb	r2,0(r16)
 41032dc:	4100df40 	call	4100df4 <__divsi3>
 41032e0:	102d883a 	mov	r22,r2
 41032e4:	00800244 	movi	r2,9
 41032e8:	15bff416 	blt	r2,r22,41032bc <__ram_exceptions_end+0xfc0fb078>
 41032ec:	9811883a 	mov	r8,r19
 41032f0:	b0800c04 	addi	r2,r22,48
 41032f4:	a027883a 	mov	r19,r20
 41032f8:	8029883a 	mov	r20,r16
 41032fc:	a17fffc4 	addi	r5,r20,-1
 4103300:	a0bfffc5 	stb	r2,-1(r20)
 4103304:	dc002917 	ldw	r16,164(sp)
 4103308:	2f00752e 	bgeu	r5,fp,41034e0 <___svfprintf_internal_r+0x219c>
 410330c:	d9c02384 	addi	r7,sp,142
 4103310:	3d0fc83a 	sub	r7,r7,r20
 4103314:	d9002344 	addi	r4,sp,141
 4103318:	e1cf883a 	add	r7,fp,r7
 410331c:	00000106 	br	4103324 <___svfprintf_internal_r+0x1fe0>
 4103320:	28800003 	ldbu	r2,0(r5)
 4103324:	20800005 	stb	r2,0(r4)
 4103328:	21000044 	addi	r4,r4,1
 410332c:	29400044 	addi	r5,r5,1
 4103330:	21fffb1e 	bne	r4,r7,4103320 <__ram_exceptions_end+0xfc0fb0dc>
 4103334:	d8802304 	addi	r2,sp,140
 4103338:	1505c83a 	sub	r2,r2,r20
 410333c:	d8c02344 	addi	r3,sp,141
 4103340:	1885883a 	add	r2,r3,r2
 4103344:	003f7006 	br	4103108 <__ram_exceptions_end+0xfc0faec4>
 4103348:	0005883a 	mov	r2,zero
 410334c:	003f0b06 	br	4102f7c <__ram_exceptions_end+0xfc0fad38>
 4103350:	d9002917 	ldw	r4,164(sp)
 4103354:	d8c03217 	ldw	r3,200(sp)
 4103358:	20800044 	addi	r2,r4,1
 410335c:	1885883a 	add	r2,r3,r2
 4103360:	d8802e15 	stw	r2,184(sp)
 4103364:	103e870e 	bge	r2,zero,4102d84 <__ram_exceptions_end+0xfc0fab40>
 4103368:	0005883a 	mov	r2,zero
 410336c:	003e8506 	br	4102d84 <__ram_exceptions_end+0xfc0fab40>
 4103370:	01010474 	movhi	r4,1041
 4103374:	21383b84 	addi	r4,r4,-7954
 4103378:	d9002b15 	stw	r4,172(sp)
 410337c:	003cc506 	br	4102694 <__ram_exceptions_end+0xfc0fa450>
 4103380:	d8c03217 	ldw	r3,200(sp)
 4103384:	18c00044 	addi	r3,r3,1
 4103388:	d8c02e15 	stw	r3,184(sp)
 410338c:	1805883a 	mov	r2,r3
 4103390:	183fa10e 	bge	r3,zero,4103218 <__ram_exceptions_end+0xfc0fafd4>
 4103394:	0005883a 	mov	r2,zero
 4103398:	003f9f06 	br	4103218 <__ram_exceptions_end+0xfc0fafd4>
 410339c:	d9003617 	ldw	r4,216(sp)
 41033a0:	000d883a 	mov	r6,zero
 41033a4:	000f883a 	mov	r7,zero
 41033a8:	a00b883a 	mov	r5,r20
 41033ac:	d8c03d15 	stw	r3,244(sp)
 41033b0:	da003e15 	stw	r8,248(sp)
 41033b4:	410a6400 	call	410a640 <__eqdf2>
 41033b8:	d8c03d17 	ldw	r3,244(sp)
 41033bc:	da003e17 	ldw	r8,248(sp)
 41033c0:	103f8726 	beq	r2,zero,41031e0 <__ram_exceptions_end+0xfc0faf9c>
 41033c4:	00800044 	movi	r2,1
 41033c8:	10c7c83a 	sub	r3,r2,r3
 41033cc:	d8c02615 	stw	r3,152(sp)
 41033d0:	003f8406 	br	41031e4 <__ram_exceptions_end+0xfc0fafa0>
 41033d4:	20000e1e 	bne	r4,zero,4103410 <___svfprintf_internal_r+0x20cc>
 41033d8:	9480004c 	andi	r18,r18,1
 41033dc:	90000c1e 	bne	r18,zero,4103410 <___svfprintf_internal_r+0x20cc>
 41033e0:	00800044 	movi	r2,1
 41033e4:	d8802e15 	stw	r2,184(sp)
 41033e8:	003e6606 	br	4102d84 <__ram_exceptions_end+0xfc0fab40>
 41033ec:	00800b44 	movi	r2,45
 41033f0:	05adc83a 	sub	r22,zero,r22
 41033f4:	d8802305 	stb	r2,140(sp)
 41033f8:	003f3b06 	br	41030e8 <__ram_exceptions_end+0xfc0faea4>
 41033fc:	0005883a 	mov	r2,zero
 4103400:	003f4e06 	br	410313c <__ram_exceptions_end+0xfc0faef8>
 4103404:	90a4703a 	and	r18,r18,r2
 4103408:	903f4a26 	beq	r18,zero,4103134 <__ram_exceptions_end+0xfc0faef0>
 410340c:	003f4606 	br	4103128 <__ram_exceptions_end+0xfc0faee4>
 4103410:	d8c02917 	ldw	r3,164(sp)
 4103414:	18c00084 	addi	r3,r3,2
 4103418:	d8c02e15 	stw	r3,184(sp)
 410341c:	1805883a 	mov	r2,r3
 4103420:	183e580e 	bge	r3,zero,4102d84 <__ram_exceptions_end+0xfc0fab40>
 4103424:	003fd006 	br	4103368 <__ram_exceptions_end+0xfc0fb124>
 4103428:	00800084 	movi	r2,2
 410342c:	10c5c83a 	sub	r2,r2,r3
 4103430:	003f7506 	br	4103208 <__ram_exceptions_end+0xfc0fafc4>
 4103434:	d8802d17 	ldw	r2,180(sp)
 4103438:	d9002d17 	ldw	r4,180(sp)
 410343c:	bc400043 	ldbu	r17,1(r23)
 4103440:	10800017 	ldw	r2,0(r2)
 4103444:	582f883a 	mov	r23,r11
 4103448:	d8802915 	stw	r2,164(sp)
 410344c:	20800104 	addi	r2,r4,4
 4103450:	d9002917 	ldw	r4,164(sp)
 4103454:	d8802d15 	stw	r2,180(sp)
 4103458:	203df00e 	bge	r4,zero,4102c1c <__ram_exceptions_end+0xfc0fa9d8>
 410345c:	8c403fcc 	andi	r17,r17,255
 4103460:	00bfffc4 	movi	r2,-1
 4103464:	8c40201c 	xori	r17,r17,128
 4103468:	d8802915 	stw	r2,164(sp)
 410346c:	8c7fe004 	addi	r17,r17,-128
 4103470:	00380806 	br	4101494 <__ram_exceptions_end+0xfc0f9250>
 4103474:	9080004c 	andi	r2,r18,1
 4103478:	0039883a 	mov	fp,zero
 410347c:	10000726 	beq	r2,zero,410349c <___svfprintf_internal_r+0x2158>
 4103480:	d8c02817 	ldw	r3,160(sp)
 4103484:	dc001dc4 	addi	r16,sp,119
 4103488:	00800c04 	movi	r2,48
 410348c:	1c07c83a 	sub	r3,r3,r16
 4103490:	d8801dc5 	stb	r2,119(sp)
 4103494:	d8c02e15 	stw	r3,184(sp)
 4103498:	00395206 	br	41019e4 <__ram_exceptions_end+0xfc0f97a0>
 410349c:	d8002e15 	stw	zero,184(sp)
 41034a0:	dc001e04 	addi	r16,sp,120
 41034a4:	00394f06 	br	41019e4 <__ram_exceptions_end+0xfc0f97a0>
 41034a8:	0005883a 	mov	r2,zero
 41034ac:	003e3206 	br	4102d78 <__ram_exceptions_end+0xfc0fab34>
 41034b0:	dd802617 	ldw	r22,152(sp)
 41034b4:	003f0606 	br	41030d0 <__ram_exceptions_end+0xfc0fae8c>
 41034b8:	d9c02785 	stb	r7,158(sp)
 41034bc:	003a5106 	br	4101e04 <__ram_exceptions_end+0xfc0f9bc0>
 41034c0:	d9c02785 	stb	r7,158(sp)
 41034c4:	003a3706 	br	4101da4 <__ram_exceptions_end+0xfc0f9b60>
 41034c8:	0005883a 	mov	r2,zero
 41034cc:	003f5e06 	br	4103248 <__ram_exceptions_end+0xfc0fb004>
 41034d0:	d9c02785 	stb	r7,158(sp)
 41034d4:	00391706 	br	4101934 <__ram_exceptions_end+0xfc0f96f0>
 41034d8:	d9c02785 	stb	r7,158(sp)
 41034dc:	0038e606 	br	4101878 <__ram_exceptions_end+0xfc0f9634>
 41034e0:	d8802344 	addi	r2,sp,141
 41034e4:	003f0806 	br	4103108 <__ram_exceptions_end+0xfc0faec4>
 41034e8:	d9c02785 	stb	r7,158(sp)
 41034ec:	0038b706 	br	41017cc <__ram_exceptions_end+0xfc0f9588>
 41034f0:	d9c02785 	stb	r7,158(sp)
 41034f4:	003adc06 	br	4102068 <__ram_exceptions_end+0xfc0f9e24>
 41034f8:	d9403917 	ldw	r5,228(sp)
 41034fc:	00800304 	movi	r2,12
 4103500:	28800015 	stw	r2,0(r5)
 4103504:	00bfffc4 	movi	r2,-1
 4103508:	00387806 	br	41016ec <__ram_exceptions_end+0xfc0f94a8>
 410350c:	d9c02785 	stb	r7,158(sp)
 4103510:	003abf06 	br	4102010 <__ram_exceptions_end+0xfc0f9dcc>
 4103514:	d9c02785 	stb	r7,158(sp)
 4103518:	003a9b06 	br	4101f88 <__ram_exceptions_end+0xfc0f9d44>

0410351c <quorem>:
 410351c:	defff704 	addi	sp,sp,-36
 4103520:	dc800215 	stw	r18,8(sp)
 4103524:	20800417 	ldw	r2,16(r4)
 4103528:	2c800417 	ldw	r18,16(r5)
 410352c:	dfc00815 	stw	ra,32(sp)
 4103530:	ddc00715 	stw	r23,28(sp)
 4103534:	dd800615 	stw	r22,24(sp)
 4103538:	dd400515 	stw	r21,20(sp)
 410353c:	dd000415 	stw	r20,16(sp)
 4103540:	dcc00315 	stw	r19,12(sp)
 4103544:	dc400115 	stw	r17,4(sp)
 4103548:	dc000015 	stw	r16,0(sp)
 410354c:	14807116 	blt	r2,r18,4103714 <quorem+0x1f8>
 4103550:	94bfffc4 	addi	r18,r18,-1
 4103554:	94ad883a 	add	r22,r18,r18
 4103558:	b5ad883a 	add	r22,r22,r22
 410355c:	2c400504 	addi	r17,r5,20
 4103560:	8da9883a 	add	r20,r17,r22
 4103564:	25400504 	addi	r21,r4,20
 4103568:	282f883a 	mov	r23,r5
 410356c:	adad883a 	add	r22,r21,r22
 4103570:	a1400017 	ldw	r5,0(r20)
 4103574:	2021883a 	mov	r16,r4
 4103578:	b1000017 	ldw	r4,0(r22)
 410357c:	29400044 	addi	r5,r5,1
 4103580:	4100eec0 	call	4100eec <__udivsi3>
 4103584:	1027883a 	mov	r19,r2
 4103588:	10002c26 	beq	r2,zero,410363c <quorem+0x120>
 410358c:	a813883a 	mov	r9,r21
 4103590:	880b883a 	mov	r5,r17
 4103594:	0009883a 	mov	r4,zero
 4103598:	000d883a 	mov	r6,zero
 410359c:	2a000017 	ldw	r8,0(r5)
 41035a0:	49c00017 	ldw	r7,0(r9)
 41035a4:	29400104 	addi	r5,r5,4
 41035a8:	40bfffcc 	andi	r2,r8,65535
 41035ac:	14c5383a 	mul	r2,r2,r19
 41035b0:	4010d43a 	srli	r8,r8,16
 41035b4:	38ffffcc 	andi	r3,r7,65535
 41035b8:	1105883a 	add	r2,r2,r4
 41035bc:	1008d43a 	srli	r4,r2,16
 41035c0:	44d1383a 	mul	r8,r8,r19
 41035c4:	198d883a 	add	r6,r3,r6
 41035c8:	10ffffcc 	andi	r3,r2,65535
 41035cc:	30c7c83a 	sub	r3,r6,r3
 41035d0:	380ed43a 	srli	r7,r7,16
 41035d4:	4105883a 	add	r2,r8,r4
 41035d8:	180dd43a 	srai	r6,r3,16
 41035dc:	113fffcc 	andi	r4,r2,65535
 41035e0:	390fc83a 	sub	r7,r7,r4
 41035e4:	398d883a 	add	r6,r7,r6
 41035e8:	300e943a 	slli	r7,r6,16
 41035ec:	18ffffcc 	andi	r3,r3,65535
 41035f0:	1008d43a 	srli	r4,r2,16
 41035f4:	38ceb03a 	or	r7,r7,r3
 41035f8:	49c00015 	stw	r7,0(r9)
 41035fc:	300dd43a 	srai	r6,r6,16
 4103600:	4a400104 	addi	r9,r9,4
 4103604:	a17fe52e 	bgeu	r20,r5,410359c <__ram_exceptions_end+0xfc0fb358>
 4103608:	b0800017 	ldw	r2,0(r22)
 410360c:	10000b1e 	bne	r2,zero,410363c <quorem+0x120>
 4103610:	b0bfff04 	addi	r2,r22,-4
 4103614:	a880082e 	bgeu	r21,r2,4103638 <quorem+0x11c>
 4103618:	b0ffff17 	ldw	r3,-4(r22)
 410361c:	18000326 	beq	r3,zero,410362c <quorem+0x110>
 4103620:	00000506 	br	4103638 <quorem+0x11c>
 4103624:	10c00017 	ldw	r3,0(r2)
 4103628:	1800031e 	bne	r3,zero,4103638 <quorem+0x11c>
 410362c:	10bfff04 	addi	r2,r2,-4
 4103630:	94bfffc4 	addi	r18,r18,-1
 4103634:	a8bffb36 	bltu	r21,r2,4103624 <__ram_exceptions_end+0xfc0fb3e0>
 4103638:	84800415 	stw	r18,16(r16)
 410363c:	b80b883a 	mov	r5,r23
 4103640:	8009883a 	mov	r4,r16
 4103644:	41060380 	call	4106038 <__mcmp>
 4103648:	10002616 	blt	r2,zero,41036e4 <quorem+0x1c8>
 410364c:	9cc00044 	addi	r19,r19,1
 4103650:	a805883a 	mov	r2,r21
 4103654:	000b883a 	mov	r5,zero
 4103658:	11000017 	ldw	r4,0(r2)
 410365c:	89800017 	ldw	r6,0(r17)
 4103660:	10800104 	addi	r2,r2,4
 4103664:	20ffffcc 	andi	r3,r4,65535
 4103668:	194b883a 	add	r5,r3,r5
 410366c:	30ffffcc 	andi	r3,r6,65535
 4103670:	28c7c83a 	sub	r3,r5,r3
 4103674:	300cd43a 	srli	r6,r6,16
 4103678:	2008d43a 	srli	r4,r4,16
 410367c:	180bd43a 	srai	r5,r3,16
 4103680:	18ffffcc 	andi	r3,r3,65535
 4103684:	2189c83a 	sub	r4,r4,r6
 4103688:	2149883a 	add	r4,r4,r5
 410368c:	200c943a 	slli	r6,r4,16
 4103690:	8c400104 	addi	r17,r17,4
 4103694:	200bd43a 	srai	r5,r4,16
 4103698:	30c6b03a 	or	r3,r6,r3
 410369c:	10ffff15 	stw	r3,-4(r2)
 41036a0:	a47fed2e 	bgeu	r20,r17,4103658 <__ram_exceptions_end+0xfc0fb414>
 41036a4:	9485883a 	add	r2,r18,r18
 41036a8:	1085883a 	add	r2,r2,r2
 41036ac:	a887883a 	add	r3,r21,r2
 41036b0:	18800017 	ldw	r2,0(r3)
 41036b4:	10000b1e 	bne	r2,zero,41036e4 <quorem+0x1c8>
 41036b8:	18bfff04 	addi	r2,r3,-4
 41036bc:	a880082e 	bgeu	r21,r2,41036e0 <quorem+0x1c4>
 41036c0:	18ffff17 	ldw	r3,-4(r3)
 41036c4:	18000326 	beq	r3,zero,41036d4 <quorem+0x1b8>
 41036c8:	00000506 	br	41036e0 <quorem+0x1c4>
 41036cc:	10c00017 	ldw	r3,0(r2)
 41036d0:	1800031e 	bne	r3,zero,41036e0 <quorem+0x1c4>
 41036d4:	10bfff04 	addi	r2,r2,-4
 41036d8:	94bfffc4 	addi	r18,r18,-1
 41036dc:	a8bffb36 	bltu	r21,r2,41036cc <__ram_exceptions_end+0xfc0fb488>
 41036e0:	84800415 	stw	r18,16(r16)
 41036e4:	9805883a 	mov	r2,r19
 41036e8:	dfc00817 	ldw	ra,32(sp)
 41036ec:	ddc00717 	ldw	r23,28(sp)
 41036f0:	dd800617 	ldw	r22,24(sp)
 41036f4:	dd400517 	ldw	r21,20(sp)
 41036f8:	dd000417 	ldw	r20,16(sp)
 41036fc:	dcc00317 	ldw	r19,12(sp)
 4103700:	dc800217 	ldw	r18,8(sp)
 4103704:	dc400117 	ldw	r17,4(sp)
 4103708:	dc000017 	ldw	r16,0(sp)
 410370c:	dec00904 	addi	sp,sp,36
 4103710:	f800283a 	ret
 4103714:	0005883a 	mov	r2,zero
 4103718:	003ff306 	br	41036e8 <__ram_exceptions_end+0xfc0fb4a4>

0410371c <_dtoa_r>:
 410371c:	20801017 	ldw	r2,64(r4)
 4103720:	deffde04 	addi	sp,sp,-136
 4103724:	df002015 	stw	fp,128(sp)
 4103728:	dcc01b15 	stw	r19,108(sp)
 410372c:	dc801a15 	stw	r18,104(sp)
 4103730:	dc401915 	stw	r17,100(sp)
 4103734:	dc001815 	stw	r16,96(sp)
 4103738:	dfc02115 	stw	ra,132(sp)
 410373c:	ddc01f15 	stw	r23,124(sp)
 4103740:	dd801e15 	stw	r22,120(sp)
 4103744:	dd401d15 	stw	r21,116(sp)
 4103748:	dd001c15 	stw	r20,112(sp)
 410374c:	d9c00315 	stw	r7,12(sp)
 4103750:	2039883a 	mov	fp,r4
 4103754:	3023883a 	mov	r17,r6
 4103758:	2825883a 	mov	r18,r5
 410375c:	dc002417 	ldw	r16,144(sp)
 4103760:	3027883a 	mov	r19,r6
 4103764:	10000826 	beq	r2,zero,4103788 <_dtoa_r+0x6c>
 4103768:	21801117 	ldw	r6,68(r4)
 410376c:	00c00044 	movi	r3,1
 4103770:	100b883a 	mov	r5,r2
 4103774:	1986983a 	sll	r3,r3,r6
 4103778:	11800115 	stw	r6,4(r2)
 410377c:	10c00215 	stw	r3,8(r2)
 4103780:	41058180 	call	4105818 <_Bfree>
 4103784:	e0001015 	stw	zero,64(fp)
 4103788:	88002e16 	blt	r17,zero,4103844 <_dtoa_r+0x128>
 410378c:	80000015 	stw	zero,0(r16)
 4103790:	889ffc2c 	andhi	r2,r17,32752
 4103794:	00dffc34 	movhi	r3,32752
 4103798:	10c01c26 	beq	r2,r3,410380c <_dtoa_r+0xf0>
 410379c:	000d883a 	mov	r6,zero
 41037a0:	000f883a 	mov	r7,zero
 41037a4:	9009883a 	mov	r4,r18
 41037a8:	980b883a 	mov	r5,r19
 41037ac:	410a6400 	call	410a640 <__eqdf2>
 41037b0:	10002b1e 	bne	r2,zero,4103860 <_dtoa_r+0x144>
 41037b4:	d9c02317 	ldw	r7,140(sp)
 41037b8:	00800044 	movi	r2,1
 41037bc:	38800015 	stw	r2,0(r7)
 41037c0:	d8802517 	ldw	r2,148(sp)
 41037c4:	10019e26 	beq	r2,zero,4103e40 <_dtoa_r+0x724>
 41037c8:	d8c02517 	ldw	r3,148(sp)
 41037cc:	00810474 	movhi	r2,1041
 41037d0:	10b83b44 	addi	r2,r2,-7955
 41037d4:	18800015 	stw	r2,0(r3)
 41037d8:	10bfffc4 	addi	r2,r2,-1
 41037dc:	dfc02117 	ldw	ra,132(sp)
 41037e0:	df002017 	ldw	fp,128(sp)
 41037e4:	ddc01f17 	ldw	r23,124(sp)
 41037e8:	dd801e17 	ldw	r22,120(sp)
 41037ec:	dd401d17 	ldw	r21,116(sp)
 41037f0:	dd001c17 	ldw	r20,112(sp)
 41037f4:	dcc01b17 	ldw	r19,108(sp)
 41037f8:	dc801a17 	ldw	r18,104(sp)
 41037fc:	dc401917 	ldw	r17,100(sp)
 4103800:	dc001817 	ldw	r16,96(sp)
 4103804:	dec02204 	addi	sp,sp,136
 4103808:	f800283a 	ret
 410380c:	d8c02317 	ldw	r3,140(sp)
 4103810:	0089c3c4 	movi	r2,9999
 4103814:	18800015 	stw	r2,0(r3)
 4103818:	90017726 	beq	r18,zero,4103df8 <_dtoa_r+0x6dc>
 410381c:	00810474 	movhi	r2,1041
 4103820:	10b84704 	addi	r2,r2,-7908
 4103824:	d9002517 	ldw	r4,148(sp)
 4103828:	203fec26 	beq	r4,zero,41037dc <__ram_exceptions_end+0xfc0fb598>
 410382c:	10c000c7 	ldb	r3,3(r2)
 4103830:	1801781e 	bne	r3,zero,4103e14 <_dtoa_r+0x6f8>
 4103834:	10c000c4 	addi	r3,r2,3
 4103838:	d9802517 	ldw	r6,148(sp)
 410383c:	30c00015 	stw	r3,0(r6)
 4103840:	003fe606 	br	41037dc <__ram_exceptions_end+0xfc0fb598>
 4103844:	04e00034 	movhi	r19,32768
 4103848:	9cffffc4 	addi	r19,r19,-1
 410384c:	00800044 	movi	r2,1
 4103850:	8ce6703a 	and	r19,r17,r19
 4103854:	80800015 	stw	r2,0(r16)
 4103858:	9823883a 	mov	r17,r19
 410385c:	003fcc06 	br	4103790 <__ram_exceptions_end+0xfc0fb54c>
 4103860:	d8800204 	addi	r2,sp,8
 4103864:	d8800015 	stw	r2,0(sp)
 4103868:	d9c00104 	addi	r7,sp,4
 410386c:	900b883a 	mov	r5,r18
 4103870:	980d883a 	mov	r6,r19
 4103874:	e009883a 	mov	r4,fp
 4103878:	8820d53a 	srli	r16,r17,20
 410387c:	41064040 	call	4106404 <__d2b>
 4103880:	d8800915 	stw	r2,36(sp)
 4103884:	8001651e 	bne	r16,zero,4103e1c <_dtoa_r+0x700>
 4103888:	dd800217 	ldw	r22,8(sp)
 410388c:	dc000117 	ldw	r16,4(sp)
 4103890:	00800804 	movi	r2,32
 4103894:	b421883a 	add	r16,r22,r16
 4103898:	80c10c84 	addi	r3,r16,1074
 410389c:	10c2d10e 	bge	r2,r3,41043e4 <_dtoa_r+0xcc8>
 41038a0:	00801004 	movi	r2,64
 41038a4:	81010484 	addi	r4,r16,1042
 41038a8:	10c7c83a 	sub	r3,r2,r3
 41038ac:	9108d83a 	srl	r4,r18,r4
 41038b0:	88e2983a 	sll	r17,r17,r3
 41038b4:	2448b03a 	or	r4,r4,r17
 41038b8:	410ba080 	call	410ba08 <__floatunsidf>
 41038bc:	017f8434 	movhi	r5,65040
 41038c0:	01800044 	movi	r6,1
 41038c4:	1009883a 	mov	r4,r2
 41038c8:	194b883a 	add	r5,r3,r5
 41038cc:	843fffc4 	addi	r16,r16,-1
 41038d0:	d9801115 	stw	r6,68(sp)
 41038d4:	000d883a 	mov	r6,zero
 41038d8:	01cffe34 	movhi	r7,16376
 41038dc:	410afb00 	call	410afb0 <__subdf3>
 41038e0:	0198dbf4 	movhi	r6,25455
 41038e4:	01cff4f4 	movhi	r7,16339
 41038e8:	3190d844 	addi	r6,r6,17249
 41038ec:	39e1e9c4 	addi	r7,r7,-30809
 41038f0:	1009883a 	mov	r4,r2
 41038f4:	180b883a 	mov	r5,r3
 41038f8:	410a8980 	call	410a898 <__muldf3>
 41038fc:	01a2d874 	movhi	r6,35681
 4103900:	01cff1f4 	movhi	r7,16327
 4103904:	31b22cc4 	addi	r6,r6,-14157
 4103908:	39e28a04 	addi	r7,r7,-30168
 410390c:	180b883a 	mov	r5,r3
 4103910:	1009883a 	mov	r4,r2
 4103914:	41094ac0 	call	41094ac <__adddf3>
 4103918:	8009883a 	mov	r4,r16
 410391c:	1029883a 	mov	r20,r2
 4103920:	1823883a 	mov	r17,r3
 4103924:	410b92c0 	call	410b92c <__floatsidf>
 4103928:	019427f4 	movhi	r6,20639
 410392c:	01cff4f4 	movhi	r7,16339
 4103930:	319e7ec4 	addi	r6,r6,31227
 4103934:	39d104c4 	addi	r7,r7,17427
 4103938:	1009883a 	mov	r4,r2
 410393c:	180b883a 	mov	r5,r3
 4103940:	410a8980 	call	410a898 <__muldf3>
 4103944:	100d883a 	mov	r6,r2
 4103948:	180f883a 	mov	r7,r3
 410394c:	a009883a 	mov	r4,r20
 4103950:	880b883a 	mov	r5,r17
 4103954:	41094ac0 	call	41094ac <__adddf3>
 4103958:	1009883a 	mov	r4,r2
 410395c:	180b883a 	mov	r5,r3
 4103960:	1029883a 	mov	r20,r2
 4103964:	1823883a 	mov	r17,r3
 4103968:	410b8ac0 	call	410b8ac <__fixdfsi>
 410396c:	000d883a 	mov	r6,zero
 4103970:	000f883a 	mov	r7,zero
 4103974:	a009883a 	mov	r4,r20
 4103978:	880b883a 	mov	r5,r17
 410397c:	d8800515 	stw	r2,20(sp)
 4103980:	410a7a40 	call	410a7a4 <__ledf2>
 4103984:	10028716 	blt	r2,zero,41043a4 <_dtoa_r+0xc88>
 4103988:	d8c00517 	ldw	r3,20(sp)
 410398c:	00800584 	movi	r2,22
 4103990:	10c27536 	bltu	r2,r3,4104368 <_dtoa_r+0xc4c>
 4103994:	180490fa 	slli	r2,r3,3
 4103998:	00c10474 	movhi	r3,1041
 410399c:	18f86304 	addi	r3,r3,-7796
 41039a0:	1885883a 	add	r2,r3,r2
 41039a4:	11000017 	ldw	r4,0(r2)
 41039a8:	11400117 	ldw	r5,4(r2)
 41039ac:	900d883a 	mov	r6,r18
 41039b0:	980f883a 	mov	r7,r19
 41039b4:	410a6c80 	call	410a6c8 <__gedf2>
 41039b8:	00828d0e 	bge	zero,r2,41043f0 <_dtoa_r+0xcd4>
 41039bc:	d9000517 	ldw	r4,20(sp)
 41039c0:	d8000e15 	stw	zero,56(sp)
 41039c4:	213fffc4 	addi	r4,r4,-1
 41039c8:	d9000515 	stw	r4,20(sp)
 41039cc:	b42dc83a 	sub	r22,r22,r16
 41039d0:	b5bfffc4 	addi	r22,r22,-1
 41039d4:	b0026f16 	blt	r22,zero,4104394 <_dtoa_r+0xc78>
 41039d8:	d8000815 	stw	zero,32(sp)
 41039dc:	d9c00517 	ldw	r7,20(sp)
 41039e0:	38026416 	blt	r7,zero,4104374 <_dtoa_r+0xc58>
 41039e4:	b1ed883a 	add	r22,r22,r7
 41039e8:	d9c00d15 	stw	r7,52(sp)
 41039ec:	d8000a15 	stw	zero,40(sp)
 41039f0:	d9800317 	ldw	r6,12(sp)
 41039f4:	00800244 	movi	r2,9
 41039f8:	11811436 	bltu	r2,r6,4103e4c <_dtoa_r+0x730>
 41039fc:	00800144 	movi	r2,5
 4103a00:	1184e10e 	bge	r2,r6,4104d88 <_dtoa_r+0x166c>
 4103a04:	31bfff04 	addi	r6,r6,-4
 4103a08:	d9800315 	stw	r6,12(sp)
 4103a0c:	0023883a 	mov	r17,zero
 4103a10:	d9800317 	ldw	r6,12(sp)
 4103a14:	008000c4 	movi	r2,3
 4103a18:	30836726 	beq	r6,r2,41047b8 <_dtoa_r+0x109c>
 4103a1c:	1183410e 	bge	r2,r6,4104724 <_dtoa_r+0x1008>
 4103a20:	d9c00317 	ldw	r7,12(sp)
 4103a24:	00800104 	movi	r2,4
 4103a28:	38827c26 	beq	r7,r2,410441c <_dtoa_r+0xd00>
 4103a2c:	00800144 	movi	r2,5
 4103a30:	3884c41e 	bne	r7,r2,4104d44 <_dtoa_r+0x1628>
 4103a34:	00800044 	movi	r2,1
 4103a38:	d8800b15 	stw	r2,44(sp)
 4103a3c:	d8c00517 	ldw	r3,20(sp)
 4103a40:	d9002217 	ldw	r4,136(sp)
 4103a44:	1907883a 	add	r3,r3,r4
 4103a48:	19800044 	addi	r6,r3,1
 4103a4c:	d8c00c15 	stw	r3,48(sp)
 4103a50:	d9800615 	stw	r6,24(sp)
 4103a54:	0183a40e 	bge	zero,r6,41048e8 <_dtoa_r+0x11cc>
 4103a58:	d9800617 	ldw	r6,24(sp)
 4103a5c:	3021883a 	mov	r16,r6
 4103a60:	e0001115 	stw	zero,68(fp)
 4103a64:	008005c4 	movi	r2,23
 4103a68:	1184c92e 	bgeu	r2,r6,4104d90 <_dtoa_r+0x1674>
 4103a6c:	00c00044 	movi	r3,1
 4103a70:	00800104 	movi	r2,4
 4103a74:	1085883a 	add	r2,r2,r2
 4103a78:	11000504 	addi	r4,r2,20
 4103a7c:	180b883a 	mov	r5,r3
 4103a80:	18c00044 	addi	r3,r3,1
 4103a84:	313ffb2e 	bgeu	r6,r4,4103a74 <__ram_exceptions_end+0xfc0fb830>
 4103a88:	e1401115 	stw	r5,68(fp)
 4103a8c:	e009883a 	mov	r4,fp
 4103a90:	41057700 	call	4105770 <_Balloc>
 4103a94:	d8800715 	stw	r2,28(sp)
 4103a98:	e0801015 	stw	r2,64(fp)
 4103a9c:	00800384 	movi	r2,14
 4103aa0:	1400f736 	bltu	r2,r16,4103e80 <_dtoa_r+0x764>
 4103aa4:	8800f626 	beq	r17,zero,4103e80 <_dtoa_r+0x764>
 4103aa8:	d9c00517 	ldw	r7,20(sp)
 4103aac:	01c39a0e 	bge	zero,r7,4104918 <_dtoa_r+0x11fc>
 4103ab0:	388003cc 	andi	r2,r7,15
 4103ab4:	100490fa 	slli	r2,r2,3
 4103ab8:	382bd13a 	srai	r21,r7,4
 4103abc:	00c10474 	movhi	r3,1041
 4103ac0:	18f86304 	addi	r3,r3,-7796
 4103ac4:	1885883a 	add	r2,r3,r2
 4103ac8:	a8c0040c 	andi	r3,r21,16
 4103acc:	12400017 	ldw	r9,0(r2)
 4103ad0:	12000117 	ldw	r8,4(r2)
 4103ad4:	18037926 	beq	r3,zero,41048bc <_dtoa_r+0x11a0>
 4103ad8:	00810474 	movhi	r2,1041
 4103adc:	10b85904 	addi	r2,r2,-7836
 4103ae0:	11800817 	ldw	r6,32(r2)
 4103ae4:	11c00917 	ldw	r7,36(r2)
 4103ae8:	9009883a 	mov	r4,r18
 4103aec:	980b883a 	mov	r5,r19
 4103af0:	da001715 	stw	r8,92(sp)
 4103af4:	da401615 	stw	r9,88(sp)
 4103af8:	4109d580 	call	4109d58 <__divdf3>
 4103afc:	da001717 	ldw	r8,92(sp)
 4103b00:	da401617 	ldw	r9,88(sp)
 4103b04:	ad4003cc 	andi	r21,r21,15
 4103b08:	040000c4 	movi	r16,3
 4103b0c:	1023883a 	mov	r17,r2
 4103b10:	1829883a 	mov	r20,r3
 4103b14:	a8001126 	beq	r21,zero,4103b5c <_dtoa_r+0x440>
 4103b18:	05c10474 	movhi	r23,1041
 4103b1c:	bdf85904 	addi	r23,r23,-7836
 4103b20:	4805883a 	mov	r2,r9
 4103b24:	4007883a 	mov	r3,r8
 4103b28:	a980004c 	andi	r6,r21,1
 4103b2c:	1009883a 	mov	r4,r2
 4103b30:	a82bd07a 	srai	r21,r21,1
 4103b34:	180b883a 	mov	r5,r3
 4103b38:	30000426 	beq	r6,zero,4103b4c <_dtoa_r+0x430>
 4103b3c:	b9800017 	ldw	r6,0(r23)
 4103b40:	b9c00117 	ldw	r7,4(r23)
 4103b44:	84000044 	addi	r16,r16,1
 4103b48:	410a8980 	call	410a898 <__muldf3>
 4103b4c:	bdc00204 	addi	r23,r23,8
 4103b50:	a83ff51e 	bne	r21,zero,4103b28 <__ram_exceptions_end+0xfc0fb8e4>
 4103b54:	1013883a 	mov	r9,r2
 4103b58:	1811883a 	mov	r8,r3
 4103b5c:	480d883a 	mov	r6,r9
 4103b60:	400f883a 	mov	r7,r8
 4103b64:	8809883a 	mov	r4,r17
 4103b68:	a00b883a 	mov	r5,r20
 4103b6c:	4109d580 	call	4109d58 <__divdf3>
 4103b70:	d8800f15 	stw	r2,60(sp)
 4103b74:	d8c01015 	stw	r3,64(sp)
 4103b78:	d8c00e17 	ldw	r3,56(sp)
 4103b7c:	18000626 	beq	r3,zero,4103b98 <_dtoa_r+0x47c>
 4103b80:	d9000f17 	ldw	r4,60(sp)
 4103b84:	d9401017 	ldw	r5,64(sp)
 4103b88:	000d883a 	mov	r6,zero
 4103b8c:	01cffc34 	movhi	r7,16368
 4103b90:	410a7a40 	call	410a7a4 <__ledf2>
 4103b94:	10040b16 	blt	r2,zero,4104bc4 <_dtoa_r+0x14a8>
 4103b98:	8009883a 	mov	r4,r16
 4103b9c:	410b92c0 	call	410b92c <__floatsidf>
 4103ba0:	d9800f17 	ldw	r6,60(sp)
 4103ba4:	d9c01017 	ldw	r7,64(sp)
 4103ba8:	1009883a 	mov	r4,r2
 4103bac:	180b883a 	mov	r5,r3
 4103bb0:	410a8980 	call	410a898 <__muldf3>
 4103bb4:	000d883a 	mov	r6,zero
 4103bb8:	01d00734 	movhi	r7,16412
 4103bbc:	1009883a 	mov	r4,r2
 4103bc0:	180b883a 	mov	r5,r3
 4103bc4:	41094ac0 	call	41094ac <__adddf3>
 4103bc8:	1021883a 	mov	r16,r2
 4103bcc:	d8800617 	ldw	r2,24(sp)
 4103bd0:	047f3034 	movhi	r17,64704
 4103bd4:	1c63883a 	add	r17,r3,r17
 4103bd8:	10031826 	beq	r2,zero,410483c <_dtoa_r+0x1120>
 4103bdc:	d8c00517 	ldw	r3,20(sp)
 4103be0:	db000617 	ldw	r12,24(sp)
 4103be4:	d8c01315 	stw	r3,76(sp)
 4103be8:	d9000b17 	ldw	r4,44(sp)
 4103bec:	20038f26 	beq	r4,zero,4104a2c <_dtoa_r+0x1310>
 4103bf0:	60bfffc4 	addi	r2,r12,-1
 4103bf4:	100490fa 	slli	r2,r2,3
 4103bf8:	00c10474 	movhi	r3,1041
 4103bfc:	18f86304 	addi	r3,r3,-7796
 4103c00:	1885883a 	add	r2,r3,r2
 4103c04:	11800017 	ldw	r6,0(r2)
 4103c08:	11c00117 	ldw	r7,4(r2)
 4103c0c:	d8800717 	ldw	r2,28(sp)
 4103c10:	0009883a 	mov	r4,zero
 4103c14:	014ff834 	movhi	r5,16352
 4103c18:	db001615 	stw	r12,88(sp)
 4103c1c:	15c00044 	addi	r23,r2,1
 4103c20:	4109d580 	call	4109d58 <__divdf3>
 4103c24:	800d883a 	mov	r6,r16
 4103c28:	880f883a 	mov	r7,r17
 4103c2c:	1009883a 	mov	r4,r2
 4103c30:	180b883a 	mov	r5,r3
 4103c34:	410afb00 	call	410afb0 <__subdf3>
 4103c38:	d9401017 	ldw	r5,64(sp)
 4103c3c:	d9000f17 	ldw	r4,60(sp)
 4103c40:	102b883a 	mov	r21,r2
 4103c44:	d8c01215 	stw	r3,72(sp)
 4103c48:	410b8ac0 	call	410b8ac <__fixdfsi>
 4103c4c:	1009883a 	mov	r4,r2
 4103c50:	1029883a 	mov	r20,r2
 4103c54:	410b92c0 	call	410b92c <__floatsidf>
 4103c58:	d9000f17 	ldw	r4,60(sp)
 4103c5c:	d9401017 	ldw	r5,64(sp)
 4103c60:	100d883a 	mov	r6,r2
 4103c64:	180f883a 	mov	r7,r3
 4103c68:	410afb00 	call	410afb0 <__subdf3>
 4103c6c:	1823883a 	mov	r17,r3
 4103c70:	d8c00717 	ldw	r3,28(sp)
 4103c74:	d9401217 	ldw	r5,72(sp)
 4103c78:	a2000c04 	addi	r8,r20,48
 4103c7c:	1021883a 	mov	r16,r2
 4103c80:	1a000005 	stb	r8,0(r3)
 4103c84:	800d883a 	mov	r6,r16
 4103c88:	880f883a 	mov	r7,r17
 4103c8c:	a809883a 	mov	r4,r21
 4103c90:	4029883a 	mov	r20,r8
 4103c94:	410a6c80 	call	410a6c8 <__gedf2>
 4103c98:	00841d16 	blt	zero,r2,4104d10 <_dtoa_r+0x15f4>
 4103c9c:	800d883a 	mov	r6,r16
 4103ca0:	880f883a 	mov	r7,r17
 4103ca4:	0009883a 	mov	r4,zero
 4103ca8:	014ffc34 	movhi	r5,16368
 4103cac:	410afb00 	call	410afb0 <__subdf3>
 4103cb0:	d9401217 	ldw	r5,72(sp)
 4103cb4:	100d883a 	mov	r6,r2
 4103cb8:	180f883a 	mov	r7,r3
 4103cbc:	a809883a 	mov	r4,r21
 4103cc0:	410a6c80 	call	410a6c8 <__gedf2>
 4103cc4:	db001617 	ldw	r12,88(sp)
 4103cc8:	00840e16 	blt	zero,r2,4104d04 <_dtoa_r+0x15e8>
 4103ccc:	00800044 	movi	r2,1
 4103cd0:	13006b0e 	bge	r2,r12,4103e80 <_dtoa_r+0x764>
 4103cd4:	d9000717 	ldw	r4,28(sp)
 4103cd8:	dd800f15 	stw	r22,60(sp)
 4103cdc:	dcc01015 	stw	r19,64(sp)
 4103ce0:	2319883a 	add	r12,r4,r12
 4103ce4:	dcc01217 	ldw	r19,72(sp)
 4103ce8:	602d883a 	mov	r22,r12
 4103cec:	dc801215 	stw	r18,72(sp)
 4103cf0:	b825883a 	mov	r18,r23
 4103cf4:	00000906 	br	4103d1c <_dtoa_r+0x600>
 4103cf8:	410afb00 	call	410afb0 <__subdf3>
 4103cfc:	a80d883a 	mov	r6,r21
 4103d00:	980f883a 	mov	r7,r19
 4103d04:	1009883a 	mov	r4,r2
 4103d08:	180b883a 	mov	r5,r3
 4103d0c:	410a7a40 	call	410a7a4 <__ledf2>
 4103d10:	1003e816 	blt	r2,zero,4104cb4 <_dtoa_r+0x1598>
 4103d14:	b825883a 	mov	r18,r23
 4103d18:	bd83e926 	beq	r23,r22,4104cc0 <_dtoa_r+0x15a4>
 4103d1c:	a809883a 	mov	r4,r21
 4103d20:	980b883a 	mov	r5,r19
 4103d24:	000d883a 	mov	r6,zero
 4103d28:	01d00934 	movhi	r7,16420
 4103d2c:	410a8980 	call	410a898 <__muldf3>
 4103d30:	000d883a 	mov	r6,zero
 4103d34:	01d00934 	movhi	r7,16420
 4103d38:	8009883a 	mov	r4,r16
 4103d3c:	880b883a 	mov	r5,r17
 4103d40:	102b883a 	mov	r21,r2
 4103d44:	1827883a 	mov	r19,r3
 4103d48:	410a8980 	call	410a898 <__muldf3>
 4103d4c:	180b883a 	mov	r5,r3
 4103d50:	1009883a 	mov	r4,r2
 4103d54:	1821883a 	mov	r16,r3
 4103d58:	1023883a 	mov	r17,r2
 4103d5c:	410b8ac0 	call	410b8ac <__fixdfsi>
 4103d60:	1009883a 	mov	r4,r2
 4103d64:	1029883a 	mov	r20,r2
 4103d68:	410b92c0 	call	410b92c <__floatsidf>
 4103d6c:	8809883a 	mov	r4,r17
 4103d70:	800b883a 	mov	r5,r16
 4103d74:	100d883a 	mov	r6,r2
 4103d78:	180f883a 	mov	r7,r3
 4103d7c:	410afb00 	call	410afb0 <__subdf3>
 4103d80:	a5000c04 	addi	r20,r20,48
 4103d84:	a80d883a 	mov	r6,r21
 4103d88:	980f883a 	mov	r7,r19
 4103d8c:	1009883a 	mov	r4,r2
 4103d90:	180b883a 	mov	r5,r3
 4103d94:	95000005 	stb	r20,0(r18)
 4103d98:	1021883a 	mov	r16,r2
 4103d9c:	1823883a 	mov	r17,r3
 4103da0:	410a7a40 	call	410a7a4 <__ledf2>
 4103da4:	bdc00044 	addi	r23,r23,1
 4103da8:	800d883a 	mov	r6,r16
 4103dac:	880f883a 	mov	r7,r17
 4103db0:	0009883a 	mov	r4,zero
 4103db4:	014ffc34 	movhi	r5,16368
 4103db8:	103fcf0e 	bge	r2,zero,4103cf8 <__ram_exceptions_end+0xfc0fbab4>
 4103dbc:	d8c01317 	ldw	r3,76(sp)
 4103dc0:	d8c00515 	stw	r3,20(sp)
 4103dc4:	d9400917 	ldw	r5,36(sp)
 4103dc8:	e009883a 	mov	r4,fp
 4103dcc:	41058180 	call	4105818 <_Bfree>
 4103dd0:	d9000517 	ldw	r4,20(sp)
 4103dd4:	d9802317 	ldw	r6,140(sp)
 4103dd8:	d9c02517 	ldw	r7,148(sp)
 4103ddc:	b8000005 	stb	zero,0(r23)
 4103de0:	20800044 	addi	r2,r4,1
 4103de4:	30800015 	stw	r2,0(r6)
 4103de8:	3802aa26 	beq	r7,zero,4104894 <_dtoa_r+0x1178>
 4103dec:	3dc00015 	stw	r23,0(r7)
 4103df0:	d8800717 	ldw	r2,28(sp)
 4103df4:	003e7906 	br	41037dc <__ram_exceptions_end+0xfc0fb598>
 4103df8:	00800434 	movhi	r2,16
 4103dfc:	10bfffc4 	addi	r2,r2,-1
 4103e00:	88a2703a 	and	r17,r17,r2
 4103e04:	883e851e 	bne	r17,zero,410381c <__ram_exceptions_end+0xfc0fb5d8>
 4103e08:	00810474 	movhi	r2,1041
 4103e0c:	10b84404 	addi	r2,r2,-7920
 4103e10:	003e8406 	br	4103824 <__ram_exceptions_end+0xfc0fb5e0>
 4103e14:	10c00204 	addi	r3,r2,8
 4103e18:	003e8706 	br	4103838 <__ram_exceptions_end+0xfc0fb5f4>
 4103e1c:	01400434 	movhi	r5,16
 4103e20:	297fffc4 	addi	r5,r5,-1
 4103e24:	994a703a 	and	r5,r19,r5
 4103e28:	9009883a 	mov	r4,r18
 4103e2c:	843f0044 	addi	r16,r16,-1023
 4103e30:	294ffc34 	orhi	r5,r5,16368
 4103e34:	dd800217 	ldw	r22,8(sp)
 4103e38:	d8001115 	stw	zero,68(sp)
 4103e3c:	003ea506 	br	41038d4 <__ram_exceptions_end+0xfc0fb690>
 4103e40:	00810474 	movhi	r2,1041
 4103e44:	10b83b04 	addi	r2,r2,-7956
 4103e48:	003e6406 	br	41037dc <__ram_exceptions_end+0xfc0fb598>
 4103e4c:	e0001115 	stw	zero,68(fp)
 4103e50:	000b883a 	mov	r5,zero
 4103e54:	e009883a 	mov	r4,fp
 4103e58:	41057700 	call	4105770 <_Balloc>
 4103e5c:	01bfffc4 	movi	r6,-1
 4103e60:	01c00044 	movi	r7,1
 4103e64:	d8800715 	stw	r2,28(sp)
 4103e68:	d9800c15 	stw	r6,48(sp)
 4103e6c:	e0801015 	stw	r2,64(fp)
 4103e70:	d8000315 	stw	zero,12(sp)
 4103e74:	d9c00b15 	stw	r7,44(sp)
 4103e78:	d9800615 	stw	r6,24(sp)
 4103e7c:	d8002215 	stw	zero,136(sp)
 4103e80:	d8800117 	ldw	r2,4(sp)
 4103e84:	10008916 	blt	r2,zero,41040ac <_dtoa_r+0x990>
 4103e88:	d9000517 	ldw	r4,20(sp)
 4103e8c:	00c00384 	movi	r3,14
 4103e90:	19008616 	blt	r3,r4,41040ac <_dtoa_r+0x990>
 4103e94:	200490fa 	slli	r2,r4,3
 4103e98:	00c10474 	movhi	r3,1041
 4103e9c:	d9802217 	ldw	r6,136(sp)
 4103ea0:	18f86304 	addi	r3,r3,-7796
 4103ea4:	1885883a 	add	r2,r3,r2
 4103ea8:	14000017 	ldw	r16,0(r2)
 4103eac:	14400117 	ldw	r17,4(r2)
 4103eb0:	30016316 	blt	r6,zero,4104440 <_dtoa_r+0xd24>
 4103eb4:	800d883a 	mov	r6,r16
 4103eb8:	880f883a 	mov	r7,r17
 4103ebc:	9009883a 	mov	r4,r18
 4103ec0:	980b883a 	mov	r5,r19
 4103ec4:	4109d580 	call	4109d58 <__divdf3>
 4103ec8:	180b883a 	mov	r5,r3
 4103ecc:	1009883a 	mov	r4,r2
 4103ed0:	410b8ac0 	call	410b8ac <__fixdfsi>
 4103ed4:	1009883a 	mov	r4,r2
 4103ed8:	102b883a 	mov	r21,r2
 4103edc:	410b92c0 	call	410b92c <__floatsidf>
 4103ee0:	800d883a 	mov	r6,r16
 4103ee4:	880f883a 	mov	r7,r17
 4103ee8:	1009883a 	mov	r4,r2
 4103eec:	180b883a 	mov	r5,r3
 4103ef0:	410a8980 	call	410a898 <__muldf3>
 4103ef4:	100d883a 	mov	r6,r2
 4103ef8:	180f883a 	mov	r7,r3
 4103efc:	9009883a 	mov	r4,r18
 4103f00:	980b883a 	mov	r5,r19
 4103f04:	410afb00 	call	410afb0 <__subdf3>
 4103f08:	d9c00717 	ldw	r7,28(sp)
 4103f0c:	1009883a 	mov	r4,r2
 4103f10:	a8800c04 	addi	r2,r21,48
 4103f14:	38800005 	stb	r2,0(r7)
 4103f18:	3dc00044 	addi	r23,r7,1
 4103f1c:	d9c00617 	ldw	r7,24(sp)
 4103f20:	01800044 	movi	r6,1
 4103f24:	180b883a 	mov	r5,r3
 4103f28:	2005883a 	mov	r2,r4
 4103f2c:	39803826 	beq	r7,r6,4104010 <_dtoa_r+0x8f4>
 4103f30:	000d883a 	mov	r6,zero
 4103f34:	01d00934 	movhi	r7,16420
 4103f38:	410a8980 	call	410a898 <__muldf3>
 4103f3c:	000d883a 	mov	r6,zero
 4103f40:	000f883a 	mov	r7,zero
 4103f44:	1009883a 	mov	r4,r2
 4103f48:	180b883a 	mov	r5,r3
 4103f4c:	1025883a 	mov	r18,r2
 4103f50:	1827883a 	mov	r19,r3
 4103f54:	410a6400 	call	410a640 <__eqdf2>
 4103f58:	103f9a26 	beq	r2,zero,4103dc4 <__ram_exceptions_end+0xfc0fbb80>
 4103f5c:	d9c00617 	ldw	r7,24(sp)
 4103f60:	d8c00717 	ldw	r3,28(sp)
 4103f64:	b829883a 	mov	r20,r23
 4103f68:	38bfffc4 	addi	r2,r7,-1
 4103f6c:	18ad883a 	add	r22,r3,r2
 4103f70:	00000a06 	br	4103f9c <_dtoa_r+0x880>
 4103f74:	410a8980 	call	410a898 <__muldf3>
 4103f78:	000d883a 	mov	r6,zero
 4103f7c:	000f883a 	mov	r7,zero
 4103f80:	1009883a 	mov	r4,r2
 4103f84:	180b883a 	mov	r5,r3
 4103f88:	1025883a 	mov	r18,r2
 4103f8c:	1827883a 	mov	r19,r3
 4103f90:	b829883a 	mov	r20,r23
 4103f94:	410a6400 	call	410a640 <__eqdf2>
 4103f98:	103f8a26 	beq	r2,zero,4103dc4 <__ram_exceptions_end+0xfc0fbb80>
 4103f9c:	800d883a 	mov	r6,r16
 4103fa0:	880f883a 	mov	r7,r17
 4103fa4:	9009883a 	mov	r4,r18
 4103fa8:	980b883a 	mov	r5,r19
 4103fac:	4109d580 	call	4109d58 <__divdf3>
 4103fb0:	180b883a 	mov	r5,r3
 4103fb4:	1009883a 	mov	r4,r2
 4103fb8:	410b8ac0 	call	410b8ac <__fixdfsi>
 4103fbc:	1009883a 	mov	r4,r2
 4103fc0:	102b883a 	mov	r21,r2
 4103fc4:	410b92c0 	call	410b92c <__floatsidf>
 4103fc8:	800d883a 	mov	r6,r16
 4103fcc:	880f883a 	mov	r7,r17
 4103fd0:	1009883a 	mov	r4,r2
 4103fd4:	180b883a 	mov	r5,r3
 4103fd8:	410a8980 	call	410a898 <__muldf3>
 4103fdc:	100d883a 	mov	r6,r2
 4103fe0:	180f883a 	mov	r7,r3
 4103fe4:	9009883a 	mov	r4,r18
 4103fe8:	980b883a 	mov	r5,r19
 4103fec:	410afb00 	call	410afb0 <__subdf3>
 4103ff0:	aa000c04 	addi	r8,r21,48
 4103ff4:	a2000005 	stb	r8,0(r20)
 4103ff8:	000d883a 	mov	r6,zero
 4103ffc:	01d00934 	movhi	r7,16420
 4104000:	1009883a 	mov	r4,r2
 4104004:	180b883a 	mov	r5,r3
 4104008:	a5c00044 	addi	r23,r20,1
 410400c:	b53fd91e 	bne	r22,r20,4103f74 <__ram_exceptions_end+0xfc0fbd30>
 4104010:	100d883a 	mov	r6,r2
 4104014:	180f883a 	mov	r7,r3
 4104018:	1009883a 	mov	r4,r2
 410401c:	180b883a 	mov	r5,r3
 4104020:	41094ac0 	call	41094ac <__adddf3>
 4104024:	100d883a 	mov	r6,r2
 4104028:	180f883a 	mov	r7,r3
 410402c:	8009883a 	mov	r4,r16
 4104030:	880b883a 	mov	r5,r17
 4104034:	1027883a 	mov	r19,r2
 4104038:	1825883a 	mov	r18,r3
 410403c:	410a7a40 	call	410a7a4 <__ledf2>
 4104040:	10000816 	blt	r2,zero,4104064 <_dtoa_r+0x948>
 4104044:	980d883a 	mov	r6,r19
 4104048:	900f883a 	mov	r7,r18
 410404c:	8009883a 	mov	r4,r16
 4104050:	880b883a 	mov	r5,r17
 4104054:	410a6400 	call	410a640 <__eqdf2>
 4104058:	103f5a1e 	bne	r2,zero,4103dc4 <__ram_exceptions_end+0xfc0fbb80>
 410405c:	ad40004c 	andi	r21,r21,1
 4104060:	a83f5826 	beq	r21,zero,4103dc4 <__ram_exceptions_end+0xfc0fbb80>
 4104064:	bd3fffc3 	ldbu	r20,-1(r23)
 4104068:	b8bfffc4 	addi	r2,r23,-1
 410406c:	1007883a 	mov	r3,r2
 4104070:	01400e44 	movi	r5,57
 4104074:	d9800717 	ldw	r6,28(sp)
 4104078:	00000506 	br	4104090 <_dtoa_r+0x974>
 410407c:	18ffffc4 	addi	r3,r3,-1
 4104080:	11824726 	beq	r2,r6,41049a0 <_dtoa_r+0x1284>
 4104084:	1d000003 	ldbu	r20,0(r3)
 4104088:	102f883a 	mov	r23,r2
 410408c:	10bfffc4 	addi	r2,r2,-1
 4104090:	a1003fcc 	andi	r4,r20,255
 4104094:	2100201c 	xori	r4,r4,128
 4104098:	213fe004 	addi	r4,r4,-128
 410409c:	217ff726 	beq	r4,r5,410407c <__ram_exceptions_end+0xfc0fbe38>
 41040a0:	a2000044 	addi	r8,r20,1
 41040a4:	12000005 	stb	r8,0(r2)
 41040a8:	003f4606 	br	4103dc4 <__ram_exceptions_end+0xfc0fbb80>
 41040ac:	d9000b17 	ldw	r4,44(sp)
 41040b0:	2000c826 	beq	r4,zero,41043d4 <_dtoa_r+0xcb8>
 41040b4:	d9800317 	ldw	r6,12(sp)
 41040b8:	00c00044 	movi	r3,1
 41040bc:	1980f90e 	bge	r3,r6,41044a4 <_dtoa_r+0xd88>
 41040c0:	d8800617 	ldw	r2,24(sp)
 41040c4:	d8c00a17 	ldw	r3,40(sp)
 41040c8:	157fffc4 	addi	r21,r2,-1
 41040cc:	1d41f316 	blt	r3,r21,410489c <_dtoa_r+0x1180>
 41040d0:	1d6bc83a 	sub	r21,r3,r21
 41040d4:	d9c00617 	ldw	r7,24(sp)
 41040d8:	3802aa16 	blt	r7,zero,4104b84 <_dtoa_r+0x1468>
 41040dc:	dd000817 	ldw	r20,32(sp)
 41040e0:	d8800617 	ldw	r2,24(sp)
 41040e4:	d8c00817 	ldw	r3,32(sp)
 41040e8:	01400044 	movi	r5,1
 41040ec:	e009883a 	mov	r4,fp
 41040f0:	1887883a 	add	r3,r3,r2
 41040f4:	d8c00815 	stw	r3,32(sp)
 41040f8:	b0ad883a 	add	r22,r22,r2
 41040fc:	4105b7c0 	call	4105b7c <__i2b>
 4104100:	1023883a 	mov	r17,r2
 4104104:	a0000826 	beq	r20,zero,4104128 <_dtoa_r+0xa0c>
 4104108:	0580070e 	bge	zero,r22,4104128 <_dtoa_r+0xa0c>
 410410c:	a005883a 	mov	r2,r20
 4104110:	b500b916 	blt	r22,r20,41043f8 <_dtoa_r+0xcdc>
 4104114:	d9000817 	ldw	r4,32(sp)
 4104118:	a0a9c83a 	sub	r20,r20,r2
 410411c:	b0adc83a 	sub	r22,r22,r2
 4104120:	2089c83a 	sub	r4,r4,r2
 4104124:	d9000815 	stw	r4,32(sp)
 4104128:	d9800a17 	ldw	r6,40(sp)
 410412c:	0181810e 	bge	zero,r6,4104734 <_dtoa_r+0x1018>
 4104130:	d9c00b17 	ldw	r7,44(sp)
 4104134:	3800b326 	beq	r7,zero,4104404 <_dtoa_r+0xce8>
 4104138:	a800b226 	beq	r21,zero,4104404 <_dtoa_r+0xce8>
 410413c:	880b883a 	mov	r5,r17
 4104140:	a80d883a 	mov	r6,r21
 4104144:	e009883a 	mov	r4,fp
 4104148:	4105db00 	call	4105db0 <__pow5mult>
 410414c:	d9800917 	ldw	r6,36(sp)
 4104150:	100b883a 	mov	r5,r2
 4104154:	e009883a 	mov	r4,fp
 4104158:	1023883a 	mov	r17,r2
 410415c:	4105bb80 	call	4105bb8 <__multiply>
 4104160:	1021883a 	mov	r16,r2
 4104164:	d8800a17 	ldw	r2,40(sp)
 4104168:	d9400917 	ldw	r5,36(sp)
 410416c:	e009883a 	mov	r4,fp
 4104170:	1545c83a 	sub	r2,r2,r21
 4104174:	d8800a15 	stw	r2,40(sp)
 4104178:	41058180 	call	4105818 <_Bfree>
 410417c:	d8c00a17 	ldw	r3,40(sp)
 4104180:	18009f1e 	bne	r3,zero,4104400 <_dtoa_r+0xce4>
 4104184:	05c00044 	movi	r23,1
 4104188:	e009883a 	mov	r4,fp
 410418c:	b80b883a 	mov	r5,r23
 4104190:	4105b7c0 	call	4105b7c <__i2b>
 4104194:	d9000d17 	ldw	r4,52(sp)
 4104198:	102b883a 	mov	r21,r2
 410419c:	2000ce26 	beq	r4,zero,41044d8 <_dtoa_r+0xdbc>
 41041a0:	200d883a 	mov	r6,r4
 41041a4:	100b883a 	mov	r5,r2
 41041a8:	e009883a 	mov	r4,fp
 41041ac:	4105db00 	call	4105db0 <__pow5mult>
 41041b0:	d9800317 	ldw	r6,12(sp)
 41041b4:	102b883a 	mov	r21,r2
 41041b8:	b981810e 	bge	r23,r6,41047c0 <_dtoa_r+0x10a4>
 41041bc:	0027883a 	mov	r19,zero
 41041c0:	a8800417 	ldw	r2,16(r21)
 41041c4:	05c00804 	movi	r23,32
 41041c8:	10800104 	addi	r2,r2,4
 41041cc:	1085883a 	add	r2,r2,r2
 41041d0:	1085883a 	add	r2,r2,r2
 41041d4:	a885883a 	add	r2,r21,r2
 41041d8:	11000017 	ldw	r4,0(r2)
 41041dc:	4105a640 	call	4105a64 <__hi0bits>
 41041e0:	b885c83a 	sub	r2,r23,r2
 41041e4:	1585883a 	add	r2,r2,r22
 41041e8:	108007cc 	andi	r2,r2,31
 41041ec:	1000b326 	beq	r2,zero,41044bc <_dtoa_r+0xda0>
 41041f0:	00c00804 	movi	r3,32
 41041f4:	1887c83a 	sub	r3,r3,r2
 41041f8:	01000104 	movi	r4,4
 41041fc:	20c2cd0e 	bge	r4,r3,4104d34 <_dtoa_r+0x1618>
 4104200:	00c00704 	movi	r3,28
 4104204:	1885c83a 	sub	r2,r3,r2
 4104208:	d8c00817 	ldw	r3,32(sp)
 410420c:	a0a9883a 	add	r20,r20,r2
 4104210:	b0ad883a 	add	r22,r22,r2
 4104214:	1887883a 	add	r3,r3,r2
 4104218:	d8c00815 	stw	r3,32(sp)
 410421c:	d9800817 	ldw	r6,32(sp)
 4104220:	0180040e 	bge	zero,r6,4104234 <_dtoa_r+0xb18>
 4104224:	800b883a 	mov	r5,r16
 4104228:	e009883a 	mov	r4,fp
 410422c:	4105ef00 	call	4105ef0 <__lshift>
 4104230:	1021883a 	mov	r16,r2
 4104234:	0580050e 	bge	zero,r22,410424c <_dtoa_r+0xb30>
 4104238:	a80b883a 	mov	r5,r21
 410423c:	b00d883a 	mov	r6,r22
 4104240:	e009883a 	mov	r4,fp
 4104244:	4105ef00 	call	4105ef0 <__lshift>
 4104248:	102b883a 	mov	r21,r2
 410424c:	d9c00e17 	ldw	r7,56(sp)
 4104250:	3801211e 	bne	r7,zero,41046d8 <_dtoa_r+0xfbc>
 4104254:	d9800617 	ldw	r6,24(sp)
 4104258:	0181380e 	bge	zero,r6,410473c <_dtoa_r+0x1020>
 410425c:	d8c00b17 	ldw	r3,44(sp)
 4104260:	1800ab1e 	bne	r3,zero,4104510 <_dtoa_r+0xdf4>
 4104264:	dc800717 	ldw	r18,28(sp)
 4104268:	dcc00617 	ldw	r19,24(sp)
 410426c:	9029883a 	mov	r20,r18
 4104270:	00000206 	br	410427c <_dtoa_r+0xb60>
 4104274:	41058400 	call	4105840 <__multadd>
 4104278:	1021883a 	mov	r16,r2
 410427c:	a80b883a 	mov	r5,r21
 4104280:	8009883a 	mov	r4,r16
 4104284:	410351c0 	call	410351c <quorem>
 4104288:	10800c04 	addi	r2,r2,48
 410428c:	90800005 	stb	r2,0(r18)
 4104290:	94800044 	addi	r18,r18,1
 4104294:	9507c83a 	sub	r3,r18,r20
 4104298:	000f883a 	mov	r7,zero
 410429c:	01800284 	movi	r6,10
 41042a0:	800b883a 	mov	r5,r16
 41042a4:	e009883a 	mov	r4,fp
 41042a8:	1cfff216 	blt	r3,r19,4104274 <__ram_exceptions_end+0xfc0fc030>
 41042ac:	1011883a 	mov	r8,r2
 41042b0:	d8800617 	ldw	r2,24(sp)
 41042b4:	0082370e 	bge	zero,r2,4104b94 <_dtoa_r+0x1478>
 41042b8:	d9000717 	ldw	r4,28(sp)
 41042bc:	0025883a 	mov	r18,zero
 41042c0:	20af883a 	add	r23,r4,r2
 41042c4:	01800044 	movi	r6,1
 41042c8:	800b883a 	mov	r5,r16
 41042cc:	e009883a 	mov	r4,fp
 41042d0:	da001715 	stw	r8,92(sp)
 41042d4:	4105ef00 	call	4105ef0 <__lshift>
 41042d8:	a80b883a 	mov	r5,r21
 41042dc:	1009883a 	mov	r4,r2
 41042e0:	d8800915 	stw	r2,36(sp)
 41042e4:	41060380 	call	4106038 <__mcmp>
 41042e8:	da001717 	ldw	r8,92(sp)
 41042ec:	0081800e 	bge	zero,r2,41048f0 <_dtoa_r+0x11d4>
 41042f0:	b93fffc3 	ldbu	r4,-1(r23)
 41042f4:	b8bfffc4 	addi	r2,r23,-1
 41042f8:	1007883a 	mov	r3,r2
 41042fc:	01800e44 	movi	r6,57
 4104300:	d9c00717 	ldw	r7,28(sp)
 4104304:	00000506 	br	410431c <_dtoa_r+0xc00>
 4104308:	18ffffc4 	addi	r3,r3,-1
 410430c:	11c12326 	beq	r2,r7,410479c <_dtoa_r+0x1080>
 4104310:	19000003 	ldbu	r4,0(r3)
 4104314:	102f883a 	mov	r23,r2
 4104318:	10bfffc4 	addi	r2,r2,-1
 410431c:	21403fcc 	andi	r5,r4,255
 4104320:	2940201c 	xori	r5,r5,128
 4104324:	297fe004 	addi	r5,r5,-128
 4104328:	29bff726 	beq	r5,r6,4104308 <__ram_exceptions_end+0xfc0fc0c4>
 410432c:	21000044 	addi	r4,r4,1
 4104330:	11000005 	stb	r4,0(r2)
 4104334:	a80b883a 	mov	r5,r21
 4104338:	e009883a 	mov	r4,fp
 410433c:	41058180 	call	4105818 <_Bfree>
 4104340:	883ea026 	beq	r17,zero,4103dc4 <__ram_exceptions_end+0xfc0fbb80>
 4104344:	90000426 	beq	r18,zero,4104358 <_dtoa_r+0xc3c>
 4104348:	94400326 	beq	r18,r17,4104358 <_dtoa_r+0xc3c>
 410434c:	900b883a 	mov	r5,r18
 4104350:	e009883a 	mov	r4,fp
 4104354:	41058180 	call	4105818 <_Bfree>
 4104358:	880b883a 	mov	r5,r17
 410435c:	e009883a 	mov	r4,fp
 4104360:	41058180 	call	4105818 <_Bfree>
 4104364:	003e9706 	br	4103dc4 <__ram_exceptions_end+0xfc0fbb80>
 4104368:	01800044 	movi	r6,1
 410436c:	d9800e15 	stw	r6,56(sp)
 4104370:	003d9606 	br	41039cc <__ram_exceptions_end+0xfc0fb788>
 4104374:	d8800817 	ldw	r2,32(sp)
 4104378:	d8c00517 	ldw	r3,20(sp)
 410437c:	d8000d15 	stw	zero,52(sp)
 4104380:	10c5c83a 	sub	r2,r2,r3
 4104384:	00c9c83a 	sub	r4,zero,r3
 4104388:	d8800815 	stw	r2,32(sp)
 410438c:	d9000a15 	stw	r4,40(sp)
 4104390:	003d9706 	br	41039f0 <__ram_exceptions_end+0xfc0fb7ac>
 4104394:	05adc83a 	sub	r22,zero,r22
 4104398:	dd800815 	stw	r22,32(sp)
 410439c:	002d883a 	mov	r22,zero
 41043a0:	003d8e06 	br	41039dc <__ram_exceptions_end+0xfc0fb798>
 41043a4:	d9000517 	ldw	r4,20(sp)
 41043a8:	410b92c0 	call	410b92c <__floatsidf>
 41043ac:	100d883a 	mov	r6,r2
 41043b0:	180f883a 	mov	r7,r3
 41043b4:	a009883a 	mov	r4,r20
 41043b8:	880b883a 	mov	r5,r17
 41043bc:	410a6400 	call	410a640 <__eqdf2>
 41043c0:	103d7126 	beq	r2,zero,4103988 <__ram_exceptions_end+0xfc0fb744>
 41043c4:	d9c00517 	ldw	r7,20(sp)
 41043c8:	39ffffc4 	addi	r7,r7,-1
 41043cc:	d9c00515 	stw	r7,20(sp)
 41043d0:	003d6d06 	br	4103988 <__ram_exceptions_end+0xfc0fb744>
 41043d4:	dd400a17 	ldw	r21,40(sp)
 41043d8:	dd000817 	ldw	r20,32(sp)
 41043dc:	0023883a 	mov	r17,zero
 41043e0:	003f4806 	br	4104104 <__ram_exceptions_end+0xfc0fbec0>
 41043e4:	10e3c83a 	sub	r17,r2,r3
 41043e8:	9448983a 	sll	r4,r18,r17
 41043ec:	003d3206 	br	41038b8 <__ram_exceptions_end+0xfc0fb674>
 41043f0:	d8000e15 	stw	zero,56(sp)
 41043f4:	003d7506 	br	41039cc <__ram_exceptions_end+0xfc0fb788>
 41043f8:	b005883a 	mov	r2,r22
 41043fc:	003f4506 	br	4104114 <__ram_exceptions_end+0xfc0fbed0>
 4104400:	dc000915 	stw	r16,36(sp)
 4104404:	d9800a17 	ldw	r6,40(sp)
 4104408:	d9400917 	ldw	r5,36(sp)
 410440c:	e009883a 	mov	r4,fp
 4104410:	4105db00 	call	4105db0 <__pow5mult>
 4104414:	1021883a 	mov	r16,r2
 4104418:	003f5a06 	br	4104184 <__ram_exceptions_end+0xfc0fbf40>
 410441c:	01c00044 	movi	r7,1
 4104420:	d9c00b15 	stw	r7,44(sp)
 4104424:	d8802217 	ldw	r2,136(sp)
 4104428:	0081280e 	bge	zero,r2,41048cc <_dtoa_r+0x11b0>
 410442c:	100d883a 	mov	r6,r2
 4104430:	1021883a 	mov	r16,r2
 4104434:	d8800c15 	stw	r2,48(sp)
 4104438:	d8800615 	stw	r2,24(sp)
 410443c:	003d8806 	br	4103a60 <__ram_exceptions_end+0xfc0fb81c>
 4104440:	d8800617 	ldw	r2,24(sp)
 4104444:	00be9b16 	blt	zero,r2,4103eb4 <__ram_exceptions_end+0xfc0fbc70>
 4104448:	10010f1e 	bne	r2,zero,4104888 <_dtoa_r+0x116c>
 410444c:	880b883a 	mov	r5,r17
 4104450:	000d883a 	mov	r6,zero
 4104454:	01d00534 	movhi	r7,16404
 4104458:	8009883a 	mov	r4,r16
 410445c:	410a8980 	call	410a898 <__muldf3>
 4104460:	900d883a 	mov	r6,r18
 4104464:	980f883a 	mov	r7,r19
 4104468:	1009883a 	mov	r4,r2
 410446c:	180b883a 	mov	r5,r3
 4104470:	410a6c80 	call	410a6c8 <__gedf2>
 4104474:	002b883a 	mov	r21,zero
 4104478:	0023883a 	mov	r17,zero
 410447c:	1000bf16 	blt	r2,zero,410477c <_dtoa_r+0x1060>
 4104480:	d9802217 	ldw	r6,136(sp)
 4104484:	ddc00717 	ldw	r23,28(sp)
 4104488:	018c303a 	nor	r6,zero,r6
 410448c:	d9800515 	stw	r6,20(sp)
 4104490:	a80b883a 	mov	r5,r21
 4104494:	e009883a 	mov	r4,fp
 4104498:	41058180 	call	4105818 <_Bfree>
 410449c:	883e4926 	beq	r17,zero,4103dc4 <__ram_exceptions_end+0xfc0fbb80>
 41044a0:	003fad06 	br	4104358 <__ram_exceptions_end+0xfc0fc114>
 41044a4:	d9c01117 	ldw	r7,68(sp)
 41044a8:	3801bc26 	beq	r7,zero,4104b9c <_dtoa_r+0x1480>
 41044ac:	10810cc4 	addi	r2,r2,1075
 41044b0:	dd400a17 	ldw	r21,40(sp)
 41044b4:	dd000817 	ldw	r20,32(sp)
 41044b8:	003f0a06 	br	41040e4 <__ram_exceptions_end+0xfc0fbea0>
 41044bc:	00800704 	movi	r2,28
 41044c0:	d9000817 	ldw	r4,32(sp)
 41044c4:	a0a9883a 	add	r20,r20,r2
 41044c8:	b0ad883a 	add	r22,r22,r2
 41044cc:	2089883a 	add	r4,r4,r2
 41044d0:	d9000815 	stw	r4,32(sp)
 41044d4:	003f5106 	br	410421c <__ram_exceptions_end+0xfc0fbfd8>
 41044d8:	d8c00317 	ldw	r3,12(sp)
 41044dc:	b8c1fc0e 	bge	r23,r3,4104cd0 <_dtoa_r+0x15b4>
 41044e0:	0027883a 	mov	r19,zero
 41044e4:	b805883a 	mov	r2,r23
 41044e8:	003f3e06 	br	41041e4 <__ram_exceptions_end+0xfc0fbfa0>
 41044ec:	880b883a 	mov	r5,r17
 41044f0:	e009883a 	mov	r4,fp
 41044f4:	000f883a 	mov	r7,zero
 41044f8:	01800284 	movi	r6,10
 41044fc:	41058400 	call	4105840 <__multadd>
 4104500:	d9000c17 	ldw	r4,48(sp)
 4104504:	1023883a 	mov	r17,r2
 4104508:	0102040e 	bge	zero,r4,4104d1c <_dtoa_r+0x1600>
 410450c:	d9000615 	stw	r4,24(sp)
 4104510:	0500050e 	bge	zero,r20,4104528 <_dtoa_r+0xe0c>
 4104514:	880b883a 	mov	r5,r17
 4104518:	a00d883a 	mov	r6,r20
 410451c:	e009883a 	mov	r4,fp
 4104520:	4105ef00 	call	4105ef0 <__lshift>
 4104524:	1023883a 	mov	r17,r2
 4104528:	9801241e 	bne	r19,zero,41049bc <_dtoa_r+0x12a0>
 410452c:	8829883a 	mov	r20,r17
 4104530:	d9000617 	ldw	r4,24(sp)
 4104534:	dcc00717 	ldw	r19,28(sp)
 4104538:	9480004c 	andi	r18,r18,1
 410453c:	20bfffc4 	addi	r2,r4,-1
 4104540:	9885883a 	add	r2,r19,r2
 4104544:	d8800415 	stw	r2,16(sp)
 4104548:	dc800615 	stw	r18,24(sp)
 410454c:	a80b883a 	mov	r5,r21
 4104550:	8009883a 	mov	r4,r16
 4104554:	410351c0 	call	410351c <quorem>
 4104558:	880b883a 	mov	r5,r17
 410455c:	8009883a 	mov	r4,r16
 4104560:	102f883a 	mov	r23,r2
 4104564:	41060380 	call	4106038 <__mcmp>
 4104568:	a80b883a 	mov	r5,r21
 410456c:	a00d883a 	mov	r6,r20
 4104570:	e009883a 	mov	r4,fp
 4104574:	102d883a 	mov	r22,r2
 4104578:	41060980 	call	4106098 <__mdiff>
 410457c:	1007883a 	mov	r3,r2
 4104580:	10800317 	ldw	r2,12(r2)
 4104584:	bc800c04 	addi	r18,r23,48
 4104588:	180b883a 	mov	r5,r3
 410458c:	10004e1e 	bne	r2,zero,41046c8 <_dtoa_r+0xfac>
 4104590:	8009883a 	mov	r4,r16
 4104594:	d8c01615 	stw	r3,88(sp)
 4104598:	41060380 	call	4106038 <__mcmp>
 410459c:	d8c01617 	ldw	r3,88(sp)
 41045a0:	e009883a 	mov	r4,fp
 41045a4:	d8801615 	stw	r2,88(sp)
 41045a8:	180b883a 	mov	r5,r3
 41045ac:	41058180 	call	4105818 <_Bfree>
 41045b0:	d8801617 	ldw	r2,88(sp)
 41045b4:	1000041e 	bne	r2,zero,41045c8 <_dtoa_r+0xeac>
 41045b8:	d9800317 	ldw	r6,12(sp)
 41045bc:	3000021e 	bne	r6,zero,41045c8 <_dtoa_r+0xeac>
 41045c0:	d8c00617 	ldw	r3,24(sp)
 41045c4:	18003726 	beq	r3,zero,41046a4 <_dtoa_r+0xf88>
 41045c8:	b0002016 	blt	r22,zero,410464c <_dtoa_r+0xf30>
 41045cc:	b000041e 	bne	r22,zero,41045e0 <_dtoa_r+0xec4>
 41045d0:	d9000317 	ldw	r4,12(sp)
 41045d4:	2000021e 	bne	r4,zero,41045e0 <_dtoa_r+0xec4>
 41045d8:	d8c00617 	ldw	r3,24(sp)
 41045dc:	18001b26 	beq	r3,zero,410464c <_dtoa_r+0xf30>
 41045e0:	00810716 	blt	zero,r2,4104a00 <_dtoa_r+0x12e4>
 41045e4:	d8c00417 	ldw	r3,16(sp)
 41045e8:	9d800044 	addi	r22,r19,1
 41045ec:	9c800005 	stb	r18,0(r19)
 41045f0:	b02f883a 	mov	r23,r22
 41045f4:	98c10626 	beq	r19,r3,4104a10 <_dtoa_r+0x12f4>
 41045f8:	800b883a 	mov	r5,r16
 41045fc:	000f883a 	mov	r7,zero
 4104600:	01800284 	movi	r6,10
 4104604:	e009883a 	mov	r4,fp
 4104608:	41058400 	call	4105840 <__multadd>
 410460c:	1021883a 	mov	r16,r2
 4104610:	000f883a 	mov	r7,zero
 4104614:	01800284 	movi	r6,10
 4104618:	880b883a 	mov	r5,r17
 410461c:	e009883a 	mov	r4,fp
 4104620:	8d002526 	beq	r17,r20,41046b8 <_dtoa_r+0xf9c>
 4104624:	41058400 	call	4105840 <__multadd>
 4104628:	a00b883a 	mov	r5,r20
 410462c:	000f883a 	mov	r7,zero
 4104630:	01800284 	movi	r6,10
 4104634:	e009883a 	mov	r4,fp
 4104638:	1023883a 	mov	r17,r2
 410463c:	41058400 	call	4105840 <__multadd>
 4104640:	1029883a 	mov	r20,r2
 4104644:	b027883a 	mov	r19,r22
 4104648:	003fc006 	br	410454c <__ram_exceptions_end+0xfc0fc308>
 410464c:	9011883a 	mov	r8,r18
 4104650:	00800e0e 	bge	zero,r2,410468c <_dtoa_r+0xf70>
 4104654:	800b883a 	mov	r5,r16
 4104658:	01800044 	movi	r6,1
 410465c:	e009883a 	mov	r4,fp
 4104660:	da001715 	stw	r8,92(sp)
 4104664:	4105ef00 	call	4105ef0 <__lshift>
 4104668:	a80b883a 	mov	r5,r21
 410466c:	1009883a 	mov	r4,r2
 4104670:	1021883a 	mov	r16,r2
 4104674:	41060380 	call	4106038 <__mcmp>
 4104678:	da001717 	ldw	r8,92(sp)
 410467c:	0081960e 	bge	zero,r2,4104cd8 <_dtoa_r+0x15bc>
 4104680:	00800e44 	movi	r2,57
 4104684:	40817026 	beq	r8,r2,4104c48 <_dtoa_r+0x152c>
 4104688:	ba000c44 	addi	r8,r23,49
 410468c:	8825883a 	mov	r18,r17
 4104690:	9dc00044 	addi	r23,r19,1
 4104694:	9a000005 	stb	r8,0(r19)
 4104698:	a023883a 	mov	r17,r20
 410469c:	dc000915 	stw	r16,36(sp)
 41046a0:	003f2406 	br	4104334 <__ram_exceptions_end+0xfc0fc0f0>
 41046a4:	00800e44 	movi	r2,57
 41046a8:	9011883a 	mov	r8,r18
 41046ac:	90816626 	beq	r18,r2,4104c48 <_dtoa_r+0x152c>
 41046b0:	05bff516 	blt	zero,r22,4104688 <__ram_exceptions_end+0xfc0fc444>
 41046b4:	003ff506 	br	410468c <__ram_exceptions_end+0xfc0fc448>
 41046b8:	41058400 	call	4105840 <__multadd>
 41046bc:	1023883a 	mov	r17,r2
 41046c0:	1029883a 	mov	r20,r2
 41046c4:	003fdf06 	br	4104644 <__ram_exceptions_end+0xfc0fc400>
 41046c8:	e009883a 	mov	r4,fp
 41046cc:	41058180 	call	4105818 <_Bfree>
 41046d0:	00800044 	movi	r2,1
 41046d4:	003fbc06 	br	41045c8 <__ram_exceptions_end+0xfc0fc384>
 41046d8:	a80b883a 	mov	r5,r21
 41046dc:	8009883a 	mov	r4,r16
 41046e0:	41060380 	call	4106038 <__mcmp>
 41046e4:	103edb0e 	bge	r2,zero,4104254 <__ram_exceptions_end+0xfc0fc010>
 41046e8:	800b883a 	mov	r5,r16
 41046ec:	000f883a 	mov	r7,zero
 41046f0:	01800284 	movi	r6,10
 41046f4:	e009883a 	mov	r4,fp
 41046f8:	41058400 	call	4105840 <__multadd>
 41046fc:	1021883a 	mov	r16,r2
 4104700:	d8800517 	ldw	r2,20(sp)
 4104704:	d8c00b17 	ldw	r3,44(sp)
 4104708:	10bfffc4 	addi	r2,r2,-1
 410470c:	d8800515 	stw	r2,20(sp)
 4104710:	183f761e 	bne	r3,zero,41044ec <__ram_exceptions_end+0xfc0fc2a8>
 4104714:	d9000c17 	ldw	r4,48(sp)
 4104718:	0101730e 	bge	zero,r4,4104ce8 <_dtoa_r+0x15cc>
 410471c:	d9000615 	stw	r4,24(sp)
 4104720:	003ed006 	br	4104264 <__ram_exceptions_end+0xfc0fc020>
 4104724:	00800084 	movi	r2,2
 4104728:	3081861e 	bne	r6,r2,4104d44 <_dtoa_r+0x1628>
 410472c:	d8000b15 	stw	zero,44(sp)
 4104730:	003f3c06 	br	4104424 <__ram_exceptions_end+0xfc0fc1e0>
 4104734:	dc000917 	ldw	r16,36(sp)
 4104738:	003e9206 	br	4104184 <__ram_exceptions_end+0xfc0fbf40>
 410473c:	d9c00317 	ldw	r7,12(sp)
 4104740:	00800084 	movi	r2,2
 4104744:	11fec50e 	bge	r2,r7,410425c <__ram_exceptions_end+0xfc0fc018>
 4104748:	d9000617 	ldw	r4,24(sp)
 410474c:	20013c1e 	bne	r4,zero,4104c40 <_dtoa_r+0x1524>
 4104750:	a80b883a 	mov	r5,r21
 4104754:	000f883a 	mov	r7,zero
 4104758:	01800144 	movi	r6,5
 410475c:	e009883a 	mov	r4,fp
 4104760:	41058400 	call	4105840 <__multadd>
 4104764:	100b883a 	mov	r5,r2
 4104768:	8009883a 	mov	r4,r16
 410476c:	102b883a 	mov	r21,r2
 4104770:	41060380 	call	4106038 <__mcmp>
 4104774:	dc000915 	stw	r16,36(sp)
 4104778:	00bf410e 	bge	zero,r2,4104480 <__ram_exceptions_end+0xfc0fc23c>
 410477c:	d9c00717 	ldw	r7,28(sp)
 4104780:	00800c44 	movi	r2,49
 4104784:	38800005 	stb	r2,0(r7)
 4104788:	d8800517 	ldw	r2,20(sp)
 410478c:	3dc00044 	addi	r23,r7,1
 4104790:	10800044 	addi	r2,r2,1
 4104794:	d8800515 	stw	r2,20(sp)
 4104798:	003f3d06 	br	4104490 <__ram_exceptions_end+0xfc0fc24c>
 410479c:	d9800517 	ldw	r6,20(sp)
 41047a0:	d9c00717 	ldw	r7,28(sp)
 41047a4:	00800c44 	movi	r2,49
 41047a8:	31800044 	addi	r6,r6,1
 41047ac:	d9800515 	stw	r6,20(sp)
 41047b0:	38800005 	stb	r2,0(r7)
 41047b4:	003edf06 	br	4104334 <__ram_exceptions_end+0xfc0fc0f0>
 41047b8:	d8000b15 	stw	zero,44(sp)
 41047bc:	003c9f06 	br	4103a3c <__ram_exceptions_end+0xfc0fb7f8>
 41047c0:	903e7e1e 	bne	r18,zero,41041bc <__ram_exceptions_end+0xfc0fbf78>
 41047c4:	00800434 	movhi	r2,16
 41047c8:	10bfffc4 	addi	r2,r2,-1
 41047cc:	9884703a 	and	r2,r19,r2
 41047d0:	1000ea1e 	bne	r2,zero,4104b7c <_dtoa_r+0x1460>
 41047d4:	9cdffc2c 	andhi	r19,r19,32752
 41047d8:	9800e826 	beq	r19,zero,4104b7c <_dtoa_r+0x1460>
 41047dc:	d9c00817 	ldw	r7,32(sp)
 41047e0:	b5800044 	addi	r22,r22,1
 41047e4:	04c00044 	movi	r19,1
 41047e8:	39c00044 	addi	r7,r7,1
 41047ec:	d9c00815 	stw	r7,32(sp)
 41047f0:	d8800d17 	ldw	r2,52(sp)
 41047f4:	103e721e 	bne	r2,zero,41041c0 <__ram_exceptions_end+0xfc0fbf7c>
 41047f8:	00800044 	movi	r2,1
 41047fc:	003e7906 	br	41041e4 <__ram_exceptions_end+0xfc0fbfa0>
 4104800:	8009883a 	mov	r4,r16
 4104804:	410b92c0 	call	410b92c <__floatsidf>
 4104808:	d9800f17 	ldw	r6,60(sp)
 410480c:	d9c01017 	ldw	r7,64(sp)
 4104810:	1009883a 	mov	r4,r2
 4104814:	180b883a 	mov	r5,r3
 4104818:	410a8980 	call	410a898 <__muldf3>
 410481c:	000d883a 	mov	r6,zero
 4104820:	01d00734 	movhi	r7,16412
 4104824:	1009883a 	mov	r4,r2
 4104828:	180b883a 	mov	r5,r3
 410482c:	41094ac0 	call	41094ac <__adddf3>
 4104830:	047f3034 	movhi	r17,64704
 4104834:	1021883a 	mov	r16,r2
 4104838:	1c63883a 	add	r17,r3,r17
 410483c:	d9000f17 	ldw	r4,60(sp)
 4104840:	d9401017 	ldw	r5,64(sp)
 4104844:	000d883a 	mov	r6,zero
 4104848:	01d00534 	movhi	r7,16404
 410484c:	410afb00 	call	410afb0 <__subdf3>
 4104850:	800d883a 	mov	r6,r16
 4104854:	880f883a 	mov	r7,r17
 4104858:	1009883a 	mov	r4,r2
 410485c:	180b883a 	mov	r5,r3
 4104860:	102b883a 	mov	r21,r2
 4104864:	1829883a 	mov	r20,r3
 4104868:	410a6c80 	call	410a6c8 <__gedf2>
 410486c:	00806c16 	blt	zero,r2,4104a20 <_dtoa_r+0x1304>
 4104870:	89e0003c 	xorhi	r7,r17,32768
 4104874:	800d883a 	mov	r6,r16
 4104878:	a809883a 	mov	r4,r21
 410487c:	a00b883a 	mov	r5,r20
 4104880:	410a7a40 	call	410a7a4 <__ledf2>
 4104884:	103d7e0e 	bge	r2,zero,4103e80 <__ram_exceptions_end+0xfc0fbc3c>
 4104888:	002b883a 	mov	r21,zero
 410488c:	0023883a 	mov	r17,zero
 4104890:	003efb06 	br	4104480 <__ram_exceptions_end+0xfc0fc23c>
 4104894:	d8800717 	ldw	r2,28(sp)
 4104898:	003bd006 	br	41037dc <__ram_exceptions_end+0xfc0fb598>
 410489c:	d9000a17 	ldw	r4,40(sp)
 41048a0:	d9800d17 	ldw	r6,52(sp)
 41048a4:	dd400a15 	stw	r21,40(sp)
 41048a8:	a905c83a 	sub	r2,r21,r4
 41048ac:	308d883a 	add	r6,r6,r2
 41048b0:	d9800d15 	stw	r6,52(sp)
 41048b4:	002b883a 	mov	r21,zero
 41048b8:	003e0606 	br	41040d4 <__ram_exceptions_end+0xfc0fbe90>
 41048bc:	9023883a 	mov	r17,r18
 41048c0:	9829883a 	mov	r20,r19
 41048c4:	04000084 	movi	r16,2
 41048c8:	003c9206 	br	4103b14 <__ram_exceptions_end+0xfc0fb8d0>
 41048cc:	04000044 	movi	r16,1
 41048d0:	dc000c15 	stw	r16,48(sp)
 41048d4:	dc000615 	stw	r16,24(sp)
 41048d8:	dc002215 	stw	r16,136(sp)
 41048dc:	e0001115 	stw	zero,68(fp)
 41048e0:	000b883a 	mov	r5,zero
 41048e4:	003c6906 	br	4103a8c <__ram_exceptions_end+0xfc0fb848>
 41048e8:	3021883a 	mov	r16,r6
 41048ec:	003ffb06 	br	41048dc <__ram_exceptions_end+0xfc0fc698>
 41048f0:	1000021e 	bne	r2,zero,41048fc <_dtoa_r+0x11e0>
 41048f4:	4200004c 	andi	r8,r8,1
 41048f8:	403e7d1e 	bne	r8,zero,41042f0 <__ram_exceptions_end+0xfc0fc0ac>
 41048fc:	01000c04 	movi	r4,48
 4104900:	00000106 	br	4104908 <_dtoa_r+0x11ec>
 4104904:	102f883a 	mov	r23,r2
 4104908:	b8bfffc4 	addi	r2,r23,-1
 410490c:	10c00007 	ldb	r3,0(r2)
 4104910:	193ffc26 	beq	r3,r4,4104904 <__ram_exceptions_end+0xfc0fc6c0>
 4104914:	003e8706 	br	4104334 <__ram_exceptions_end+0xfc0fc0f0>
 4104918:	d8800517 	ldw	r2,20(sp)
 410491c:	00a3c83a 	sub	r17,zero,r2
 4104920:	8800a426 	beq	r17,zero,4104bb4 <_dtoa_r+0x1498>
 4104924:	888003cc 	andi	r2,r17,15
 4104928:	100490fa 	slli	r2,r2,3
 410492c:	00c10474 	movhi	r3,1041
 4104930:	18f86304 	addi	r3,r3,-7796
 4104934:	1885883a 	add	r2,r3,r2
 4104938:	11800017 	ldw	r6,0(r2)
 410493c:	11c00117 	ldw	r7,4(r2)
 4104940:	9009883a 	mov	r4,r18
 4104944:	980b883a 	mov	r5,r19
 4104948:	8823d13a 	srai	r17,r17,4
 410494c:	410a8980 	call	410a898 <__muldf3>
 4104950:	d8800f15 	stw	r2,60(sp)
 4104954:	d8c01015 	stw	r3,64(sp)
 4104958:	8800e826 	beq	r17,zero,4104cfc <_dtoa_r+0x15e0>
 410495c:	05010474 	movhi	r20,1041
 4104960:	a5385904 	addi	r20,r20,-7836
 4104964:	04000084 	movi	r16,2
 4104968:	8980004c 	andi	r6,r17,1
 410496c:	1009883a 	mov	r4,r2
 4104970:	8823d07a 	srai	r17,r17,1
 4104974:	180b883a 	mov	r5,r3
 4104978:	30000426 	beq	r6,zero,410498c <_dtoa_r+0x1270>
 410497c:	a1800017 	ldw	r6,0(r20)
 4104980:	a1c00117 	ldw	r7,4(r20)
 4104984:	84000044 	addi	r16,r16,1
 4104988:	410a8980 	call	410a898 <__muldf3>
 410498c:	a5000204 	addi	r20,r20,8
 4104990:	883ff51e 	bne	r17,zero,4104968 <__ram_exceptions_end+0xfc0fc724>
 4104994:	d8800f15 	stw	r2,60(sp)
 4104998:	d8c01015 	stw	r3,64(sp)
 410499c:	003c7606 	br	4103b78 <__ram_exceptions_end+0xfc0fb934>
 41049a0:	00c00c04 	movi	r3,48
 41049a4:	10c00005 	stb	r3,0(r2)
 41049a8:	d8c00517 	ldw	r3,20(sp)
 41049ac:	bd3fffc3 	ldbu	r20,-1(r23)
 41049b0:	18c00044 	addi	r3,r3,1
 41049b4:	d8c00515 	stw	r3,20(sp)
 41049b8:	003db906 	br	41040a0 <__ram_exceptions_end+0xfc0fbe5c>
 41049bc:	89400117 	ldw	r5,4(r17)
 41049c0:	e009883a 	mov	r4,fp
 41049c4:	41057700 	call	4105770 <_Balloc>
 41049c8:	89800417 	ldw	r6,16(r17)
 41049cc:	89400304 	addi	r5,r17,12
 41049d0:	11000304 	addi	r4,r2,12
 41049d4:	31800084 	addi	r6,r6,2
 41049d8:	318d883a 	add	r6,r6,r6
 41049dc:	318d883a 	add	r6,r6,r6
 41049e0:	1027883a 	mov	r19,r2
 41049e4:	4100fa80 	call	4100fa8 <memcpy>
 41049e8:	01800044 	movi	r6,1
 41049ec:	980b883a 	mov	r5,r19
 41049f0:	e009883a 	mov	r4,fp
 41049f4:	4105ef00 	call	4105ef0 <__lshift>
 41049f8:	1029883a 	mov	r20,r2
 41049fc:	003ecc06 	br	4104530 <__ram_exceptions_end+0xfc0fc2ec>
 4104a00:	00800e44 	movi	r2,57
 4104a04:	90809026 	beq	r18,r2,4104c48 <_dtoa_r+0x152c>
 4104a08:	92000044 	addi	r8,r18,1
 4104a0c:	003f1f06 	br	410468c <__ram_exceptions_end+0xfc0fc448>
 4104a10:	9011883a 	mov	r8,r18
 4104a14:	8825883a 	mov	r18,r17
 4104a18:	a023883a 	mov	r17,r20
 4104a1c:	003e2906 	br	41042c4 <__ram_exceptions_end+0xfc0fc080>
 4104a20:	002b883a 	mov	r21,zero
 4104a24:	0023883a 	mov	r17,zero
 4104a28:	003f5406 	br	410477c <__ram_exceptions_end+0xfc0fc538>
 4104a2c:	61bfffc4 	addi	r6,r12,-1
 4104a30:	300490fa 	slli	r2,r6,3
 4104a34:	00c10474 	movhi	r3,1041
 4104a38:	18f86304 	addi	r3,r3,-7796
 4104a3c:	1885883a 	add	r2,r3,r2
 4104a40:	11000017 	ldw	r4,0(r2)
 4104a44:	11400117 	ldw	r5,4(r2)
 4104a48:	d8800717 	ldw	r2,28(sp)
 4104a4c:	880f883a 	mov	r7,r17
 4104a50:	d9801215 	stw	r6,72(sp)
 4104a54:	800d883a 	mov	r6,r16
 4104a58:	db001615 	stw	r12,88(sp)
 4104a5c:	15c00044 	addi	r23,r2,1
 4104a60:	410a8980 	call	410a898 <__muldf3>
 4104a64:	d9401017 	ldw	r5,64(sp)
 4104a68:	d9000f17 	ldw	r4,60(sp)
 4104a6c:	d8c01515 	stw	r3,84(sp)
 4104a70:	d8801415 	stw	r2,80(sp)
 4104a74:	410b8ac0 	call	410b8ac <__fixdfsi>
 4104a78:	1009883a 	mov	r4,r2
 4104a7c:	1021883a 	mov	r16,r2
 4104a80:	410b92c0 	call	410b92c <__floatsidf>
 4104a84:	d9000f17 	ldw	r4,60(sp)
 4104a88:	d9401017 	ldw	r5,64(sp)
 4104a8c:	100d883a 	mov	r6,r2
 4104a90:	180f883a 	mov	r7,r3
 4104a94:	410afb00 	call	410afb0 <__subdf3>
 4104a98:	1829883a 	mov	r20,r3
 4104a9c:	d8c00717 	ldw	r3,28(sp)
 4104aa0:	84000c04 	addi	r16,r16,48
 4104aa4:	1023883a 	mov	r17,r2
 4104aa8:	1c000005 	stb	r16,0(r3)
 4104aac:	db001617 	ldw	r12,88(sp)
 4104ab0:	00800044 	movi	r2,1
 4104ab4:	60802226 	beq	r12,r2,4104b40 <_dtoa_r+0x1424>
 4104ab8:	d9c00717 	ldw	r7,28(sp)
 4104abc:	8805883a 	mov	r2,r17
 4104ac0:	b82b883a 	mov	r21,r23
 4104ac4:	3b19883a 	add	r12,r7,r12
 4104ac8:	6023883a 	mov	r17,r12
 4104acc:	a007883a 	mov	r3,r20
 4104ad0:	dc800f15 	stw	r18,60(sp)
 4104ad4:	000d883a 	mov	r6,zero
 4104ad8:	01d00934 	movhi	r7,16420
 4104adc:	1009883a 	mov	r4,r2
 4104ae0:	180b883a 	mov	r5,r3
 4104ae4:	410a8980 	call	410a898 <__muldf3>
 4104ae8:	180b883a 	mov	r5,r3
 4104aec:	1009883a 	mov	r4,r2
 4104af0:	1829883a 	mov	r20,r3
 4104af4:	1025883a 	mov	r18,r2
 4104af8:	410b8ac0 	call	410b8ac <__fixdfsi>
 4104afc:	1009883a 	mov	r4,r2
 4104b00:	1021883a 	mov	r16,r2
 4104b04:	410b92c0 	call	410b92c <__floatsidf>
 4104b08:	100d883a 	mov	r6,r2
 4104b0c:	180f883a 	mov	r7,r3
 4104b10:	9009883a 	mov	r4,r18
 4104b14:	a00b883a 	mov	r5,r20
 4104b18:	84000c04 	addi	r16,r16,48
 4104b1c:	410afb00 	call	410afb0 <__subdf3>
 4104b20:	ad400044 	addi	r21,r21,1
 4104b24:	ac3fffc5 	stb	r16,-1(r21)
 4104b28:	ac7fea1e 	bne	r21,r17,4104ad4 <__ram_exceptions_end+0xfc0fc890>
 4104b2c:	1023883a 	mov	r17,r2
 4104b30:	d8801217 	ldw	r2,72(sp)
 4104b34:	dc800f17 	ldw	r18,60(sp)
 4104b38:	1829883a 	mov	r20,r3
 4104b3c:	b8af883a 	add	r23,r23,r2
 4104b40:	d9001417 	ldw	r4,80(sp)
 4104b44:	d9401517 	ldw	r5,84(sp)
 4104b48:	000d883a 	mov	r6,zero
 4104b4c:	01cff834 	movhi	r7,16352
 4104b50:	41094ac0 	call	41094ac <__adddf3>
 4104b54:	880d883a 	mov	r6,r17
 4104b58:	a00f883a 	mov	r7,r20
 4104b5c:	1009883a 	mov	r4,r2
 4104b60:	180b883a 	mov	r5,r3
 4104b64:	410a7a40 	call	410a7a4 <__ledf2>
 4104b68:	10003e0e 	bge	r2,zero,4104c64 <_dtoa_r+0x1548>
 4104b6c:	d9001317 	ldw	r4,76(sp)
 4104b70:	bd3fffc3 	ldbu	r20,-1(r23)
 4104b74:	d9000515 	stw	r4,20(sp)
 4104b78:	003d3b06 	br	4104068 <__ram_exceptions_end+0xfc0fbe24>
 4104b7c:	0027883a 	mov	r19,zero
 4104b80:	003f1b06 	br	41047f0 <__ram_exceptions_end+0xfc0fc5ac>
 4104b84:	d8800817 	ldw	r2,32(sp)
 4104b88:	11e9c83a 	sub	r20,r2,r7
 4104b8c:	0005883a 	mov	r2,zero
 4104b90:	003d5406 	br	41040e4 <__ram_exceptions_end+0xfc0fbea0>
 4104b94:	00800044 	movi	r2,1
 4104b98:	003dc706 	br	41042b8 <__ram_exceptions_end+0xfc0fc074>
 4104b9c:	d8c00217 	ldw	r3,8(sp)
 4104ba0:	00800d84 	movi	r2,54
 4104ba4:	dd400a17 	ldw	r21,40(sp)
 4104ba8:	10c5c83a 	sub	r2,r2,r3
 4104bac:	dd000817 	ldw	r20,32(sp)
 4104bb0:	003d4c06 	br	41040e4 <__ram_exceptions_end+0xfc0fbea0>
 4104bb4:	dc800f15 	stw	r18,60(sp)
 4104bb8:	dcc01015 	stw	r19,64(sp)
 4104bbc:	04000084 	movi	r16,2
 4104bc0:	003bed06 	br	4103b78 <__ram_exceptions_end+0xfc0fb934>
 4104bc4:	d9000617 	ldw	r4,24(sp)
 4104bc8:	203f0d26 	beq	r4,zero,4104800 <__ram_exceptions_end+0xfc0fc5bc>
 4104bcc:	d9800c17 	ldw	r6,48(sp)
 4104bd0:	01bcab0e 	bge	zero,r6,4103e80 <__ram_exceptions_end+0xfc0fbc3c>
 4104bd4:	d9401017 	ldw	r5,64(sp)
 4104bd8:	d9000f17 	ldw	r4,60(sp)
 4104bdc:	000d883a 	mov	r6,zero
 4104be0:	01d00934 	movhi	r7,16420
 4104be4:	410a8980 	call	410a898 <__muldf3>
 4104be8:	81000044 	addi	r4,r16,1
 4104bec:	d8800f15 	stw	r2,60(sp)
 4104bf0:	d8c01015 	stw	r3,64(sp)
 4104bf4:	410b92c0 	call	410b92c <__floatsidf>
 4104bf8:	d9800f17 	ldw	r6,60(sp)
 4104bfc:	d9c01017 	ldw	r7,64(sp)
 4104c00:	1009883a 	mov	r4,r2
 4104c04:	180b883a 	mov	r5,r3
 4104c08:	410a8980 	call	410a898 <__muldf3>
 4104c0c:	01d00734 	movhi	r7,16412
 4104c10:	000d883a 	mov	r6,zero
 4104c14:	1009883a 	mov	r4,r2
 4104c18:	180b883a 	mov	r5,r3
 4104c1c:	41094ac0 	call	41094ac <__adddf3>
 4104c20:	d9c00517 	ldw	r7,20(sp)
 4104c24:	047f3034 	movhi	r17,64704
 4104c28:	1021883a 	mov	r16,r2
 4104c2c:	39ffffc4 	addi	r7,r7,-1
 4104c30:	d9c01315 	stw	r7,76(sp)
 4104c34:	1c63883a 	add	r17,r3,r17
 4104c38:	db000c17 	ldw	r12,48(sp)
 4104c3c:	003bea06 	br	4103be8 <__ram_exceptions_end+0xfc0fb9a4>
 4104c40:	dc000915 	stw	r16,36(sp)
 4104c44:	003e0e06 	br	4104480 <__ram_exceptions_end+0xfc0fc23c>
 4104c48:	01000e44 	movi	r4,57
 4104c4c:	8825883a 	mov	r18,r17
 4104c50:	9dc00044 	addi	r23,r19,1
 4104c54:	99000005 	stb	r4,0(r19)
 4104c58:	a023883a 	mov	r17,r20
 4104c5c:	dc000915 	stw	r16,36(sp)
 4104c60:	003da406 	br	41042f4 <__ram_exceptions_end+0xfc0fc0b0>
 4104c64:	d9801417 	ldw	r6,80(sp)
 4104c68:	d9c01517 	ldw	r7,84(sp)
 4104c6c:	0009883a 	mov	r4,zero
 4104c70:	014ff834 	movhi	r5,16352
 4104c74:	410afb00 	call	410afb0 <__subdf3>
 4104c78:	880d883a 	mov	r6,r17
 4104c7c:	a00f883a 	mov	r7,r20
 4104c80:	1009883a 	mov	r4,r2
 4104c84:	180b883a 	mov	r5,r3
 4104c88:	410a6c80 	call	410a6c8 <__gedf2>
 4104c8c:	00bc7c0e 	bge	zero,r2,4103e80 <__ram_exceptions_end+0xfc0fbc3c>
 4104c90:	01000c04 	movi	r4,48
 4104c94:	00000106 	br	4104c9c <_dtoa_r+0x1580>
 4104c98:	102f883a 	mov	r23,r2
 4104c9c:	b8bfffc4 	addi	r2,r23,-1
 4104ca0:	10c00007 	ldb	r3,0(r2)
 4104ca4:	193ffc26 	beq	r3,r4,4104c98 <__ram_exceptions_end+0xfc0fca54>
 4104ca8:	d9801317 	ldw	r6,76(sp)
 4104cac:	d9800515 	stw	r6,20(sp)
 4104cb0:	003c4406 	br	4103dc4 <__ram_exceptions_end+0xfc0fbb80>
 4104cb4:	d9801317 	ldw	r6,76(sp)
 4104cb8:	d9800515 	stw	r6,20(sp)
 4104cbc:	003cea06 	br	4104068 <__ram_exceptions_end+0xfc0fbe24>
 4104cc0:	dd800f17 	ldw	r22,60(sp)
 4104cc4:	dcc01017 	ldw	r19,64(sp)
 4104cc8:	dc801217 	ldw	r18,72(sp)
 4104ccc:	003c6c06 	br	4103e80 <__ram_exceptions_end+0xfc0fbc3c>
 4104cd0:	903e031e 	bne	r18,zero,41044e0 <__ram_exceptions_end+0xfc0fc29c>
 4104cd4:	003ebb06 	br	41047c4 <__ram_exceptions_end+0xfc0fc580>
 4104cd8:	103e6c1e 	bne	r2,zero,410468c <__ram_exceptions_end+0xfc0fc448>
 4104cdc:	4080004c 	andi	r2,r8,1
 4104ce0:	103e6a26 	beq	r2,zero,410468c <__ram_exceptions_end+0xfc0fc448>
 4104ce4:	003e6606 	br	4104680 <__ram_exceptions_end+0xfc0fc43c>
 4104ce8:	d8c00317 	ldw	r3,12(sp)
 4104cec:	00800084 	movi	r2,2
 4104cf0:	10c02916 	blt	r2,r3,4104d98 <_dtoa_r+0x167c>
 4104cf4:	d9000c17 	ldw	r4,48(sp)
 4104cf8:	003e8806 	br	410471c <__ram_exceptions_end+0xfc0fc4d8>
 4104cfc:	04000084 	movi	r16,2
 4104d00:	003b9d06 	br	4103b78 <__ram_exceptions_end+0xfc0fb934>
 4104d04:	d9001317 	ldw	r4,76(sp)
 4104d08:	d9000515 	stw	r4,20(sp)
 4104d0c:	003cd606 	br	4104068 <__ram_exceptions_end+0xfc0fbe24>
 4104d10:	d8801317 	ldw	r2,76(sp)
 4104d14:	d8800515 	stw	r2,20(sp)
 4104d18:	003c2a06 	br	4103dc4 <__ram_exceptions_end+0xfc0fbb80>
 4104d1c:	d9800317 	ldw	r6,12(sp)
 4104d20:	00800084 	movi	r2,2
 4104d24:	11801516 	blt	r2,r6,4104d7c <_dtoa_r+0x1660>
 4104d28:	d9c00c17 	ldw	r7,48(sp)
 4104d2c:	d9c00615 	stw	r7,24(sp)
 4104d30:	003df706 	br	4104510 <__ram_exceptions_end+0xfc0fc2cc>
 4104d34:	193d3926 	beq	r3,r4,410421c <__ram_exceptions_end+0xfc0fbfd8>
 4104d38:	00c00f04 	movi	r3,60
 4104d3c:	1885c83a 	sub	r2,r3,r2
 4104d40:	003ddf06 	br	41044c0 <__ram_exceptions_end+0xfc0fc27c>
 4104d44:	e009883a 	mov	r4,fp
 4104d48:	e0001115 	stw	zero,68(fp)
 4104d4c:	000b883a 	mov	r5,zero
 4104d50:	41057700 	call	4105770 <_Balloc>
 4104d54:	d8800715 	stw	r2,28(sp)
 4104d58:	d8c00717 	ldw	r3,28(sp)
 4104d5c:	00bfffc4 	movi	r2,-1
 4104d60:	01000044 	movi	r4,1
 4104d64:	d8800c15 	stw	r2,48(sp)
 4104d68:	e0c01015 	stw	r3,64(fp)
 4104d6c:	d9000b15 	stw	r4,44(sp)
 4104d70:	d8800615 	stw	r2,24(sp)
 4104d74:	d8002215 	stw	zero,136(sp)
 4104d78:	003c4106 	br	4103e80 <__ram_exceptions_end+0xfc0fbc3c>
 4104d7c:	d8c00c17 	ldw	r3,48(sp)
 4104d80:	d8c00615 	stw	r3,24(sp)
 4104d84:	003e7006 	br	4104748 <__ram_exceptions_end+0xfc0fc504>
 4104d88:	04400044 	movi	r17,1
 4104d8c:	003b2006 	br	4103a10 <__ram_exceptions_end+0xfc0fb7cc>
 4104d90:	000b883a 	mov	r5,zero
 4104d94:	003b3d06 	br	4103a8c <__ram_exceptions_end+0xfc0fb848>
 4104d98:	d8800c17 	ldw	r2,48(sp)
 4104d9c:	d8800615 	stw	r2,24(sp)
 4104da0:	003e6906 	br	4104748 <__ram_exceptions_end+0xfc0fc504>

04104da4 <_setlocale_r>:
 4104da4:	30001b26 	beq	r6,zero,4104e14 <_setlocale_r+0x70>
 4104da8:	01410474 	movhi	r5,1041
 4104dac:	defffe04 	addi	sp,sp,-8
 4104db0:	29784904 	addi	r5,r5,-7900
 4104db4:	3009883a 	mov	r4,r6
 4104db8:	dc000015 	stw	r16,0(sp)
 4104dbc:	dfc00115 	stw	ra,4(sp)
 4104dc0:	3021883a 	mov	r16,r6
 4104dc4:	41068340 	call	4106834 <strcmp>
 4104dc8:	1000061e 	bne	r2,zero,4104de4 <_setlocale_r+0x40>
 4104dcc:	00810474 	movhi	r2,1041
 4104dd0:	10b84804 	addi	r2,r2,-7904
 4104dd4:	dfc00117 	ldw	ra,4(sp)
 4104dd8:	dc000017 	ldw	r16,0(sp)
 4104ddc:	dec00204 	addi	sp,sp,8
 4104de0:	f800283a 	ret
 4104de4:	01410474 	movhi	r5,1041
 4104de8:	29784804 	addi	r5,r5,-7904
 4104dec:	8009883a 	mov	r4,r16
 4104df0:	41068340 	call	4106834 <strcmp>
 4104df4:	103ff526 	beq	r2,zero,4104dcc <__ram_exceptions_end+0xfc0fcb88>
 4104df8:	01410474 	movhi	r5,1041
 4104dfc:	29783304 	addi	r5,r5,-7988
 4104e00:	8009883a 	mov	r4,r16
 4104e04:	41068340 	call	4106834 <strcmp>
 4104e08:	103ff026 	beq	r2,zero,4104dcc <__ram_exceptions_end+0xfc0fcb88>
 4104e0c:	0005883a 	mov	r2,zero
 4104e10:	003ff006 	br	4104dd4 <__ram_exceptions_end+0xfc0fcb90>
 4104e14:	00810474 	movhi	r2,1041
 4104e18:	10b84804 	addi	r2,r2,-7904
 4104e1c:	f800283a 	ret

04104e20 <__locale_charset>:
 4104e20:	00810474 	movhi	r2,1041
 4104e24:	10b9ff04 	addi	r2,r2,-6148
 4104e28:	f800283a 	ret

04104e2c <__locale_mb_cur_max>:
 4104e2c:	00810474 	movhi	r2,1041
 4104e30:	10bfa004 	addi	r2,r2,-384
 4104e34:	10800017 	ldw	r2,0(r2)
 4104e38:	f800283a 	ret

04104e3c <__locale_msgcharset>:
 4104e3c:	00810474 	movhi	r2,1041
 4104e40:	10b9f704 	addi	r2,r2,-6180
 4104e44:	f800283a 	ret

04104e48 <__locale_cjk_lang>:
 4104e48:	0005883a 	mov	r2,zero
 4104e4c:	f800283a 	ret

04104e50 <_localeconv_r>:
 4104e50:	00810474 	movhi	r2,1041
 4104e54:	10ba0704 	addi	r2,r2,-6116
 4104e58:	f800283a 	ret

04104e5c <setlocale>:
 4104e5c:	00810474 	movhi	r2,1041
 4104e60:	10bf9f04 	addi	r2,r2,-388
 4104e64:	280d883a 	mov	r6,r5
 4104e68:	200b883a 	mov	r5,r4
 4104e6c:	11000017 	ldw	r4,0(r2)
 4104e70:	4104da41 	jmpi	4104da4 <_setlocale_r>

04104e74 <localeconv>:
 4104e74:	00810474 	movhi	r2,1041
 4104e78:	10ba0704 	addi	r2,r2,-6116
 4104e7c:	f800283a 	ret

04104e80 <_malloc_r>:
 4104e80:	defff504 	addi	sp,sp,-44
 4104e84:	dc800315 	stw	r18,12(sp)
 4104e88:	dfc00a15 	stw	ra,40(sp)
 4104e8c:	df000915 	stw	fp,36(sp)
 4104e90:	ddc00815 	stw	r23,32(sp)
 4104e94:	dd800715 	stw	r22,28(sp)
 4104e98:	dd400615 	stw	r21,24(sp)
 4104e9c:	dd000515 	stw	r20,20(sp)
 4104ea0:	dcc00415 	stw	r19,16(sp)
 4104ea4:	dc400215 	stw	r17,8(sp)
 4104ea8:	dc000115 	stw	r16,4(sp)
 4104eac:	288002c4 	addi	r2,r5,11
 4104eb0:	00c00584 	movi	r3,22
 4104eb4:	2025883a 	mov	r18,r4
 4104eb8:	18807f2e 	bgeu	r3,r2,41050b8 <_malloc_r+0x238>
 4104ebc:	047ffe04 	movi	r17,-8
 4104ec0:	1462703a 	and	r17,r2,r17
 4104ec4:	8800a316 	blt	r17,zero,4105154 <_malloc_r+0x2d4>
 4104ec8:	8940a236 	bltu	r17,r5,4105154 <_malloc_r+0x2d4>
 4104ecc:	410bf1c0 	call	410bf1c <__malloc_lock>
 4104ed0:	00807dc4 	movi	r2,503
 4104ed4:	1441e92e 	bgeu	r2,r17,410567c <_malloc_r+0x7fc>
 4104ed8:	8804d27a 	srli	r2,r17,9
 4104edc:	1000a126 	beq	r2,zero,4105164 <_malloc_r+0x2e4>
 4104ee0:	00c00104 	movi	r3,4
 4104ee4:	18811e36 	bltu	r3,r2,4105360 <_malloc_r+0x4e0>
 4104ee8:	8804d1ba 	srli	r2,r17,6
 4104eec:	12000e44 	addi	r8,r2,57
 4104ef0:	11c00e04 	addi	r7,r2,56
 4104ef4:	4209883a 	add	r4,r8,r8
 4104ef8:	04c10474 	movhi	r19,1041
 4104efc:	2109883a 	add	r4,r4,r4
 4104f00:	9cfa1504 	addi	r19,r19,-6060
 4104f04:	2109883a 	add	r4,r4,r4
 4104f08:	9909883a 	add	r4,r19,r4
 4104f0c:	24000117 	ldw	r16,4(r4)
 4104f10:	213ffe04 	addi	r4,r4,-8
 4104f14:	24009726 	beq	r4,r16,4105174 <_malloc_r+0x2f4>
 4104f18:	80800117 	ldw	r2,4(r16)
 4104f1c:	01bfff04 	movi	r6,-4
 4104f20:	014003c4 	movi	r5,15
 4104f24:	1184703a 	and	r2,r2,r6
 4104f28:	1447c83a 	sub	r3,r2,r17
 4104f2c:	28c00716 	blt	r5,r3,4104f4c <_malloc_r+0xcc>
 4104f30:	1800920e 	bge	r3,zero,410517c <_malloc_r+0x2fc>
 4104f34:	84000317 	ldw	r16,12(r16)
 4104f38:	24008e26 	beq	r4,r16,4105174 <_malloc_r+0x2f4>
 4104f3c:	80800117 	ldw	r2,4(r16)
 4104f40:	1184703a 	and	r2,r2,r6
 4104f44:	1447c83a 	sub	r3,r2,r17
 4104f48:	28fff90e 	bge	r5,r3,4104f30 <__ram_exceptions_end+0xfc0fccec>
 4104f4c:	3809883a 	mov	r4,r7
 4104f50:	01810474 	movhi	r6,1041
 4104f54:	9c000417 	ldw	r16,16(r19)
 4104f58:	31ba1504 	addi	r6,r6,-6060
 4104f5c:	32000204 	addi	r8,r6,8
 4104f60:	82013426 	beq	r16,r8,4105434 <_malloc_r+0x5b4>
 4104f64:	80c00117 	ldw	r3,4(r16)
 4104f68:	00bfff04 	movi	r2,-4
 4104f6c:	188e703a 	and	r7,r3,r2
 4104f70:	3c45c83a 	sub	r2,r7,r17
 4104f74:	00c003c4 	movi	r3,15
 4104f78:	18811f16 	blt	r3,r2,41053f8 <_malloc_r+0x578>
 4104f7c:	32000515 	stw	r8,20(r6)
 4104f80:	32000415 	stw	r8,16(r6)
 4104f84:	10007f0e 	bge	r2,zero,4105184 <_malloc_r+0x304>
 4104f88:	00807fc4 	movi	r2,511
 4104f8c:	11c0fd36 	bltu	r2,r7,4105384 <_malloc_r+0x504>
 4104f90:	3806d0fa 	srli	r3,r7,3
 4104f94:	01c00044 	movi	r7,1
 4104f98:	30800117 	ldw	r2,4(r6)
 4104f9c:	19400044 	addi	r5,r3,1
 4104fa0:	294b883a 	add	r5,r5,r5
 4104fa4:	1807d0ba 	srai	r3,r3,2
 4104fa8:	294b883a 	add	r5,r5,r5
 4104fac:	294b883a 	add	r5,r5,r5
 4104fb0:	298b883a 	add	r5,r5,r6
 4104fb4:	38c6983a 	sll	r3,r7,r3
 4104fb8:	29c00017 	ldw	r7,0(r5)
 4104fbc:	2a7ffe04 	addi	r9,r5,-8
 4104fc0:	1886b03a 	or	r3,r3,r2
 4104fc4:	82400315 	stw	r9,12(r16)
 4104fc8:	81c00215 	stw	r7,8(r16)
 4104fcc:	30c00115 	stw	r3,4(r6)
 4104fd0:	2c000015 	stw	r16,0(r5)
 4104fd4:	3c000315 	stw	r16,12(r7)
 4104fd8:	2005d0ba 	srai	r2,r4,2
 4104fdc:	01400044 	movi	r5,1
 4104fe0:	288a983a 	sll	r5,r5,r2
 4104fe4:	19406f36 	bltu	r3,r5,41051a4 <_malloc_r+0x324>
 4104fe8:	28c4703a 	and	r2,r5,r3
 4104fec:	10000a1e 	bne	r2,zero,4105018 <_malloc_r+0x198>
 4104ff0:	00bfff04 	movi	r2,-4
 4104ff4:	294b883a 	add	r5,r5,r5
 4104ff8:	2088703a 	and	r4,r4,r2
 4104ffc:	28c4703a 	and	r2,r5,r3
 4105000:	21000104 	addi	r4,r4,4
 4105004:	1000041e 	bne	r2,zero,4105018 <_malloc_r+0x198>
 4105008:	294b883a 	add	r5,r5,r5
 410500c:	28c4703a 	and	r2,r5,r3
 4105010:	21000104 	addi	r4,r4,4
 4105014:	103ffc26 	beq	r2,zero,4105008 <__ram_exceptions_end+0xfc0fcdc4>
 4105018:	02bfff04 	movi	r10,-4
 410501c:	024003c4 	movi	r9,15
 4105020:	21800044 	addi	r6,r4,1
 4105024:	318d883a 	add	r6,r6,r6
 4105028:	318d883a 	add	r6,r6,r6
 410502c:	318d883a 	add	r6,r6,r6
 4105030:	998d883a 	add	r6,r19,r6
 4105034:	333ffe04 	addi	r12,r6,-8
 4105038:	2017883a 	mov	r11,r4
 410503c:	31800104 	addi	r6,r6,4
 4105040:	34000017 	ldw	r16,0(r6)
 4105044:	31fffd04 	addi	r7,r6,-12
 4105048:	81c0041e 	bne	r16,r7,410505c <_malloc_r+0x1dc>
 410504c:	0000fb06 	br	410543c <_malloc_r+0x5bc>
 4105050:	1801030e 	bge	r3,zero,4105460 <_malloc_r+0x5e0>
 4105054:	84000317 	ldw	r16,12(r16)
 4105058:	81c0f826 	beq	r16,r7,410543c <_malloc_r+0x5bc>
 410505c:	80800117 	ldw	r2,4(r16)
 4105060:	1284703a 	and	r2,r2,r10
 4105064:	1447c83a 	sub	r3,r2,r17
 4105068:	48fff90e 	bge	r9,r3,4105050 <__ram_exceptions_end+0xfc0fce0c>
 410506c:	80800317 	ldw	r2,12(r16)
 4105070:	81000217 	ldw	r4,8(r16)
 4105074:	89400054 	ori	r5,r17,1
 4105078:	81400115 	stw	r5,4(r16)
 410507c:	20800315 	stw	r2,12(r4)
 4105080:	11000215 	stw	r4,8(r2)
 4105084:	8463883a 	add	r17,r16,r17
 4105088:	9c400515 	stw	r17,20(r19)
 410508c:	9c400415 	stw	r17,16(r19)
 4105090:	18800054 	ori	r2,r3,1
 4105094:	88800115 	stw	r2,4(r17)
 4105098:	8a000315 	stw	r8,12(r17)
 410509c:	8a000215 	stw	r8,8(r17)
 41050a0:	88e3883a 	add	r17,r17,r3
 41050a4:	88c00015 	stw	r3,0(r17)
 41050a8:	9009883a 	mov	r4,r18
 41050ac:	410bf400 	call	410bf40 <__malloc_unlock>
 41050b0:	80800204 	addi	r2,r16,8
 41050b4:	00001b06 	br	4105124 <_malloc_r+0x2a4>
 41050b8:	04400404 	movi	r17,16
 41050bc:	89402536 	bltu	r17,r5,4105154 <_malloc_r+0x2d4>
 41050c0:	410bf1c0 	call	410bf1c <__malloc_lock>
 41050c4:	00800184 	movi	r2,6
 41050c8:	01000084 	movi	r4,2
 41050cc:	04c10474 	movhi	r19,1041
 41050d0:	1085883a 	add	r2,r2,r2
 41050d4:	9cfa1504 	addi	r19,r19,-6060
 41050d8:	1085883a 	add	r2,r2,r2
 41050dc:	9885883a 	add	r2,r19,r2
 41050e0:	14000117 	ldw	r16,4(r2)
 41050e4:	10fffe04 	addi	r3,r2,-8
 41050e8:	80c0d926 	beq	r16,r3,4105450 <_malloc_r+0x5d0>
 41050ec:	80c00117 	ldw	r3,4(r16)
 41050f0:	81000317 	ldw	r4,12(r16)
 41050f4:	00bfff04 	movi	r2,-4
 41050f8:	1884703a 	and	r2,r3,r2
 41050fc:	81400217 	ldw	r5,8(r16)
 4105100:	8085883a 	add	r2,r16,r2
 4105104:	10c00117 	ldw	r3,4(r2)
 4105108:	29000315 	stw	r4,12(r5)
 410510c:	21400215 	stw	r5,8(r4)
 4105110:	18c00054 	ori	r3,r3,1
 4105114:	10c00115 	stw	r3,4(r2)
 4105118:	9009883a 	mov	r4,r18
 410511c:	410bf400 	call	410bf40 <__malloc_unlock>
 4105120:	80800204 	addi	r2,r16,8
 4105124:	dfc00a17 	ldw	ra,40(sp)
 4105128:	df000917 	ldw	fp,36(sp)
 410512c:	ddc00817 	ldw	r23,32(sp)
 4105130:	dd800717 	ldw	r22,28(sp)
 4105134:	dd400617 	ldw	r21,24(sp)
 4105138:	dd000517 	ldw	r20,20(sp)
 410513c:	dcc00417 	ldw	r19,16(sp)
 4105140:	dc800317 	ldw	r18,12(sp)
 4105144:	dc400217 	ldw	r17,8(sp)
 4105148:	dc000117 	ldw	r16,4(sp)
 410514c:	dec00b04 	addi	sp,sp,44
 4105150:	f800283a 	ret
 4105154:	00800304 	movi	r2,12
 4105158:	90800015 	stw	r2,0(r18)
 410515c:	0005883a 	mov	r2,zero
 4105160:	003ff006 	br	4105124 <__ram_exceptions_end+0xfc0fcee0>
 4105164:	01002004 	movi	r4,128
 4105168:	02001004 	movi	r8,64
 410516c:	01c00fc4 	movi	r7,63
 4105170:	003f6106 	br	4104ef8 <__ram_exceptions_end+0xfc0fccb4>
 4105174:	4009883a 	mov	r4,r8
 4105178:	003f7506 	br	4104f50 <__ram_exceptions_end+0xfc0fcd0c>
 410517c:	81000317 	ldw	r4,12(r16)
 4105180:	003fde06 	br	41050fc <__ram_exceptions_end+0xfc0fceb8>
 4105184:	81c5883a 	add	r2,r16,r7
 4105188:	11400117 	ldw	r5,4(r2)
 410518c:	9009883a 	mov	r4,r18
 4105190:	29400054 	ori	r5,r5,1
 4105194:	11400115 	stw	r5,4(r2)
 4105198:	410bf400 	call	410bf40 <__malloc_unlock>
 410519c:	80800204 	addi	r2,r16,8
 41051a0:	003fe006 	br	4105124 <__ram_exceptions_end+0xfc0fcee0>
 41051a4:	9c000217 	ldw	r16,8(r19)
 41051a8:	00bfff04 	movi	r2,-4
 41051ac:	85800117 	ldw	r22,4(r16)
 41051b0:	b0ac703a 	and	r22,r22,r2
 41051b4:	b4400336 	bltu	r22,r17,41051c4 <_malloc_r+0x344>
 41051b8:	b445c83a 	sub	r2,r22,r17
 41051bc:	00c003c4 	movi	r3,15
 41051c0:	18805d16 	blt	r3,r2,4105338 <_malloc_r+0x4b8>
 41051c4:	05c10474 	movhi	r23,1041
 41051c8:	00810474 	movhi	r2,1041
 41051cc:	10868004 	addi	r2,r2,6656
 41051d0:	bdffa104 	addi	r23,r23,-380
 41051d4:	15400017 	ldw	r21,0(r2)
 41051d8:	b8c00017 	ldw	r3,0(r23)
 41051dc:	00bfffc4 	movi	r2,-1
 41051e0:	858d883a 	add	r6,r16,r22
 41051e4:	8d6b883a 	add	r21,r17,r21
 41051e8:	1880ea26 	beq	r3,r2,4105594 <_malloc_r+0x714>
 41051ec:	ad4403c4 	addi	r21,r21,4111
 41051f0:	00bc0004 	movi	r2,-4096
 41051f4:	a8aa703a 	and	r21,r21,r2
 41051f8:	a80b883a 	mov	r5,r21
 41051fc:	9009883a 	mov	r4,r18
 4105200:	d9800015 	stw	r6,0(sp)
 4105204:	41067e00 	call	41067e0 <_sbrk_r>
 4105208:	1029883a 	mov	r20,r2
 410520c:	00bfffc4 	movi	r2,-1
 4105210:	d9800017 	ldw	r6,0(sp)
 4105214:	a080e826 	beq	r20,r2,41055b8 <_malloc_r+0x738>
 4105218:	a180a636 	bltu	r20,r6,41054b4 <_malloc_r+0x634>
 410521c:	07010474 	movhi	fp,1041
 4105220:	e7068904 	addi	fp,fp,6692
 4105224:	e0800017 	ldw	r2,0(fp)
 4105228:	a887883a 	add	r3,r21,r2
 410522c:	e0c00015 	stw	r3,0(fp)
 4105230:	3500e626 	beq	r6,r20,41055cc <_malloc_r+0x74c>
 4105234:	b9000017 	ldw	r4,0(r23)
 4105238:	00bfffc4 	movi	r2,-1
 410523c:	2080ee26 	beq	r4,r2,41055f8 <_malloc_r+0x778>
 4105240:	a185c83a 	sub	r2,r20,r6
 4105244:	10c5883a 	add	r2,r2,r3
 4105248:	e0800015 	stw	r2,0(fp)
 410524c:	a0c001cc 	andi	r3,r20,7
 4105250:	1800bc26 	beq	r3,zero,4105544 <_malloc_r+0x6c4>
 4105254:	a0e9c83a 	sub	r20,r20,r3
 4105258:	00840204 	movi	r2,4104
 410525c:	a5000204 	addi	r20,r20,8
 4105260:	10c7c83a 	sub	r3,r2,r3
 4105264:	a545883a 	add	r2,r20,r21
 4105268:	1083ffcc 	andi	r2,r2,4095
 410526c:	18abc83a 	sub	r21,r3,r2
 4105270:	a80b883a 	mov	r5,r21
 4105274:	9009883a 	mov	r4,r18
 4105278:	41067e00 	call	41067e0 <_sbrk_r>
 410527c:	00ffffc4 	movi	r3,-1
 4105280:	10c0e126 	beq	r2,r3,4105608 <_malloc_r+0x788>
 4105284:	1505c83a 	sub	r2,r2,r20
 4105288:	1545883a 	add	r2,r2,r21
 410528c:	10800054 	ori	r2,r2,1
 4105290:	e0c00017 	ldw	r3,0(fp)
 4105294:	9d000215 	stw	r20,8(r19)
 4105298:	a0800115 	stw	r2,4(r20)
 410529c:	a8c7883a 	add	r3,r21,r3
 41052a0:	e0c00015 	stw	r3,0(fp)
 41052a4:	84c00e26 	beq	r16,r19,41052e0 <_malloc_r+0x460>
 41052a8:	018003c4 	movi	r6,15
 41052ac:	3580a72e 	bgeu	r6,r22,410554c <_malloc_r+0x6cc>
 41052b0:	81400117 	ldw	r5,4(r16)
 41052b4:	013ffe04 	movi	r4,-8
 41052b8:	b0bffd04 	addi	r2,r22,-12
 41052bc:	1104703a 	and	r2,r2,r4
 41052c0:	2900004c 	andi	r4,r5,1
 41052c4:	2088b03a 	or	r4,r4,r2
 41052c8:	81000115 	stw	r4,4(r16)
 41052cc:	01400144 	movi	r5,5
 41052d0:	8089883a 	add	r4,r16,r2
 41052d4:	21400115 	stw	r5,4(r4)
 41052d8:	21400215 	stw	r5,8(r4)
 41052dc:	3080cd36 	bltu	r6,r2,4105614 <_malloc_r+0x794>
 41052e0:	00810474 	movhi	r2,1041
 41052e4:	10867f04 	addi	r2,r2,6652
 41052e8:	11000017 	ldw	r4,0(r2)
 41052ec:	20c0012e 	bgeu	r4,r3,41052f4 <_malloc_r+0x474>
 41052f0:	10c00015 	stw	r3,0(r2)
 41052f4:	00810474 	movhi	r2,1041
 41052f8:	10867e04 	addi	r2,r2,6648
 41052fc:	11000017 	ldw	r4,0(r2)
 4105300:	9c000217 	ldw	r16,8(r19)
 4105304:	20c0012e 	bgeu	r4,r3,410530c <_malloc_r+0x48c>
 4105308:	10c00015 	stw	r3,0(r2)
 410530c:	80c00117 	ldw	r3,4(r16)
 4105310:	00bfff04 	movi	r2,-4
 4105314:	1886703a 	and	r3,r3,r2
 4105318:	1c45c83a 	sub	r2,r3,r17
 410531c:	1c400236 	bltu	r3,r17,4105328 <_malloc_r+0x4a8>
 4105320:	00c003c4 	movi	r3,15
 4105324:	18800416 	blt	r3,r2,4105338 <_malloc_r+0x4b8>
 4105328:	9009883a 	mov	r4,r18
 410532c:	410bf400 	call	410bf40 <__malloc_unlock>
 4105330:	0005883a 	mov	r2,zero
 4105334:	003f7b06 	br	4105124 <__ram_exceptions_end+0xfc0fcee0>
 4105338:	88c00054 	ori	r3,r17,1
 410533c:	80c00115 	stw	r3,4(r16)
 4105340:	8463883a 	add	r17,r16,r17
 4105344:	10800054 	ori	r2,r2,1
 4105348:	9c400215 	stw	r17,8(r19)
 410534c:	88800115 	stw	r2,4(r17)
 4105350:	9009883a 	mov	r4,r18
 4105354:	410bf400 	call	410bf40 <__malloc_unlock>
 4105358:	80800204 	addi	r2,r16,8
 410535c:	003f7106 	br	4105124 <__ram_exceptions_end+0xfc0fcee0>
 4105360:	00c00504 	movi	r3,20
 4105364:	18804a2e 	bgeu	r3,r2,4105490 <_malloc_r+0x610>
 4105368:	00c01504 	movi	r3,84
 410536c:	18806e36 	bltu	r3,r2,4105528 <_malloc_r+0x6a8>
 4105370:	8804d33a 	srli	r2,r17,12
 4105374:	12001bc4 	addi	r8,r2,111
 4105378:	11c01b84 	addi	r7,r2,110
 410537c:	4209883a 	add	r4,r8,r8
 4105380:	003edd06 	br	4104ef8 <__ram_exceptions_end+0xfc0fccb4>
 4105384:	3804d27a 	srli	r2,r7,9
 4105388:	00c00104 	movi	r3,4
 410538c:	1880442e 	bgeu	r3,r2,41054a0 <_malloc_r+0x620>
 4105390:	00c00504 	movi	r3,20
 4105394:	18808136 	bltu	r3,r2,410559c <_malloc_r+0x71c>
 4105398:	11401704 	addi	r5,r2,92
 410539c:	10c016c4 	addi	r3,r2,91
 41053a0:	294b883a 	add	r5,r5,r5
 41053a4:	294b883a 	add	r5,r5,r5
 41053a8:	294b883a 	add	r5,r5,r5
 41053ac:	994b883a 	add	r5,r19,r5
 41053b0:	28800017 	ldw	r2,0(r5)
 41053b4:	01810474 	movhi	r6,1041
 41053b8:	297ffe04 	addi	r5,r5,-8
 41053bc:	31ba1504 	addi	r6,r6,-6060
 41053c0:	28806526 	beq	r5,r2,4105558 <_malloc_r+0x6d8>
 41053c4:	01bfff04 	movi	r6,-4
 41053c8:	10c00117 	ldw	r3,4(r2)
 41053cc:	1986703a 	and	r3,r3,r6
 41053d0:	38c0022e 	bgeu	r7,r3,41053dc <_malloc_r+0x55c>
 41053d4:	10800217 	ldw	r2,8(r2)
 41053d8:	28bffb1e 	bne	r5,r2,41053c8 <__ram_exceptions_end+0xfc0fd184>
 41053dc:	11400317 	ldw	r5,12(r2)
 41053e0:	98c00117 	ldw	r3,4(r19)
 41053e4:	81400315 	stw	r5,12(r16)
 41053e8:	80800215 	stw	r2,8(r16)
 41053ec:	2c000215 	stw	r16,8(r5)
 41053f0:	14000315 	stw	r16,12(r2)
 41053f4:	003ef806 	br	4104fd8 <__ram_exceptions_end+0xfc0fcd94>
 41053f8:	88c00054 	ori	r3,r17,1
 41053fc:	80c00115 	stw	r3,4(r16)
 4105400:	8463883a 	add	r17,r16,r17
 4105404:	34400515 	stw	r17,20(r6)
 4105408:	34400415 	stw	r17,16(r6)
 410540c:	10c00054 	ori	r3,r2,1
 4105410:	8a000315 	stw	r8,12(r17)
 4105414:	8a000215 	stw	r8,8(r17)
 4105418:	88c00115 	stw	r3,4(r17)
 410541c:	88a3883a 	add	r17,r17,r2
 4105420:	88800015 	stw	r2,0(r17)
 4105424:	9009883a 	mov	r4,r18
 4105428:	410bf400 	call	410bf40 <__malloc_unlock>
 410542c:	80800204 	addi	r2,r16,8
 4105430:	003f3c06 	br	4105124 <__ram_exceptions_end+0xfc0fcee0>
 4105434:	30c00117 	ldw	r3,4(r6)
 4105438:	003ee706 	br	4104fd8 <__ram_exceptions_end+0xfc0fcd94>
 410543c:	5ac00044 	addi	r11,r11,1
 4105440:	588000cc 	andi	r2,r11,3
 4105444:	31800204 	addi	r6,r6,8
 4105448:	103efd1e 	bne	r2,zero,4105040 <__ram_exceptions_end+0xfc0fcdfc>
 410544c:	00002406 	br	41054e0 <_malloc_r+0x660>
 4105450:	14000317 	ldw	r16,12(r2)
 4105454:	143f251e 	bne	r2,r16,41050ec <__ram_exceptions_end+0xfc0fcea8>
 4105458:	21000084 	addi	r4,r4,2
 410545c:	003ebc06 	br	4104f50 <__ram_exceptions_end+0xfc0fcd0c>
 4105460:	8085883a 	add	r2,r16,r2
 4105464:	10c00117 	ldw	r3,4(r2)
 4105468:	81000317 	ldw	r4,12(r16)
 410546c:	81400217 	ldw	r5,8(r16)
 4105470:	18c00054 	ori	r3,r3,1
 4105474:	10c00115 	stw	r3,4(r2)
 4105478:	29000315 	stw	r4,12(r5)
 410547c:	21400215 	stw	r5,8(r4)
 4105480:	9009883a 	mov	r4,r18
 4105484:	410bf400 	call	410bf40 <__malloc_unlock>
 4105488:	80800204 	addi	r2,r16,8
 410548c:	003f2506 	br	4105124 <__ram_exceptions_end+0xfc0fcee0>
 4105490:	12001704 	addi	r8,r2,92
 4105494:	11c016c4 	addi	r7,r2,91
 4105498:	4209883a 	add	r4,r8,r8
 410549c:	003e9606 	br	4104ef8 <__ram_exceptions_end+0xfc0fccb4>
 41054a0:	3804d1ba 	srli	r2,r7,6
 41054a4:	11400e44 	addi	r5,r2,57
 41054a8:	10c00e04 	addi	r3,r2,56
 41054ac:	294b883a 	add	r5,r5,r5
 41054b0:	003fbc06 	br	41053a4 <__ram_exceptions_end+0xfc0fd160>
 41054b4:	84ff5926 	beq	r16,r19,410521c <__ram_exceptions_end+0xfc0fcfd8>
 41054b8:	00810474 	movhi	r2,1041
 41054bc:	10ba1504 	addi	r2,r2,-6060
 41054c0:	14000217 	ldw	r16,8(r2)
 41054c4:	00bfff04 	movi	r2,-4
 41054c8:	80c00117 	ldw	r3,4(r16)
 41054cc:	1886703a 	and	r3,r3,r2
 41054d0:	003f9106 	br	4105318 <__ram_exceptions_end+0xfc0fd0d4>
 41054d4:	60800217 	ldw	r2,8(r12)
 41054d8:	213fffc4 	addi	r4,r4,-1
 41054dc:	1300651e 	bne	r2,r12,4105674 <_malloc_r+0x7f4>
 41054e0:	208000cc 	andi	r2,r4,3
 41054e4:	633ffe04 	addi	r12,r12,-8
 41054e8:	103ffa1e 	bne	r2,zero,41054d4 <__ram_exceptions_end+0xfc0fd290>
 41054ec:	98800117 	ldw	r2,4(r19)
 41054f0:	0146303a 	nor	r3,zero,r5
 41054f4:	1884703a 	and	r2,r3,r2
 41054f8:	98800115 	stw	r2,4(r19)
 41054fc:	294b883a 	add	r5,r5,r5
 4105500:	117f2836 	bltu	r2,r5,41051a4 <__ram_exceptions_end+0xfc0fcf60>
 4105504:	283f2726 	beq	r5,zero,41051a4 <__ram_exceptions_end+0xfc0fcf60>
 4105508:	2886703a 	and	r3,r5,r2
 410550c:	5809883a 	mov	r4,r11
 4105510:	183ec31e 	bne	r3,zero,4105020 <__ram_exceptions_end+0xfc0fcddc>
 4105514:	294b883a 	add	r5,r5,r5
 4105518:	2886703a 	and	r3,r5,r2
 410551c:	21000104 	addi	r4,r4,4
 4105520:	183ffc26 	beq	r3,zero,4105514 <__ram_exceptions_end+0xfc0fd2d0>
 4105524:	003ebe06 	br	4105020 <__ram_exceptions_end+0xfc0fcddc>
 4105528:	00c05504 	movi	r3,340
 410552c:	18801236 	bltu	r3,r2,4105578 <_malloc_r+0x6f8>
 4105530:	8804d3fa 	srli	r2,r17,15
 4105534:	12001e04 	addi	r8,r2,120
 4105538:	11c01dc4 	addi	r7,r2,119
 410553c:	4209883a 	add	r4,r8,r8
 4105540:	003e6d06 	br	4104ef8 <__ram_exceptions_end+0xfc0fccb4>
 4105544:	00c40004 	movi	r3,4096
 4105548:	003f4606 	br	4105264 <__ram_exceptions_end+0xfc0fd020>
 410554c:	00800044 	movi	r2,1
 4105550:	a0800115 	stw	r2,4(r20)
 4105554:	003f7406 	br	4105328 <__ram_exceptions_end+0xfc0fd0e4>
 4105558:	1805d0ba 	srai	r2,r3,2
 410555c:	01c00044 	movi	r7,1
 4105560:	30c00117 	ldw	r3,4(r6)
 4105564:	388e983a 	sll	r7,r7,r2
 4105568:	2805883a 	mov	r2,r5
 410556c:	38c6b03a 	or	r3,r7,r3
 4105570:	30c00115 	stw	r3,4(r6)
 4105574:	003f9b06 	br	41053e4 <__ram_exceptions_end+0xfc0fd1a0>
 4105578:	00c15504 	movi	r3,1364
 410557c:	18801a36 	bltu	r3,r2,41055e8 <_malloc_r+0x768>
 4105580:	8804d4ba 	srli	r2,r17,18
 4105584:	12001f44 	addi	r8,r2,125
 4105588:	11c01f04 	addi	r7,r2,124
 410558c:	4209883a 	add	r4,r8,r8
 4105590:	003e5906 	br	4104ef8 <__ram_exceptions_end+0xfc0fccb4>
 4105594:	ad400404 	addi	r21,r21,16
 4105598:	003f1706 	br	41051f8 <__ram_exceptions_end+0xfc0fcfb4>
 410559c:	00c01504 	movi	r3,84
 41055a0:	18802336 	bltu	r3,r2,4105630 <_malloc_r+0x7b0>
 41055a4:	3804d33a 	srli	r2,r7,12
 41055a8:	11401bc4 	addi	r5,r2,111
 41055ac:	10c01b84 	addi	r3,r2,110
 41055b0:	294b883a 	add	r5,r5,r5
 41055b4:	003f7b06 	br	41053a4 <__ram_exceptions_end+0xfc0fd160>
 41055b8:	9c000217 	ldw	r16,8(r19)
 41055bc:	00bfff04 	movi	r2,-4
 41055c0:	80c00117 	ldw	r3,4(r16)
 41055c4:	1886703a 	and	r3,r3,r2
 41055c8:	003f5306 	br	4105318 <__ram_exceptions_end+0xfc0fd0d4>
 41055cc:	3083ffcc 	andi	r2,r6,4095
 41055d0:	103f181e 	bne	r2,zero,4105234 <__ram_exceptions_end+0xfc0fcff0>
 41055d4:	99000217 	ldw	r4,8(r19)
 41055d8:	b545883a 	add	r2,r22,r21
 41055dc:	10800054 	ori	r2,r2,1
 41055e0:	20800115 	stw	r2,4(r4)
 41055e4:	003f3e06 	br	41052e0 <__ram_exceptions_end+0xfc0fd09c>
 41055e8:	01003f84 	movi	r4,254
 41055ec:	02001fc4 	movi	r8,127
 41055f0:	01c01f84 	movi	r7,126
 41055f4:	003e4006 	br	4104ef8 <__ram_exceptions_end+0xfc0fccb4>
 41055f8:	00810474 	movhi	r2,1041
 41055fc:	10bfa104 	addi	r2,r2,-380
 4105600:	15000015 	stw	r20,0(r2)
 4105604:	003f1106 	br	410524c <__ram_exceptions_end+0xfc0fd008>
 4105608:	00800044 	movi	r2,1
 410560c:	002b883a 	mov	r21,zero
 4105610:	003f1f06 	br	4105290 <__ram_exceptions_end+0xfc0fd04c>
 4105614:	81400204 	addi	r5,r16,8
 4105618:	9009883a 	mov	r4,r18
 410561c:	4107f040 	call	4107f04 <_free_r>
 4105620:	00810474 	movhi	r2,1041
 4105624:	10868904 	addi	r2,r2,6692
 4105628:	10c00017 	ldw	r3,0(r2)
 410562c:	003f2c06 	br	41052e0 <__ram_exceptions_end+0xfc0fd09c>
 4105630:	00c05504 	movi	r3,340
 4105634:	18800536 	bltu	r3,r2,410564c <_malloc_r+0x7cc>
 4105638:	3804d3fa 	srli	r2,r7,15
 410563c:	11401e04 	addi	r5,r2,120
 4105640:	10c01dc4 	addi	r3,r2,119
 4105644:	294b883a 	add	r5,r5,r5
 4105648:	003f5606 	br	41053a4 <__ram_exceptions_end+0xfc0fd160>
 410564c:	00c15504 	movi	r3,1364
 4105650:	18800536 	bltu	r3,r2,4105668 <_malloc_r+0x7e8>
 4105654:	3804d4ba 	srli	r2,r7,18
 4105658:	11401f44 	addi	r5,r2,125
 410565c:	10c01f04 	addi	r3,r2,124
 4105660:	294b883a 	add	r5,r5,r5
 4105664:	003f4f06 	br	41053a4 <__ram_exceptions_end+0xfc0fd160>
 4105668:	01403f84 	movi	r5,254
 410566c:	00c01f84 	movi	r3,126
 4105670:	003f4c06 	br	41053a4 <__ram_exceptions_end+0xfc0fd160>
 4105674:	98800117 	ldw	r2,4(r19)
 4105678:	003fa006 	br	41054fc <__ram_exceptions_end+0xfc0fd2b8>
 410567c:	8808d0fa 	srli	r4,r17,3
 4105680:	20800044 	addi	r2,r4,1
 4105684:	1085883a 	add	r2,r2,r2
 4105688:	003e9006 	br	41050cc <__ram_exceptions_end+0xfc0fce88>

0410568c <memchr>:
 410568c:	208000cc 	andi	r2,r4,3
 4105690:	280f883a 	mov	r7,r5
 4105694:	10003426 	beq	r2,zero,4105768 <memchr+0xdc>
 4105698:	30bfffc4 	addi	r2,r6,-1
 410569c:	30001a26 	beq	r6,zero,4105708 <memchr+0x7c>
 41056a0:	20c00003 	ldbu	r3,0(r4)
 41056a4:	29803fcc 	andi	r6,r5,255
 41056a8:	30c0051e 	bne	r6,r3,41056c0 <memchr+0x34>
 41056ac:	00001806 	br	4105710 <memchr+0x84>
 41056b0:	10001526 	beq	r2,zero,4105708 <memchr+0x7c>
 41056b4:	20c00003 	ldbu	r3,0(r4)
 41056b8:	10bfffc4 	addi	r2,r2,-1
 41056bc:	30c01426 	beq	r6,r3,4105710 <memchr+0x84>
 41056c0:	21000044 	addi	r4,r4,1
 41056c4:	20c000cc 	andi	r3,r4,3
 41056c8:	183ff91e 	bne	r3,zero,41056b0 <__ram_exceptions_end+0xfc0fd46c>
 41056cc:	020000c4 	movi	r8,3
 41056d0:	40801136 	bltu	r8,r2,4105718 <memchr+0x8c>
 41056d4:	10000c26 	beq	r2,zero,4105708 <memchr+0x7c>
 41056d8:	20c00003 	ldbu	r3,0(r4)
 41056dc:	29403fcc 	andi	r5,r5,255
 41056e0:	28c00b26 	beq	r5,r3,4105710 <memchr+0x84>
 41056e4:	20c00044 	addi	r3,r4,1
 41056e8:	39803fcc 	andi	r6,r7,255
 41056ec:	2089883a 	add	r4,r4,r2
 41056f0:	00000306 	br	4105700 <memchr+0x74>
 41056f4:	18c00044 	addi	r3,r3,1
 41056f8:	197fffc3 	ldbu	r5,-1(r3)
 41056fc:	31400526 	beq	r6,r5,4105714 <memchr+0x88>
 4105700:	1805883a 	mov	r2,r3
 4105704:	20fffb1e 	bne	r4,r3,41056f4 <__ram_exceptions_end+0xfc0fd4b0>
 4105708:	0005883a 	mov	r2,zero
 410570c:	f800283a 	ret
 4105710:	2005883a 	mov	r2,r4
 4105714:	f800283a 	ret
 4105718:	28c03fcc 	andi	r3,r5,255
 410571c:	1812923a 	slli	r9,r3,8
 4105720:	02ffbff4 	movhi	r11,65279
 4105724:	02a02074 	movhi	r10,32897
 4105728:	48d2b03a 	or	r9,r9,r3
 410572c:	4806943a 	slli	r3,r9,16
 4105730:	5affbfc4 	addi	r11,r11,-257
 4105734:	52a02004 	addi	r10,r10,-32640
 4105738:	48d2b03a 	or	r9,r9,r3
 410573c:	20c00017 	ldw	r3,0(r4)
 4105740:	48c6f03a 	xor	r3,r9,r3
 4105744:	1acd883a 	add	r6,r3,r11
 4105748:	00c6303a 	nor	r3,zero,r3
 410574c:	30c6703a 	and	r3,r6,r3
 4105750:	1a86703a 	and	r3,r3,r10
 4105754:	183fe01e 	bne	r3,zero,41056d8 <__ram_exceptions_end+0xfc0fd494>
 4105758:	10bfff04 	addi	r2,r2,-4
 410575c:	21000104 	addi	r4,r4,4
 4105760:	40bff636 	bltu	r8,r2,410573c <__ram_exceptions_end+0xfc0fd4f8>
 4105764:	003fdb06 	br	41056d4 <__ram_exceptions_end+0xfc0fd490>
 4105768:	3005883a 	mov	r2,r6
 410576c:	003fd706 	br	41056cc <__ram_exceptions_end+0xfc0fd488>

04105770 <_Balloc>:
 4105770:	20801317 	ldw	r2,76(r4)
 4105774:	defffc04 	addi	sp,sp,-16
 4105778:	dc400115 	stw	r17,4(sp)
 410577c:	dc000015 	stw	r16,0(sp)
 4105780:	dfc00315 	stw	ra,12(sp)
 4105784:	dc800215 	stw	r18,8(sp)
 4105788:	2023883a 	mov	r17,r4
 410578c:	2821883a 	mov	r16,r5
 4105790:	10000f26 	beq	r2,zero,41057d0 <_Balloc+0x60>
 4105794:	8407883a 	add	r3,r16,r16
 4105798:	18c7883a 	add	r3,r3,r3
 410579c:	10c7883a 	add	r3,r2,r3
 41057a0:	18800017 	ldw	r2,0(r3)
 41057a4:	10001126 	beq	r2,zero,41057ec <_Balloc+0x7c>
 41057a8:	11000017 	ldw	r4,0(r2)
 41057ac:	19000015 	stw	r4,0(r3)
 41057b0:	10000415 	stw	zero,16(r2)
 41057b4:	10000315 	stw	zero,12(r2)
 41057b8:	dfc00317 	ldw	ra,12(sp)
 41057bc:	dc800217 	ldw	r18,8(sp)
 41057c0:	dc400117 	ldw	r17,4(sp)
 41057c4:	dc000017 	ldw	r16,0(sp)
 41057c8:	dec00404 	addi	sp,sp,16
 41057cc:	f800283a 	ret
 41057d0:	01800844 	movi	r6,33
 41057d4:	01400104 	movi	r5,4
 41057d8:	4107d1c0 	call	4107d1c <_calloc_r>
 41057dc:	88801315 	stw	r2,76(r17)
 41057e0:	103fec1e 	bne	r2,zero,4105794 <__ram_exceptions_end+0xfc0fd550>
 41057e4:	0005883a 	mov	r2,zero
 41057e8:	003ff306 	br	41057b8 <__ram_exceptions_end+0xfc0fd574>
 41057ec:	01400044 	movi	r5,1
 41057f0:	2c24983a 	sll	r18,r5,r16
 41057f4:	8809883a 	mov	r4,r17
 41057f8:	91800144 	addi	r6,r18,5
 41057fc:	318d883a 	add	r6,r6,r6
 4105800:	318d883a 	add	r6,r6,r6
 4105804:	4107d1c0 	call	4107d1c <_calloc_r>
 4105808:	103ff626 	beq	r2,zero,41057e4 <__ram_exceptions_end+0xfc0fd5a0>
 410580c:	14000115 	stw	r16,4(r2)
 4105810:	14800215 	stw	r18,8(r2)
 4105814:	003fe606 	br	41057b0 <__ram_exceptions_end+0xfc0fd56c>

04105818 <_Bfree>:
 4105818:	28000826 	beq	r5,zero,410583c <_Bfree+0x24>
 410581c:	28c00117 	ldw	r3,4(r5)
 4105820:	20801317 	ldw	r2,76(r4)
 4105824:	18c7883a 	add	r3,r3,r3
 4105828:	18c7883a 	add	r3,r3,r3
 410582c:	10c5883a 	add	r2,r2,r3
 4105830:	10c00017 	ldw	r3,0(r2)
 4105834:	28c00015 	stw	r3,0(r5)
 4105838:	11400015 	stw	r5,0(r2)
 410583c:	f800283a 	ret

04105840 <__multadd>:
 4105840:	defffa04 	addi	sp,sp,-24
 4105844:	dc800315 	stw	r18,12(sp)
 4105848:	dc400215 	stw	r17,8(sp)
 410584c:	dc000115 	stw	r16,4(sp)
 4105850:	2823883a 	mov	r17,r5
 4105854:	2c000417 	ldw	r16,16(r5)
 4105858:	dfc00515 	stw	ra,20(sp)
 410585c:	dcc00415 	stw	r19,16(sp)
 4105860:	2025883a 	mov	r18,r4
 4105864:	29400504 	addi	r5,r5,20
 4105868:	0011883a 	mov	r8,zero
 410586c:	28c00017 	ldw	r3,0(r5)
 4105870:	29400104 	addi	r5,r5,4
 4105874:	42000044 	addi	r8,r8,1
 4105878:	18bfffcc 	andi	r2,r3,65535
 410587c:	1185383a 	mul	r2,r2,r6
 4105880:	1806d43a 	srli	r3,r3,16
 4105884:	11cf883a 	add	r7,r2,r7
 4105888:	3808d43a 	srli	r4,r7,16
 410588c:	1987383a 	mul	r3,r3,r6
 4105890:	38bfffcc 	andi	r2,r7,65535
 4105894:	1907883a 	add	r3,r3,r4
 4105898:	1808943a 	slli	r4,r3,16
 410589c:	180ed43a 	srli	r7,r3,16
 41058a0:	2085883a 	add	r2,r4,r2
 41058a4:	28bfff15 	stw	r2,-4(r5)
 41058a8:	443ff016 	blt	r8,r16,410586c <__ram_exceptions_end+0xfc0fd628>
 41058ac:	38000926 	beq	r7,zero,41058d4 <__multadd+0x94>
 41058b0:	88800217 	ldw	r2,8(r17)
 41058b4:	80800f0e 	bge	r16,r2,41058f4 <__multadd+0xb4>
 41058b8:	80800144 	addi	r2,r16,5
 41058bc:	1085883a 	add	r2,r2,r2
 41058c0:	1085883a 	add	r2,r2,r2
 41058c4:	8885883a 	add	r2,r17,r2
 41058c8:	11c00015 	stw	r7,0(r2)
 41058cc:	84000044 	addi	r16,r16,1
 41058d0:	8c000415 	stw	r16,16(r17)
 41058d4:	8805883a 	mov	r2,r17
 41058d8:	dfc00517 	ldw	ra,20(sp)
 41058dc:	dcc00417 	ldw	r19,16(sp)
 41058e0:	dc800317 	ldw	r18,12(sp)
 41058e4:	dc400217 	ldw	r17,8(sp)
 41058e8:	dc000117 	ldw	r16,4(sp)
 41058ec:	dec00604 	addi	sp,sp,24
 41058f0:	f800283a 	ret
 41058f4:	89400117 	ldw	r5,4(r17)
 41058f8:	9009883a 	mov	r4,r18
 41058fc:	d9c00015 	stw	r7,0(sp)
 4105900:	29400044 	addi	r5,r5,1
 4105904:	41057700 	call	4105770 <_Balloc>
 4105908:	89800417 	ldw	r6,16(r17)
 410590c:	89400304 	addi	r5,r17,12
 4105910:	11000304 	addi	r4,r2,12
 4105914:	31800084 	addi	r6,r6,2
 4105918:	318d883a 	add	r6,r6,r6
 410591c:	318d883a 	add	r6,r6,r6
 4105920:	1027883a 	mov	r19,r2
 4105924:	4100fa80 	call	4100fa8 <memcpy>
 4105928:	d9c00017 	ldw	r7,0(sp)
 410592c:	88000a26 	beq	r17,zero,4105958 <__multadd+0x118>
 4105930:	88c00117 	ldw	r3,4(r17)
 4105934:	90801317 	ldw	r2,76(r18)
 4105938:	18c7883a 	add	r3,r3,r3
 410593c:	18c7883a 	add	r3,r3,r3
 4105940:	10c5883a 	add	r2,r2,r3
 4105944:	10c00017 	ldw	r3,0(r2)
 4105948:	88c00015 	stw	r3,0(r17)
 410594c:	14400015 	stw	r17,0(r2)
 4105950:	9823883a 	mov	r17,r19
 4105954:	003fd806 	br	41058b8 <__ram_exceptions_end+0xfc0fd674>
 4105958:	9823883a 	mov	r17,r19
 410595c:	003fd606 	br	41058b8 <__ram_exceptions_end+0xfc0fd674>

04105960 <__s2b>:
 4105960:	defff904 	addi	sp,sp,-28
 4105964:	dc400115 	stw	r17,4(sp)
 4105968:	dc000015 	stw	r16,0(sp)
 410596c:	2023883a 	mov	r17,r4
 4105970:	2821883a 	mov	r16,r5
 4105974:	39000204 	addi	r4,r7,8
 4105978:	01400244 	movi	r5,9
 410597c:	dcc00315 	stw	r19,12(sp)
 4105980:	dc800215 	stw	r18,8(sp)
 4105984:	dfc00615 	stw	ra,24(sp)
 4105988:	dd400515 	stw	r21,20(sp)
 410598c:	dd000415 	stw	r20,16(sp)
 4105990:	3825883a 	mov	r18,r7
 4105994:	3027883a 	mov	r19,r6
 4105998:	4100df40 	call	4100df4 <__divsi3>
 410599c:	00c00044 	movi	r3,1
 41059a0:	000b883a 	mov	r5,zero
 41059a4:	1880030e 	bge	r3,r2,41059b4 <__s2b+0x54>
 41059a8:	18c7883a 	add	r3,r3,r3
 41059ac:	29400044 	addi	r5,r5,1
 41059b0:	18bffd16 	blt	r3,r2,41059a8 <__ram_exceptions_end+0xfc0fd764>
 41059b4:	8809883a 	mov	r4,r17
 41059b8:	41057700 	call	4105770 <_Balloc>
 41059bc:	d8c00717 	ldw	r3,28(sp)
 41059c0:	10c00515 	stw	r3,20(r2)
 41059c4:	00c00044 	movi	r3,1
 41059c8:	10c00415 	stw	r3,16(r2)
 41059cc:	00c00244 	movi	r3,9
 41059d0:	1cc0210e 	bge	r3,r19,4105a58 <__s2b+0xf8>
 41059d4:	80eb883a 	add	r21,r16,r3
 41059d8:	a829883a 	mov	r20,r21
 41059dc:	84e1883a 	add	r16,r16,r19
 41059e0:	a1c00007 	ldb	r7,0(r20)
 41059e4:	01800284 	movi	r6,10
 41059e8:	a5000044 	addi	r20,r20,1
 41059ec:	100b883a 	mov	r5,r2
 41059f0:	39fff404 	addi	r7,r7,-48
 41059f4:	8809883a 	mov	r4,r17
 41059f8:	41058400 	call	4105840 <__multadd>
 41059fc:	a43ff81e 	bne	r20,r16,41059e0 <__ram_exceptions_end+0xfc0fd79c>
 4105a00:	ace1883a 	add	r16,r21,r19
 4105a04:	843ffe04 	addi	r16,r16,-8
 4105a08:	9c800a0e 	bge	r19,r18,4105a34 <__s2b+0xd4>
 4105a0c:	94e5c83a 	sub	r18,r18,r19
 4105a10:	84a5883a 	add	r18,r16,r18
 4105a14:	81c00007 	ldb	r7,0(r16)
 4105a18:	01800284 	movi	r6,10
 4105a1c:	84000044 	addi	r16,r16,1
 4105a20:	100b883a 	mov	r5,r2
 4105a24:	39fff404 	addi	r7,r7,-48
 4105a28:	8809883a 	mov	r4,r17
 4105a2c:	41058400 	call	4105840 <__multadd>
 4105a30:	84bff81e 	bne	r16,r18,4105a14 <__ram_exceptions_end+0xfc0fd7d0>
 4105a34:	dfc00617 	ldw	ra,24(sp)
 4105a38:	dd400517 	ldw	r21,20(sp)
 4105a3c:	dd000417 	ldw	r20,16(sp)
 4105a40:	dcc00317 	ldw	r19,12(sp)
 4105a44:	dc800217 	ldw	r18,8(sp)
 4105a48:	dc400117 	ldw	r17,4(sp)
 4105a4c:	dc000017 	ldw	r16,0(sp)
 4105a50:	dec00704 	addi	sp,sp,28
 4105a54:	f800283a 	ret
 4105a58:	84000284 	addi	r16,r16,10
 4105a5c:	1827883a 	mov	r19,r3
 4105a60:	003fe906 	br	4105a08 <__ram_exceptions_end+0xfc0fd7c4>

04105a64 <__hi0bits>:
 4105a64:	20bfffec 	andhi	r2,r4,65535
 4105a68:	1000141e 	bne	r2,zero,4105abc <__hi0bits+0x58>
 4105a6c:	2008943a 	slli	r4,r4,16
 4105a70:	00800404 	movi	r2,16
 4105a74:	20ffc02c 	andhi	r3,r4,65280
 4105a78:	1800021e 	bne	r3,zero,4105a84 <__hi0bits+0x20>
 4105a7c:	2008923a 	slli	r4,r4,8
 4105a80:	10800204 	addi	r2,r2,8
 4105a84:	20fc002c 	andhi	r3,r4,61440
 4105a88:	1800021e 	bne	r3,zero,4105a94 <__hi0bits+0x30>
 4105a8c:	2008913a 	slli	r4,r4,4
 4105a90:	10800104 	addi	r2,r2,4
 4105a94:	20f0002c 	andhi	r3,r4,49152
 4105a98:	1800031e 	bne	r3,zero,4105aa8 <__hi0bits+0x44>
 4105a9c:	2109883a 	add	r4,r4,r4
 4105aa0:	10800084 	addi	r2,r2,2
 4105aa4:	2109883a 	add	r4,r4,r4
 4105aa8:	20000316 	blt	r4,zero,4105ab8 <__hi0bits+0x54>
 4105aac:	2110002c 	andhi	r4,r4,16384
 4105ab0:	2000041e 	bne	r4,zero,4105ac4 <__hi0bits+0x60>
 4105ab4:	00800804 	movi	r2,32
 4105ab8:	f800283a 	ret
 4105abc:	0005883a 	mov	r2,zero
 4105ac0:	003fec06 	br	4105a74 <__ram_exceptions_end+0xfc0fd830>
 4105ac4:	10800044 	addi	r2,r2,1
 4105ac8:	f800283a 	ret

04105acc <__lo0bits>:
 4105acc:	20c00017 	ldw	r3,0(r4)
 4105ad0:	188001cc 	andi	r2,r3,7
 4105ad4:	10000826 	beq	r2,zero,4105af8 <__lo0bits+0x2c>
 4105ad8:	1880004c 	andi	r2,r3,1
 4105adc:	1000211e 	bne	r2,zero,4105b64 <__lo0bits+0x98>
 4105ae0:	1880008c 	andi	r2,r3,2
 4105ae4:	1000211e 	bne	r2,zero,4105b6c <__lo0bits+0xa0>
 4105ae8:	1806d0ba 	srli	r3,r3,2
 4105aec:	00800084 	movi	r2,2
 4105af0:	20c00015 	stw	r3,0(r4)
 4105af4:	f800283a 	ret
 4105af8:	18bfffcc 	andi	r2,r3,65535
 4105afc:	10001326 	beq	r2,zero,4105b4c <__lo0bits+0x80>
 4105b00:	0005883a 	mov	r2,zero
 4105b04:	19403fcc 	andi	r5,r3,255
 4105b08:	2800021e 	bne	r5,zero,4105b14 <__lo0bits+0x48>
 4105b0c:	1806d23a 	srli	r3,r3,8
 4105b10:	10800204 	addi	r2,r2,8
 4105b14:	194003cc 	andi	r5,r3,15
 4105b18:	2800021e 	bne	r5,zero,4105b24 <__lo0bits+0x58>
 4105b1c:	1806d13a 	srli	r3,r3,4
 4105b20:	10800104 	addi	r2,r2,4
 4105b24:	194000cc 	andi	r5,r3,3
 4105b28:	2800021e 	bne	r5,zero,4105b34 <__lo0bits+0x68>
 4105b2c:	1806d0ba 	srli	r3,r3,2
 4105b30:	10800084 	addi	r2,r2,2
 4105b34:	1940004c 	andi	r5,r3,1
 4105b38:	2800081e 	bne	r5,zero,4105b5c <__lo0bits+0x90>
 4105b3c:	1806d07a 	srli	r3,r3,1
 4105b40:	1800051e 	bne	r3,zero,4105b58 <__lo0bits+0x8c>
 4105b44:	00800804 	movi	r2,32
 4105b48:	f800283a 	ret
 4105b4c:	1806d43a 	srli	r3,r3,16
 4105b50:	00800404 	movi	r2,16
 4105b54:	003feb06 	br	4105b04 <__ram_exceptions_end+0xfc0fd8c0>
 4105b58:	10800044 	addi	r2,r2,1
 4105b5c:	20c00015 	stw	r3,0(r4)
 4105b60:	f800283a 	ret
 4105b64:	0005883a 	mov	r2,zero
 4105b68:	f800283a 	ret
 4105b6c:	1806d07a 	srli	r3,r3,1
 4105b70:	00800044 	movi	r2,1
 4105b74:	20c00015 	stw	r3,0(r4)
 4105b78:	f800283a 	ret

04105b7c <__i2b>:
 4105b7c:	defffd04 	addi	sp,sp,-12
 4105b80:	dc000015 	stw	r16,0(sp)
 4105b84:	04000044 	movi	r16,1
 4105b88:	dc400115 	stw	r17,4(sp)
 4105b8c:	2823883a 	mov	r17,r5
 4105b90:	800b883a 	mov	r5,r16
 4105b94:	dfc00215 	stw	ra,8(sp)
 4105b98:	41057700 	call	4105770 <_Balloc>
 4105b9c:	14400515 	stw	r17,20(r2)
 4105ba0:	14000415 	stw	r16,16(r2)
 4105ba4:	dfc00217 	ldw	ra,8(sp)
 4105ba8:	dc400117 	ldw	r17,4(sp)
 4105bac:	dc000017 	ldw	r16,0(sp)
 4105bb0:	dec00304 	addi	sp,sp,12
 4105bb4:	f800283a 	ret

04105bb8 <__multiply>:
 4105bb8:	defffa04 	addi	sp,sp,-24
 4105bbc:	dcc00315 	stw	r19,12(sp)
 4105bc0:	dc800215 	stw	r18,8(sp)
 4105bc4:	34c00417 	ldw	r19,16(r6)
 4105bc8:	2c800417 	ldw	r18,16(r5)
 4105bcc:	dd000415 	stw	r20,16(sp)
 4105bd0:	dc400115 	stw	r17,4(sp)
 4105bd4:	dfc00515 	stw	ra,20(sp)
 4105bd8:	dc000015 	stw	r16,0(sp)
 4105bdc:	2829883a 	mov	r20,r5
 4105be0:	3023883a 	mov	r17,r6
 4105be4:	94c0050e 	bge	r18,r19,4105bfc <__multiply+0x44>
 4105be8:	9007883a 	mov	r3,r18
 4105bec:	3029883a 	mov	r20,r6
 4105bf0:	9825883a 	mov	r18,r19
 4105bf4:	2823883a 	mov	r17,r5
 4105bf8:	1827883a 	mov	r19,r3
 4105bfc:	a0800217 	ldw	r2,8(r20)
 4105c00:	94e1883a 	add	r16,r18,r19
 4105c04:	a1400117 	ldw	r5,4(r20)
 4105c08:	1400010e 	bge	r2,r16,4105c10 <__multiply+0x58>
 4105c0c:	29400044 	addi	r5,r5,1
 4105c10:	41057700 	call	4105770 <_Balloc>
 4105c14:	8415883a 	add	r10,r16,r16
 4105c18:	12c00504 	addi	r11,r2,20
 4105c1c:	5295883a 	add	r10,r10,r10
 4105c20:	5a95883a 	add	r10,r11,r10
 4105c24:	5807883a 	mov	r3,r11
 4105c28:	5a80032e 	bgeu	r11,r10,4105c38 <__multiply+0x80>
 4105c2c:	18000015 	stw	zero,0(r3)
 4105c30:	18c00104 	addi	r3,r3,4
 4105c34:	1abffd36 	bltu	r3,r10,4105c2c <__ram_exceptions_end+0xfc0fd9e8>
 4105c38:	9ce7883a 	add	r19,r19,r19
 4105c3c:	94a5883a 	add	r18,r18,r18
 4105c40:	89800504 	addi	r6,r17,20
 4105c44:	9ce7883a 	add	r19,r19,r19
 4105c48:	a3400504 	addi	r13,r20,20
 4105c4c:	94a5883a 	add	r18,r18,r18
 4105c50:	34d9883a 	add	r12,r6,r19
 4105c54:	6c93883a 	add	r9,r13,r18
 4105c58:	3300422e 	bgeu	r6,r12,4105d64 <__multiply+0x1ac>
 4105c5c:	37c00017 	ldw	ra,0(r6)
 4105c60:	fbffffcc 	andi	r15,ra,65535
 4105c64:	78001b26 	beq	r15,zero,4105cd4 <__multiply+0x11c>
 4105c68:	5811883a 	mov	r8,r11
 4105c6c:	681d883a 	mov	r14,r13
 4105c70:	000f883a 	mov	r7,zero
 4105c74:	71000017 	ldw	r4,0(r14)
 4105c78:	40c00017 	ldw	r3,0(r8)
 4105c7c:	73800104 	addi	r14,r14,4
 4105c80:	217fffcc 	andi	r5,r4,65535
 4105c84:	2bcb383a 	mul	r5,r5,r15
 4105c88:	2008d43a 	srli	r4,r4,16
 4105c8c:	1c7fffcc 	andi	r17,r3,65535
 4105c90:	2c4b883a 	add	r5,r5,r17
 4105c94:	29cb883a 	add	r5,r5,r7
 4105c98:	23c9383a 	mul	r4,r4,r15
 4105c9c:	1806d43a 	srli	r3,r3,16
 4105ca0:	280ed43a 	srli	r7,r5,16
 4105ca4:	297fffcc 	andi	r5,r5,65535
 4105ca8:	20c7883a 	add	r3,r4,r3
 4105cac:	19c7883a 	add	r3,r3,r7
 4105cb0:	1808943a 	slli	r4,r3,16
 4105cb4:	4023883a 	mov	r17,r8
 4105cb8:	180ed43a 	srli	r7,r3,16
 4105cbc:	214ab03a 	or	r5,r4,r5
 4105cc0:	41400015 	stw	r5,0(r8)
 4105cc4:	42000104 	addi	r8,r8,4
 4105cc8:	727fea36 	bltu	r14,r9,4105c74 <__ram_exceptions_end+0xfc0fda30>
 4105ccc:	89c00115 	stw	r7,4(r17)
 4105cd0:	37c00017 	ldw	ra,0(r6)
 4105cd4:	f83ed43a 	srli	ra,ra,16
 4105cd8:	f8001f26 	beq	ra,zero,4105d58 <__multiply+0x1a0>
 4105cdc:	58c00017 	ldw	r3,0(r11)
 4105ce0:	681d883a 	mov	r14,r13
 4105ce4:	581f883a 	mov	r15,r11
 4105ce8:	1811883a 	mov	r8,r3
 4105cec:	5825883a 	mov	r18,r11
 4105cf0:	000f883a 	mov	r7,zero
 4105cf4:	00000106 	br	4105cfc <__multiply+0x144>
 4105cf8:	8825883a 	mov	r18,r17
 4105cfc:	7140000b 	ldhu	r5,0(r14)
 4105d00:	4010d43a 	srli	r8,r8,16
 4105d04:	193fffcc 	andi	r4,r3,65535
 4105d08:	2fcb383a 	mul	r5,r5,ra
 4105d0c:	7bc00104 	addi	r15,r15,4
 4105d10:	73800104 	addi	r14,r14,4
 4105d14:	2a0b883a 	add	r5,r5,r8
 4105d18:	29cb883a 	add	r5,r5,r7
 4105d1c:	2806943a 	slli	r3,r5,16
 4105d20:	94400104 	addi	r17,r18,4
 4105d24:	280ad43a 	srli	r5,r5,16
 4105d28:	1908b03a 	or	r4,r3,r4
 4105d2c:	793fff15 	stw	r4,-4(r15)
 4105d30:	70ffff17 	ldw	r3,-4(r14)
 4105d34:	8a000017 	ldw	r8,0(r17)
 4105d38:	1806d43a 	srli	r3,r3,16
 4105d3c:	413fffcc 	andi	r4,r8,65535
 4105d40:	1fc7383a 	mul	r3,r3,ra
 4105d44:	1907883a 	add	r3,r3,r4
 4105d48:	1947883a 	add	r3,r3,r5
 4105d4c:	180ed43a 	srli	r7,r3,16
 4105d50:	727fe936 	bltu	r14,r9,4105cf8 <__ram_exceptions_end+0xfc0fdab4>
 4105d54:	90c00115 	stw	r3,4(r18)
 4105d58:	31800104 	addi	r6,r6,4
 4105d5c:	5ac00104 	addi	r11,r11,4
 4105d60:	333fbe36 	bltu	r6,r12,4105c5c <__ram_exceptions_end+0xfc0fda18>
 4105d64:	0400090e 	bge	zero,r16,4105d8c <__multiply+0x1d4>
 4105d68:	50ffff17 	ldw	r3,-4(r10)
 4105d6c:	52bfff04 	addi	r10,r10,-4
 4105d70:	18000326 	beq	r3,zero,4105d80 <__multiply+0x1c8>
 4105d74:	00000506 	br	4105d8c <__multiply+0x1d4>
 4105d78:	50c00017 	ldw	r3,0(r10)
 4105d7c:	1800031e 	bne	r3,zero,4105d8c <__multiply+0x1d4>
 4105d80:	843fffc4 	addi	r16,r16,-1
 4105d84:	52bfff04 	addi	r10,r10,-4
 4105d88:	803ffb1e 	bne	r16,zero,4105d78 <__ram_exceptions_end+0xfc0fdb34>
 4105d8c:	14000415 	stw	r16,16(r2)
 4105d90:	dfc00517 	ldw	ra,20(sp)
 4105d94:	dd000417 	ldw	r20,16(sp)
 4105d98:	dcc00317 	ldw	r19,12(sp)
 4105d9c:	dc800217 	ldw	r18,8(sp)
 4105da0:	dc400117 	ldw	r17,4(sp)
 4105da4:	dc000017 	ldw	r16,0(sp)
 4105da8:	dec00604 	addi	sp,sp,24
 4105dac:	f800283a 	ret

04105db0 <__pow5mult>:
 4105db0:	defffa04 	addi	sp,sp,-24
 4105db4:	dcc00315 	stw	r19,12(sp)
 4105db8:	dc000015 	stw	r16,0(sp)
 4105dbc:	dfc00515 	stw	ra,20(sp)
 4105dc0:	dd000415 	stw	r20,16(sp)
 4105dc4:	dc800215 	stw	r18,8(sp)
 4105dc8:	dc400115 	stw	r17,4(sp)
 4105dcc:	308000cc 	andi	r2,r6,3
 4105dd0:	3021883a 	mov	r16,r6
 4105dd4:	2027883a 	mov	r19,r4
 4105dd8:	10002f1e 	bne	r2,zero,4105e98 <__pow5mult+0xe8>
 4105ddc:	2825883a 	mov	r18,r5
 4105de0:	8021d0ba 	srai	r16,r16,2
 4105de4:	80001a26 	beq	r16,zero,4105e50 <__pow5mult+0xa0>
 4105de8:	9c401217 	ldw	r17,72(r19)
 4105dec:	8800061e 	bne	r17,zero,4105e08 <__pow5mult+0x58>
 4105df0:	00003406 	br	4105ec4 <__pow5mult+0x114>
 4105df4:	8021d07a 	srai	r16,r16,1
 4105df8:	80001526 	beq	r16,zero,4105e50 <__pow5mult+0xa0>
 4105dfc:	88800017 	ldw	r2,0(r17)
 4105e00:	10001c26 	beq	r2,zero,4105e74 <__pow5mult+0xc4>
 4105e04:	1023883a 	mov	r17,r2
 4105e08:	8080004c 	andi	r2,r16,1
 4105e0c:	103ff926 	beq	r2,zero,4105df4 <__ram_exceptions_end+0xfc0fdbb0>
 4105e10:	880d883a 	mov	r6,r17
 4105e14:	900b883a 	mov	r5,r18
 4105e18:	9809883a 	mov	r4,r19
 4105e1c:	4105bb80 	call	4105bb8 <__multiply>
 4105e20:	90001b26 	beq	r18,zero,4105e90 <__pow5mult+0xe0>
 4105e24:	91000117 	ldw	r4,4(r18)
 4105e28:	98c01317 	ldw	r3,76(r19)
 4105e2c:	8021d07a 	srai	r16,r16,1
 4105e30:	2109883a 	add	r4,r4,r4
 4105e34:	2109883a 	add	r4,r4,r4
 4105e38:	1907883a 	add	r3,r3,r4
 4105e3c:	19000017 	ldw	r4,0(r3)
 4105e40:	91000015 	stw	r4,0(r18)
 4105e44:	1c800015 	stw	r18,0(r3)
 4105e48:	1025883a 	mov	r18,r2
 4105e4c:	803feb1e 	bne	r16,zero,4105dfc <__ram_exceptions_end+0xfc0fdbb8>
 4105e50:	9005883a 	mov	r2,r18
 4105e54:	dfc00517 	ldw	ra,20(sp)
 4105e58:	dd000417 	ldw	r20,16(sp)
 4105e5c:	dcc00317 	ldw	r19,12(sp)
 4105e60:	dc800217 	ldw	r18,8(sp)
 4105e64:	dc400117 	ldw	r17,4(sp)
 4105e68:	dc000017 	ldw	r16,0(sp)
 4105e6c:	dec00604 	addi	sp,sp,24
 4105e70:	f800283a 	ret
 4105e74:	880d883a 	mov	r6,r17
 4105e78:	880b883a 	mov	r5,r17
 4105e7c:	9809883a 	mov	r4,r19
 4105e80:	4105bb80 	call	4105bb8 <__multiply>
 4105e84:	88800015 	stw	r2,0(r17)
 4105e88:	10000015 	stw	zero,0(r2)
 4105e8c:	003fdd06 	br	4105e04 <__ram_exceptions_end+0xfc0fdbc0>
 4105e90:	1025883a 	mov	r18,r2
 4105e94:	003fd706 	br	4105df4 <__ram_exceptions_end+0xfc0fdbb0>
 4105e98:	10bfffc4 	addi	r2,r2,-1
 4105e9c:	1085883a 	add	r2,r2,r2
 4105ea0:	00c10474 	movhi	r3,1041
 4105ea4:	18f84c04 	addi	r3,r3,-7888
 4105ea8:	1085883a 	add	r2,r2,r2
 4105eac:	1885883a 	add	r2,r3,r2
 4105eb0:	11800017 	ldw	r6,0(r2)
 4105eb4:	000f883a 	mov	r7,zero
 4105eb8:	41058400 	call	4105840 <__multadd>
 4105ebc:	1025883a 	mov	r18,r2
 4105ec0:	003fc706 	br	4105de0 <__ram_exceptions_end+0xfc0fdb9c>
 4105ec4:	05000044 	movi	r20,1
 4105ec8:	a00b883a 	mov	r5,r20
 4105ecc:	9809883a 	mov	r4,r19
 4105ed0:	41057700 	call	4105770 <_Balloc>
 4105ed4:	1023883a 	mov	r17,r2
 4105ed8:	00809c44 	movi	r2,625
 4105edc:	88800515 	stw	r2,20(r17)
 4105ee0:	8d000415 	stw	r20,16(r17)
 4105ee4:	9c401215 	stw	r17,72(r19)
 4105ee8:	88000015 	stw	zero,0(r17)
 4105eec:	003fc606 	br	4105e08 <__ram_exceptions_end+0xfc0fdbc4>

04105ef0 <__lshift>:
 4105ef0:	defff904 	addi	sp,sp,-28
 4105ef4:	dd400515 	stw	r21,20(sp)
 4105ef8:	dcc00315 	stw	r19,12(sp)
 4105efc:	302bd17a 	srai	r21,r6,5
 4105f00:	2cc00417 	ldw	r19,16(r5)
 4105f04:	28800217 	ldw	r2,8(r5)
 4105f08:	dd000415 	stw	r20,16(sp)
 4105f0c:	ace7883a 	add	r19,r21,r19
 4105f10:	dc800215 	stw	r18,8(sp)
 4105f14:	dc400115 	stw	r17,4(sp)
 4105f18:	dc000015 	stw	r16,0(sp)
 4105f1c:	dfc00615 	stw	ra,24(sp)
 4105f20:	9c000044 	addi	r16,r19,1
 4105f24:	2823883a 	mov	r17,r5
 4105f28:	3029883a 	mov	r20,r6
 4105f2c:	2025883a 	mov	r18,r4
 4105f30:	29400117 	ldw	r5,4(r5)
 4105f34:	1400030e 	bge	r2,r16,4105f44 <__lshift+0x54>
 4105f38:	1085883a 	add	r2,r2,r2
 4105f3c:	29400044 	addi	r5,r5,1
 4105f40:	143ffd16 	blt	r2,r16,4105f38 <__ram_exceptions_end+0xfc0fdcf4>
 4105f44:	9009883a 	mov	r4,r18
 4105f48:	41057700 	call	4105770 <_Balloc>
 4105f4c:	10c00504 	addi	r3,r2,20
 4105f50:	0540070e 	bge	zero,r21,4105f70 <__lshift+0x80>
 4105f54:	ad6b883a 	add	r21,r21,r21
 4105f58:	ad6b883a 	add	r21,r21,r21
 4105f5c:	1809883a 	mov	r4,r3
 4105f60:	1d47883a 	add	r3,r3,r21
 4105f64:	20000015 	stw	zero,0(r4)
 4105f68:	21000104 	addi	r4,r4,4
 4105f6c:	193ffd1e 	bne	r3,r4,4105f64 <__ram_exceptions_end+0xfc0fdd20>
 4105f70:	8a000417 	ldw	r8,16(r17)
 4105f74:	89000504 	addi	r4,r17,20
 4105f78:	a18007cc 	andi	r6,r20,31
 4105f7c:	4211883a 	add	r8,r8,r8
 4105f80:	4211883a 	add	r8,r8,r8
 4105f84:	2211883a 	add	r8,r4,r8
 4105f88:	30002326 	beq	r6,zero,4106018 <__lshift+0x128>
 4105f8c:	02400804 	movi	r9,32
 4105f90:	4993c83a 	sub	r9,r9,r6
 4105f94:	000b883a 	mov	r5,zero
 4105f98:	21c00017 	ldw	r7,0(r4)
 4105f9c:	1815883a 	mov	r10,r3
 4105fa0:	18c00104 	addi	r3,r3,4
 4105fa4:	398e983a 	sll	r7,r7,r6
 4105fa8:	21000104 	addi	r4,r4,4
 4105fac:	394ab03a 	or	r5,r7,r5
 4105fb0:	197fff15 	stw	r5,-4(r3)
 4105fb4:	217fff17 	ldw	r5,-4(r4)
 4105fb8:	2a4ad83a 	srl	r5,r5,r9
 4105fbc:	223ff636 	bltu	r4,r8,4105f98 <__ram_exceptions_end+0xfc0fdd54>
 4105fc0:	51400115 	stw	r5,4(r10)
 4105fc4:	28001a1e 	bne	r5,zero,4106030 <__lshift+0x140>
 4105fc8:	843fffc4 	addi	r16,r16,-1
 4105fcc:	14000415 	stw	r16,16(r2)
 4105fd0:	88000826 	beq	r17,zero,4105ff4 <__lshift+0x104>
 4105fd4:	89000117 	ldw	r4,4(r17)
 4105fd8:	90c01317 	ldw	r3,76(r18)
 4105fdc:	2109883a 	add	r4,r4,r4
 4105fe0:	2109883a 	add	r4,r4,r4
 4105fe4:	1907883a 	add	r3,r3,r4
 4105fe8:	19000017 	ldw	r4,0(r3)
 4105fec:	89000015 	stw	r4,0(r17)
 4105ff0:	1c400015 	stw	r17,0(r3)
 4105ff4:	dfc00617 	ldw	ra,24(sp)
 4105ff8:	dd400517 	ldw	r21,20(sp)
 4105ffc:	dd000417 	ldw	r20,16(sp)
 4106000:	dcc00317 	ldw	r19,12(sp)
 4106004:	dc800217 	ldw	r18,8(sp)
 4106008:	dc400117 	ldw	r17,4(sp)
 410600c:	dc000017 	ldw	r16,0(sp)
 4106010:	dec00704 	addi	sp,sp,28
 4106014:	f800283a 	ret
 4106018:	21400017 	ldw	r5,0(r4)
 410601c:	18c00104 	addi	r3,r3,4
 4106020:	21000104 	addi	r4,r4,4
 4106024:	197fff15 	stw	r5,-4(r3)
 4106028:	223ffb36 	bltu	r4,r8,4106018 <__ram_exceptions_end+0xfc0fddd4>
 410602c:	003fe606 	br	4105fc8 <__ram_exceptions_end+0xfc0fdd84>
 4106030:	9c000084 	addi	r16,r19,2
 4106034:	003fe406 	br	4105fc8 <__ram_exceptions_end+0xfc0fdd84>

04106038 <__mcmp>:
 4106038:	20800417 	ldw	r2,16(r4)
 410603c:	28c00417 	ldw	r3,16(r5)
 4106040:	10c5c83a 	sub	r2,r2,r3
 4106044:	1000111e 	bne	r2,zero,410608c <__mcmp+0x54>
 4106048:	18c7883a 	add	r3,r3,r3
 410604c:	18c7883a 	add	r3,r3,r3
 4106050:	21000504 	addi	r4,r4,20
 4106054:	29400504 	addi	r5,r5,20
 4106058:	20c5883a 	add	r2,r4,r3
 410605c:	28cb883a 	add	r5,r5,r3
 4106060:	00000106 	br	4106068 <__mcmp+0x30>
 4106064:	20800a2e 	bgeu	r4,r2,4106090 <__mcmp+0x58>
 4106068:	10bfff04 	addi	r2,r2,-4
 410606c:	297fff04 	addi	r5,r5,-4
 4106070:	11800017 	ldw	r6,0(r2)
 4106074:	28c00017 	ldw	r3,0(r5)
 4106078:	30fffa26 	beq	r6,r3,4106064 <__ram_exceptions_end+0xfc0fde20>
 410607c:	30c00236 	bltu	r6,r3,4106088 <__mcmp+0x50>
 4106080:	00800044 	movi	r2,1
 4106084:	f800283a 	ret
 4106088:	00bfffc4 	movi	r2,-1
 410608c:	f800283a 	ret
 4106090:	0005883a 	mov	r2,zero
 4106094:	f800283a 	ret

04106098 <__mdiff>:
 4106098:	28c00417 	ldw	r3,16(r5)
 410609c:	30800417 	ldw	r2,16(r6)
 41060a0:	defffa04 	addi	sp,sp,-24
 41060a4:	dcc00315 	stw	r19,12(sp)
 41060a8:	dc800215 	stw	r18,8(sp)
 41060ac:	dfc00515 	stw	ra,20(sp)
 41060b0:	dd000415 	stw	r20,16(sp)
 41060b4:	dc400115 	stw	r17,4(sp)
 41060b8:	dc000015 	stw	r16,0(sp)
 41060bc:	1887c83a 	sub	r3,r3,r2
 41060c0:	2825883a 	mov	r18,r5
 41060c4:	3027883a 	mov	r19,r6
 41060c8:	1800141e 	bne	r3,zero,410611c <__mdiff+0x84>
 41060cc:	1085883a 	add	r2,r2,r2
 41060d0:	1085883a 	add	r2,r2,r2
 41060d4:	2a000504 	addi	r8,r5,20
 41060d8:	34000504 	addi	r16,r6,20
 41060dc:	4087883a 	add	r3,r8,r2
 41060e0:	8085883a 	add	r2,r16,r2
 41060e4:	00000106 	br	41060ec <__mdiff+0x54>
 41060e8:	40c0592e 	bgeu	r8,r3,4106250 <__mdiff+0x1b8>
 41060ec:	18ffff04 	addi	r3,r3,-4
 41060f0:	10bfff04 	addi	r2,r2,-4
 41060f4:	19c00017 	ldw	r7,0(r3)
 41060f8:	11400017 	ldw	r5,0(r2)
 41060fc:	397ffa26 	beq	r7,r5,41060e8 <__ram_exceptions_end+0xfc0fdea4>
 4106100:	3940592e 	bgeu	r7,r5,4106268 <__mdiff+0x1d0>
 4106104:	9005883a 	mov	r2,r18
 4106108:	4023883a 	mov	r17,r8
 410610c:	9825883a 	mov	r18,r19
 4106110:	05000044 	movi	r20,1
 4106114:	1027883a 	mov	r19,r2
 4106118:	00000406 	br	410612c <__mdiff+0x94>
 410611c:	18005616 	blt	r3,zero,4106278 <__mdiff+0x1e0>
 4106120:	34400504 	addi	r17,r6,20
 4106124:	2c000504 	addi	r16,r5,20
 4106128:	0029883a 	mov	r20,zero
 410612c:	91400117 	ldw	r5,4(r18)
 4106130:	41057700 	call	4105770 <_Balloc>
 4106134:	92400417 	ldw	r9,16(r18)
 4106138:	9b000417 	ldw	r12,16(r19)
 410613c:	12c00504 	addi	r11,r2,20
 4106140:	4a51883a 	add	r8,r9,r9
 4106144:	6319883a 	add	r12,r12,r12
 4106148:	4211883a 	add	r8,r8,r8
 410614c:	6319883a 	add	r12,r12,r12
 4106150:	15000315 	stw	r20,12(r2)
 4106154:	8211883a 	add	r8,r16,r8
 4106158:	8b19883a 	add	r12,r17,r12
 410615c:	0007883a 	mov	r3,zero
 4106160:	81400017 	ldw	r5,0(r16)
 4106164:	89c00017 	ldw	r7,0(r17)
 4106168:	59800104 	addi	r6,r11,4
 410616c:	293fffcc 	andi	r4,r5,65535
 4106170:	20c7883a 	add	r3,r4,r3
 4106174:	393fffcc 	andi	r4,r7,65535
 4106178:	1909c83a 	sub	r4,r3,r4
 410617c:	280ad43a 	srli	r5,r5,16
 4106180:	380ed43a 	srli	r7,r7,16
 4106184:	2007d43a 	srai	r3,r4,16
 4106188:	213fffcc 	andi	r4,r4,65535
 410618c:	29cbc83a 	sub	r5,r5,r7
 4106190:	28c7883a 	add	r3,r5,r3
 4106194:	180a943a 	slli	r5,r3,16
 4106198:	8c400104 	addi	r17,r17,4
 410619c:	84000104 	addi	r16,r16,4
 41061a0:	2908b03a 	or	r4,r5,r4
 41061a4:	59000015 	stw	r4,0(r11)
 41061a8:	1807d43a 	srai	r3,r3,16
 41061ac:	3015883a 	mov	r10,r6
 41061b0:	3017883a 	mov	r11,r6
 41061b4:	8b3fea36 	bltu	r17,r12,4106160 <__ram_exceptions_end+0xfc0fdf1c>
 41061b8:	8200162e 	bgeu	r16,r8,4106214 <__mdiff+0x17c>
 41061bc:	8017883a 	mov	r11,r16
 41061c0:	59400017 	ldw	r5,0(r11)
 41061c4:	31800104 	addi	r6,r6,4
 41061c8:	5ac00104 	addi	r11,r11,4
 41061cc:	293fffcc 	andi	r4,r5,65535
 41061d0:	20c7883a 	add	r3,r4,r3
 41061d4:	280ed43a 	srli	r7,r5,16
 41061d8:	180bd43a 	srai	r5,r3,16
 41061dc:	193fffcc 	andi	r4,r3,65535
 41061e0:	3947883a 	add	r3,r7,r5
 41061e4:	180a943a 	slli	r5,r3,16
 41061e8:	1807d43a 	srai	r3,r3,16
 41061ec:	2908b03a 	or	r4,r5,r4
 41061f0:	313fff15 	stw	r4,-4(r6)
 41061f4:	5a3ff236 	bltu	r11,r8,41061c0 <__ram_exceptions_end+0xfc0fdf7c>
 41061f8:	0406303a 	nor	r3,zero,r16
 41061fc:	1a07883a 	add	r3,r3,r8
 4106200:	1806d0ba 	srli	r3,r3,2
 4106204:	18c00044 	addi	r3,r3,1
 4106208:	18c7883a 	add	r3,r3,r3
 410620c:	18c7883a 	add	r3,r3,r3
 4106210:	50d5883a 	add	r10,r10,r3
 4106214:	50ffff04 	addi	r3,r10,-4
 4106218:	2000041e 	bne	r4,zero,410622c <__mdiff+0x194>
 410621c:	18ffff04 	addi	r3,r3,-4
 4106220:	19000017 	ldw	r4,0(r3)
 4106224:	4a7fffc4 	addi	r9,r9,-1
 4106228:	203ffc26 	beq	r4,zero,410621c <__ram_exceptions_end+0xfc0fdfd8>
 410622c:	12400415 	stw	r9,16(r2)
 4106230:	dfc00517 	ldw	ra,20(sp)
 4106234:	dd000417 	ldw	r20,16(sp)
 4106238:	dcc00317 	ldw	r19,12(sp)
 410623c:	dc800217 	ldw	r18,8(sp)
 4106240:	dc400117 	ldw	r17,4(sp)
 4106244:	dc000017 	ldw	r16,0(sp)
 4106248:	dec00604 	addi	sp,sp,24
 410624c:	f800283a 	ret
 4106250:	000b883a 	mov	r5,zero
 4106254:	41057700 	call	4105770 <_Balloc>
 4106258:	00c00044 	movi	r3,1
 410625c:	10c00415 	stw	r3,16(r2)
 4106260:	10000515 	stw	zero,20(r2)
 4106264:	003ff206 	br	4106230 <__ram_exceptions_end+0xfc0fdfec>
 4106268:	8023883a 	mov	r17,r16
 410626c:	0029883a 	mov	r20,zero
 4106270:	4021883a 	mov	r16,r8
 4106274:	003fad06 	br	410612c <__ram_exceptions_end+0xfc0fdee8>
 4106278:	9005883a 	mov	r2,r18
 410627c:	94400504 	addi	r17,r18,20
 4106280:	9c000504 	addi	r16,r19,20
 4106284:	9825883a 	mov	r18,r19
 4106288:	05000044 	movi	r20,1
 410628c:	1027883a 	mov	r19,r2
 4106290:	003fa606 	br	410612c <__ram_exceptions_end+0xfc0fdee8>

04106294 <__ulp>:
 4106294:	295ffc2c 	andhi	r5,r5,32752
 4106298:	00bf3034 	movhi	r2,64704
 410629c:	2887883a 	add	r3,r5,r2
 41062a0:	00c0020e 	bge	zero,r3,41062ac <__ulp+0x18>
 41062a4:	0005883a 	mov	r2,zero
 41062a8:	f800283a 	ret
 41062ac:	00c7c83a 	sub	r3,zero,r3
 41062b0:	1807d53a 	srai	r3,r3,20
 41062b4:	008004c4 	movi	r2,19
 41062b8:	10c00b0e 	bge	r2,r3,41062e8 <__ulp+0x54>
 41062bc:	18bffb04 	addi	r2,r3,-20
 41062c0:	01000784 	movi	r4,30
 41062c4:	0007883a 	mov	r3,zero
 41062c8:	20800516 	blt	r4,r2,41062e0 <__ulp+0x4c>
 41062cc:	010007c4 	movi	r4,31
 41062d0:	2089c83a 	sub	r4,r4,r2
 41062d4:	00800044 	movi	r2,1
 41062d8:	1104983a 	sll	r2,r2,r4
 41062dc:	f800283a 	ret
 41062e0:	00800044 	movi	r2,1
 41062e4:	f800283a 	ret
 41062e8:	01400234 	movhi	r5,8
 41062ec:	28c7d83a 	sra	r3,r5,r3
 41062f0:	0005883a 	mov	r2,zero
 41062f4:	f800283a 	ret

041062f8 <__b2d>:
 41062f8:	defffa04 	addi	sp,sp,-24
 41062fc:	dc000015 	stw	r16,0(sp)
 4106300:	24000417 	ldw	r16,16(r4)
 4106304:	dc400115 	stw	r17,4(sp)
 4106308:	24400504 	addi	r17,r4,20
 410630c:	8421883a 	add	r16,r16,r16
 4106310:	8421883a 	add	r16,r16,r16
 4106314:	8c21883a 	add	r16,r17,r16
 4106318:	dc800215 	stw	r18,8(sp)
 410631c:	84bfff17 	ldw	r18,-4(r16)
 4106320:	dd000415 	stw	r20,16(sp)
 4106324:	dcc00315 	stw	r19,12(sp)
 4106328:	9009883a 	mov	r4,r18
 410632c:	2829883a 	mov	r20,r5
 4106330:	dfc00515 	stw	ra,20(sp)
 4106334:	4105a640 	call	4105a64 <__hi0bits>
 4106338:	00c00804 	movi	r3,32
 410633c:	1889c83a 	sub	r4,r3,r2
 4106340:	a1000015 	stw	r4,0(r20)
 4106344:	01000284 	movi	r4,10
 4106348:	84ffff04 	addi	r19,r16,-4
 410634c:	20801216 	blt	r4,r2,4106398 <__b2d+0xa0>
 4106350:	018002c4 	movi	r6,11
 4106354:	308dc83a 	sub	r6,r6,r2
 4106358:	9186d83a 	srl	r3,r18,r6
 410635c:	18cffc34 	orhi	r3,r3,16368
 4106360:	8cc0212e 	bgeu	r17,r19,41063e8 <__b2d+0xf0>
 4106364:	813ffe17 	ldw	r4,-8(r16)
 4106368:	218cd83a 	srl	r6,r4,r6
 410636c:	10800544 	addi	r2,r2,21
 4106370:	9084983a 	sll	r2,r18,r2
 4106374:	1184b03a 	or	r2,r2,r6
 4106378:	dfc00517 	ldw	ra,20(sp)
 410637c:	dd000417 	ldw	r20,16(sp)
 4106380:	dcc00317 	ldw	r19,12(sp)
 4106384:	dc800217 	ldw	r18,8(sp)
 4106388:	dc400117 	ldw	r17,4(sp)
 410638c:	dc000017 	ldw	r16,0(sp)
 4106390:	dec00604 	addi	sp,sp,24
 4106394:	f800283a 	ret
 4106398:	8cc00f2e 	bgeu	r17,r19,41063d8 <__b2d+0xe0>
 410639c:	117ffd44 	addi	r5,r2,-11
 41063a0:	80bffe17 	ldw	r2,-8(r16)
 41063a4:	28000e26 	beq	r5,zero,41063e0 <__b2d+0xe8>
 41063a8:	1949c83a 	sub	r4,r3,r5
 41063ac:	9164983a 	sll	r18,r18,r5
 41063b0:	1106d83a 	srl	r3,r2,r4
 41063b4:	81bffe04 	addi	r6,r16,-8
 41063b8:	948ffc34 	orhi	r18,r18,16368
 41063bc:	90c6b03a 	or	r3,r18,r3
 41063c0:	89800e2e 	bgeu	r17,r6,41063fc <__b2d+0x104>
 41063c4:	81bffd17 	ldw	r6,-12(r16)
 41063c8:	1144983a 	sll	r2,r2,r5
 41063cc:	310ad83a 	srl	r5,r6,r4
 41063d0:	2884b03a 	or	r2,r5,r2
 41063d4:	003fe806 	br	4106378 <__ram_exceptions_end+0xfc0fe134>
 41063d8:	10bffd44 	addi	r2,r2,-11
 41063dc:	1000041e 	bne	r2,zero,41063f0 <__b2d+0xf8>
 41063e0:	90cffc34 	orhi	r3,r18,16368
 41063e4:	003fe406 	br	4106378 <__ram_exceptions_end+0xfc0fe134>
 41063e8:	000d883a 	mov	r6,zero
 41063ec:	003fdf06 	br	410636c <__ram_exceptions_end+0xfc0fe128>
 41063f0:	90a4983a 	sll	r18,r18,r2
 41063f4:	0005883a 	mov	r2,zero
 41063f8:	003ff906 	br	41063e0 <__ram_exceptions_end+0xfc0fe19c>
 41063fc:	1144983a 	sll	r2,r2,r5
 4106400:	003fdd06 	br	4106378 <__ram_exceptions_end+0xfc0fe134>

04106404 <__d2b>:
 4106404:	defff804 	addi	sp,sp,-32
 4106408:	dc000215 	stw	r16,8(sp)
 410640c:	3021883a 	mov	r16,r6
 4106410:	dc400315 	stw	r17,12(sp)
 4106414:	8022907a 	slli	r17,r16,1
 4106418:	dd000615 	stw	r20,24(sp)
 410641c:	2829883a 	mov	r20,r5
 4106420:	01400044 	movi	r5,1
 4106424:	dcc00515 	stw	r19,20(sp)
 4106428:	dc800415 	stw	r18,16(sp)
 410642c:	dfc00715 	stw	ra,28(sp)
 4106430:	3825883a 	mov	r18,r7
 4106434:	8822d57a 	srli	r17,r17,21
 4106438:	41057700 	call	4105770 <_Balloc>
 410643c:	1027883a 	mov	r19,r2
 4106440:	00800434 	movhi	r2,16
 4106444:	10bfffc4 	addi	r2,r2,-1
 4106448:	808c703a 	and	r6,r16,r2
 410644c:	88000126 	beq	r17,zero,4106454 <__d2b+0x50>
 4106450:	31800434 	orhi	r6,r6,16
 4106454:	d9800015 	stw	r6,0(sp)
 4106458:	a0002426 	beq	r20,zero,41064ec <__d2b+0xe8>
 410645c:	d9000104 	addi	r4,sp,4
 4106460:	dd000115 	stw	r20,4(sp)
 4106464:	4105acc0 	call	4105acc <__lo0bits>
 4106468:	d8c00017 	ldw	r3,0(sp)
 410646c:	10002f1e 	bne	r2,zero,410652c <__d2b+0x128>
 4106470:	d9000117 	ldw	r4,4(sp)
 4106474:	99000515 	stw	r4,20(r19)
 4106478:	1821003a 	cmpeq	r16,r3,zero
 410647c:	01000084 	movi	r4,2
 4106480:	2421c83a 	sub	r16,r4,r16
 4106484:	98c00615 	stw	r3,24(r19)
 4106488:	9c000415 	stw	r16,16(r19)
 410648c:	88001f1e 	bne	r17,zero,410650c <__d2b+0x108>
 4106490:	10bef384 	addi	r2,r2,-1074
 4106494:	90800015 	stw	r2,0(r18)
 4106498:	00900034 	movhi	r2,16384
 410649c:	10bfffc4 	addi	r2,r2,-1
 41064a0:	8085883a 	add	r2,r16,r2
 41064a4:	1085883a 	add	r2,r2,r2
 41064a8:	1085883a 	add	r2,r2,r2
 41064ac:	9885883a 	add	r2,r19,r2
 41064b0:	11000517 	ldw	r4,20(r2)
 41064b4:	8020917a 	slli	r16,r16,5
 41064b8:	4105a640 	call	4105a64 <__hi0bits>
 41064bc:	d8c00817 	ldw	r3,32(sp)
 41064c0:	8085c83a 	sub	r2,r16,r2
 41064c4:	18800015 	stw	r2,0(r3)
 41064c8:	9805883a 	mov	r2,r19
 41064cc:	dfc00717 	ldw	ra,28(sp)
 41064d0:	dd000617 	ldw	r20,24(sp)
 41064d4:	dcc00517 	ldw	r19,20(sp)
 41064d8:	dc800417 	ldw	r18,16(sp)
 41064dc:	dc400317 	ldw	r17,12(sp)
 41064e0:	dc000217 	ldw	r16,8(sp)
 41064e4:	dec00804 	addi	sp,sp,32
 41064e8:	f800283a 	ret
 41064ec:	d809883a 	mov	r4,sp
 41064f0:	4105acc0 	call	4105acc <__lo0bits>
 41064f4:	d8c00017 	ldw	r3,0(sp)
 41064f8:	04000044 	movi	r16,1
 41064fc:	9c000415 	stw	r16,16(r19)
 4106500:	98c00515 	stw	r3,20(r19)
 4106504:	10800804 	addi	r2,r2,32
 4106508:	883fe126 	beq	r17,zero,4106490 <__ram_exceptions_end+0xfc0fe24c>
 410650c:	00c00d44 	movi	r3,53
 4106510:	8c7ef344 	addi	r17,r17,-1075
 4106514:	88a3883a 	add	r17,r17,r2
 4106518:	1885c83a 	sub	r2,r3,r2
 410651c:	d8c00817 	ldw	r3,32(sp)
 4106520:	94400015 	stw	r17,0(r18)
 4106524:	18800015 	stw	r2,0(r3)
 4106528:	003fe706 	br	41064c8 <__ram_exceptions_end+0xfc0fe284>
 410652c:	01000804 	movi	r4,32
 4106530:	2089c83a 	sub	r4,r4,r2
 4106534:	1908983a 	sll	r4,r3,r4
 4106538:	d9400117 	ldw	r5,4(sp)
 410653c:	1886d83a 	srl	r3,r3,r2
 4106540:	2148b03a 	or	r4,r4,r5
 4106544:	99000515 	stw	r4,20(r19)
 4106548:	d8c00015 	stw	r3,0(sp)
 410654c:	003fca06 	br	4106478 <__ram_exceptions_end+0xfc0fe234>

04106550 <__ratio>:
 4106550:	defff904 	addi	sp,sp,-28
 4106554:	dc400315 	stw	r17,12(sp)
 4106558:	2823883a 	mov	r17,r5
 410655c:	d9400104 	addi	r5,sp,4
 4106560:	dfc00615 	stw	ra,24(sp)
 4106564:	dcc00515 	stw	r19,20(sp)
 4106568:	dc800415 	stw	r18,16(sp)
 410656c:	2027883a 	mov	r19,r4
 4106570:	dc000215 	stw	r16,8(sp)
 4106574:	41062f80 	call	41062f8 <__b2d>
 4106578:	d80b883a 	mov	r5,sp
 410657c:	8809883a 	mov	r4,r17
 4106580:	1025883a 	mov	r18,r2
 4106584:	1821883a 	mov	r16,r3
 4106588:	41062f80 	call	41062f8 <__b2d>
 410658c:	8a000417 	ldw	r8,16(r17)
 4106590:	99000417 	ldw	r4,16(r19)
 4106594:	d9400117 	ldw	r5,4(sp)
 4106598:	2209c83a 	sub	r4,r4,r8
 410659c:	2010917a 	slli	r8,r4,5
 41065a0:	d9000017 	ldw	r4,0(sp)
 41065a4:	2909c83a 	sub	r4,r5,r4
 41065a8:	4109883a 	add	r4,r8,r4
 41065ac:	01000e0e 	bge	zero,r4,41065e8 <__ratio+0x98>
 41065b0:	2008953a 	slli	r4,r4,20
 41065b4:	2421883a 	add	r16,r4,r16
 41065b8:	100d883a 	mov	r6,r2
 41065bc:	180f883a 	mov	r7,r3
 41065c0:	9009883a 	mov	r4,r18
 41065c4:	800b883a 	mov	r5,r16
 41065c8:	4109d580 	call	4109d58 <__divdf3>
 41065cc:	dfc00617 	ldw	ra,24(sp)
 41065d0:	dcc00517 	ldw	r19,20(sp)
 41065d4:	dc800417 	ldw	r18,16(sp)
 41065d8:	dc400317 	ldw	r17,12(sp)
 41065dc:	dc000217 	ldw	r16,8(sp)
 41065e0:	dec00704 	addi	sp,sp,28
 41065e4:	f800283a 	ret
 41065e8:	2008953a 	slli	r4,r4,20
 41065ec:	1907c83a 	sub	r3,r3,r4
 41065f0:	003ff106 	br	41065b8 <__ram_exceptions_end+0xfc0fe374>

041065f4 <_mprec_log10>:
 41065f4:	defffe04 	addi	sp,sp,-8
 41065f8:	dc000015 	stw	r16,0(sp)
 41065fc:	dfc00115 	stw	ra,4(sp)
 4106600:	008005c4 	movi	r2,23
 4106604:	2021883a 	mov	r16,r4
 4106608:	11000d0e 	bge	r2,r4,4106640 <_mprec_log10+0x4c>
 410660c:	0005883a 	mov	r2,zero
 4106610:	00cffc34 	movhi	r3,16368
 4106614:	843fffc4 	addi	r16,r16,-1
 4106618:	000d883a 	mov	r6,zero
 410661c:	01d00934 	movhi	r7,16420
 4106620:	1009883a 	mov	r4,r2
 4106624:	180b883a 	mov	r5,r3
 4106628:	410a8980 	call	410a898 <__muldf3>
 410662c:	803ff91e 	bne	r16,zero,4106614 <__ram_exceptions_end+0xfc0fe3d0>
 4106630:	dfc00117 	ldw	ra,4(sp)
 4106634:	dc000017 	ldw	r16,0(sp)
 4106638:	dec00204 	addi	sp,sp,8
 410663c:	f800283a 	ret
 4106640:	202090fa 	slli	r16,r4,3
 4106644:	00810474 	movhi	r2,1041
 4106648:	10b86304 	addi	r2,r2,-7796
 410664c:	1421883a 	add	r16,r2,r16
 4106650:	80800017 	ldw	r2,0(r16)
 4106654:	80c00117 	ldw	r3,4(r16)
 4106658:	dfc00117 	ldw	ra,4(sp)
 410665c:	dc000017 	ldw	r16,0(sp)
 4106660:	dec00204 	addi	sp,sp,8
 4106664:	f800283a 	ret

04106668 <__copybits>:
 4106668:	297fffc4 	addi	r5,r5,-1
 410666c:	280fd17a 	srai	r7,r5,5
 4106670:	30c00417 	ldw	r3,16(r6)
 4106674:	30800504 	addi	r2,r6,20
 4106678:	39c00044 	addi	r7,r7,1
 410667c:	18c7883a 	add	r3,r3,r3
 4106680:	39cf883a 	add	r7,r7,r7
 4106684:	18c7883a 	add	r3,r3,r3
 4106688:	39cf883a 	add	r7,r7,r7
 410668c:	10c7883a 	add	r3,r2,r3
 4106690:	21cf883a 	add	r7,r4,r7
 4106694:	10c00d2e 	bgeu	r2,r3,41066cc <__copybits+0x64>
 4106698:	200b883a 	mov	r5,r4
 410669c:	12000017 	ldw	r8,0(r2)
 41066a0:	29400104 	addi	r5,r5,4
 41066a4:	10800104 	addi	r2,r2,4
 41066a8:	2a3fff15 	stw	r8,-4(r5)
 41066ac:	10fffb36 	bltu	r2,r3,410669c <__ram_exceptions_end+0xfc0fe458>
 41066b0:	1985c83a 	sub	r2,r3,r6
 41066b4:	10bffac4 	addi	r2,r2,-21
 41066b8:	1004d0ba 	srli	r2,r2,2
 41066bc:	10800044 	addi	r2,r2,1
 41066c0:	1085883a 	add	r2,r2,r2
 41066c4:	1085883a 	add	r2,r2,r2
 41066c8:	2089883a 	add	r4,r4,r2
 41066cc:	21c0032e 	bgeu	r4,r7,41066dc <__copybits+0x74>
 41066d0:	20000015 	stw	zero,0(r4)
 41066d4:	21000104 	addi	r4,r4,4
 41066d8:	21fffd36 	bltu	r4,r7,41066d0 <__ram_exceptions_end+0xfc0fe48c>
 41066dc:	f800283a 	ret

041066e0 <__any_on>:
 41066e0:	20c00417 	ldw	r3,16(r4)
 41066e4:	2805d17a 	srai	r2,r5,5
 41066e8:	21000504 	addi	r4,r4,20
 41066ec:	18800d0e 	bge	r3,r2,4106724 <__any_on+0x44>
 41066f0:	18c7883a 	add	r3,r3,r3
 41066f4:	18c7883a 	add	r3,r3,r3
 41066f8:	20c7883a 	add	r3,r4,r3
 41066fc:	20c0192e 	bgeu	r4,r3,4106764 <__any_on+0x84>
 4106700:	18bfff17 	ldw	r2,-4(r3)
 4106704:	18ffff04 	addi	r3,r3,-4
 4106708:	1000041e 	bne	r2,zero,410671c <__any_on+0x3c>
 410670c:	20c0142e 	bgeu	r4,r3,4106760 <__any_on+0x80>
 4106710:	18ffff04 	addi	r3,r3,-4
 4106714:	19400017 	ldw	r5,0(r3)
 4106718:	283ffc26 	beq	r5,zero,410670c <__ram_exceptions_end+0xfc0fe4c8>
 410671c:	00800044 	movi	r2,1
 4106720:	f800283a 	ret
 4106724:	10c00a0e 	bge	r2,r3,4106750 <__any_on+0x70>
 4106728:	1085883a 	add	r2,r2,r2
 410672c:	1085883a 	add	r2,r2,r2
 4106730:	294007cc 	andi	r5,r5,31
 4106734:	2087883a 	add	r3,r4,r2
 4106738:	283ff026 	beq	r5,zero,41066fc <__ram_exceptions_end+0xfc0fe4b8>
 410673c:	19800017 	ldw	r6,0(r3)
 4106740:	3144d83a 	srl	r2,r6,r5
 4106744:	114a983a 	sll	r5,r2,r5
 4106748:	317ff41e 	bne	r6,r5,410671c <__ram_exceptions_end+0xfc0fe4d8>
 410674c:	003feb06 	br	41066fc <__ram_exceptions_end+0xfc0fe4b8>
 4106750:	1085883a 	add	r2,r2,r2
 4106754:	1085883a 	add	r2,r2,r2
 4106758:	2087883a 	add	r3,r4,r2
 410675c:	003fe706 	br	41066fc <__ram_exceptions_end+0xfc0fe4b8>
 4106760:	f800283a 	ret
 4106764:	0005883a 	mov	r2,zero
 4106768:	f800283a 	ret

0410676c <__fpclassifyd>:
 410676c:	00a00034 	movhi	r2,32768
 4106770:	10bfffc4 	addi	r2,r2,-1
 4106774:	2884703a 	and	r2,r5,r2
 4106778:	10000726 	beq	r2,zero,4106798 <__fpclassifyd+0x2c>
 410677c:	00fffc34 	movhi	r3,65520
 4106780:	019ff834 	movhi	r6,32736
 4106784:	28c7883a 	add	r3,r5,r3
 4106788:	31bfffc4 	addi	r6,r6,-1
 410678c:	30c00536 	bltu	r6,r3,41067a4 <__fpclassifyd+0x38>
 4106790:	00800104 	movi	r2,4
 4106794:	f800283a 	ret
 4106798:	2000021e 	bne	r4,zero,41067a4 <__fpclassifyd+0x38>
 410679c:	00800084 	movi	r2,2
 41067a0:	f800283a 	ret
 41067a4:	00dffc34 	movhi	r3,32752
 41067a8:	019ff834 	movhi	r6,32736
 41067ac:	28cb883a 	add	r5,r5,r3
 41067b0:	31bfffc4 	addi	r6,r6,-1
 41067b4:	317ff62e 	bgeu	r6,r5,4106790 <__ram_exceptions_end+0xfc0fe54c>
 41067b8:	01400434 	movhi	r5,16
 41067bc:	297fffc4 	addi	r5,r5,-1
 41067c0:	28800236 	bltu	r5,r2,41067cc <__fpclassifyd+0x60>
 41067c4:	008000c4 	movi	r2,3
 41067c8:	f800283a 	ret
 41067cc:	10c00226 	beq	r2,r3,41067d8 <__fpclassifyd+0x6c>
 41067d0:	0005883a 	mov	r2,zero
 41067d4:	f800283a 	ret
 41067d8:	2005003a 	cmpeq	r2,r4,zero
 41067dc:	f800283a 	ret

041067e0 <_sbrk_r>:
 41067e0:	defffd04 	addi	sp,sp,-12
 41067e4:	dc000015 	stw	r16,0(sp)
 41067e8:	04010474 	movhi	r16,1041
 41067ec:	dc400115 	stw	r17,4(sp)
 41067f0:	84068104 	addi	r16,r16,6660
 41067f4:	2023883a 	mov	r17,r4
 41067f8:	2809883a 	mov	r4,r5
 41067fc:	dfc00215 	stw	ra,8(sp)
 4106800:	80000015 	stw	zero,0(r16)
 4106804:	410bf640 	call	410bf64 <sbrk>
 4106808:	00ffffc4 	movi	r3,-1
 410680c:	10c00526 	beq	r2,r3,4106824 <_sbrk_r+0x44>
 4106810:	dfc00217 	ldw	ra,8(sp)
 4106814:	dc400117 	ldw	r17,4(sp)
 4106818:	dc000017 	ldw	r16,0(sp)
 410681c:	dec00304 	addi	sp,sp,12
 4106820:	f800283a 	ret
 4106824:	80c00017 	ldw	r3,0(r16)
 4106828:	183ff926 	beq	r3,zero,4106810 <__ram_exceptions_end+0xfc0fe5cc>
 410682c:	88c00015 	stw	r3,0(r17)
 4106830:	003ff706 	br	4106810 <__ram_exceptions_end+0xfc0fe5cc>

04106834 <strcmp>:
 4106834:	2144b03a 	or	r2,r4,r5
 4106838:	108000cc 	andi	r2,r2,3
 410683c:	1000171e 	bne	r2,zero,410689c <strcmp+0x68>
 4106840:	20800017 	ldw	r2,0(r4)
 4106844:	28c00017 	ldw	r3,0(r5)
 4106848:	10c0141e 	bne	r2,r3,410689c <strcmp+0x68>
 410684c:	027fbff4 	movhi	r9,65279
 4106850:	4a7fbfc4 	addi	r9,r9,-257
 4106854:	0086303a 	nor	r3,zero,r2
 4106858:	02202074 	movhi	r8,32897
 410685c:	1245883a 	add	r2,r2,r9
 4106860:	42202004 	addi	r8,r8,-32640
 4106864:	10c4703a 	and	r2,r2,r3
 4106868:	1204703a 	and	r2,r2,r8
 410686c:	10000226 	beq	r2,zero,4106878 <strcmp+0x44>
 4106870:	00002306 	br	4106900 <strcmp+0xcc>
 4106874:	1000221e 	bne	r2,zero,4106900 <strcmp+0xcc>
 4106878:	21000104 	addi	r4,r4,4
 410687c:	20c00017 	ldw	r3,0(r4)
 4106880:	29400104 	addi	r5,r5,4
 4106884:	29800017 	ldw	r6,0(r5)
 4106888:	1a4f883a 	add	r7,r3,r9
 410688c:	00c4303a 	nor	r2,zero,r3
 4106890:	3884703a 	and	r2,r7,r2
 4106894:	1204703a 	and	r2,r2,r8
 4106898:	19bff626 	beq	r3,r6,4106874 <__ram_exceptions_end+0xfc0fe630>
 410689c:	20800003 	ldbu	r2,0(r4)
 41068a0:	10c03fcc 	andi	r3,r2,255
 41068a4:	18c0201c 	xori	r3,r3,128
 41068a8:	18ffe004 	addi	r3,r3,-128
 41068ac:	18000c26 	beq	r3,zero,41068e0 <strcmp+0xac>
 41068b0:	29800007 	ldb	r6,0(r5)
 41068b4:	19800326 	beq	r3,r6,41068c4 <strcmp+0x90>
 41068b8:	00001306 	br	4106908 <strcmp+0xd4>
 41068bc:	29800007 	ldb	r6,0(r5)
 41068c0:	11800b1e 	bne	r2,r6,41068f0 <strcmp+0xbc>
 41068c4:	21000044 	addi	r4,r4,1
 41068c8:	20c00003 	ldbu	r3,0(r4)
 41068cc:	29400044 	addi	r5,r5,1
 41068d0:	18803fcc 	andi	r2,r3,255
 41068d4:	1080201c 	xori	r2,r2,128
 41068d8:	10bfe004 	addi	r2,r2,-128
 41068dc:	103ff71e 	bne	r2,zero,41068bc <__ram_exceptions_end+0xfc0fe678>
 41068e0:	0007883a 	mov	r3,zero
 41068e4:	28800003 	ldbu	r2,0(r5)
 41068e8:	1885c83a 	sub	r2,r3,r2
 41068ec:	f800283a 	ret
 41068f0:	28800003 	ldbu	r2,0(r5)
 41068f4:	18c03fcc 	andi	r3,r3,255
 41068f8:	1885c83a 	sub	r2,r3,r2
 41068fc:	f800283a 	ret
 4106900:	0005883a 	mov	r2,zero
 4106904:	f800283a 	ret
 4106908:	10c03fcc 	andi	r3,r2,255
 410690c:	003ff506 	br	41068e4 <__ram_exceptions_end+0xfc0fe6a0>

04106910 <__ssprint_r>:
 4106910:	30800217 	ldw	r2,8(r6)
 4106914:	defff604 	addi	sp,sp,-40
 4106918:	dc800215 	stw	r18,8(sp)
 410691c:	dfc00915 	stw	ra,36(sp)
 4106920:	df000815 	stw	fp,32(sp)
 4106924:	ddc00715 	stw	r23,28(sp)
 4106928:	dd800615 	stw	r22,24(sp)
 410692c:	dd400515 	stw	r21,20(sp)
 4106930:	dd000415 	stw	r20,16(sp)
 4106934:	dcc00315 	stw	r19,12(sp)
 4106938:	dc400115 	stw	r17,4(sp)
 410693c:	dc000015 	stw	r16,0(sp)
 4106940:	3025883a 	mov	r18,r6
 4106944:	10005826 	beq	r2,zero,4106aa8 <__ssprint_r+0x198>
 4106948:	2027883a 	mov	r19,r4
 410694c:	35c00017 	ldw	r23,0(r6)
 4106950:	29000017 	ldw	r4,0(r5)
 4106954:	28800217 	ldw	r2,8(r5)
 4106958:	2823883a 	mov	r17,r5
 410695c:	0039883a 	mov	fp,zero
 4106960:	0021883a 	mov	r16,zero
 4106964:	80003926 	beq	r16,zero,4106a4c <__ssprint_r+0x13c>
 4106968:	102b883a 	mov	r21,r2
 410696c:	102d883a 	mov	r22,r2
 4106970:	80803a36 	bltu	r16,r2,4106a5c <__ssprint_r+0x14c>
 4106974:	88c0030b 	ldhu	r3,12(r17)
 4106978:	1881200c 	andi	r2,r3,1152
 410697c:	10002626 	beq	r2,zero,4106a18 <__ssprint_r+0x108>
 4106980:	88800517 	ldw	r2,20(r17)
 4106984:	89400417 	ldw	r5,16(r17)
 4106988:	81800044 	addi	r6,r16,1
 410698c:	108f883a 	add	r7,r2,r2
 4106990:	3885883a 	add	r2,r7,r2
 4106994:	100ed7fa 	srli	r7,r2,31
 4106998:	216dc83a 	sub	r22,r4,r5
 410699c:	3589883a 	add	r4,r6,r22
 41069a0:	3885883a 	add	r2,r7,r2
 41069a4:	102bd07a 	srai	r21,r2,1
 41069a8:	a80d883a 	mov	r6,r21
 41069ac:	a900022e 	bgeu	r21,r4,41069b8 <__ssprint_r+0xa8>
 41069b0:	202b883a 	mov	r21,r4
 41069b4:	200d883a 	mov	r6,r4
 41069b8:	18c1000c 	andi	r3,r3,1024
 41069bc:	18002a26 	beq	r3,zero,4106a68 <__ssprint_r+0x158>
 41069c0:	300b883a 	mov	r5,r6
 41069c4:	9809883a 	mov	r4,r19
 41069c8:	4104e800 	call	4104e80 <_malloc_r>
 41069cc:	1029883a 	mov	r20,r2
 41069d0:	10002c26 	beq	r2,zero,4106a84 <__ssprint_r+0x174>
 41069d4:	89400417 	ldw	r5,16(r17)
 41069d8:	b00d883a 	mov	r6,r22
 41069dc:	1009883a 	mov	r4,r2
 41069e0:	4100fa80 	call	4100fa8 <memcpy>
 41069e4:	8880030b 	ldhu	r2,12(r17)
 41069e8:	00fedfc4 	movi	r3,-1153
 41069ec:	10c4703a 	and	r2,r2,r3
 41069f0:	10802014 	ori	r2,r2,128
 41069f4:	8880030d 	sth	r2,12(r17)
 41069f8:	a589883a 	add	r4,r20,r22
 41069fc:	adadc83a 	sub	r22,r21,r22
 4106a00:	8d400515 	stw	r21,20(r17)
 4106a04:	8d800215 	stw	r22,8(r17)
 4106a08:	8d000415 	stw	r20,16(r17)
 4106a0c:	89000015 	stw	r4,0(r17)
 4106a10:	802b883a 	mov	r21,r16
 4106a14:	802d883a 	mov	r22,r16
 4106a18:	b00d883a 	mov	r6,r22
 4106a1c:	e00b883a 	mov	r5,fp
 4106a20:	41082140 	call	4108214 <memmove>
 4106a24:	88800217 	ldw	r2,8(r17)
 4106a28:	89000017 	ldw	r4,0(r17)
 4106a2c:	90c00217 	ldw	r3,8(r18)
 4106a30:	1545c83a 	sub	r2,r2,r21
 4106a34:	2589883a 	add	r4,r4,r22
 4106a38:	88800215 	stw	r2,8(r17)
 4106a3c:	89000015 	stw	r4,0(r17)
 4106a40:	1c21c83a 	sub	r16,r3,r16
 4106a44:	94000215 	stw	r16,8(r18)
 4106a48:	80001726 	beq	r16,zero,4106aa8 <__ssprint_r+0x198>
 4106a4c:	bf000017 	ldw	fp,0(r23)
 4106a50:	bc000117 	ldw	r16,4(r23)
 4106a54:	bdc00204 	addi	r23,r23,8
 4106a58:	003fc206 	br	4106964 <__ram_exceptions_end+0xfc0fe720>
 4106a5c:	802b883a 	mov	r21,r16
 4106a60:	802d883a 	mov	r22,r16
 4106a64:	003fec06 	br	4106a18 <__ram_exceptions_end+0xfc0fe7d4>
 4106a68:	9809883a 	mov	r4,r19
 4106a6c:	41084980 	call	4108498 <_realloc_r>
 4106a70:	1029883a 	mov	r20,r2
 4106a74:	103fe01e 	bne	r2,zero,41069f8 <__ram_exceptions_end+0xfc0fe7b4>
 4106a78:	89400417 	ldw	r5,16(r17)
 4106a7c:	9809883a 	mov	r4,r19
 4106a80:	4107f040 	call	4107f04 <_free_r>
 4106a84:	88c0030b 	ldhu	r3,12(r17)
 4106a88:	00800304 	movi	r2,12
 4106a8c:	98800015 	stw	r2,0(r19)
 4106a90:	18c01014 	ori	r3,r3,64
 4106a94:	88c0030d 	sth	r3,12(r17)
 4106a98:	00bfffc4 	movi	r2,-1
 4106a9c:	90000215 	stw	zero,8(r18)
 4106aa0:	90000115 	stw	zero,4(r18)
 4106aa4:	00000206 	br	4106ab0 <__ssprint_r+0x1a0>
 4106aa8:	90000115 	stw	zero,4(r18)
 4106aac:	0005883a 	mov	r2,zero
 4106ab0:	dfc00917 	ldw	ra,36(sp)
 4106ab4:	df000817 	ldw	fp,32(sp)
 4106ab8:	ddc00717 	ldw	r23,28(sp)
 4106abc:	dd800617 	ldw	r22,24(sp)
 4106ac0:	dd400517 	ldw	r21,20(sp)
 4106ac4:	dd000417 	ldw	r20,16(sp)
 4106ac8:	dcc00317 	ldw	r19,12(sp)
 4106acc:	dc800217 	ldw	r18,8(sp)
 4106ad0:	dc400117 	ldw	r17,4(sp)
 4106ad4:	dc000017 	ldw	r16,0(sp)
 4106ad8:	dec00a04 	addi	sp,sp,40
 4106adc:	f800283a 	ret

04106ae0 <___svfiprintf_internal_r>:
 4106ae0:	2880030b 	ldhu	r2,12(r5)
 4106ae4:	deffc804 	addi	sp,sp,-224
 4106ae8:	dcc03115 	stw	r19,196(sp)
 4106aec:	dfc03715 	stw	ra,220(sp)
 4106af0:	df003615 	stw	fp,216(sp)
 4106af4:	ddc03515 	stw	r23,212(sp)
 4106af8:	dd803415 	stw	r22,208(sp)
 4106afc:	dd403315 	stw	r21,204(sp)
 4106b00:	dd003215 	stw	r20,200(sp)
 4106b04:	dc803015 	stw	r18,192(sp)
 4106b08:	dc402f15 	stw	r17,188(sp)
 4106b0c:	dc002e15 	stw	r16,184(sp)
 4106b10:	d9402715 	stw	r5,156(sp)
 4106b14:	d9002a15 	stw	r4,168(sp)
 4106b18:	1080200c 	andi	r2,r2,128
 4106b1c:	d9c02315 	stw	r7,140(sp)
 4106b20:	3027883a 	mov	r19,r6
 4106b24:	10000226 	beq	r2,zero,4106b30 <___svfiprintf_internal_r+0x50>
 4106b28:	28800417 	ldw	r2,16(r5)
 4106b2c:	10041d26 	beq	r2,zero,4107ba4 <___svfiprintf_internal_r+0x10c4>
 4106b30:	dac01a04 	addi	r11,sp,104
 4106b34:	dac01e15 	stw	r11,120(sp)
 4106b38:	d8801e17 	ldw	r2,120(sp)
 4106b3c:	dac019c4 	addi	r11,sp,103
 4106b40:	dd402a17 	ldw	r21,168(sp)
 4106b44:	ddc02717 	ldw	r23,156(sp)
 4106b48:	05810474 	movhi	r22,1041
 4106b4c:	05010474 	movhi	r20,1041
 4106b50:	dac01f15 	stw	r11,124(sp)
 4106b54:	12d7c83a 	sub	r11,r2,r11
 4106b58:	b5b89904 	addi	r22,r22,-7580
 4106b5c:	a5389504 	addi	r20,r20,-7596
 4106b60:	dec01a15 	stw	sp,104(sp)
 4106b64:	d8001c15 	stw	zero,112(sp)
 4106b68:	d8001b15 	stw	zero,108(sp)
 4106b6c:	d811883a 	mov	r8,sp
 4106b70:	d8002915 	stw	zero,164(sp)
 4106b74:	d8002515 	stw	zero,148(sp)
 4106b78:	dac02b15 	stw	r11,172(sp)
 4106b7c:	98800007 	ldb	r2,0(r19)
 4106b80:	1002dd26 	beq	r2,zero,41076f8 <___svfiprintf_internal_r+0xc18>
 4106b84:	00c00944 	movi	r3,37
 4106b88:	9823883a 	mov	r17,r19
 4106b8c:	10c0021e 	bne	r2,r3,4106b98 <___svfiprintf_internal_r+0xb8>
 4106b90:	00001406 	br	4106be4 <___svfiprintf_internal_r+0x104>
 4106b94:	10c00326 	beq	r2,r3,4106ba4 <___svfiprintf_internal_r+0xc4>
 4106b98:	8c400044 	addi	r17,r17,1
 4106b9c:	88800007 	ldb	r2,0(r17)
 4106ba0:	103ffc1e 	bne	r2,zero,4106b94 <__ram_exceptions_end+0xfc0fe950>
 4106ba4:	8ce1c83a 	sub	r16,r17,r19
 4106ba8:	80000e26 	beq	r16,zero,4106be4 <___svfiprintf_internal_r+0x104>
 4106bac:	d8c01c17 	ldw	r3,112(sp)
 4106bb0:	d8801b17 	ldw	r2,108(sp)
 4106bb4:	44c00015 	stw	r19,0(r8)
 4106bb8:	1c07883a 	add	r3,r3,r16
 4106bbc:	10800044 	addi	r2,r2,1
 4106bc0:	d8c01c15 	stw	r3,112(sp)
 4106bc4:	44000115 	stw	r16,4(r8)
 4106bc8:	d8801b15 	stw	r2,108(sp)
 4106bcc:	00c001c4 	movi	r3,7
 4106bd0:	18831e16 	blt	r3,r2,410784c <___svfiprintf_internal_r+0xd6c>
 4106bd4:	42000204 	addi	r8,r8,8
 4106bd8:	dac02517 	ldw	r11,148(sp)
 4106bdc:	5c17883a 	add	r11,r11,r16
 4106be0:	dac02515 	stw	r11,148(sp)
 4106be4:	88800007 	ldb	r2,0(r17)
 4106be8:	1002c526 	beq	r2,zero,4107700 <___svfiprintf_internal_r+0xc20>
 4106bec:	88c00047 	ldb	r3,1(r17)
 4106bf0:	8cc00044 	addi	r19,r17,1
 4106bf4:	d8001d85 	stb	zero,118(sp)
 4106bf8:	0009883a 	mov	r4,zero
 4106bfc:	000f883a 	mov	r7,zero
 4106c00:	043fffc4 	movi	r16,-1
 4106c04:	d8002415 	stw	zero,144(sp)
 4106c08:	0025883a 	mov	r18,zero
 4106c0c:	01401604 	movi	r5,88
 4106c10:	01800244 	movi	r6,9
 4106c14:	02800a84 	movi	r10,42
 4106c18:	02401b04 	movi	r9,108
 4106c1c:	9cc00044 	addi	r19,r19,1
 4106c20:	18bff804 	addi	r2,r3,-32
 4106c24:	2881dd36 	bltu	r5,r2,410739c <___svfiprintf_internal_r+0x8bc>
 4106c28:	100490ba 	slli	r2,r2,2
 4106c2c:	02c10434 	movhi	r11,1040
 4106c30:	5adb1004 	addi	r11,r11,27712
 4106c34:	12c5883a 	add	r2,r2,r11
 4106c38:	10800017 	ldw	r2,0(r2)
 4106c3c:	1000683a 	jmp	r2
 4106c40:	04106e3c 	xorhi	r16,zero,16824
 4106c44:	0410739c 	xori	r16,zero,16846
 4106c48:	0410739c 	xori	r16,zero,16846
 4106c4c:	04106e30 	cmpltui	r16,zero,16824
 4106c50:	0410739c 	xori	r16,zero,16846
 4106c54:	0410739c 	xori	r16,zero,16846
 4106c58:	0410739c 	xori	r16,zero,16846
 4106c5c:	0410739c 	xori	r16,zero,16846
 4106c60:	0410739c 	xori	r16,zero,16846
 4106c64:	0410739c 	xori	r16,zero,16846
 4106c68:	04106da4 	muli	r16,zero,16822
 4106c6c:	04106f80 	call	4106f8 <__alt_mem_new_sdram_controller_0-0x3bef908>
 4106c70:	0410739c 	xori	r16,zero,16846
 4106c74:	04106dd0 	cmplti	r16,zero,16823
 4106c78:	041073d0 	cmplti	r16,zero,16847
 4106c7c:	0410739c 	xori	r16,zero,16846
 4106c80:	041073c4 	movi	r16,16847
 4106c84:	04107364 	muli	r16,zero,16845
 4106c88:	04107364 	muli	r16,zero,16845
 4106c8c:	04107364 	muli	r16,zero,16845
 4106c90:	04107364 	muli	r16,zero,16845
 4106c94:	04107364 	muli	r16,zero,16845
 4106c98:	04107364 	muli	r16,zero,16845
 4106c9c:	04107364 	muli	r16,zero,16845
 4106ca0:	04107364 	muli	r16,zero,16845
 4106ca4:	04107364 	muli	r16,zero,16845
 4106ca8:	0410739c 	xori	r16,zero,16846
 4106cac:	0410739c 	xori	r16,zero,16846
 4106cb0:	0410739c 	xori	r16,zero,16846
 4106cb4:	0410739c 	xori	r16,zero,16846
 4106cb8:	0410739c 	xori	r16,zero,16846
 4106cbc:	0410739c 	xori	r16,zero,16846
 4106cc0:	0410739c 	xori	r16,zero,16846
 4106cc4:	0410739c 	xori	r16,zero,16846
 4106cc8:	0410739c 	xori	r16,zero,16846
 4106ccc:	0410739c 	xori	r16,zero,16846
 4106cd0:	04107300 	call	410730 <__alt_mem_new_sdram_controller_0-0x3bef8d0>
 4106cd4:	0410739c 	xori	r16,zero,16846
 4106cd8:	0410739c 	xori	r16,zero,16846
 4106cdc:	0410739c 	xori	r16,zero,16846
 4106ce0:	0410739c 	xori	r16,zero,16846
 4106ce4:	0410739c 	xori	r16,zero,16846
 4106ce8:	0410739c 	xori	r16,zero,16846
 4106cec:	0410739c 	xori	r16,zero,16846
 4106cf0:	0410739c 	xori	r16,zero,16846
 4106cf4:	0410739c 	xori	r16,zero,16846
 4106cf8:	0410739c 	xori	r16,zero,16846
 4106cfc:	04107478 	rdprs	r16,zero,16849
 4106d00:	0410739c 	xori	r16,zero,16846
 4106d04:	0410739c 	xori	r16,zero,16846
 4106d08:	0410739c 	xori	r16,zero,16846
 4106d0c:	0410739c 	xori	r16,zero,16846
 4106d10:	0410739c 	xori	r16,zero,16846
 4106d14:	04107410 	cmplti	r16,zero,16848
 4106d18:	0410739c 	xori	r16,zero,16846
 4106d1c:	0410739c 	xori	r16,zero,16846
 4106d20:	04107144 	movi	r16,16837
 4106d24:	0410739c 	xori	r16,zero,16846
 4106d28:	0410739c 	xori	r16,zero,16846
 4106d2c:	0410739c 	xori	r16,zero,16846
 4106d30:	0410739c 	xori	r16,zero,16846
 4106d34:	0410739c 	xori	r16,zero,16846
 4106d38:	0410739c 	xori	r16,zero,16846
 4106d3c:	0410739c 	xori	r16,zero,16846
 4106d40:	0410739c 	xori	r16,zero,16846
 4106d44:	0410739c 	xori	r16,zero,16846
 4106d48:	0410739c 	xori	r16,zero,16846
 4106d4c:	04107034 	movhi	r16,16832
 4106d50:	041071e0 	cmpeqi	r16,zero,16839
 4106d54:	0410739c 	xori	r16,zero,16846
 4106d58:	0410739c 	xori	r16,zero,16846
 4106d5c:	0410739c 	xori	r16,zero,16846
 4106d60:	041071d4 	movui	r16,16839
 4106d64:	041071e0 	cmpeqi	r16,zero,16839
 4106d68:	0410739c 	xori	r16,zero,16846
 4106d6c:	0410739c 	xori	r16,zero,16846
 4106d70:	041071c4 	movi	r16,16839
 4106d74:	0410739c 	xori	r16,zero,16846
 4106d78:	04107188 	cmpgei	r16,zero,16838
 4106d7c:	04106f90 	cmplti	r16,zero,16830
 4106d80:	04106ddc 	xori	r16,zero,16823
 4106d84:	041072f4 	movhi	r16,16843
 4106d88:	0410739c 	xori	r16,zero,16846
 4106d8c:	041072a8 	cmpgeui	r16,zero,16842
 4106d90:	0410739c 	xori	r16,zero,16846
 4106d94:	04106f00 	call	4106f0 <__alt_mem_new_sdram_controller_0-0x3bef910>
 4106d98:	0410739c 	xori	r16,zero,16846
 4106d9c:	0410739c 	xori	r16,zero,16846
 4106da0:	04106e5c 	xori	r16,zero,16825
 4106da4:	dac02317 	ldw	r11,140(sp)
 4106da8:	5ac00017 	ldw	r11,0(r11)
 4106dac:	dac02415 	stw	r11,144(sp)
 4106db0:	dac02317 	ldw	r11,140(sp)
 4106db4:	58800104 	addi	r2,r11,4
 4106db8:	dac02417 	ldw	r11,144(sp)
 4106dbc:	5802e90e 	bge	r11,zero,4107964 <___svfiprintf_internal_r+0xe84>
 4106dc0:	dac02417 	ldw	r11,144(sp)
 4106dc4:	d8802315 	stw	r2,140(sp)
 4106dc8:	02d7c83a 	sub	r11,zero,r11
 4106dcc:	dac02415 	stw	r11,144(sp)
 4106dd0:	94800114 	ori	r18,r18,4
 4106dd4:	98c00007 	ldb	r3,0(r19)
 4106dd8:	003f9006 	br	4106c1c <__ram_exceptions_end+0xfc0fe9d8>
 4106ddc:	00800c04 	movi	r2,48
 4106de0:	dac02317 	ldw	r11,140(sp)
 4106de4:	d8801d05 	stb	r2,116(sp)
 4106de8:	00801e04 	movi	r2,120
 4106dec:	d8801d45 	stb	r2,117(sp)
 4106df0:	d8001d85 	stb	zero,118(sp)
 4106df4:	58c00104 	addi	r3,r11,4
 4106df8:	5f000017 	ldw	fp,0(r11)
 4106dfc:	0013883a 	mov	r9,zero
 4106e00:	90800094 	ori	r2,r18,2
 4106e04:	80032b16 	blt	r16,zero,4107ab4 <___svfiprintf_internal_r+0xfd4>
 4106e08:	00bfdfc4 	movi	r2,-129
 4106e0c:	90a4703a 	and	r18,r18,r2
 4106e10:	d8c02315 	stw	r3,140(sp)
 4106e14:	94800094 	ori	r18,r18,2
 4106e18:	e002dc26 	beq	fp,zero,410798c <___svfiprintf_internal_r+0xeac>
 4106e1c:	01010474 	movhi	r4,1041
 4106e20:	21383404 	addi	r4,r4,-7984
 4106e24:	0015883a 	mov	r10,zero
 4106e28:	d9002915 	stw	r4,164(sp)
 4106e2c:	00002306 	br	4106ebc <___svfiprintf_internal_r+0x3dc>
 4106e30:	94800054 	ori	r18,r18,1
 4106e34:	98c00007 	ldb	r3,0(r19)
 4106e38:	003f7806 	br	4106c1c <__ram_exceptions_end+0xfc0fe9d8>
 4106e3c:	38803fcc 	andi	r2,r7,255
 4106e40:	1080201c 	xori	r2,r2,128
 4106e44:	10bfe004 	addi	r2,r2,-128
 4106e48:	1002f31e 	bne	r2,zero,4107a18 <___svfiprintf_internal_r+0xf38>
 4106e4c:	01000044 	movi	r4,1
 4106e50:	01c00804 	movi	r7,32
 4106e54:	98c00007 	ldb	r3,0(r19)
 4106e58:	003f7006 	br	4106c1c <__ram_exceptions_end+0xfc0fe9d8>
 4106e5c:	21003fcc 	andi	r4,r4,255
 4106e60:	2003aa1e 	bne	r4,zero,4107d0c <___svfiprintf_internal_r+0x122c>
 4106e64:	00810474 	movhi	r2,1041
 4106e68:	10b83404 	addi	r2,r2,-7984
 4106e6c:	d8802915 	stw	r2,164(sp)
 4106e70:	9080080c 	andi	r2,r18,32
 4106e74:	1000ba26 	beq	r2,zero,4107160 <___svfiprintf_internal_r+0x680>
 4106e78:	dac02317 	ldw	r11,140(sp)
 4106e7c:	5f000017 	ldw	fp,0(r11)
 4106e80:	5a400117 	ldw	r9,4(r11)
 4106e84:	5ac00204 	addi	r11,r11,8
 4106e88:	dac02315 	stw	r11,140(sp)
 4106e8c:	9080004c 	andi	r2,r18,1
 4106e90:	10029026 	beq	r2,zero,41078d4 <___svfiprintf_internal_r+0xdf4>
 4106e94:	e244b03a 	or	r2,fp,r9
 4106e98:	1002d41e 	bne	r2,zero,41079ec <___svfiprintf_internal_r+0xf0c>
 4106e9c:	d8001d85 	stb	zero,118(sp)
 4106ea0:	80030b16 	blt	r16,zero,4107ad0 <___svfiprintf_internal_r+0xff0>
 4106ea4:	00bfdfc4 	movi	r2,-129
 4106ea8:	90a4703a 	and	r18,r18,r2
 4106eac:	0015883a 	mov	r10,zero
 4106eb0:	80002426 	beq	r16,zero,4106f44 <___svfiprintf_internal_r+0x464>
 4106eb4:	0039883a 	mov	fp,zero
 4106eb8:	0013883a 	mov	r9,zero
 4106ebc:	d9002917 	ldw	r4,164(sp)
 4106ec0:	dc401a04 	addi	r17,sp,104
 4106ec4:	e08003cc 	andi	r2,fp,15
 4106ec8:	4806973a 	slli	r3,r9,28
 4106ecc:	2085883a 	add	r2,r4,r2
 4106ed0:	e038d13a 	srli	fp,fp,4
 4106ed4:	10800003 	ldbu	r2,0(r2)
 4106ed8:	4812d13a 	srli	r9,r9,4
 4106edc:	8c7fffc4 	addi	r17,r17,-1
 4106ee0:	1f38b03a 	or	fp,r3,fp
 4106ee4:	88800005 	stb	r2,0(r17)
 4106ee8:	e244b03a 	or	r2,fp,r9
 4106eec:	103ff51e 	bne	r2,zero,4106ec4 <__ram_exceptions_end+0xfc0fec80>
 4106ef0:	dac01e17 	ldw	r11,120(sp)
 4106ef4:	5c57c83a 	sub	r11,r11,r17
 4106ef8:	dac02115 	stw	r11,132(sp)
 4106efc:	00001406 	br	4106f50 <___svfiprintf_internal_r+0x470>
 4106f00:	21003fcc 	andi	r4,r4,255
 4106f04:	2003741e 	bne	r4,zero,4107cd8 <___svfiprintf_internal_r+0x11f8>
 4106f08:	9080080c 	andi	r2,r18,32
 4106f0c:	10014526 	beq	r2,zero,4107424 <___svfiprintf_internal_r+0x944>
 4106f10:	dac02317 	ldw	r11,140(sp)
 4106f14:	d8001d85 	stb	zero,118(sp)
 4106f18:	58c00204 	addi	r3,r11,8
 4106f1c:	5f000017 	ldw	fp,0(r11)
 4106f20:	5a400117 	ldw	r9,4(r11)
 4106f24:	8002d916 	blt	r16,zero,4107a8c <___svfiprintf_internal_r+0xfac>
 4106f28:	013fdfc4 	movi	r4,-129
 4106f2c:	e244b03a 	or	r2,fp,r9
 4106f30:	d8c02315 	stw	r3,140(sp)
 4106f34:	9124703a 	and	r18,r18,r4
 4106f38:	0015883a 	mov	r10,zero
 4106f3c:	1000b91e 	bne	r2,zero,4107224 <___svfiprintf_internal_r+0x744>
 4106f40:	8002e61e 	bne	r16,zero,4107adc <___svfiprintf_internal_r+0xffc>
 4106f44:	0021883a 	mov	r16,zero
 4106f48:	d8002115 	stw	zero,132(sp)
 4106f4c:	dc401a04 	addi	r17,sp,104
 4106f50:	d8c02117 	ldw	r3,132(sp)
 4106f54:	dc002015 	stw	r16,128(sp)
 4106f58:	80c0010e 	bge	r16,r3,4106f60 <___svfiprintf_internal_r+0x480>
 4106f5c:	d8c02015 	stw	r3,128(sp)
 4106f60:	52803fcc 	andi	r10,r10,255
 4106f64:	5280201c 	xori	r10,r10,128
 4106f68:	52bfe004 	addi	r10,r10,-128
 4106f6c:	50003c26 	beq	r10,zero,4107060 <___svfiprintf_internal_r+0x580>
 4106f70:	dac02017 	ldw	r11,128(sp)
 4106f74:	5ac00044 	addi	r11,r11,1
 4106f78:	dac02015 	stw	r11,128(sp)
 4106f7c:	00003806 	br	4107060 <___svfiprintf_internal_r+0x580>
 4106f80:	01000044 	movi	r4,1
 4106f84:	01c00ac4 	movi	r7,43
 4106f88:	98c00007 	ldb	r3,0(r19)
 4106f8c:	003f2306 	br	4106c1c <__ram_exceptions_end+0xfc0fe9d8>
 4106f90:	21003fcc 	andi	r4,r4,255
 4106f94:	2003481e 	bne	r4,zero,4107cb8 <___svfiprintf_internal_r+0x11d8>
 4106f98:	9080080c 	andi	r2,r18,32
 4106f9c:	10013b26 	beq	r2,zero,410748c <___svfiprintf_internal_r+0x9ac>
 4106fa0:	dac02317 	ldw	r11,140(sp)
 4106fa4:	d8001d85 	stb	zero,118(sp)
 4106fa8:	58800204 	addi	r2,r11,8
 4106fac:	5f000017 	ldw	fp,0(r11)
 4106fb0:	5a400117 	ldw	r9,4(r11)
 4106fb4:	8002a816 	blt	r16,zero,4107a58 <___svfiprintf_internal_r+0xf78>
 4106fb8:	013fdfc4 	movi	r4,-129
 4106fbc:	e246b03a 	or	r3,fp,r9
 4106fc0:	d8802315 	stw	r2,140(sp)
 4106fc4:	9124703a 	and	r18,r18,r4
 4106fc8:	18013c26 	beq	r3,zero,41074bc <___svfiprintf_internal_r+0x9dc>
 4106fcc:	0015883a 	mov	r10,zero
 4106fd0:	dc401a04 	addi	r17,sp,104
 4106fd4:	e006d0fa 	srli	r3,fp,3
 4106fd8:	4808977a 	slli	r4,r9,29
 4106fdc:	4812d0fa 	srli	r9,r9,3
 4106fe0:	e70001cc 	andi	fp,fp,7
 4106fe4:	e0800c04 	addi	r2,fp,48
 4106fe8:	8c7fffc4 	addi	r17,r17,-1
 4106fec:	20f8b03a 	or	fp,r4,r3
 4106ff0:	88800005 	stb	r2,0(r17)
 4106ff4:	e246b03a 	or	r3,fp,r9
 4106ff8:	183ff61e 	bne	r3,zero,4106fd4 <__ram_exceptions_end+0xfc0fed90>
 4106ffc:	90c0004c 	andi	r3,r18,1
 4107000:	1800a526 	beq	r3,zero,4107298 <___svfiprintf_internal_r+0x7b8>
 4107004:	10803fcc 	andi	r2,r2,255
 4107008:	1080201c 	xori	r2,r2,128
 410700c:	10bfe004 	addi	r2,r2,-128
 4107010:	00c00c04 	movi	r3,48
 4107014:	10ffb626 	beq	r2,r3,4106ef0 <__ram_exceptions_end+0xfc0fecac>
 4107018:	88ffffc5 	stb	r3,-1(r17)
 410701c:	d8c01e17 	ldw	r3,120(sp)
 4107020:	88bfffc4 	addi	r2,r17,-1
 4107024:	1023883a 	mov	r17,r2
 4107028:	1887c83a 	sub	r3,r3,r2
 410702c:	d8c02115 	stw	r3,132(sp)
 4107030:	003fc706 	br	4106f50 <__ram_exceptions_end+0xfc0fed0c>
 4107034:	dac02317 	ldw	r11,140(sp)
 4107038:	00c00044 	movi	r3,1
 410703c:	d8c02015 	stw	r3,128(sp)
 4107040:	58800017 	ldw	r2,0(r11)
 4107044:	5ac00104 	addi	r11,r11,4
 4107048:	d8001d85 	stb	zero,118(sp)
 410704c:	d8801005 	stb	r2,64(sp)
 4107050:	dac02315 	stw	r11,140(sp)
 4107054:	d8c02115 	stw	r3,132(sp)
 4107058:	dc401004 	addi	r17,sp,64
 410705c:	0021883a 	mov	r16,zero
 4107060:	90c0008c 	andi	r3,r18,2
 4107064:	d8c02215 	stw	r3,136(sp)
 4107068:	18000326 	beq	r3,zero,4107078 <___svfiprintf_internal_r+0x598>
 410706c:	dac02017 	ldw	r11,128(sp)
 4107070:	5ac00084 	addi	r11,r11,2
 4107074:	dac02015 	stw	r11,128(sp)
 4107078:	90c0210c 	andi	r3,r18,132
 410707c:	d8c02615 	stw	r3,152(sp)
 4107080:	1801131e 	bne	r3,zero,41074d0 <___svfiprintf_internal_r+0x9f0>
 4107084:	dac02417 	ldw	r11,144(sp)
 4107088:	d8c02017 	ldw	r3,128(sp)
 410708c:	58f9c83a 	sub	fp,r11,r3
 4107090:	07010f0e 	bge	zero,fp,41074d0 <___svfiprintf_internal_r+0x9f0>
 4107094:	02400404 	movi	r9,16
 4107098:	d8c01c17 	ldw	r3,112(sp)
 410709c:	d8801b17 	ldw	r2,108(sp)
 41070a0:	4f02d60e 	bge	r9,fp,4107bfc <___svfiprintf_internal_r+0x111c>
 41070a4:	01410474 	movhi	r5,1041
 41070a8:	29789904 	addi	r5,r5,-7580
 41070ac:	d9402815 	stw	r5,160(sp)
 41070b0:	028001c4 	movi	r10,7
 41070b4:	00000306 	br	41070c4 <___svfiprintf_internal_r+0x5e4>
 41070b8:	e73ffc04 	addi	fp,fp,-16
 41070bc:	42000204 	addi	r8,r8,8
 41070c0:	4f00150e 	bge	r9,fp,4107118 <___svfiprintf_internal_r+0x638>
 41070c4:	18c00404 	addi	r3,r3,16
 41070c8:	10800044 	addi	r2,r2,1
 41070cc:	45800015 	stw	r22,0(r8)
 41070d0:	42400115 	stw	r9,4(r8)
 41070d4:	d8c01c15 	stw	r3,112(sp)
 41070d8:	d8801b15 	stw	r2,108(sp)
 41070dc:	50bff60e 	bge	r10,r2,41070b8 <__ram_exceptions_end+0xfc0fee74>
 41070e0:	d9801a04 	addi	r6,sp,104
 41070e4:	b80b883a 	mov	r5,r23
 41070e8:	a809883a 	mov	r4,r21
 41070ec:	da402c15 	stw	r9,176(sp)
 41070f0:	da802d15 	stw	r10,180(sp)
 41070f4:	41069100 	call	4106910 <__ssprint_r>
 41070f8:	da402c17 	ldw	r9,176(sp)
 41070fc:	da802d17 	ldw	r10,180(sp)
 4107100:	1001851e 	bne	r2,zero,4107718 <___svfiprintf_internal_r+0xc38>
 4107104:	e73ffc04 	addi	fp,fp,-16
 4107108:	d8c01c17 	ldw	r3,112(sp)
 410710c:	d8801b17 	ldw	r2,108(sp)
 4107110:	d811883a 	mov	r8,sp
 4107114:	4f3feb16 	blt	r9,fp,41070c4 <__ram_exceptions_end+0xfc0fee80>
 4107118:	dac02817 	ldw	r11,160(sp)
 410711c:	e0c7883a 	add	r3,fp,r3
 4107120:	10800044 	addi	r2,r2,1
 4107124:	42c00015 	stw	r11,0(r8)
 4107128:	47000115 	stw	fp,4(r8)
 410712c:	d8c01c15 	stw	r3,112(sp)
 4107130:	d8801b15 	stw	r2,108(sp)
 4107134:	010001c4 	movi	r4,7
 4107138:	2081ee16 	blt	r4,r2,41078f4 <___svfiprintf_internal_r+0xe14>
 410713c:	42000204 	addi	r8,r8,8
 4107140:	0000e506 	br	41074d8 <___svfiprintf_internal_r+0x9f8>
 4107144:	21003fcc 	andi	r4,r4,255
 4107148:	2002dd1e 	bne	r4,zero,4107cc0 <___svfiprintf_internal_r+0x11e0>
 410714c:	00810474 	movhi	r2,1041
 4107150:	10b82f04 	addi	r2,r2,-8004
 4107154:	d8802915 	stw	r2,164(sp)
 4107158:	9080080c 	andi	r2,r18,32
 410715c:	103f461e 	bne	r2,zero,4106e78 <__ram_exceptions_end+0xfc0fec34>
 4107160:	9080040c 	andi	r2,r18,16
 4107164:	10022e1e 	bne	r2,zero,4107a20 <___svfiprintf_internal_r+0xf40>
 4107168:	9080100c 	andi	r2,r18,64
 410716c:	dac02317 	ldw	r11,140(sp)
 4107170:	10027326 	beq	r2,zero,4107b40 <___svfiprintf_internal_r+0x1060>
 4107174:	5f00000b 	ldhu	fp,0(r11)
 4107178:	5ac00104 	addi	r11,r11,4
 410717c:	0013883a 	mov	r9,zero
 4107180:	dac02315 	stw	r11,140(sp)
 4107184:	003f4106 	br	4106e8c <__ram_exceptions_end+0xfc0fec48>
 4107188:	21003fcc 	andi	r4,r4,255
 410718c:	2002e11e 	bne	r4,zero,4107d14 <___svfiprintf_internal_r+0x1234>
 4107190:	9080080c 	andi	r2,r18,32
 4107194:	1002011e 	bne	r2,zero,410799c <___svfiprintf_internal_r+0xebc>
 4107198:	9080040c 	andi	r2,r18,16
 410719c:	10023e1e 	bne	r2,zero,4107a98 <___svfiprintf_internal_r+0xfb8>
 41071a0:	9480100c 	andi	r18,r18,64
 41071a4:	90023c26 	beq	r18,zero,4107a98 <___svfiprintf_internal_r+0xfb8>
 41071a8:	dac02317 	ldw	r11,140(sp)
 41071ac:	58800017 	ldw	r2,0(r11)
 41071b0:	5ac00104 	addi	r11,r11,4
 41071b4:	dac02315 	stw	r11,140(sp)
 41071b8:	dac02517 	ldw	r11,148(sp)
 41071bc:	12c0000d 	sth	r11,0(r2)
 41071c0:	003e6e06 	br	4106b7c <__ram_exceptions_end+0xfc0fe938>
 41071c4:	98c00007 	ldb	r3,0(r19)
 41071c8:	1a422926 	beq	r3,r9,4107a70 <___svfiprintf_internal_r+0xf90>
 41071cc:	94800414 	ori	r18,r18,16
 41071d0:	003e9206 	br	4106c1c <__ram_exceptions_end+0xfc0fe9d8>
 41071d4:	94801014 	ori	r18,r18,64
 41071d8:	98c00007 	ldb	r3,0(r19)
 41071dc:	003e8f06 	br	4106c1c <__ram_exceptions_end+0xfc0fe9d8>
 41071e0:	21003fcc 	andi	r4,r4,255
 41071e4:	2002c71e 	bne	r4,zero,4107d04 <___svfiprintf_internal_r+0x1224>
 41071e8:	9080080c 	andi	r2,r18,32
 41071ec:	10004926 	beq	r2,zero,4107314 <___svfiprintf_internal_r+0x834>
 41071f0:	dac02317 	ldw	r11,140(sp)
 41071f4:	58800117 	ldw	r2,4(r11)
 41071f8:	5f000017 	ldw	fp,0(r11)
 41071fc:	5ac00204 	addi	r11,r11,8
 4107200:	dac02315 	stw	r11,140(sp)
 4107204:	1013883a 	mov	r9,r2
 4107208:	10004b16 	blt	r2,zero,4107338 <___svfiprintf_internal_r+0x858>
 410720c:	da801d83 	ldbu	r10,118(sp)
 4107210:	8001cb16 	blt	r16,zero,4107940 <___svfiprintf_internal_r+0xe60>
 4107214:	00ffdfc4 	movi	r3,-129
 4107218:	e244b03a 	or	r2,fp,r9
 410721c:	90e4703a 	and	r18,r18,r3
 4107220:	103f4726 	beq	r2,zero,4106f40 <__ram_exceptions_end+0xfc0fecfc>
 4107224:	48008c26 	beq	r9,zero,4107458 <___svfiprintf_internal_r+0x978>
 4107228:	dc802015 	stw	r18,128(sp)
 410722c:	dc002115 	stw	r16,132(sp)
 4107230:	dc401a04 	addi	r17,sp,104
 4107234:	e021883a 	mov	r16,fp
 4107238:	da002215 	stw	r8,136(sp)
 410723c:	5039883a 	mov	fp,r10
 4107240:	4825883a 	mov	r18,r9
 4107244:	8009883a 	mov	r4,r16
 4107248:	900b883a 	mov	r5,r18
 410724c:	01800284 	movi	r6,10
 4107250:	000f883a 	mov	r7,zero
 4107254:	4108f740 	call	4108f74 <__umoddi3>
 4107258:	10800c04 	addi	r2,r2,48
 410725c:	8c7fffc4 	addi	r17,r17,-1
 4107260:	8009883a 	mov	r4,r16
 4107264:	900b883a 	mov	r5,r18
 4107268:	88800005 	stb	r2,0(r17)
 410726c:	01800284 	movi	r6,10
 4107270:	000f883a 	mov	r7,zero
 4107274:	41089fc0 	call	41089fc <__udivdi3>
 4107278:	1021883a 	mov	r16,r2
 410727c:	10c4b03a 	or	r2,r2,r3
 4107280:	1825883a 	mov	r18,r3
 4107284:	103fef1e 	bne	r2,zero,4107244 <__ram_exceptions_end+0xfc0ff000>
 4107288:	dc802017 	ldw	r18,128(sp)
 410728c:	dc002117 	ldw	r16,132(sp)
 4107290:	da002217 	ldw	r8,136(sp)
 4107294:	e015883a 	mov	r10,fp
 4107298:	d8c01e17 	ldw	r3,120(sp)
 410729c:	1c47c83a 	sub	r3,r3,r17
 41072a0:	d8c02115 	stw	r3,132(sp)
 41072a4:	003f2a06 	br	4106f50 <__ram_exceptions_end+0xfc0fed0c>
 41072a8:	dac02317 	ldw	r11,140(sp)
 41072ac:	d8001d85 	stb	zero,118(sp)
 41072b0:	5c400017 	ldw	r17,0(r11)
 41072b4:	5f000104 	addi	fp,r11,4
 41072b8:	88022f26 	beq	r17,zero,4107b78 <___svfiprintf_internal_r+0x1098>
 41072bc:	80022516 	blt	r16,zero,4107b54 <___svfiprintf_internal_r+0x1074>
 41072c0:	800d883a 	mov	r6,r16
 41072c4:	000b883a 	mov	r5,zero
 41072c8:	8809883a 	mov	r4,r17
 41072cc:	da002c15 	stw	r8,176(sp)
 41072d0:	410568c0 	call	410568c <memchr>
 41072d4:	da002c17 	ldw	r8,176(sp)
 41072d8:	10026426 	beq	r2,zero,4107c6c <___svfiprintf_internal_r+0x118c>
 41072dc:	1445c83a 	sub	r2,r2,r17
 41072e0:	d8802115 	stw	r2,132(sp)
 41072e4:	da801d83 	ldbu	r10,118(sp)
 41072e8:	df002315 	stw	fp,140(sp)
 41072ec:	0021883a 	mov	r16,zero
 41072f0:	003f1706 	br	4106f50 <__ram_exceptions_end+0xfc0fed0c>
 41072f4:	94800814 	ori	r18,r18,32
 41072f8:	98c00007 	ldb	r3,0(r19)
 41072fc:	003e4706 	br	4106c1c <__ram_exceptions_end+0xfc0fe9d8>
 4107300:	21003fcc 	andi	r4,r4,255
 4107304:	2002701e 	bne	r4,zero,4107cc8 <___svfiprintf_internal_r+0x11e8>
 4107308:	94800414 	ori	r18,r18,16
 410730c:	9080080c 	andi	r2,r18,32
 4107310:	103fb71e 	bne	r2,zero,41071f0 <__ram_exceptions_end+0xfc0fefac>
 4107314:	9080040c 	andi	r2,r18,16
 4107318:	1001ab26 	beq	r2,zero,41079c8 <___svfiprintf_internal_r+0xee8>
 410731c:	dac02317 	ldw	r11,140(sp)
 4107320:	5f000017 	ldw	fp,0(r11)
 4107324:	5ac00104 	addi	r11,r11,4
 4107328:	dac02315 	stw	r11,140(sp)
 410732c:	e013d7fa 	srai	r9,fp,31
 4107330:	4805883a 	mov	r2,r9
 4107334:	103fb50e 	bge	r2,zero,410720c <__ram_exceptions_end+0xfc0fefc8>
 4107338:	0739c83a 	sub	fp,zero,fp
 410733c:	02800b44 	movi	r10,45
 4107340:	e004c03a 	cmpne	r2,fp,zero
 4107344:	0253c83a 	sub	r9,zero,r9
 4107348:	da801d85 	stb	r10,118(sp)
 410734c:	4893c83a 	sub	r9,r9,r2
 4107350:	80023016 	blt	r16,zero,4107c14 <___svfiprintf_internal_r+0x1134>
 4107354:	00bfdfc4 	movi	r2,-129
 4107358:	90a4703a 	and	r18,r18,r2
 410735c:	483fb21e 	bne	r9,zero,4107228 <__ram_exceptions_end+0xfc0fefe4>
 4107360:	00003d06 	br	4107458 <___svfiprintf_internal_r+0x978>
 4107364:	9817883a 	mov	r11,r19
 4107368:	d8002415 	stw	zero,144(sp)
 410736c:	18bff404 	addi	r2,r3,-48
 4107370:	0019883a 	mov	r12,zero
 4107374:	58c00007 	ldb	r3,0(r11)
 4107378:	630002a4 	muli	r12,r12,10
 410737c:	9cc00044 	addi	r19,r19,1
 4107380:	9817883a 	mov	r11,r19
 4107384:	1319883a 	add	r12,r2,r12
 4107388:	18bff404 	addi	r2,r3,-48
 410738c:	30bff92e 	bgeu	r6,r2,4107374 <__ram_exceptions_end+0xfc0ff130>
 4107390:	db002415 	stw	r12,144(sp)
 4107394:	18bff804 	addi	r2,r3,-32
 4107398:	28be232e 	bgeu	r5,r2,4106c28 <__ram_exceptions_end+0xfc0fe9e4>
 410739c:	21003fcc 	andi	r4,r4,255
 41073a0:	20024b1e 	bne	r4,zero,4107cd0 <___svfiprintf_internal_r+0x11f0>
 41073a4:	1800d626 	beq	r3,zero,4107700 <___svfiprintf_internal_r+0xc20>
 41073a8:	02c00044 	movi	r11,1
 41073ac:	dac02015 	stw	r11,128(sp)
 41073b0:	d8c01005 	stb	r3,64(sp)
 41073b4:	d8001d85 	stb	zero,118(sp)
 41073b8:	dac02115 	stw	r11,132(sp)
 41073bc:	dc401004 	addi	r17,sp,64
 41073c0:	003f2606 	br	410705c <__ram_exceptions_end+0xfc0fee18>
 41073c4:	94802014 	ori	r18,r18,128
 41073c8:	98c00007 	ldb	r3,0(r19)
 41073cc:	003e1306 	br	4106c1c <__ram_exceptions_end+0xfc0fe9d8>
 41073d0:	98c00007 	ldb	r3,0(r19)
 41073d4:	9ac00044 	addi	r11,r19,1
 41073d8:	1a822b26 	beq	r3,r10,4107c88 <___svfiprintf_internal_r+0x11a8>
 41073dc:	18bff404 	addi	r2,r3,-48
 41073e0:	0021883a 	mov	r16,zero
 41073e4:	30821e36 	bltu	r6,r2,4107c60 <___svfiprintf_internal_r+0x1180>
 41073e8:	58c00007 	ldb	r3,0(r11)
 41073ec:	840002a4 	muli	r16,r16,10
 41073f0:	5cc00044 	addi	r19,r11,1
 41073f4:	9817883a 	mov	r11,r19
 41073f8:	80a1883a 	add	r16,r16,r2
 41073fc:	18bff404 	addi	r2,r3,-48
 4107400:	30bff92e 	bgeu	r6,r2,41073e8 <__ram_exceptions_end+0xfc0ff1a4>
 4107404:	803e060e 	bge	r16,zero,4106c20 <__ram_exceptions_end+0xfc0fe9dc>
 4107408:	043fffc4 	movi	r16,-1
 410740c:	003e0406 	br	4106c20 <__ram_exceptions_end+0xfc0fe9dc>
 4107410:	21003fcc 	andi	r4,r4,255
 4107414:	2002371e 	bne	r4,zero,4107cf4 <___svfiprintf_internal_r+0x1214>
 4107418:	94800414 	ori	r18,r18,16
 410741c:	9080080c 	andi	r2,r18,32
 4107420:	103ebb1e 	bne	r2,zero,4106f10 <__ram_exceptions_end+0xfc0feccc>
 4107424:	9080040c 	andi	r2,r18,16
 4107428:	10013b26 	beq	r2,zero,4107918 <___svfiprintf_internal_r+0xe38>
 410742c:	dac02317 	ldw	r11,140(sp)
 4107430:	d8001d85 	stb	zero,118(sp)
 4107434:	0013883a 	mov	r9,zero
 4107438:	58800104 	addi	r2,r11,4
 410743c:	5f000017 	ldw	fp,0(r11)
 4107440:	80013d16 	blt	r16,zero,4107938 <___svfiprintf_internal_r+0xe58>
 4107444:	00ffdfc4 	movi	r3,-129
 4107448:	d8802315 	stw	r2,140(sp)
 410744c:	90e4703a 	and	r18,r18,r3
 4107450:	0015883a 	mov	r10,zero
 4107454:	e03eba26 	beq	fp,zero,4106f40 <__ram_exceptions_end+0xfc0fecfc>
 4107458:	00800244 	movi	r2,9
 410745c:	173f7236 	bltu	r2,fp,4107228 <__ram_exceptions_end+0xfc0fefe4>
 4107460:	dac02b17 	ldw	r11,172(sp)
 4107464:	e7000c04 	addi	fp,fp,48
 4107468:	df0019c5 	stb	fp,103(sp)
 410746c:	dac02115 	stw	r11,132(sp)
 4107470:	dc4019c4 	addi	r17,sp,103
 4107474:	003eb606 	br	4106f50 <__ram_exceptions_end+0xfc0fed0c>
 4107478:	21003fcc 	andi	r4,r4,255
 410747c:	20021f1e 	bne	r4,zero,4107cfc <___svfiprintf_internal_r+0x121c>
 4107480:	94800414 	ori	r18,r18,16
 4107484:	9080080c 	andi	r2,r18,32
 4107488:	103ec51e 	bne	r2,zero,4106fa0 <__ram_exceptions_end+0xfc0fed5c>
 410748c:	9080040c 	andi	r2,r18,16
 4107490:	10016926 	beq	r2,zero,4107a38 <___svfiprintf_internal_r+0xf58>
 4107494:	dac02317 	ldw	r11,140(sp)
 4107498:	d8001d85 	stb	zero,118(sp)
 410749c:	0013883a 	mov	r9,zero
 41074a0:	58800104 	addi	r2,r11,4
 41074a4:	5f000017 	ldw	fp,0(r11)
 41074a8:	80016b16 	blt	r16,zero,4107a58 <___svfiprintf_internal_r+0xf78>
 41074ac:	00ffdfc4 	movi	r3,-129
 41074b0:	d8802315 	stw	r2,140(sp)
 41074b4:	90e4703a 	and	r18,r18,r3
 41074b8:	e03ec41e 	bne	fp,zero,4106fcc <__ram_exceptions_end+0xfc0fed88>
 41074bc:	0015883a 	mov	r10,zero
 41074c0:	8001c226 	beq	r16,zero,4107bcc <___svfiprintf_internal_r+0x10ec>
 41074c4:	0039883a 	mov	fp,zero
 41074c8:	0013883a 	mov	r9,zero
 41074cc:	003ec006 	br	4106fd0 <__ram_exceptions_end+0xfc0fed8c>
 41074d0:	d8c01c17 	ldw	r3,112(sp)
 41074d4:	d8801b17 	ldw	r2,108(sp)
 41074d8:	d9001d87 	ldb	r4,118(sp)
 41074dc:	20000b26 	beq	r4,zero,410750c <___svfiprintf_internal_r+0xa2c>
 41074e0:	d9001d84 	addi	r4,sp,118
 41074e4:	18c00044 	addi	r3,r3,1
 41074e8:	10800044 	addi	r2,r2,1
 41074ec:	41000015 	stw	r4,0(r8)
 41074f0:	01000044 	movi	r4,1
 41074f4:	41000115 	stw	r4,4(r8)
 41074f8:	d8c01c15 	stw	r3,112(sp)
 41074fc:	d8801b15 	stw	r2,108(sp)
 4107500:	010001c4 	movi	r4,7
 4107504:	2080e116 	blt	r4,r2,410788c <___svfiprintf_internal_r+0xdac>
 4107508:	42000204 	addi	r8,r8,8
 410750c:	dac02217 	ldw	r11,136(sp)
 4107510:	58000b26 	beq	r11,zero,4107540 <___svfiprintf_internal_r+0xa60>
 4107514:	d9001d04 	addi	r4,sp,116
 4107518:	18c00084 	addi	r3,r3,2
 410751c:	10800044 	addi	r2,r2,1
 4107520:	41000015 	stw	r4,0(r8)
 4107524:	01000084 	movi	r4,2
 4107528:	41000115 	stw	r4,4(r8)
 410752c:	d8c01c15 	stw	r3,112(sp)
 4107530:	d8801b15 	stw	r2,108(sp)
 4107534:	010001c4 	movi	r4,7
 4107538:	2080dd16 	blt	r4,r2,41078b0 <___svfiprintf_internal_r+0xdd0>
 410753c:	42000204 	addi	r8,r8,8
 4107540:	dac02617 	ldw	r11,152(sp)
 4107544:	01002004 	movi	r4,128
 4107548:	59008426 	beq	r11,r4,410775c <___svfiprintf_internal_r+0xc7c>
 410754c:	dac02117 	ldw	r11,132(sp)
 4107550:	82e1c83a 	sub	r16,r16,r11
 4107554:	0400270e 	bge	zero,r16,41075f4 <___svfiprintf_internal_r+0xb14>
 4107558:	01c00404 	movi	r7,16
 410755c:	3c016a0e 	bge	r7,r16,4107b08 <___svfiprintf_internal_r+0x1028>
 4107560:	01410474 	movhi	r5,1041
 4107564:	29789504 	addi	r5,r5,-7596
 4107568:	d9402215 	stw	r5,136(sp)
 410756c:	070001c4 	movi	fp,7
 4107570:	00000306 	br	4107580 <___svfiprintf_internal_r+0xaa0>
 4107574:	843ffc04 	addi	r16,r16,-16
 4107578:	42000204 	addi	r8,r8,8
 410757c:	3c00130e 	bge	r7,r16,41075cc <___svfiprintf_internal_r+0xaec>
 4107580:	18c00404 	addi	r3,r3,16
 4107584:	10800044 	addi	r2,r2,1
 4107588:	45000015 	stw	r20,0(r8)
 410758c:	41c00115 	stw	r7,4(r8)
 4107590:	d8c01c15 	stw	r3,112(sp)
 4107594:	d8801b15 	stw	r2,108(sp)
 4107598:	e0bff60e 	bge	fp,r2,4107574 <__ram_exceptions_end+0xfc0ff330>
 410759c:	d9801a04 	addi	r6,sp,104
 41075a0:	b80b883a 	mov	r5,r23
 41075a4:	a809883a 	mov	r4,r21
 41075a8:	d9c02c15 	stw	r7,176(sp)
 41075ac:	41069100 	call	4106910 <__ssprint_r>
 41075b0:	d9c02c17 	ldw	r7,176(sp)
 41075b4:	1000581e 	bne	r2,zero,4107718 <___svfiprintf_internal_r+0xc38>
 41075b8:	843ffc04 	addi	r16,r16,-16
 41075bc:	d8c01c17 	ldw	r3,112(sp)
 41075c0:	d8801b17 	ldw	r2,108(sp)
 41075c4:	d811883a 	mov	r8,sp
 41075c8:	3c3fed16 	blt	r7,r16,4107580 <__ram_exceptions_end+0xfc0ff33c>
 41075cc:	dac02217 	ldw	r11,136(sp)
 41075d0:	1c07883a 	add	r3,r3,r16
 41075d4:	10800044 	addi	r2,r2,1
 41075d8:	42c00015 	stw	r11,0(r8)
 41075dc:	44000115 	stw	r16,4(r8)
 41075e0:	d8c01c15 	stw	r3,112(sp)
 41075e4:	d8801b15 	stw	r2,108(sp)
 41075e8:	010001c4 	movi	r4,7
 41075ec:	20809e16 	blt	r4,r2,4107868 <___svfiprintf_internal_r+0xd88>
 41075f0:	42000204 	addi	r8,r8,8
 41075f4:	dac02117 	ldw	r11,132(sp)
 41075f8:	10800044 	addi	r2,r2,1
 41075fc:	44400015 	stw	r17,0(r8)
 4107600:	58c7883a 	add	r3,r11,r3
 4107604:	42c00115 	stw	r11,4(r8)
 4107608:	d8c01c15 	stw	r3,112(sp)
 410760c:	d8801b15 	stw	r2,108(sp)
 4107610:	010001c4 	movi	r4,7
 4107614:	20807f16 	blt	r4,r2,4107814 <___svfiprintf_internal_r+0xd34>
 4107618:	42000204 	addi	r8,r8,8
 410761c:	9480010c 	andi	r18,r18,4
 4107620:	90002926 	beq	r18,zero,41076c8 <___svfiprintf_internal_r+0xbe8>
 4107624:	dac02417 	ldw	r11,144(sp)
 4107628:	d8802017 	ldw	r2,128(sp)
 410762c:	58a1c83a 	sub	r16,r11,r2
 4107630:	0400250e 	bge	zero,r16,41076c8 <___svfiprintf_internal_r+0xbe8>
 4107634:	04400404 	movi	r17,16
 4107638:	d8801b17 	ldw	r2,108(sp)
 410763c:	8c017c0e 	bge	r17,r16,4107c30 <___svfiprintf_internal_r+0x1150>
 4107640:	01410474 	movhi	r5,1041
 4107644:	29789904 	addi	r5,r5,-7580
 4107648:	d9402815 	stw	r5,160(sp)
 410764c:	048001c4 	movi	r18,7
 4107650:	00000306 	br	4107660 <___svfiprintf_internal_r+0xb80>
 4107654:	843ffc04 	addi	r16,r16,-16
 4107658:	42000204 	addi	r8,r8,8
 410765c:	8c00110e 	bge	r17,r16,41076a4 <___svfiprintf_internal_r+0xbc4>
 4107660:	18c00404 	addi	r3,r3,16
 4107664:	10800044 	addi	r2,r2,1
 4107668:	45800015 	stw	r22,0(r8)
 410766c:	44400115 	stw	r17,4(r8)
 4107670:	d8c01c15 	stw	r3,112(sp)
 4107674:	d8801b15 	stw	r2,108(sp)
 4107678:	90bff60e 	bge	r18,r2,4107654 <__ram_exceptions_end+0xfc0ff410>
 410767c:	d9801a04 	addi	r6,sp,104
 4107680:	b80b883a 	mov	r5,r23
 4107684:	a809883a 	mov	r4,r21
 4107688:	41069100 	call	4106910 <__ssprint_r>
 410768c:	1000221e 	bne	r2,zero,4107718 <___svfiprintf_internal_r+0xc38>
 4107690:	843ffc04 	addi	r16,r16,-16
 4107694:	d8c01c17 	ldw	r3,112(sp)
 4107698:	d8801b17 	ldw	r2,108(sp)
 410769c:	d811883a 	mov	r8,sp
 41076a0:	8c3fef16 	blt	r17,r16,4107660 <__ram_exceptions_end+0xfc0ff41c>
 41076a4:	dac02817 	ldw	r11,160(sp)
 41076a8:	1c07883a 	add	r3,r3,r16
 41076ac:	10800044 	addi	r2,r2,1
 41076b0:	42c00015 	stw	r11,0(r8)
 41076b4:	44000115 	stw	r16,4(r8)
 41076b8:	d8c01c15 	stw	r3,112(sp)
 41076bc:	d8801b15 	stw	r2,108(sp)
 41076c0:	010001c4 	movi	r4,7
 41076c4:	2080aa16 	blt	r4,r2,4107970 <___svfiprintf_internal_r+0xe90>
 41076c8:	d8802417 	ldw	r2,144(sp)
 41076cc:	dac02017 	ldw	r11,128(sp)
 41076d0:	12c0010e 	bge	r2,r11,41076d8 <___svfiprintf_internal_r+0xbf8>
 41076d4:	5805883a 	mov	r2,r11
 41076d8:	dac02517 	ldw	r11,148(sp)
 41076dc:	5897883a 	add	r11,r11,r2
 41076e0:	dac02515 	stw	r11,148(sp)
 41076e4:	1800531e 	bne	r3,zero,4107834 <___svfiprintf_internal_r+0xd54>
 41076e8:	98800007 	ldb	r2,0(r19)
 41076ec:	d8001b15 	stw	zero,108(sp)
 41076f0:	d811883a 	mov	r8,sp
 41076f4:	103d231e 	bne	r2,zero,4106b84 <__ram_exceptions_end+0xfc0fe940>
 41076f8:	9823883a 	mov	r17,r19
 41076fc:	003d3906 	br	4106be4 <__ram_exceptions_end+0xfc0fe9a0>
 4107700:	d8801c17 	ldw	r2,112(sp)
 4107704:	10000426 	beq	r2,zero,4107718 <___svfiprintf_internal_r+0xc38>
 4107708:	d9402717 	ldw	r5,156(sp)
 410770c:	d9002a17 	ldw	r4,168(sp)
 4107710:	d9801a04 	addi	r6,sp,104
 4107714:	41069100 	call	4106910 <__ssprint_r>
 4107718:	dac02717 	ldw	r11,156(sp)
 410771c:	d8802517 	ldw	r2,148(sp)
 4107720:	58c0030b 	ldhu	r3,12(r11)
 4107724:	18c0100c 	andi	r3,r3,64
 4107728:	1801381e 	bne	r3,zero,4107c0c <___svfiprintf_internal_r+0x112c>
 410772c:	dfc03717 	ldw	ra,220(sp)
 4107730:	df003617 	ldw	fp,216(sp)
 4107734:	ddc03517 	ldw	r23,212(sp)
 4107738:	dd803417 	ldw	r22,208(sp)
 410773c:	dd403317 	ldw	r21,204(sp)
 4107740:	dd003217 	ldw	r20,200(sp)
 4107744:	dcc03117 	ldw	r19,196(sp)
 4107748:	dc803017 	ldw	r18,192(sp)
 410774c:	dc402f17 	ldw	r17,188(sp)
 4107750:	dc002e17 	ldw	r16,184(sp)
 4107754:	dec03804 	addi	sp,sp,224
 4107758:	f800283a 	ret
 410775c:	dac02417 	ldw	r11,144(sp)
 4107760:	d9002017 	ldw	r4,128(sp)
 4107764:	5939c83a 	sub	fp,r11,r4
 4107768:	073f780e 	bge	zero,fp,410754c <__ram_exceptions_end+0xfc0ff308>
 410776c:	02400404 	movi	r9,16
 4107770:	4f01370e 	bge	r9,fp,4107c50 <___svfiprintf_internal_r+0x1170>
 4107774:	02c10474 	movhi	r11,1041
 4107778:	5af89504 	addi	r11,r11,-7596
 410777c:	dac02215 	stw	r11,136(sp)
 4107780:	028001c4 	movi	r10,7
 4107784:	00000306 	br	4107794 <___svfiprintf_internal_r+0xcb4>
 4107788:	e73ffc04 	addi	fp,fp,-16
 410778c:	42000204 	addi	r8,r8,8
 4107790:	4f00150e 	bge	r9,fp,41077e8 <___svfiprintf_internal_r+0xd08>
 4107794:	18c00404 	addi	r3,r3,16
 4107798:	10800044 	addi	r2,r2,1
 410779c:	45000015 	stw	r20,0(r8)
 41077a0:	42400115 	stw	r9,4(r8)
 41077a4:	d8c01c15 	stw	r3,112(sp)
 41077a8:	d8801b15 	stw	r2,108(sp)
 41077ac:	50bff60e 	bge	r10,r2,4107788 <__ram_exceptions_end+0xfc0ff544>
 41077b0:	d9801a04 	addi	r6,sp,104
 41077b4:	b80b883a 	mov	r5,r23
 41077b8:	a809883a 	mov	r4,r21
 41077bc:	da402c15 	stw	r9,176(sp)
 41077c0:	da802d15 	stw	r10,180(sp)
 41077c4:	41069100 	call	4106910 <__ssprint_r>
 41077c8:	da402c17 	ldw	r9,176(sp)
 41077cc:	da802d17 	ldw	r10,180(sp)
 41077d0:	103fd11e 	bne	r2,zero,4107718 <__ram_exceptions_end+0xfc0ff4d4>
 41077d4:	e73ffc04 	addi	fp,fp,-16
 41077d8:	d8c01c17 	ldw	r3,112(sp)
 41077dc:	d8801b17 	ldw	r2,108(sp)
 41077e0:	d811883a 	mov	r8,sp
 41077e4:	4f3feb16 	blt	r9,fp,4107794 <__ram_exceptions_end+0xfc0ff550>
 41077e8:	dac02217 	ldw	r11,136(sp)
 41077ec:	1f07883a 	add	r3,r3,fp
 41077f0:	10800044 	addi	r2,r2,1
 41077f4:	42c00015 	stw	r11,0(r8)
 41077f8:	47000115 	stw	fp,4(r8)
 41077fc:	d8c01c15 	stw	r3,112(sp)
 4107800:	d8801b15 	stw	r2,108(sp)
 4107804:	010001c4 	movi	r4,7
 4107808:	2080b616 	blt	r4,r2,4107ae4 <___svfiprintf_internal_r+0x1004>
 410780c:	42000204 	addi	r8,r8,8
 4107810:	003f4e06 	br	410754c <__ram_exceptions_end+0xfc0ff308>
 4107814:	d9801a04 	addi	r6,sp,104
 4107818:	b80b883a 	mov	r5,r23
 410781c:	a809883a 	mov	r4,r21
 4107820:	41069100 	call	4106910 <__ssprint_r>
 4107824:	103fbc1e 	bne	r2,zero,4107718 <__ram_exceptions_end+0xfc0ff4d4>
 4107828:	d8c01c17 	ldw	r3,112(sp)
 410782c:	d811883a 	mov	r8,sp
 4107830:	003f7a06 	br	410761c <__ram_exceptions_end+0xfc0ff3d8>
 4107834:	d9801a04 	addi	r6,sp,104
 4107838:	b80b883a 	mov	r5,r23
 410783c:	a809883a 	mov	r4,r21
 4107840:	41069100 	call	4106910 <__ssprint_r>
 4107844:	103fa826 	beq	r2,zero,41076e8 <__ram_exceptions_end+0xfc0ff4a4>
 4107848:	003fb306 	br	4107718 <__ram_exceptions_end+0xfc0ff4d4>
 410784c:	d9801a04 	addi	r6,sp,104
 4107850:	b80b883a 	mov	r5,r23
 4107854:	a809883a 	mov	r4,r21
 4107858:	41069100 	call	4106910 <__ssprint_r>
 410785c:	103fae1e 	bne	r2,zero,4107718 <__ram_exceptions_end+0xfc0ff4d4>
 4107860:	d811883a 	mov	r8,sp
 4107864:	003cdc06 	br	4106bd8 <__ram_exceptions_end+0xfc0fe994>
 4107868:	d9801a04 	addi	r6,sp,104
 410786c:	b80b883a 	mov	r5,r23
 4107870:	a809883a 	mov	r4,r21
 4107874:	41069100 	call	4106910 <__ssprint_r>
 4107878:	103fa71e 	bne	r2,zero,4107718 <__ram_exceptions_end+0xfc0ff4d4>
 410787c:	d8c01c17 	ldw	r3,112(sp)
 4107880:	d8801b17 	ldw	r2,108(sp)
 4107884:	d811883a 	mov	r8,sp
 4107888:	003f5a06 	br	41075f4 <__ram_exceptions_end+0xfc0ff3b0>
 410788c:	d9801a04 	addi	r6,sp,104
 4107890:	b80b883a 	mov	r5,r23
 4107894:	a809883a 	mov	r4,r21
 4107898:	41069100 	call	4106910 <__ssprint_r>
 410789c:	103f9e1e 	bne	r2,zero,4107718 <__ram_exceptions_end+0xfc0ff4d4>
 41078a0:	d8c01c17 	ldw	r3,112(sp)
 41078a4:	d8801b17 	ldw	r2,108(sp)
 41078a8:	d811883a 	mov	r8,sp
 41078ac:	003f1706 	br	410750c <__ram_exceptions_end+0xfc0ff2c8>
 41078b0:	d9801a04 	addi	r6,sp,104
 41078b4:	b80b883a 	mov	r5,r23
 41078b8:	a809883a 	mov	r4,r21
 41078bc:	41069100 	call	4106910 <__ssprint_r>
 41078c0:	103f951e 	bne	r2,zero,4107718 <__ram_exceptions_end+0xfc0ff4d4>
 41078c4:	d8c01c17 	ldw	r3,112(sp)
 41078c8:	d8801b17 	ldw	r2,108(sp)
 41078cc:	d811883a 	mov	r8,sp
 41078d0:	003f1b06 	br	4107540 <__ram_exceptions_end+0xfc0ff2fc>
 41078d4:	d8001d85 	stb	zero,118(sp)
 41078d8:	80007b16 	blt	r16,zero,4107ac8 <___svfiprintf_internal_r+0xfe8>
 41078dc:	00ffdfc4 	movi	r3,-129
 41078e0:	e244b03a 	or	r2,fp,r9
 41078e4:	90e4703a 	and	r18,r18,r3
 41078e8:	103d7026 	beq	r2,zero,4106eac <__ram_exceptions_end+0xfc0fec68>
 41078ec:	0015883a 	mov	r10,zero
 41078f0:	003d7206 	br	4106ebc <__ram_exceptions_end+0xfc0fec78>
 41078f4:	d9801a04 	addi	r6,sp,104
 41078f8:	b80b883a 	mov	r5,r23
 41078fc:	a809883a 	mov	r4,r21
 4107900:	41069100 	call	4106910 <__ssprint_r>
 4107904:	103f841e 	bne	r2,zero,4107718 <__ram_exceptions_end+0xfc0ff4d4>
 4107908:	d8c01c17 	ldw	r3,112(sp)
 410790c:	d8801b17 	ldw	r2,108(sp)
 4107910:	d811883a 	mov	r8,sp
 4107914:	003ef006 	br	41074d8 <__ram_exceptions_end+0xfc0ff294>
 4107918:	9080100c 	andi	r2,r18,64
 410791c:	d8001d85 	stb	zero,118(sp)
 4107920:	dac02317 	ldw	r11,140(sp)
 4107924:	10008126 	beq	r2,zero,4107b2c <___svfiprintf_internal_r+0x104c>
 4107928:	58800104 	addi	r2,r11,4
 410792c:	5f00000b 	ldhu	fp,0(r11)
 4107930:	0013883a 	mov	r9,zero
 4107934:	803ec30e 	bge	r16,zero,4107444 <__ram_exceptions_end+0xfc0ff200>
 4107938:	d8802315 	stw	r2,140(sp)
 410793c:	0015883a 	mov	r10,zero
 4107940:	e244b03a 	or	r2,fp,r9
 4107944:	103e371e 	bne	r2,zero,4107224 <__ram_exceptions_end+0xfc0fefe0>
 4107948:	00800044 	movi	r2,1
 410794c:	10803fcc 	andi	r2,r2,255
 4107950:	00c00044 	movi	r3,1
 4107954:	10c06126 	beq	r2,r3,4107adc <___svfiprintf_internal_r+0xffc>
 4107958:	00c00084 	movi	r3,2
 410795c:	10fd5526 	beq	r2,r3,4106eb4 <__ram_exceptions_end+0xfc0fec70>
 4107960:	003ed806 	br	41074c4 <__ram_exceptions_end+0xfc0ff280>
 4107964:	d8802315 	stw	r2,140(sp)
 4107968:	98c00007 	ldb	r3,0(r19)
 410796c:	003cab06 	br	4106c1c <__ram_exceptions_end+0xfc0fe9d8>
 4107970:	d9801a04 	addi	r6,sp,104
 4107974:	b80b883a 	mov	r5,r23
 4107978:	a809883a 	mov	r4,r21
 410797c:	41069100 	call	4106910 <__ssprint_r>
 4107980:	103f651e 	bne	r2,zero,4107718 <__ram_exceptions_end+0xfc0ff4d4>
 4107984:	d8c01c17 	ldw	r3,112(sp)
 4107988:	003f4f06 	br	41076c8 <__ram_exceptions_end+0xfc0ff484>
 410798c:	00810474 	movhi	r2,1041
 4107990:	10b83404 	addi	r2,r2,-7984
 4107994:	d8802915 	stw	r2,164(sp)
 4107998:	003d4406 	br	4106eac <__ram_exceptions_end+0xfc0fec68>
 410799c:	dac02317 	ldw	r11,140(sp)
 41079a0:	58800017 	ldw	r2,0(r11)
 41079a4:	dac02517 	ldw	r11,148(sp)
 41079a8:	5807d7fa 	srai	r3,r11,31
 41079ac:	dac02317 	ldw	r11,140(sp)
 41079b0:	10c00115 	stw	r3,4(r2)
 41079b4:	5ac00104 	addi	r11,r11,4
 41079b8:	dac02315 	stw	r11,140(sp)
 41079bc:	dac02517 	ldw	r11,148(sp)
 41079c0:	12c00015 	stw	r11,0(r2)
 41079c4:	003c6d06 	br	4106b7c <__ram_exceptions_end+0xfc0fe938>
 41079c8:	9080100c 	andi	r2,r18,64
 41079cc:	dac02317 	ldw	r11,140(sp)
 41079d0:	103e5326 	beq	r2,zero,4107320 <__ram_exceptions_end+0xfc0ff0dc>
 41079d4:	5f00000f 	ldh	fp,0(r11)
 41079d8:	5ac00104 	addi	r11,r11,4
 41079dc:	dac02315 	stw	r11,140(sp)
 41079e0:	e013d7fa 	srai	r9,fp,31
 41079e4:	4805883a 	mov	r2,r9
 41079e8:	003e0706 	br	4107208 <__ram_exceptions_end+0xfc0fefc4>
 41079ec:	00800c04 	movi	r2,48
 41079f0:	d8801d05 	stb	r2,116(sp)
 41079f4:	d8c01d45 	stb	r3,117(sp)
 41079f8:	d8001d85 	stb	zero,118(sp)
 41079fc:	90800094 	ori	r2,r18,2
 4107a00:	80008f16 	blt	r16,zero,4107c40 <___svfiprintf_internal_r+0x1160>
 4107a04:	00bfdfc4 	movi	r2,-129
 4107a08:	90a4703a 	and	r18,r18,r2
 4107a0c:	94800094 	ori	r18,r18,2
 4107a10:	0015883a 	mov	r10,zero
 4107a14:	003d2906 	br	4106ebc <__ram_exceptions_end+0xfc0fec78>
 4107a18:	98c00007 	ldb	r3,0(r19)
 4107a1c:	003c7f06 	br	4106c1c <__ram_exceptions_end+0xfc0fe9d8>
 4107a20:	dac02317 	ldw	r11,140(sp)
 4107a24:	0013883a 	mov	r9,zero
 4107a28:	5f000017 	ldw	fp,0(r11)
 4107a2c:	5ac00104 	addi	r11,r11,4
 4107a30:	dac02315 	stw	r11,140(sp)
 4107a34:	003d1506 	br	4106e8c <__ram_exceptions_end+0xfc0fec48>
 4107a38:	9080100c 	andi	r2,r18,64
 4107a3c:	d8001d85 	stb	zero,118(sp)
 4107a40:	dac02317 	ldw	r11,140(sp)
 4107a44:	10003426 	beq	r2,zero,4107b18 <___svfiprintf_internal_r+0x1038>
 4107a48:	58800104 	addi	r2,r11,4
 4107a4c:	5f00000b 	ldhu	fp,0(r11)
 4107a50:	0013883a 	mov	r9,zero
 4107a54:	803e950e 	bge	r16,zero,41074ac <__ram_exceptions_end+0xfc0ff268>
 4107a58:	e246b03a 	or	r3,fp,r9
 4107a5c:	d8802315 	stw	r2,140(sp)
 4107a60:	183d5a1e 	bne	r3,zero,4106fcc <__ram_exceptions_end+0xfc0fed88>
 4107a64:	0015883a 	mov	r10,zero
 4107a68:	0005883a 	mov	r2,zero
 4107a6c:	003fb706 	br	410794c <__ram_exceptions_end+0xfc0ff708>
 4107a70:	98c00043 	ldbu	r3,1(r19)
 4107a74:	94800814 	ori	r18,r18,32
 4107a78:	9cc00044 	addi	r19,r19,1
 4107a7c:	18c03fcc 	andi	r3,r3,255
 4107a80:	18c0201c 	xori	r3,r3,128
 4107a84:	18ffe004 	addi	r3,r3,-128
 4107a88:	003c6406 	br	4106c1c <__ram_exceptions_end+0xfc0fe9d8>
 4107a8c:	d8c02315 	stw	r3,140(sp)
 4107a90:	0015883a 	mov	r10,zero
 4107a94:	003faa06 	br	4107940 <__ram_exceptions_end+0xfc0ff6fc>
 4107a98:	dac02317 	ldw	r11,140(sp)
 4107a9c:	58800017 	ldw	r2,0(r11)
 4107aa0:	5ac00104 	addi	r11,r11,4
 4107aa4:	dac02315 	stw	r11,140(sp)
 4107aa8:	dac02517 	ldw	r11,148(sp)
 4107aac:	12c00015 	stw	r11,0(r2)
 4107ab0:	003c3206 	br	4106b7c <__ram_exceptions_end+0xfc0fe938>
 4107ab4:	01010474 	movhi	r4,1041
 4107ab8:	21383404 	addi	r4,r4,-7984
 4107abc:	d9002915 	stw	r4,164(sp)
 4107ac0:	d8c02315 	stw	r3,140(sp)
 4107ac4:	1025883a 	mov	r18,r2
 4107ac8:	e244b03a 	or	r2,fp,r9
 4107acc:	103f871e 	bne	r2,zero,41078ec <__ram_exceptions_end+0xfc0ff6a8>
 4107ad0:	0015883a 	mov	r10,zero
 4107ad4:	00800084 	movi	r2,2
 4107ad8:	003f9c06 	br	410794c <__ram_exceptions_end+0xfc0ff708>
 4107adc:	0039883a 	mov	fp,zero
 4107ae0:	003e5f06 	br	4107460 <__ram_exceptions_end+0xfc0ff21c>
 4107ae4:	d9801a04 	addi	r6,sp,104
 4107ae8:	b80b883a 	mov	r5,r23
 4107aec:	a809883a 	mov	r4,r21
 4107af0:	41069100 	call	4106910 <__ssprint_r>
 4107af4:	103f081e 	bne	r2,zero,4107718 <__ram_exceptions_end+0xfc0ff4d4>
 4107af8:	d8c01c17 	ldw	r3,112(sp)
 4107afc:	d8801b17 	ldw	r2,108(sp)
 4107b00:	d811883a 	mov	r8,sp
 4107b04:	003e9106 	br	410754c <__ram_exceptions_end+0xfc0ff308>
 4107b08:	01010474 	movhi	r4,1041
 4107b0c:	21389504 	addi	r4,r4,-7596
 4107b10:	d9002215 	stw	r4,136(sp)
 4107b14:	003ead06 	br	41075cc <__ram_exceptions_end+0xfc0ff388>
 4107b18:	58800104 	addi	r2,r11,4
 4107b1c:	5f000017 	ldw	fp,0(r11)
 4107b20:	0013883a 	mov	r9,zero
 4107b24:	803e610e 	bge	r16,zero,41074ac <__ram_exceptions_end+0xfc0ff268>
 4107b28:	003fcb06 	br	4107a58 <__ram_exceptions_end+0xfc0ff814>
 4107b2c:	58800104 	addi	r2,r11,4
 4107b30:	5f000017 	ldw	fp,0(r11)
 4107b34:	0013883a 	mov	r9,zero
 4107b38:	803e420e 	bge	r16,zero,4107444 <__ram_exceptions_end+0xfc0ff200>
 4107b3c:	003f7e06 	br	4107938 <__ram_exceptions_end+0xfc0ff6f4>
 4107b40:	5f000017 	ldw	fp,0(r11)
 4107b44:	5ac00104 	addi	r11,r11,4
 4107b48:	0013883a 	mov	r9,zero
 4107b4c:	dac02315 	stw	r11,140(sp)
 4107b50:	003cce06 	br	4106e8c <__ram_exceptions_end+0xfc0fec48>
 4107b54:	8809883a 	mov	r4,r17
 4107b58:	da002c15 	stw	r8,176(sp)
 4107b5c:	41012ac0 	call	41012ac <strlen>
 4107b60:	d8802115 	stw	r2,132(sp)
 4107b64:	da801d83 	ldbu	r10,118(sp)
 4107b68:	df002315 	stw	fp,140(sp)
 4107b6c:	0021883a 	mov	r16,zero
 4107b70:	da002c17 	ldw	r8,176(sp)
 4107b74:	003cf606 	br	4106f50 <__ram_exceptions_end+0xfc0fed0c>
 4107b78:	00800184 	movi	r2,6
 4107b7c:	1400012e 	bgeu	r2,r16,4107b84 <___svfiprintf_internal_r+0x10a4>
 4107b80:	1021883a 	mov	r16,r2
 4107b84:	dc002115 	stw	r16,132(sp)
 4107b88:	8005883a 	mov	r2,r16
 4107b8c:	80003c16 	blt	r16,zero,4107c80 <___svfiprintf_internal_r+0x11a0>
 4107b90:	04410474 	movhi	r17,1041
 4107b94:	d8802015 	stw	r2,128(sp)
 4107b98:	df002315 	stw	fp,140(sp)
 4107b9c:	8c783904 	addi	r17,r17,-7964
 4107ba0:	003d2e06 	br	410705c <__ram_exceptions_end+0xfc0fee18>
 4107ba4:	04001004 	movi	r16,64
 4107ba8:	800b883a 	mov	r5,r16
 4107bac:	4104e800 	call	4104e80 <_malloc_r>
 4107bb0:	dac02717 	ldw	r11,156(sp)
 4107bb4:	58800015 	stw	r2,0(r11)
 4107bb8:	58800415 	stw	r2,16(r11)
 4107bbc:	10004826 	beq	r2,zero,4107ce0 <___svfiprintf_internal_r+0x1200>
 4107bc0:	dac02717 	ldw	r11,156(sp)
 4107bc4:	5c000515 	stw	r16,20(r11)
 4107bc8:	003bd906 	br	4106b30 <__ram_exceptions_end+0xfc0fe8ec>
 4107bcc:	9080004c 	andi	r2,r18,1
 4107bd0:	0015883a 	mov	r10,zero
 4107bd4:	10000626 	beq	r2,zero,4107bf0 <___svfiprintf_internal_r+0x1110>
 4107bd8:	dac02b17 	ldw	r11,172(sp)
 4107bdc:	00800c04 	movi	r2,48
 4107be0:	d88019c5 	stb	r2,103(sp)
 4107be4:	dac02115 	stw	r11,132(sp)
 4107be8:	dc4019c4 	addi	r17,sp,103
 4107bec:	003cd806 	br	4106f50 <__ram_exceptions_end+0xfc0fed0c>
 4107bf0:	d8002115 	stw	zero,132(sp)
 4107bf4:	dc401a04 	addi	r17,sp,104
 4107bf8:	003cd506 	br	4106f50 <__ram_exceptions_end+0xfc0fed0c>
 4107bfc:	01010474 	movhi	r4,1041
 4107c00:	21389904 	addi	r4,r4,-7580
 4107c04:	d9002815 	stw	r4,160(sp)
 4107c08:	003d4306 	br	4107118 <__ram_exceptions_end+0xfc0feed4>
 4107c0c:	00bfffc4 	movi	r2,-1
 4107c10:	003ec606 	br	410772c <__ram_exceptions_end+0xfc0ff4e8>
 4107c14:	00800044 	movi	r2,1
 4107c18:	10803fcc 	andi	r2,r2,255
 4107c1c:	00c00044 	movi	r3,1
 4107c20:	10fd8026 	beq	r2,r3,4107224 <__ram_exceptions_end+0xfc0fefe0>
 4107c24:	00c00084 	movi	r3,2
 4107c28:	10fca426 	beq	r2,r3,4106ebc <__ram_exceptions_end+0xfc0fec78>
 4107c2c:	003ce806 	br	4106fd0 <__ram_exceptions_end+0xfc0fed8c>
 4107c30:	01010474 	movhi	r4,1041
 4107c34:	21389904 	addi	r4,r4,-7580
 4107c38:	d9002815 	stw	r4,160(sp)
 4107c3c:	003e9906 	br	41076a4 <__ram_exceptions_end+0xfc0ff460>
 4107c40:	1025883a 	mov	r18,r2
 4107c44:	0015883a 	mov	r10,zero
 4107c48:	00800084 	movi	r2,2
 4107c4c:	003ff206 	br	4107c18 <__ram_exceptions_end+0xfc0ff9d4>
 4107c50:	01410474 	movhi	r5,1041
 4107c54:	29789504 	addi	r5,r5,-7596
 4107c58:	d9402215 	stw	r5,136(sp)
 4107c5c:	003ee206 	br	41077e8 <__ram_exceptions_end+0xfc0ff5a4>
 4107c60:	5827883a 	mov	r19,r11
 4107c64:	0021883a 	mov	r16,zero
 4107c68:	003bed06 	br	4106c20 <__ram_exceptions_end+0xfc0fe9dc>
 4107c6c:	dc002115 	stw	r16,132(sp)
 4107c70:	da801d83 	ldbu	r10,118(sp)
 4107c74:	df002315 	stw	fp,140(sp)
 4107c78:	0021883a 	mov	r16,zero
 4107c7c:	003cb406 	br	4106f50 <__ram_exceptions_end+0xfc0fed0c>
 4107c80:	0005883a 	mov	r2,zero
 4107c84:	003fc206 	br	4107b90 <__ram_exceptions_end+0xfc0ff94c>
 4107c88:	d8802317 	ldw	r2,140(sp)
 4107c8c:	98c00043 	ldbu	r3,1(r19)
 4107c90:	5827883a 	mov	r19,r11
 4107c94:	14000017 	ldw	r16,0(r2)
 4107c98:	10800104 	addi	r2,r2,4
 4107c9c:	d8802315 	stw	r2,140(sp)
 4107ca0:	803f760e 	bge	r16,zero,4107a7c <__ram_exceptions_end+0xfc0ff838>
 4107ca4:	18c03fcc 	andi	r3,r3,255
 4107ca8:	18c0201c 	xori	r3,r3,128
 4107cac:	043fffc4 	movi	r16,-1
 4107cb0:	18ffe004 	addi	r3,r3,-128
 4107cb4:	003bd906 	br	4106c1c <__ram_exceptions_end+0xfc0fe9d8>
 4107cb8:	d9c01d85 	stb	r7,118(sp)
 4107cbc:	003cb606 	br	4106f98 <__ram_exceptions_end+0xfc0fed54>
 4107cc0:	d9c01d85 	stb	r7,118(sp)
 4107cc4:	003d2106 	br	410714c <__ram_exceptions_end+0xfc0fef08>
 4107cc8:	d9c01d85 	stb	r7,118(sp)
 4107ccc:	003d8e06 	br	4107308 <__ram_exceptions_end+0xfc0ff0c4>
 4107cd0:	d9c01d85 	stb	r7,118(sp)
 4107cd4:	003db306 	br	41073a4 <__ram_exceptions_end+0xfc0ff160>
 4107cd8:	d9c01d85 	stb	r7,118(sp)
 4107cdc:	003c8a06 	br	4106f08 <__ram_exceptions_end+0xfc0fecc4>
 4107ce0:	dac02a17 	ldw	r11,168(sp)
 4107ce4:	00800304 	movi	r2,12
 4107ce8:	58800015 	stw	r2,0(r11)
 4107cec:	00bfffc4 	movi	r2,-1
 4107cf0:	003e8e06 	br	410772c <__ram_exceptions_end+0xfc0ff4e8>
 4107cf4:	d9c01d85 	stb	r7,118(sp)
 4107cf8:	003dc706 	br	4107418 <__ram_exceptions_end+0xfc0ff1d4>
 4107cfc:	d9c01d85 	stb	r7,118(sp)
 4107d00:	003ddf06 	br	4107480 <__ram_exceptions_end+0xfc0ff23c>
 4107d04:	d9c01d85 	stb	r7,118(sp)
 4107d08:	003d3706 	br	41071e8 <__ram_exceptions_end+0xfc0fefa4>
 4107d0c:	d9c01d85 	stb	r7,118(sp)
 4107d10:	003c5406 	br	4106e64 <__ram_exceptions_end+0xfc0fec20>
 4107d14:	d9c01d85 	stb	r7,118(sp)
 4107d18:	003d1d06 	br	4107190 <__ram_exceptions_end+0xfc0fef4c>

04107d1c <_calloc_r>:
 4107d1c:	298b383a 	mul	r5,r5,r6
 4107d20:	defffe04 	addi	sp,sp,-8
 4107d24:	dfc00115 	stw	ra,4(sp)
 4107d28:	dc000015 	stw	r16,0(sp)
 4107d2c:	4104e800 	call	4104e80 <_malloc_r>
 4107d30:	10002926 	beq	r2,zero,4107dd8 <_calloc_r+0xbc>
 4107d34:	11bfff17 	ldw	r6,-4(r2)
 4107d38:	1021883a 	mov	r16,r2
 4107d3c:	00bfff04 	movi	r2,-4
 4107d40:	308c703a 	and	r6,r6,r2
 4107d44:	00c00904 	movi	r3,36
 4107d48:	308d883a 	add	r6,r6,r2
 4107d4c:	19801636 	bltu	r3,r6,4107da8 <_calloc_r+0x8c>
 4107d50:	008004c4 	movi	r2,19
 4107d54:	11800b2e 	bgeu	r2,r6,4107d84 <_calloc_r+0x68>
 4107d58:	80000015 	stw	zero,0(r16)
 4107d5c:	80000115 	stw	zero,4(r16)
 4107d60:	008006c4 	movi	r2,27
 4107d64:	11801a2e 	bgeu	r2,r6,4107dd0 <_calloc_r+0xb4>
 4107d68:	80000215 	stw	zero,8(r16)
 4107d6c:	80000315 	stw	zero,12(r16)
 4107d70:	30c0151e 	bne	r6,r3,4107dc8 <_calloc_r+0xac>
 4107d74:	80000415 	stw	zero,16(r16)
 4107d78:	80800604 	addi	r2,r16,24
 4107d7c:	80000515 	stw	zero,20(r16)
 4107d80:	00000106 	br	4107d88 <_calloc_r+0x6c>
 4107d84:	8005883a 	mov	r2,r16
 4107d88:	10000015 	stw	zero,0(r2)
 4107d8c:	10000115 	stw	zero,4(r2)
 4107d90:	10000215 	stw	zero,8(r2)
 4107d94:	8005883a 	mov	r2,r16
 4107d98:	dfc00117 	ldw	ra,4(sp)
 4107d9c:	dc000017 	ldw	r16,0(sp)
 4107da0:	dec00204 	addi	sp,sp,8
 4107da4:	f800283a 	ret
 4107da8:	000b883a 	mov	r5,zero
 4107dac:	8009883a 	mov	r4,r16
 4107db0:	41083700 	call	4108370 <memset>
 4107db4:	8005883a 	mov	r2,r16
 4107db8:	dfc00117 	ldw	ra,4(sp)
 4107dbc:	dc000017 	ldw	r16,0(sp)
 4107dc0:	dec00204 	addi	sp,sp,8
 4107dc4:	f800283a 	ret
 4107dc8:	80800404 	addi	r2,r16,16
 4107dcc:	003fee06 	br	4107d88 <__ram_exceptions_end+0xfc0ffb44>
 4107dd0:	80800204 	addi	r2,r16,8
 4107dd4:	003fec06 	br	4107d88 <__ram_exceptions_end+0xfc0ffb44>
 4107dd8:	0005883a 	mov	r2,zero
 4107ddc:	003fee06 	br	4107d98 <__ram_exceptions_end+0xfc0ffb54>

04107de0 <_malloc_trim_r>:
 4107de0:	defffb04 	addi	sp,sp,-20
 4107de4:	dcc00315 	stw	r19,12(sp)
 4107de8:	04c10474 	movhi	r19,1041
 4107dec:	dc800215 	stw	r18,8(sp)
 4107df0:	dc400115 	stw	r17,4(sp)
 4107df4:	dc000015 	stw	r16,0(sp)
 4107df8:	dfc00415 	stw	ra,16(sp)
 4107dfc:	2821883a 	mov	r16,r5
 4107e00:	9cfa1504 	addi	r19,r19,-6060
 4107e04:	2025883a 	mov	r18,r4
 4107e08:	410bf1c0 	call	410bf1c <__malloc_lock>
 4107e0c:	98800217 	ldw	r2,8(r19)
 4107e10:	14400117 	ldw	r17,4(r2)
 4107e14:	00bfff04 	movi	r2,-4
 4107e18:	88a2703a 	and	r17,r17,r2
 4107e1c:	8c21c83a 	sub	r16,r17,r16
 4107e20:	8403fbc4 	addi	r16,r16,4079
 4107e24:	8020d33a 	srli	r16,r16,12
 4107e28:	0083ffc4 	movi	r2,4095
 4107e2c:	843fffc4 	addi	r16,r16,-1
 4107e30:	8020933a 	slli	r16,r16,12
 4107e34:	1400060e 	bge	r2,r16,4107e50 <_malloc_trim_r+0x70>
 4107e38:	000b883a 	mov	r5,zero
 4107e3c:	9009883a 	mov	r4,r18
 4107e40:	41067e00 	call	41067e0 <_sbrk_r>
 4107e44:	98c00217 	ldw	r3,8(r19)
 4107e48:	1c47883a 	add	r3,r3,r17
 4107e4c:	10c00a26 	beq	r2,r3,4107e78 <_malloc_trim_r+0x98>
 4107e50:	9009883a 	mov	r4,r18
 4107e54:	410bf400 	call	410bf40 <__malloc_unlock>
 4107e58:	0005883a 	mov	r2,zero
 4107e5c:	dfc00417 	ldw	ra,16(sp)
 4107e60:	dcc00317 	ldw	r19,12(sp)
 4107e64:	dc800217 	ldw	r18,8(sp)
 4107e68:	dc400117 	ldw	r17,4(sp)
 4107e6c:	dc000017 	ldw	r16,0(sp)
 4107e70:	dec00504 	addi	sp,sp,20
 4107e74:	f800283a 	ret
 4107e78:	040bc83a 	sub	r5,zero,r16
 4107e7c:	9009883a 	mov	r4,r18
 4107e80:	41067e00 	call	41067e0 <_sbrk_r>
 4107e84:	00ffffc4 	movi	r3,-1
 4107e88:	10c00d26 	beq	r2,r3,4107ec0 <_malloc_trim_r+0xe0>
 4107e8c:	00c10474 	movhi	r3,1041
 4107e90:	18c68904 	addi	r3,r3,6692
 4107e94:	18800017 	ldw	r2,0(r3)
 4107e98:	99000217 	ldw	r4,8(r19)
 4107e9c:	8c23c83a 	sub	r17,r17,r16
 4107ea0:	8c400054 	ori	r17,r17,1
 4107ea4:	1421c83a 	sub	r16,r2,r16
 4107ea8:	24400115 	stw	r17,4(r4)
 4107eac:	9009883a 	mov	r4,r18
 4107eb0:	1c000015 	stw	r16,0(r3)
 4107eb4:	410bf400 	call	410bf40 <__malloc_unlock>
 4107eb8:	00800044 	movi	r2,1
 4107ebc:	003fe706 	br	4107e5c <__ram_exceptions_end+0xfc0ffc18>
 4107ec0:	000b883a 	mov	r5,zero
 4107ec4:	9009883a 	mov	r4,r18
 4107ec8:	41067e00 	call	41067e0 <_sbrk_r>
 4107ecc:	99000217 	ldw	r4,8(r19)
 4107ed0:	014003c4 	movi	r5,15
 4107ed4:	1107c83a 	sub	r3,r2,r4
 4107ed8:	28ffdd0e 	bge	r5,r3,4107e50 <__ram_exceptions_end+0xfc0ffc0c>
 4107edc:	01410474 	movhi	r5,1041
 4107ee0:	297fa104 	addi	r5,r5,-380
 4107ee4:	29400017 	ldw	r5,0(r5)
 4107ee8:	18c00054 	ori	r3,r3,1
 4107eec:	20c00115 	stw	r3,4(r4)
 4107ef0:	00c10474 	movhi	r3,1041
 4107ef4:	1145c83a 	sub	r2,r2,r5
 4107ef8:	18c68904 	addi	r3,r3,6692
 4107efc:	18800015 	stw	r2,0(r3)
 4107f00:	003fd306 	br	4107e50 <__ram_exceptions_end+0xfc0ffc0c>

04107f04 <_free_r>:
 4107f04:	28004126 	beq	r5,zero,410800c <_free_r+0x108>
 4107f08:	defffd04 	addi	sp,sp,-12
 4107f0c:	dc400115 	stw	r17,4(sp)
 4107f10:	dc000015 	stw	r16,0(sp)
 4107f14:	2023883a 	mov	r17,r4
 4107f18:	2821883a 	mov	r16,r5
 4107f1c:	dfc00215 	stw	ra,8(sp)
 4107f20:	410bf1c0 	call	410bf1c <__malloc_lock>
 4107f24:	81ffff17 	ldw	r7,-4(r16)
 4107f28:	00bfff84 	movi	r2,-2
 4107f2c:	01010474 	movhi	r4,1041
 4107f30:	81bffe04 	addi	r6,r16,-8
 4107f34:	3884703a 	and	r2,r7,r2
 4107f38:	213a1504 	addi	r4,r4,-6060
 4107f3c:	308b883a 	add	r5,r6,r2
 4107f40:	2a400117 	ldw	r9,4(r5)
 4107f44:	22000217 	ldw	r8,8(r4)
 4107f48:	00ffff04 	movi	r3,-4
 4107f4c:	48c6703a 	and	r3,r9,r3
 4107f50:	2a005726 	beq	r5,r8,41080b0 <_free_r+0x1ac>
 4107f54:	28c00115 	stw	r3,4(r5)
 4107f58:	39c0004c 	andi	r7,r7,1
 4107f5c:	3800091e 	bne	r7,zero,4107f84 <_free_r+0x80>
 4107f60:	823ffe17 	ldw	r8,-8(r16)
 4107f64:	22400204 	addi	r9,r4,8
 4107f68:	320dc83a 	sub	r6,r6,r8
 4107f6c:	31c00217 	ldw	r7,8(r6)
 4107f70:	1205883a 	add	r2,r2,r8
 4107f74:	3a406526 	beq	r7,r9,410810c <_free_r+0x208>
 4107f78:	32000317 	ldw	r8,12(r6)
 4107f7c:	3a000315 	stw	r8,12(r7)
 4107f80:	41c00215 	stw	r7,8(r8)
 4107f84:	28cf883a 	add	r7,r5,r3
 4107f88:	39c00117 	ldw	r7,4(r7)
 4107f8c:	39c0004c 	andi	r7,r7,1
 4107f90:	38003a26 	beq	r7,zero,410807c <_free_r+0x178>
 4107f94:	10c00054 	ori	r3,r2,1
 4107f98:	30c00115 	stw	r3,4(r6)
 4107f9c:	3087883a 	add	r3,r6,r2
 4107fa0:	18800015 	stw	r2,0(r3)
 4107fa4:	00c07fc4 	movi	r3,511
 4107fa8:	18801936 	bltu	r3,r2,4108010 <_free_r+0x10c>
 4107fac:	1004d0fa 	srli	r2,r2,3
 4107fb0:	01c00044 	movi	r7,1
 4107fb4:	21400117 	ldw	r5,4(r4)
 4107fb8:	10c00044 	addi	r3,r2,1
 4107fbc:	18c7883a 	add	r3,r3,r3
 4107fc0:	1005d0ba 	srai	r2,r2,2
 4107fc4:	18c7883a 	add	r3,r3,r3
 4107fc8:	18c7883a 	add	r3,r3,r3
 4107fcc:	1907883a 	add	r3,r3,r4
 4107fd0:	3884983a 	sll	r2,r7,r2
 4107fd4:	19c00017 	ldw	r7,0(r3)
 4107fd8:	1a3ffe04 	addi	r8,r3,-8
 4107fdc:	1144b03a 	or	r2,r2,r5
 4107fe0:	32000315 	stw	r8,12(r6)
 4107fe4:	31c00215 	stw	r7,8(r6)
 4107fe8:	20800115 	stw	r2,4(r4)
 4107fec:	19800015 	stw	r6,0(r3)
 4107ff0:	39800315 	stw	r6,12(r7)
 4107ff4:	8809883a 	mov	r4,r17
 4107ff8:	dfc00217 	ldw	ra,8(sp)
 4107ffc:	dc400117 	ldw	r17,4(sp)
 4108000:	dc000017 	ldw	r16,0(sp)
 4108004:	dec00304 	addi	sp,sp,12
 4108008:	410bf401 	jmpi	410bf40 <__malloc_unlock>
 410800c:	f800283a 	ret
 4108010:	100ad27a 	srli	r5,r2,9
 4108014:	00c00104 	movi	r3,4
 4108018:	19404a36 	bltu	r3,r5,4108144 <_free_r+0x240>
 410801c:	100ad1ba 	srli	r5,r2,6
 4108020:	28c00e44 	addi	r3,r5,57
 4108024:	18c7883a 	add	r3,r3,r3
 4108028:	29400e04 	addi	r5,r5,56
 410802c:	18c7883a 	add	r3,r3,r3
 4108030:	18c7883a 	add	r3,r3,r3
 4108034:	1909883a 	add	r4,r3,r4
 4108038:	20c00017 	ldw	r3,0(r4)
 410803c:	01c10474 	movhi	r7,1041
 4108040:	213ffe04 	addi	r4,r4,-8
 4108044:	39fa1504 	addi	r7,r7,-6060
 4108048:	20c04426 	beq	r4,r3,410815c <_free_r+0x258>
 410804c:	01ffff04 	movi	r7,-4
 4108050:	19400117 	ldw	r5,4(r3)
 4108054:	29ca703a 	and	r5,r5,r7
 4108058:	1140022e 	bgeu	r2,r5,4108064 <_free_r+0x160>
 410805c:	18c00217 	ldw	r3,8(r3)
 4108060:	20fffb1e 	bne	r4,r3,4108050 <__ram_exceptions_end+0xfc0ffe0c>
 4108064:	19000317 	ldw	r4,12(r3)
 4108068:	31000315 	stw	r4,12(r6)
 410806c:	30c00215 	stw	r3,8(r6)
 4108070:	21800215 	stw	r6,8(r4)
 4108074:	19800315 	stw	r6,12(r3)
 4108078:	003fde06 	br	4107ff4 <__ram_exceptions_end+0xfc0ffdb0>
 410807c:	29c00217 	ldw	r7,8(r5)
 4108080:	10c5883a 	add	r2,r2,r3
 4108084:	00c10474 	movhi	r3,1041
 4108088:	18fa1704 	addi	r3,r3,-6052
 410808c:	38c03b26 	beq	r7,r3,410817c <_free_r+0x278>
 4108090:	2a000317 	ldw	r8,12(r5)
 4108094:	11400054 	ori	r5,r2,1
 4108098:	3087883a 	add	r3,r6,r2
 410809c:	3a000315 	stw	r8,12(r7)
 41080a0:	41c00215 	stw	r7,8(r8)
 41080a4:	31400115 	stw	r5,4(r6)
 41080a8:	18800015 	stw	r2,0(r3)
 41080ac:	003fbd06 	br	4107fa4 <__ram_exceptions_end+0xfc0ffd60>
 41080b0:	39c0004c 	andi	r7,r7,1
 41080b4:	10c5883a 	add	r2,r2,r3
 41080b8:	3800071e 	bne	r7,zero,41080d8 <_free_r+0x1d4>
 41080bc:	81fffe17 	ldw	r7,-8(r16)
 41080c0:	31cdc83a 	sub	r6,r6,r7
 41080c4:	30c00317 	ldw	r3,12(r6)
 41080c8:	31400217 	ldw	r5,8(r6)
 41080cc:	11c5883a 	add	r2,r2,r7
 41080d0:	28c00315 	stw	r3,12(r5)
 41080d4:	19400215 	stw	r5,8(r3)
 41080d8:	10c00054 	ori	r3,r2,1
 41080dc:	30c00115 	stw	r3,4(r6)
 41080e0:	00c10474 	movhi	r3,1041
 41080e4:	18ffa204 	addi	r3,r3,-376
 41080e8:	18c00017 	ldw	r3,0(r3)
 41080ec:	21800215 	stw	r6,8(r4)
 41080f0:	10ffc036 	bltu	r2,r3,4107ff4 <__ram_exceptions_end+0xfc0ffdb0>
 41080f4:	00810474 	movhi	r2,1041
 41080f8:	10868004 	addi	r2,r2,6656
 41080fc:	11400017 	ldw	r5,0(r2)
 4108100:	8809883a 	mov	r4,r17
 4108104:	4107de00 	call	4107de0 <_malloc_trim_r>
 4108108:	003fba06 	br	4107ff4 <__ram_exceptions_end+0xfc0ffdb0>
 410810c:	28c9883a 	add	r4,r5,r3
 4108110:	21000117 	ldw	r4,4(r4)
 4108114:	2100004c 	andi	r4,r4,1
 4108118:	2000391e 	bne	r4,zero,4108200 <_free_r+0x2fc>
 410811c:	29c00217 	ldw	r7,8(r5)
 4108120:	29000317 	ldw	r4,12(r5)
 4108124:	1885883a 	add	r2,r3,r2
 4108128:	10c00054 	ori	r3,r2,1
 410812c:	39000315 	stw	r4,12(r7)
 4108130:	21c00215 	stw	r7,8(r4)
 4108134:	30c00115 	stw	r3,4(r6)
 4108138:	308d883a 	add	r6,r6,r2
 410813c:	30800015 	stw	r2,0(r6)
 4108140:	003fac06 	br	4107ff4 <__ram_exceptions_end+0xfc0ffdb0>
 4108144:	00c00504 	movi	r3,20
 4108148:	19401536 	bltu	r3,r5,41081a0 <_free_r+0x29c>
 410814c:	28c01704 	addi	r3,r5,92
 4108150:	18c7883a 	add	r3,r3,r3
 4108154:	294016c4 	addi	r5,r5,91
 4108158:	003fb406 	br	410802c <__ram_exceptions_end+0xfc0ffde8>
 410815c:	280bd0ba 	srai	r5,r5,2
 4108160:	00c00044 	movi	r3,1
 4108164:	38800117 	ldw	r2,4(r7)
 4108168:	194a983a 	sll	r5,r3,r5
 410816c:	2007883a 	mov	r3,r4
 4108170:	2884b03a 	or	r2,r5,r2
 4108174:	38800115 	stw	r2,4(r7)
 4108178:	003fbb06 	br	4108068 <__ram_exceptions_end+0xfc0ffe24>
 410817c:	21800515 	stw	r6,20(r4)
 4108180:	21800415 	stw	r6,16(r4)
 4108184:	10c00054 	ori	r3,r2,1
 4108188:	31c00315 	stw	r7,12(r6)
 410818c:	31c00215 	stw	r7,8(r6)
 4108190:	30c00115 	stw	r3,4(r6)
 4108194:	308d883a 	add	r6,r6,r2
 4108198:	30800015 	stw	r2,0(r6)
 410819c:	003f9506 	br	4107ff4 <__ram_exceptions_end+0xfc0ffdb0>
 41081a0:	00c01504 	movi	r3,84
 41081a4:	19400536 	bltu	r3,r5,41081bc <_free_r+0x2b8>
 41081a8:	100ad33a 	srli	r5,r2,12
 41081ac:	28c01bc4 	addi	r3,r5,111
 41081b0:	18c7883a 	add	r3,r3,r3
 41081b4:	29401b84 	addi	r5,r5,110
 41081b8:	003f9c06 	br	410802c <__ram_exceptions_end+0xfc0ffde8>
 41081bc:	00c05504 	movi	r3,340
 41081c0:	19400536 	bltu	r3,r5,41081d8 <_free_r+0x2d4>
 41081c4:	100ad3fa 	srli	r5,r2,15
 41081c8:	28c01e04 	addi	r3,r5,120
 41081cc:	18c7883a 	add	r3,r3,r3
 41081d0:	29401dc4 	addi	r5,r5,119
 41081d4:	003f9506 	br	410802c <__ram_exceptions_end+0xfc0ffde8>
 41081d8:	00c15504 	movi	r3,1364
 41081dc:	19400536 	bltu	r3,r5,41081f4 <_free_r+0x2f0>
 41081e0:	100ad4ba 	srli	r5,r2,18
 41081e4:	28c01f44 	addi	r3,r5,125
 41081e8:	18c7883a 	add	r3,r3,r3
 41081ec:	29401f04 	addi	r5,r5,124
 41081f0:	003f8e06 	br	410802c <__ram_exceptions_end+0xfc0ffde8>
 41081f4:	00c03f84 	movi	r3,254
 41081f8:	01401f84 	movi	r5,126
 41081fc:	003f8b06 	br	410802c <__ram_exceptions_end+0xfc0ffde8>
 4108200:	10c00054 	ori	r3,r2,1
 4108204:	30c00115 	stw	r3,4(r6)
 4108208:	308d883a 	add	r6,r6,r2
 410820c:	30800015 	stw	r2,0(r6)
 4108210:	003f7806 	br	4107ff4 <__ram_exceptions_end+0xfc0ffdb0>

04108214 <memmove>:
 4108214:	2005883a 	mov	r2,r4
 4108218:	29000b2e 	bgeu	r5,r4,4108248 <memmove+0x34>
 410821c:	298f883a 	add	r7,r5,r6
 4108220:	21c0092e 	bgeu	r4,r7,4108248 <memmove+0x34>
 4108224:	2187883a 	add	r3,r4,r6
 4108228:	198bc83a 	sub	r5,r3,r6
 410822c:	30004826 	beq	r6,zero,4108350 <memmove+0x13c>
 4108230:	39ffffc4 	addi	r7,r7,-1
 4108234:	39000003 	ldbu	r4,0(r7)
 4108238:	18ffffc4 	addi	r3,r3,-1
 410823c:	19000005 	stb	r4,0(r3)
 4108240:	28fffb1e 	bne	r5,r3,4108230 <__ram_exceptions_end+0xfc0fffec>
 4108244:	f800283a 	ret
 4108248:	00c003c4 	movi	r3,15
 410824c:	1980412e 	bgeu	r3,r6,4108354 <memmove+0x140>
 4108250:	2886b03a 	or	r3,r5,r2
 4108254:	18c000cc 	andi	r3,r3,3
 4108258:	1800401e 	bne	r3,zero,410835c <memmove+0x148>
 410825c:	33fffc04 	addi	r15,r6,-16
 4108260:	781ed13a 	srli	r15,r15,4
 4108264:	28c00104 	addi	r3,r5,4
 4108268:	13400104 	addi	r13,r2,4
 410826c:	781c913a 	slli	r14,r15,4
 4108270:	2b000204 	addi	r12,r5,8
 4108274:	12c00204 	addi	r11,r2,8
 4108278:	73800504 	addi	r14,r14,20
 410827c:	2a800304 	addi	r10,r5,12
 4108280:	12400304 	addi	r9,r2,12
 4108284:	2b9d883a 	add	r14,r5,r14
 4108288:	2811883a 	mov	r8,r5
 410828c:	100f883a 	mov	r7,r2
 4108290:	41000017 	ldw	r4,0(r8)
 4108294:	39c00404 	addi	r7,r7,16
 4108298:	18c00404 	addi	r3,r3,16
 410829c:	393ffc15 	stw	r4,-16(r7)
 41082a0:	193ffc17 	ldw	r4,-16(r3)
 41082a4:	6b400404 	addi	r13,r13,16
 41082a8:	5ac00404 	addi	r11,r11,16
 41082ac:	693ffc15 	stw	r4,-16(r13)
 41082b0:	61000017 	ldw	r4,0(r12)
 41082b4:	4a400404 	addi	r9,r9,16
 41082b8:	42000404 	addi	r8,r8,16
 41082bc:	593ffc15 	stw	r4,-16(r11)
 41082c0:	51000017 	ldw	r4,0(r10)
 41082c4:	63000404 	addi	r12,r12,16
 41082c8:	52800404 	addi	r10,r10,16
 41082cc:	493ffc15 	stw	r4,-16(r9)
 41082d0:	1bbfef1e 	bne	r3,r14,4108290 <__ram_exceptions_end+0xfc10004c>
 41082d4:	79000044 	addi	r4,r15,1
 41082d8:	2008913a 	slli	r4,r4,4
 41082dc:	328003cc 	andi	r10,r6,15
 41082e0:	02c000c4 	movi	r11,3
 41082e4:	1107883a 	add	r3,r2,r4
 41082e8:	290b883a 	add	r5,r5,r4
 41082ec:	5a801e2e 	bgeu	r11,r10,4108368 <memmove+0x154>
 41082f0:	1813883a 	mov	r9,r3
 41082f4:	2811883a 	mov	r8,r5
 41082f8:	500f883a 	mov	r7,r10
 41082fc:	41000017 	ldw	r4,0(r8)
 4108300:	4a400104 	addi	r9,r9,4
 4108304:	39ffff04 	addi	r7,r7,-4
 4108308:	493fff15 	stw	r4,-4(r9)
 410830c:	42000104 	addi	r8,r8,4
 4108310:	59fffa36 	bltu	r11,r7,41082fc <__ram_exceptions_end+0xfc1000b8>
 4108314:	513fff04 	addi	r4,r10,-4
 4108318:	2008d0ba 	srli	r4,r4,2
 410831c:	318000cc 	andi	r6,r6,3
 4108320:	21000044 	addi	r4,r4,1
 4108324:	2109883a 	add	r4,r4,r4
 4108328:	2109883a 	add	r4,r4,r4
 410832c:	1907883a 	add	r3,r3,r4
 4108330:	290b883a 	add	r5,r5,r4
 4108334:	30000b26 	beq	r6,zero,4108364 <memmove+0x150>
 4108338:	198d883a 	add	r6,r3,r6
 410833c:	29c00003 	ldbu	r7,0(r5)
 4108340:	18c00044 	addi	r3,r3,1
 4108344:	29400044 	addi	r5,r5,1
 4108348:	19ffffc5 	stb	r7,-1(r3)
 410834c:	19bffb1e 	bne	r3,r6,410833c <__ram_exceptions_end+0xfc1000f8>
 4108350:	f800283a 	ret
 4108354:	1007883a 	mov	r3,r2
 4108358:	003ff606 	br	4108334 <__ram_exceptions_end+0xfc1000f0>
 410835c:	1007883a 	mov	r3,r2
 4108360:	003ff506 	br	4108338 <__ram_exceptions_end+0xfc1000f4>
 4108364:	f800283a 	ret
 4108368:	500d883a 	mov	r6,r10
 410836c:	003ff106 	br	4108334 <__ram_exceptions_end+0xfc1000f0>

04108370 <memset>:
 4108370:	20c000cc 	andi	r3,r4,3
 4108374:	2005883a 	mov	r2,r4
 4108378:	18004426 	beq	r3,zero,410848c <memset+0x11c>
 410837c:	31ffffc4 	addi	r7,r6,-1
 4108380:	30004026 	beq	r6,zero,4108484 <memset+0x114>
 4108384:	2813883a 	mov	r9,r5
 4108388:	200d883a 	mov	r6,r4
 410838c:	2007883a 	mov	r3,r4
 4108390:	00000406 	br	41083a4 <memset+0x34>
 4108394:	3a3fffc4 	addi	r8,r7,-1
 4108398:	31800044 	addi	r6,r6,1
 410839c:	38003926 	beq	r7,zero,4108484 <memset+0x114>
 41083a0:	400f883a 	mov	r7,r8
 41083a4:	18c00044 	addi	r3,r3,1
 41083a8:	32400005 	stb	r9,0(r6)
 41083ac:	1a0000cc 	andi	r8,r3,3
 41083b0:	403ff81e 	bne	r8,zero,4108394 <__ram_exceptions_end+0xfc100150>
 41083b4:	010000c4 	movi	r4,3
 41083b8:	21c02d2e 	bgeu	r4,r7,4108470 <memset+0x100>
 41083bc:	29003fcc 	andi	r4,r5,255
 41083c0:	200c923a 	slli	r6,r4,8
 41083c4:	3108b03a 	or	r4,r6,r4
 41083c8:	200c943a 	slli	r6,r4,16
 41083cc:	218cb03a 	or	r6,r4,r6
 41083d0:	010003c4 	movi	r4,15
 41083d4:	21c0182e 	bgeu	r4,r7,4108438 <memset+0xc8>
 41083d8:	3b3ffc04 	addi	r12,r7,-16
 41083dc:	6018d13a 	srli	r12,r12,4
 41083e0:	1a000104 	addi	r8,r3,4
 41083e4:	1ac00204 	addi	r11,r3,8
 41083e8:	6008913a 	slli	r4,r12,4
 41083ec:	1a800304 	addi	r10,r3,12
 41083f0:	1813883a 	mov	r9,r3
 41083f4:	21000504 	addi	r4,r4,20
 41083f8:	1909883a 	add	r4,r3,r4
 41083fc:	49800015 	stw	r6,0(r9)
 4108400:	41800015 	stw	r6,0(r8)
 4108404:	59800015 	stw	r6,0(r11)
 4108408:	51800015 	stw	r6,0(r10)
 410840c:	42000404 	addi	r8,r8,16
 4108410:	4a400404 	addi	r9,r9,16
 4108414:	5ac00404 	addi	r11,r11,16
 4108418:	52800404 	addi	r10,r10,16
 410841c:	413ff71e 	bne	r8,r4,41083fc <__ram_exceptions_end+0xfc1001b8>
 4108420:	63000044 	addi	r12,r12,1
 4108424:	6018913a 	slli	r12,r12,4
 4108428:	39c003cc 	andi	r7,r7,15
 410842c:	010000c4 	movi	r4,3
 4108430:	1b07883a 	add	r3,r3,r12
 4108434:	21c00e2e 	bgeu	r4,r7,4108470 <memset+0x100>
 4108438:	1813883a 	mov	r9,r3
 410843c:	3811883a 	mov	r8,r7
 4108440:	010000c4 	movi	r4,3
 4108444:	49800015 	stw	r6,0(r9)
 4108448:	423fff04 	addi	r8,r8,-4
 410844c:	4a400104 	addi	r9,r9,4
 4108450:	223ffc36 	bltu	r4,r8,4108444 <__ram_exceptions_end+0xfc100200>
 4108454:	393fff04 	addi	r4,r7,-4
 4108458:	2008d0ba 	srli	r4,r4,2
 410845c:	39c000cc 	andi	r7,r7,3
 4108460:	21000044 	addi	r4,r4,1
 4108464:	2109883a 	add	r4,r4,r4
 4108468:	2109883a 	add	r4,r4,r4
 410846c:	1907883a 	add	r3,r3,r4
 4108470:	38000526 	beq	r7,zero,4108488 <memset+0x118>
 4108474:	19cf883a 	add	r7,r3,r7
 4108478:	19400005 	stb	r5,0(r3)
 410847c:	18c00044 	addi	r3,r3,1
 4108480:	38fffd1e 	bne	r7,r3,4108478 <__ram_exceptions_end+0xfc100234>
 4108484:	f800283a 	ret
 4108488:	f800283a 	ret
 410848c:	2007883a 	mov	r3,r4
 4108490:	300f883a 	mov	r7,r6
 4108494:	003fc706 	br	41083b4 <__ram_exceptions_end+0xfc100170>

04108498 <_realloc_r>:
 4108498:	defff604 	addi	sp,sp,-40
 410849c:	dc800215 	stw	r18,8(sp)
 41084a0:	dfc00915 	stw	ra,36(sp)
 41084a4:	df000815 	stw	fp,32(sp)
 41084a8:	ddc00715 	stw	r23,28(sp)
 41084ac:	dd800615 	stw	r22,24(sp)
 41084b0:	dd400515 	stw	r21,20(sp)
 41084b4:	dd000415 	stw	r20,16(sp)
 41084b8:	dcc00315 	stw	r19,12(sp)
 41084bc:	dc400115 	stw	r17,4(sp)
 41084c0:	dc000015 	stw	r16,0(sp)
 41084c4:	3025883a 	mov	r18,r6
 41084c8:	2800b726 	beq	r5,zero,41087a8 <_realloc_r+0x310>
 41084cc:	282b883a 	mov	r21,r5
 41084d0:	2029883a 	mov	r20,r4
 41084d4:	410bf1c0 	call	410bf1c <__malloc_lock>
 41084d8:	a8bfff17 	ldw	r2,-4(r21)
 41084dc:	043fff04 	movi	r16,-4
 41084e0:	90c002c4 	addi	r3,r18,11
 41084e4:	01000584 	movi	r4,22
 41084e8:	acfffe04 	addi	r19,r21,-8
 41084ec:	1420703a 	and	r16,r2,r16
 41084f0:	20c0332e 	bgeu	r4,r3,41085c0 <_realloc_r+0x128>
 41084f4:	047ffe04 	movi	r17,-8
 41084f8:	1c62703a 	and	r17,r3,r17
 41084fc:	8807883a 	mov	r3,r17
 4108500:	88005816 	blt	r17,zero,4108664 <_realloc_r+0x1cc>
 4108504:	8c805736 	bltu	r17,r18,4108664 <_realloc_r+0x1cc>
 4108508:	80c0300e 	bge	r16,r3,41085cc <_realloc_r+0x134>
 410850c:	07010474 	movhi	fp,1041
 4108510:	e73a1504 	addi	fp,fp,-6060
 4108514:	e1c00217 	ldw	r7,8(fp)
 4108518:	9c09883a 	add	r4,r19,r16
 410851c:	22000117 	ldw	r8,4(r4)
 4108520:	21c06326 	beq	r4,r7,41086b0 <_realloc_r+0x218>
 4108524:	017fff84 	movi	r5,-2
 4108528:	414a703a 	and	r5,r8,r5
 410852c:	214b883a 	add	r5,r4,r5
 4108530:	29800117 	ldw	r6,4(r5)
 4108534:	3180004c 	andi	r6,r6,1
 4108538:	30003f26 	beq	r6,zero,4108638 <_realloc_r+0x1a0>
 410853c:	1080004c 	andi	r2,r2,1
 4108540:	10008326 	beq	r2,zero,4108750 <_realloc_r+0x2b8>
 4108544:	900b883a 	mov	r5,r18
 4108548:	a009883a 	mov	r4,r20
 410854c:	4104e800 	call	4104e80 <_malloc_r>
 4108550:	1025883a 	mov	r18,r2
 4108554:	10011e26 	beq	r2,zero,41089d0 <_realloc_r+0x538>
 4108558:	a93fff17 	ldw	r4,-4(r21)
 410855c:	10fffe04 	addi	r3,r2,-8
 4108560:	00bfff84 	movi	r2,-2
 4108564:	2084703a 	and	r2,r4,r2
 4108568:	9885883a 	add	r2,r19,r2
 410856c:	1880ee26 	beq	r3,r2,4108928 <_realloc_r+0x490>
 4108570:	81bfff04 	addi	r6,r16,-4
 4108574:	00800904 	movi	r2,36
 4108578:	1180b836 	bltu	r2,r6,410885c <_realloc_r+0x3c4>
 410857c:	00c004c4 	movi	r3,19
 4108580:	19809636 	bltu	r3,r6,41087dc <_realloc_r+0x344>
 4108584:	9005883a 	mov	r2,r18
 4108588:	a807883a 	mov	r3,r21
 410858c:	19000017 	ldw	r4,0(r3)
 4108590:	11000015 	stw	r4,0(r2)
 4108594:	19000117 	ldw	r4,4(r3)
 4108598:	11000115 	stw	r4,4(r2)
 410859c:	18c00217 	ldw	r3,8(r3)
 41085a0:	10c00215 	stw	r3,8(r2)
 41085a4:	a80b883a 	mov	r5,r21
 41085a8:	a009883a 	mov	r4,r20
 41085ac:	4107f040 	call	4107f04 <_free_r>
 41085b0:	a009883a 	mov	r4,r20
 41085b4:	410bf400 	call	410bf40 <__malloc_unlock>
 41085b8:	9005883a 	mov	r2,r18
 41085bc:	00001206 	br	4108608 <_realloc_r+0x170>
 41085c0:	00c00404 	movi	r3,16
 41085c4:	1823883a 	mov	r17,r3
 41085c8:	003fce06 	br	4108504 <__ram_exceptions_end+0xfc1002c0>
 41085cc:	a825883a 	mov	r18,r21
 41085d0:	8445c83a 	sub	r2,r16,r17
 41085d4:	00c003c4 	movi	r3,15
 41085d8:	18802636 	bltu	r3,r2,4108674 <_realloc_r+0x1dc>
 41085dc:	99800117 	ldw	r6,4(r19)
 41085e0:	9c07883a 	add	r3,r19,r16
 41085e4:	3180004c 	andi	r6,r6,1
 41085e8:	3420b03a 	or	r16,r6,r16
 41085ec:	9c000115 	stw	r16,4(r19)
 41085f0:	18800117 	ldw	r2,4(r3)
 41085f4:	10800054 	ori	r2,r2,1
 41085f8:	18800115 	stw	r2,4(r3)
 41085fc:	a009883a 	mov	r4,r20
 4108600:	410bf400 	call	410bf40 <__malloc_unlock>
 4108604:	9005883a 	mov	r2,r18
 4108608:	dfc00917 	ldw	ra,36(sp)
 410860c:	df000817 	ldw	fp,32(sp)
 4108610:	ddc00717 	ldw	r23,28(sp)
 4108614:	dd800617 	ldw	r22,24(sp)
 4108618:	dd400517 	ldw	r21,20(sp)
 410861c:	dd000417 	ldw	r20,16(sp)
 4108620:	dcc00317 	ldw	r19,12(sp)
 4108624:	dc800217 	ldw	r18,8(sp)
 4108628:	dc400117 	ldw	r17,4(sp)
 410862c:	dc000017 	ldw	r16,0(sp)
 4108630:	dec00a04 	addi	sp,sp,40
 4108634:	f800283a 	ret
 4108638:	017fff04 	movi	r5,-4
 410863c:	414a703a 	and	r5,r8,r5
 4108640:	814d883a 	add	r6,r16,r5
 4108644:	30c01f16 	blt	r6,r3,41086c4 <_realloc_r+0x22c>
 4108648:	20800317 	ldw	r2,12(r4)
 410864c:	20c00217 	ldw	r3,8(r4)
 4108650:	a825883a 	mov	r18,r21
 4108654:	3021883a 	mov	r16,r6
 4108658:	18800315 	stw	r2,12(r3)
 410865c:	10c00215 	stw	r3,8(r2)
 4108660:	003fdb06 	br	41085d0 <__ram_exceptions_end+0xfc10038c>
 4108664:	00800304 	movi	r2,12
 4108668:	a0800015 	stw	r2,0(r20)
 410866c:	0005883a 	mov	r2,zero
 4108670:	003fe506 	br	4108608 <__ram_exceptions_end+0xfc1003c4>
 4108674:	98c00117 	ldw	r3,4(r19)
 4108678:	9c4b883a 	add	r5,r19,r17
 410867c:	11000054 	ori	r4,r2,1
 4108680:	18c0004c 	andi	r3,r3,1
 4108684:	1c62b03a 	or	r17,r3,r17
 4108688:	9c400115 	stw	r17,4(r19)
 410868c:	29000115 	stw	r4,4(r5)
 4108690:	2885883a 	add	r2,r5,r2
 4108694:	10c00117 	ldw	r3,4(r2)
 4108698:	29400204 	addi	r5,r5,8
 410869c:	a009883a 	mov	r4,r20
 41086a0:	18c00054 	ori	r3,r3,1
 41086a4:	10c00115 	stw	r3,4(r2)
 41086a8:	4107f040 	call	4107f04 <_free_r>
 41086ac:	003fd306 	br	41085fc <__ram_exceptions_end+0xfc1003b8>
 41086b0:	017fff04 	movi	r5,-4
 41086b4:	414a703a 	and	r5,r8,r5
 41086b8:	89800404 	addi	r6,r17,16
 41086bc:	8151883a 	add	r8,r16,r5
 41086c0:	4180590e 	bge	r8,r6,4108828 <_realloc_r+0x390>
 41086c4:	1080004c 	andi	r2,r2,1
 41086c8:	103f9e1e 	bne	r2,zero,4108544 <__ram_exceptions_end+0xfc100300>
 41086cc:	adbffe17 	ldw	r22,-8(r21)
 41086d0:	00bfff04 	movi	r2,-4
 41086d4:	9dadc83a 	sub	r22,r19,r22
 41086d8:	b1800117 	ldw	r6,4(r22)
 41086dc:	3084703a 	and	r2,r6,r2
 41086e0:	20002026 	beq	r4,zero,4108764 <_realloc_r+0x2cc>
 41086e4:	80af883a 	add	r23,r16,r2
 41086e8:	b96f883a 	add	r23,r23,r5
 41086ec:	21c05f26 	beq	r4,r7,410886c <_realloc_r+0x3d4>
 41086f0:	b8c01c16 	blt	r23,r3,4108764 <_realloc_r+0x2cc>
 41086f4:	20800317 	ldw	r2,12(r4)
 41086f8:	20c00217 	ldw	r3,8(r4)
 41086fc:	81bfff04 	addi	r6,r16,-4
 4108700:	01000904 	movi	r4,36
 4108704:	18800315 	stw	r2,12(r3)
 4108708:	10c00215 	stw	r3,8(r2)
 410870c:	b0c00217 	ldw	r3,8(r22)
 4108710:	b0800317 	ldw	r2,12(r22)
 4108714:	b4800204 	addi	r18,r22,8
 4108718:	18800315 	stw	r2,12(r3)
 410871c:	10c00215 	stw	r3,8(r2)
 4108720:	21801b36 	bltu	r4,r6,4108790 <_realloc_r+0x2f8>
 4108724:	008004c4 	movi	r2,19
 4108728:	1180352e 	bgeu	r2,r6,4108800 <_realloc_r+0x368>
 410872c:	a8800017 	ldw	r2,0(r21)
 4108730:	b0800215 	stw	r2,8(r22)
 4108734:	a8800117 	ldw	r2,4(r21)
 4108738:	b0800315 	stw	r2,12(r22)
 410873c:	008006c4 	movi	r2,27
 4108740:	11807f36 	bltu	r2,r6,4108940 <_realloc_r+0x4a8>
 4108744:	b0800404 	addi	r2,r22,16
 4108748:	ad400204 	addi	r21,r21,8
 410874c:	00002d06 	br	4108804 <_realloc_r+0x36c>
 4108750:	adbffe17 	ldw	r22,-8(r21)
 4108754:	00bfff04 	movi	r2,-4
 4108758:	9dadc83a 	sub	r22,r19,r22
 410875c:	b1000117 	ldw	r4,4(r22)
 4108760:	2084703a 	and	r2,r4,r2
 4108764:	b03f7726 	beq	r22,zero,4108544 <__ram_exceptions_end+0xfc100300>
 4108768:	80af883a 	add	r23,r16,r2
 410876c:	b8ff7516 	blt	r23,r3,4108544 <__ram_exceptions_end+0xfc100300>
 4108770:	b0800317 	ldw	r2,12(r22)
 4108774:	b0c00217 	ldw	r3,8(r22)
 4108778:	81bfff04 	addi	r6,r16,-4
 410877c:	01000904 	movi	r4,36
 4108780:	18800315 	stw	r2,12(r3)
 4108784:	10c00215 	stw	r3,8(r2)
 4108788:	b4800204 	addi	r18,r22,8
 410878c:	21bfe52e 	bgeu	r4,r6,4108724 <__ram_exceptions_end+0xfc1004e0>
 4108790:	a80b883a 	mov	r5,r21
 4108794:	9009883a 	mov	r4,r18
 4108798:	41082140 	call	4108214 <memmove>
 410879c:	b821883a 	mov	r16,r23
 41087a0:	b027883a 	mov	r19,r22
 41087a4:	003f8a06 	br	41085d0 <__ram_exceptions_end+0xfc10038c>
 41087a8:	300b883a 	mov	r5,r6
 41087ac:	dfc00917 	ldw	ra,36(sp)
 41087b0:	df000817 	ldw	fp,32(sp)
 41087b4:	ddc00717 	ldw	r23,28(sp)
 41087b8:	dd800617 	ldw	r22,24(sp)
 41087bc:	dd400517 	ldw	r21,20(sp)
 41087c0:	dd000417 	ldw	r20,16(sp)
 41087c4:	dcc00317 	ldw	r19,12(sp)
 41087c8:	dc800217 	ldw	r18,8(sp)
 41087cc:	dc400117 	ldw	r17,4(sp)
 41087d0:	dc000017 	ldw	r16,0(sp)
 41087d4:	dec00a04 	addi	sp,sp,40
 41087d8:	4104e801 	jmpi	4104e80 <_malloc_r>
 41087dc:	a8c00017 	ldw	r3,0(r21)
 41087e0:	90c00015 	stw	r3,0(r18)
 41087e4:	a8c00117 	ldw	r3,4(r21)
 41087e8:	90c00115 	stw	r3,4(r18)
 41087ec:	00c006c4 	movi	r3,27
 41087f0:	19804536 	bltu	r3,r6,4108908 <_realloc_r+0x470>
 41087f4:	90800204 	addi	r2,r18,8
 41087f8:	a8c00204 	addi	r3,r21,8
 41087fc:	003f6306 	br	410858c <__ram_exceptions_end+0xfc100348>
 4108800:	9005883a 	mov	r2,r18
 4108804:	a8c00017 	ldw	r3,0(r21)
 4108808:	b821883a 	mov	r16,r23
 410880c:	b027883a 	mov	r19,r22
 4108810:	10c00015 	stw	r3,0(r2)
 4108814:	a8c00117 	ldw	r3,4(r21)
 4108818:	10c00115 	stw	r3,4(r2)
 410881c:	a8c00217 	ldw	r3,8(r21)
 4108820:	10c00215 	stw	r3,8(r2)
 4108824:	003f6a06 	br	41085d0 <__ram_exceptions_end+0xfc10038c>
 4108828:	9c67883a 	add	r19,r19,r17
 410882c:	4445c83a 	sub	r2,r8,r17
 4108830:	e4c00215 	stw	r19,8(fp)
 4108834:	10800054 	ori	r2,r2,1
 4108838:	98800115 	stw	r2,4(r19)
 410883c:	a8bfff17 	ldw	r2,-4(r21)
 4108840:	a009883a 	mov	r4,r20
 4108844:	1080004c 	andi	r2,r2,1
 4108848:	1462b03a 	or	r17,r2,r17
 410884c:	ac7fff15 	stw	r17,-4(r21)
 4108850:	410bf400 	call	410bf40 <__malloc_unlock>
 4108854:	a805883a 	mov	r2,r21
 4108858:	003f6b06 	br	4108608 <__ram_exceptions_end+0xfc1003c4>
 410885c:	a80b883a 	mov	r5,r21
 4108860:	9009883a 	mov	r4,r18
 4108864:	41082140 	call	4108214 <memmove>
 4108868:	003f4e06 	br	41085a4 <__ram_exceptions_end+0xfc100360>
 410886c:	89000404 	addi	r4,r17,16
 4108870:	b93fbc16 	blt	r23,r4,4108764 <__ram_exceptions_end+0xfc100520>
 4108874:	b0800317 	ldw	r2,12(r22)
 4108878:	b0c00217 	ldw	r3,8(r22)
 410887c:	81bfff04 	addi	r6,r16,-4
 4108880:	01000904 	movi	r4,36
 4108884:	18800315 	stw	r2,12(r3)
 4108888:	10c00215 	stw	r3,8(r2)
 410888c:	b4800204 	addi	r18,r22,8
 4108890:	21804336 	bltu	r4,r6,41089a0 <_realloc_r+0x508>
 4108894:	008004c4 	movi	r2,19
 4108898:	11803f2e 	bgeu	r2,r6,4108998 <_realloc_r+0x500>
 410889c:	a8800017 	ldw	r2,0(r21)
 41088a0:	b0800215 	stw	r2,8(r22)
 41088a4:	a8800117 	ldw	r2,4(r21)
 41088a8:	b0800315 	stw	r2,12(r22)
 41088ac:	008006c4 	movi	r2,27
 41088b0:	11803f36 	bltu	r2,r6,41089b0 <_realloc_r+0x518>
 41088b4:	b0800404 	addi	r2,r22,16
 41088b8:	ad400204 	addi	r21,r21,8
 41088bc:	a8c00017 	ldw	r3,0(r21)
 41088c0:	10c00015 	stw	r3,0(r2)
 41088c4:	a8c00117 	ldw	r3,4(r21)
 41088c8:	10c00115 	stw	r3,4(r2)
 41088cc:	a8c00217 	ldw	r3,8(r21)
 41088d0:	10c00215 	stw	r3,8(r2)
 41088d4:	b447883a 	add	r3,r22,r17
 41088d8:	bc45c83a 	sub	r2,r23,r17
 41088dc:	e0c00215 	stw	r3,8(fp)
 41088e0:	10800054 	ori	r2,r2,1
 41088e4:	18800115 	stw	r2,4(r3)
 41088e8:	b0800117 	ldw	r2,4(r22)
 41088ec:	a009883a 	mov	r4,r20
 41088f0:	1080004c 	andi	r2,r2,1
 41088f4:	1462b03a 	or	r17,r2,r17
 41088f8:	b4400115 	stw	r17,4(r22)
 41088fc:	410bf400 	call	410bf40 <__malloc_unlock>
 4108900:	9005883a 	mov	r2,r18
 4108904:	003f4006 	br	4108608 <__ram_exceptions_end+0xfc1003c4>
 4108908:	a8c00217 	ldw	r3,8(r21)
 410890c:	90c00215 	stw	r3,8(r18)
 4108910:	a8c00317 	ldw	r3,12(r21)
 4108914:	90c00315 	stw	r3,12(r18)
 4108918:	30801126 	beq	r6,r2,4108960 <_realloc_r+0x4c8>
 410891c:	90800404 	addi	r2,r18,16
 4108920:	a8c00404 	addi	r3,r21,16
 4108924:	003f1906 	br	410858c <__ram_exceptions_end+0xfc100348>
 4108928:	90ffff17 	ldw	r3,-4(r18)
 410892c:	00bfff04 	movi	r2,-4
 4108930:	a825883a 	mov	r18,r21
 4108934:	1884703a 	and	r2,r3,r2
 4108938:	80a1883a 	add	r16,r16,r2
 410893c:	003f2406 	br	41085d0 <__ram_exceptions_end+0xfc10038c>
 4108940:	a8800217 	ldw	r2,8(r21)
 4108944:	b0800415 	stw	r2,16(r22)
 4108948:	a8800317 	ldw	r2,12(r21)
 410894c:	b0800515 	stw	r2,20(r22)
 4108950:	31000a26 	beq	r6,r4,410897c <_realloc_r+0x4e4>
 4108954:	b0800604 	addi	r2,r22,24
 4108958:	ad400404 	addi	r21,r21,16
 410895c:	003fa906 	br	4108804 <__ram_exceptions_end+0xfc1005c0>
 4108960:	a9000417 	ldw	r4,16(r21)
 4108964:	90800604 	addi	r2,r18,24
 4108968:	a8c00604 	addi	r3,r21,24
 410896c:	91000415 	stw	r4,16(r18)
 4108970:	a9000517 	ldw	r4,20(r21)
 4108974:	91000515 	stw	r4,20(r18)
 4108978:	003f0406 	br	410858c <__ram_exceptions_end+0xfc100348>
 410897c:	a8c00417 	ldw	r3,16(r21)
 4108980:	ad400604 	addi	r21,r21,24
 4108984:	b0800804 	addi	r2,r22,32
 4108988:	b0c00615 	stw	r3,24(r22)
 410898c:	a8ffff17 	ldw	r3,-4(r21)
 4108990:	b0c00715 	stw	r3,28(r22)
 4108994:	003f9b06 	br	4108804 <__ram_exceptions_end+0xfc1005c0>
 4108998:	9005883a 	mov	r2,r18
 410899c:	003fc706 	br	41088bc <__ram_exceptions_end+0xfc100678>
 41089a0:	a80b883a 	mov	r5,r21
 41089a4:	9009883a 	mov	r4,r18
 41089a8:	41082140 	call	4108214 <memmove>
 41089ac:	003fc906 	br	41088d4 <__ram_exceptions_end+0xfc100690>
 41089b0:	a8800217 	ldw	r2,8(r21)
 41089b4:	b0800415 	stw	r2,16(r22)
 41089b8:	a8800317 	ldw	r2,12(r21)
 41089bc:	b0800515 	stw	r2,20(r22)
 41089c0:	31000726 	beq	r6,r4,41089e0 <_realloc_r+0x548>
 41089c4:	b0800604 	addi	r2,r22,24
 41089c8:	ad400404 	addi	r21,r21,16
 41089cc:	003fbb06 	br	41088bc <__ram_exceptions_end+0xfc100678>
 41089d0:	a009883a 	mov	r4,r20
 41089d4:	410bf400 	call	410bf40 <__malloc_unlock>
 41089d8:	0005883a 	mov	r2,zero
 41089dc:	003f0a06 	br	4108608 <__ram_exceptions_end+0xfc1003c4>
 41089e0:	a8c00417 	ldw	r3,16(r21)
 41089e4:	ad400604 	addi	r21,r21,24
 41089e8:	b0800804 	addi	r2,r22,32
 41089ec:	b0c00615 	stw	r3,24(r22)
 41089f0:	a8ffff17 	ldw	r3,-4(r21)
 41089f4:	b0c00715 	stw	r3,28(r22)
 41089f8:	003fb006 	br	41088bc <__ram_exceptions_end+0xfc100678>

041089fc <__udivdi3>:
 41089fc:	defff504 	addi	sp,sp,-44
 4108a00:	dcc00415 	stw	r19,16(sp)
 4108a04:	dc000115 	stw	r16,4(sp)
 4108a08:	dfc00a15 	stw	ra,40(sp)
 4108a0c:	df000915 	stw	fp,36(sp)
 4108a10:	ddc00815 	stw	r23,32(sp)
 4108a14:	dd800715 	stw	r22,28(sp)
 4108a18:	dd400615 	stw	r21,24(sp)
 4108a1c:	dd000515 	stw	r20,20(sp)
 4108a20:	dc800315 	stw	r18,12(sp)
 4108a24:	dc400215 	stw	r17,8(sp)
 4108a28:	2027883a 	mov	r19,r4
 4108a2c:	2821883a 	mov	r16,r5
 4108a30:	3800411e 	bne	r7,zero,4108b38 <__udivdi3+0x13c>
 4108a34:	3023883a 	mov	r17,r6
 4108a38:	2025883a 	mov	r18,r4
 4108a3c:	2980522e 	bgeu	r5,r6,4108b88 <__udivdi3+0x18c>
 4108a40:	00bfffd4 	movui	r2,65535
 4108a44:	282d883a 	mov	r22,r5
 4108a48:	1180a836 	bltu	r2,r6,4108cec <__udivdi3+0x2f0>
 4108a4c:	00803fc4 	movi	r2,255
 4108a50:	1185803a 	cmpltu	r2,r2,r6
 4108a54:	100490fa 	slli	r2,r2,3
 4108a58:	3086d83a 	srl	r3,r6,r2
 4108a5c:	01010474 	movhi	r4,1041
 4108a60:	21389d04 	addi	r4,r4,-7564
 4108a64:	20c7883a 	add	r3,r4,r3
 4108a68:	18c00003 	ldbu	r3,0(r3)
 4108a6c:	1885883a 	add	r2,r3,r2
 4108a70:	00c00804 	movi	r3,32
 4108a74:	1887c83a 	sub	r3,r3,r2
 4108a78:	18000526 	beq	r3,zero,4108a90 <__udivdi3+0x94>
 4108a7c:	80e0983a 	sll	r16,r16,r3
 4108a80:	9884d83a 	srl	r2,r19,r2
 4108a84:	30e2983a 	sll	r17,r6,r3
 4108a88:	98e4983a 	sll	r18,r19,r3
 4108a8c:	142cb03a 	or	r22,r2,r16
 4108a90:	882ad43a 	srli	r21,r17,16
 4108a94:	b009883a 	mov	r4,r22
 4108a98:	8d3fffcc 	andi	r20,r17,65535
 4108a9c:	a80b883a 	mov	r5,r21
 4108aa0:	4100f500 	call	4100f50 <__umodsi3>
 4108aa4:	b009883a 	mov	r4,r22
 4108aa8:	a80b883a 	mov	r5,r21
 4108aac:	1027883a 	mov	r19,r2
 4108ab0:	4100eec0 	call	4100eec <__udivsi3>
 4108ab4:	102d883a 	mov	r22,r2
 4108ab8:	9826943a 	slli	r19,r19,16
 4108abc:	9004d43a 	srli	r2,r18,16
 4108ac0:	a5a1383a 	mul	r16,r20,r22
 4108ac4:	14c4b03a 	or	r2,r2,r19
 4108ac8:	1400052e 	bgeu	r2,r16,4108ae0 <__udivdi3+0xe4>
 4108acc:	1445883a 	add	r2,r2,r17
 4108ad0:	b0ffffc4 	addi	r3,r22,-1
 4108ad4:	14400136 	bltu	r2,r17,4108adc <__udivdi3+0xe0>
 4108ad8:	14012336 	bltu	r2,r16,4108f68 <__udivdi3+0x56c>
 4108adc:	182d883a 	mov	r22,r3
 4108ae0:	1421c83a 	sub	r16,r2,r16
 4108ae4:	a80b883a 	mov	r5,r21
 4108ae8:	8009883a 	mov	r4,r16
 4108aec:	4100f500 	call	4100f50 <__umodsi3>
 4108af0:	1027883a 	mov	r19,r2
 4108af4:	a80b883a 	mov	r5,r21
 4108af8:	8009883a 	mov	r4,r16
 4108afc:	4100eec0 	call	4100eec <__udivsi3>
 4108b00:	9826943a 	slli	r19,r19,16
 4108b04:	a0a9383a 	mul	r20,r20,r2
 4108b08:	94bfffcc 	andi	r18,r18,65535
 4108b0c:	94e4b03a 	or	r18,r18,r19
 4108b10:	9500052e 	bgeu	r18,r20,4108b28 <__udivdi3+0x12c>
 4108b14:	8ca5883a 	add	r18,r17,r18
 4108b18:	10ffffc4 	addi	r3,r2,-1
 4108b1c:	9440f136 	bltu	r18,r17,4108ee4 <__udivdi3+0x4e8>
 4108b20:	9500f02e 	bgeu	r18,r20,4108ee4 <__udivdi3+0x4e8>
 4108b24:	10bfff84 	addi	r2,r2,-2
 4108b28:	b00c943a 	slli	r6,r22,16
 4108b2c:	0007883a 	mov	r3,zero
 4108b30:	3084b03a 	or	r2,r6,r2
 4108b34:	00005906 	br	4108c9c <__udivdi3+0x2a0>
 4108b38:	29c05636 	bltu	r5,r7,4108c94 <__udivdi3+0x298>
 4108b3c:	00bfffd4 	movui	r2,65535
 4108b40:	11c0622e 	bgeu	r2,r7,4108ccc <__udivdi3+0x2d0>
 4108b44:	00804034 	movhi	r2,256
 4108b48:	10bfffc4 	addi	r2,r2,-1
 4108b4c:	11c0ee36 	bltu	r2,r7,4108f08 <__udivdi3+0x50c>
 4108b50:	00800404 	movi	r2,16
 4108b54:	3886d83a 	srl	r3,r7,r2
 4108b58:	01010474 	movhi	r4,1041
 4108b5c:	21389d04 	addi	r4,r4,-7564
 4108b60:	20c7883a 	add	r3,r4,r3
 4108b64:	18c00003 	ldbu	r3,0(r3)
 4108b68:	05400804 	movi	r21,32
 4108b6c:	1885883a 	add	r2,r3,r2
 4108b70:	a8abc83a 	sub	r21,r21,r2
 4108b74:	a800621e 	bne	r21,zero,4108d00 <__udivdi3+0x304>
 4108b78:	3c00e936 	bltu	r7,r16,4108f20 <__udivdi3+0x524>
 4108b7c:	9985403a 	cmpgeu	r2,r19,r6
 4108b80:	0007883a 	mov	r3,zero
 4108b84:	00004506 	br	4108c9c <__udivdi3+0x2a0>
 4108b88:	3000041e 	bne	r6,zero,4108b9c <__udivdi3+0x1a0>
 4108b8c:	000b883a 	mov	r5,zero
 4108b90:	01000044 	movi	r4,1
 4108b94:	4100eec0 	call	4100eec <__udivsi3>
 4108b98:	1023883a 	mov	r17,r2
 4108b9c:	00bfffd4 	movui	r2,65535
 4108ba0:	14404e2e 	bgeu	r2,r17,4108cdc <__udivdi3+0x2e0>
 4108ba4:	00804034 	movhi	r2,256
 4108ba8:	10bfffc4 	addi	r2,r2,-1
 4108bac:	1440d836 	bltu	r2,r17,4108f10 <__udivdi3+0x514>
 4108bb0:	00800404 	movi	r2,16
 4108bb4:	8886d83a 	srl	r3,r17,r2
 4108bb8:	01010474 	movhi	r4,1041
 4108bbc:	21389d04 	addi	r4,r4,-7564
 4108bc0:	20c7883a 	add	r3,r4,r3
 4108bc4:	18c00003 	ldbu	r3,0(r3)
 4108bc8:	1885883a 	add	r2,r3,r2
 4108bcc:	00c00804 	movi	r3,32
 4108bd0:	1887c83a 	sub	r3,r3,r2
 4108bd4:	18008f1e 	bne	r3,zero,4108e14 <__udivdi3+0x418>
 4108bd8:	882ad43a 	srli	r21,r17,16
 4108bdc:	8461c83a 	sub	r16,r16,r17
 4108be0:	8d3fffcc 	andi	r20,r17,65535
 4108be4:	00c00044 	movi	r3,1
 4108be8:	8009883a 	mov	r4,r16
 4108bec:	a80b883a 	mov	r5,r21
 4108bf0:	d8c00015 	stw	r3,0(sp)
 4108bf4:	4100f500 	call	4100f50 <__umodsi3>
 4108bf8:	8009883a 	mov	r4,r16
 4108bfc:	a80b883a 	mov	r5,r21
 4108c00:	1027883a 	mov	r19,r2
 4108c04:	4100eec0 	call	4100eec <__udivsi3>
 4108c08:	9826943a 	slli	r19,r19,16
 4108c0c:	9008d43a 	srli	r4,r18,16
 4108c10:	1521383a 	mul	r16,r2,r20
 4108c14:	102d883a 	mov	r22,r2
 4108c18:	24c8b03a 	or	r4,r4,r19
 4108c1c:	d8c00017 	ldw	r3,0(sp)
 4108c20:	2400052e 	bgeu	r4,r16,4108c38 <__udivdi3+0x23c>
 4108c24:	2449883a 	add	r4,r4,r17
 4108c28:	b0bfffc4 	addi	r2,r22,-1
 4108c2c:	24400136 	bltu	r4,r17,4108c34 <__udivdi3+0x238>
 4108c30:	2400ca36 	bltu	r4,r16,4108f5c <__udivdi3+0x560>
 4108c34:	102d883a 	mov	r22,r2
 4108c38:	2421c83a 	sub	r16,r4,r16
 4108c3c:	a80b883a 	mov	r5,r21
 4108c40:	8009883a 	mov	r4,r16
 4108c44:	d8c00015 	stw	r3,0(sp)
 4108c48:	4100f500 	call	4100f50 <__umodsi3>
 4108c4c:	1027883a 	mov	r19,r2
 4108c50:	a80b883a 	mov	r5,r21
 4108c54:	8009883a 	mov	r4,r16
 4108c58:	4100eec0 	call	4100eec <__udivsi3>
 4108c5c:	9826943a 	slli	r19,r19,16
 4108c60:	1529383a 	mul	r20,r2,r20
 4108c64:	94bfffcc 	andi	r18,r18,65535
 4108c68:	94e4b03a 	or	r18,r18,r19
 4108c6c:	d8c00017 	ldw	r3,0(sp)
 4108c70:	9500052e 	bgeu	r18,r20,4108c88 <__udivdi3+0x28c>
 4108c74:	8ca5883a 	add	r18,r17,r18
 4108c78:	113fffc4 	addi	r4,r2,-1
 4108c7c:	94409736 	bltu	r18,r17,4108edc <__udivdi3+0x4e0>
 4108c80:	9500962e 	bgeu	r18,r20,4108edc <__udivdi3+0x4e0>
 4108c84:	10bfff84 	addi	r2,r2,-2
 4108c88:	b00c943a 	slli	r6,r22,16
 4108c8c:	3084b03a 	or	r2,r6,r2
 4108c90:	00000206 	br	4108c9c <__udivdi3+0x2a0>
 4108c94:	0007883a 	mov	r3,zero
 4108c98:	0005883a 	mov	r2,zero
 4108c9c:	dfc00a17 	ldw	ra,40(sp)
 4108ca0:	df000917 	ldw	fp,36(sp)
 4108ca4:	ddc00817 	ldw	r23,32(sp)
 4108ca8:	dd800717 	ldw	r22,28(sp)
 4108cac:	dd400617 	ldw	r21,24(sp)
 4108cb0:	dd000517 	ldw	r20,20(sp)
 4108cb4:	dcc00417 	ldw	r19,16(sp)
 4108cb8:	dc800317 	ldw	r18,12(sp)
 4108cbc:	dc400217 	ldw	r17,8(sp)
 4108cc0:	dc000117 	ldw	r16,4(sp)
 4108cc4:	dec00b04 	addi	sp,sp,44
 4108cc8:	f800283a 	ret
 4108ccc:	00803fc4 	movi	r2,255
 4108cd0:	11c5803a 	cmpltu	r2,r2,r7
 4108cd4:	100490fa 	slli	r2,r2,3
 4108cd8:	003f9e06 	br	4108b54 <__ram_exceptions_end+0xfc100910>
 4108cdc:	00803fc4 	movi	r2,255
 4108ce0:	1445803a 	cmpltu	r2,r2,r17
 4108ce4:	100490fa 	slli	r2,r2,3
 4108ce8:	003fb206 	br	4108bb4 <__ram_exceptions_end+0xfc100970>
 4108cec:	00804034 	movhi	r2,256
 4108cf0:	10bfffc4 	addi	r2,r2,-1
 4108cf4:	11808836 	bltu	r2,r6,4108f18 <__udivdi3+0x51c>
 4108cf8:	00800404 	movi	r2,16
 4108cfc:	003f5606 	br	4108a58 <__ram_exceptions_end+0xfc100814>
 4108d00:	30aed83a 	srl	r23,r6,r2
 4108d04:	3d4e983a 	sll	r7,r7,r21
 4108d08:	80acd83a 	srl	r22,r16,r2
 4108d0c:	9884d83a 	srl	r2,r19,r2
 4108d10:	3deeb03a 	or	r23,r7,r23
 4108d14:	b824d43a 	srli	r18,r23,16
 4108d18:	8560983a 	sll	r16,r16,r21
 4108d1c:	b009883a 	mov	r4,r22
 4108d20:	900b883a 	mov	r5,r18
 4108d24:	3568983a 	sll	r20,r6,r21
 4108d28:	1420b03a 	or	r16,r2,r16
 4108d2c:	4100f500 	call	4100f50 <__umodsi3>
 4108d30:	b009883a 	mov	r4,r22
 4108d34:	900b883a 	mov	r5,r18
 4108d38:	1023883a 	mov	r17,r2
 4108d3c:	4100eec0 	call	4100eec <__udivsi3>
 4108d40:	8808943a 	slli	r4,r17,16
 4108d44:	bf3fffcc 	andi	fp,r23,65535
 4108d48:	8006d43a 	srli	r3,r16,16
 4108d4c:	e0a3383a 	mul	r17,fp,r2
 4108d50:	100d883a 	mov	r6,r2
 4108d54:	1906b03a 	or	r3,r3,r4
 4108d58:	1c40042e 	bgeu	r3,r17,4108d6c <__udivdi3+0x370>
 4108d5c:	1dc7883a 	add	r3,r3,r23
 4108d60:	10bfffc4 	addi	r2,r2,-1
 4108d64:	1dc0752e 	bgeu	r3,r23,4108f3c <__udivdi3+0x540>
 4108d68:	100d883a 	mov	r6,r2
 4108d6c:	1c63c83a 	sub	r17,r3,r17
 4108d70:	900b883a 	mov	r5,r18
 4108d74:	8809883a 	mov	r4,r17
 4108d78:	d9800015 	stw	r6,0(sp)
 4108d7c:	4100f500 	call	4100f50 <__umodsi3>
 4108d80:	102d883a 	mov	r22,r2
 4108d84:	8809883a 	mov	r4,r17
 4108d88:	900b883a 	mov	r5,r18
 4108d8c:	4100eec0 	call	4100eec <__udivsi3>
 4108d90:	b02c943a 	slli	r22,r22,16
 4108d94:	e089383a 	mul	r4,fp,r2
 4108d98:	843fffcc 	andi	r16,r16,65535
 4108d9c:	85a0b03a 	or	r16,r16,r22
 4108da0:	d9800017 	ldw	r6,0(sp)
 4108da4:	8100042e 	bgeu	r16,r4,4108db8 <__udivdi3+0x3bc>
 4108da8:	85e1883a 	add	r16,r16,r23
 4108dac:	10ffffc4 	addi	r3,r2,-1
 4108db0:	85c05e2e 	bgeu	r16,r23,4108f2c <__udivdi3+0x530>
 4108db4:	1805883a 	mov	r2,r3
 4108db8:	300c943a 	slli	r6,r6,16
 4108dbc:	a17fffcc 	andi	r5,r20,65535
 4108dc0:	a028d43a 	srli	r20,r20,16
 4108dc4:	3084b03a 	or	r2,r6,r2
 4108dc8:	10ffffcc 	andi	r3,r2,65535
 4108dcc:	100cd43a 	srli	r6,r2,16
 4108dd0:	194f383a 	mul	r7,r3,r5
 4108dd4:	1d07383a 	mul	r3,r3,r20
 4108dd8:	314b383a 	mul	r5,r6,r5
 4108ddc:	3810d43a 	srli	r8,r7,16
 4108de0:	8121c83a 	sub	r16,r16,r4
 4108de4:	1947883a 	add	r3,r3,r5
 4108de8:	40c7883a 	add	r3,r8,r3
 4108dec:	350d383a 	mul	r6,r6,r20
 4108df0:	1940022e 	bgeu	r3,r5,4108dfc <__udivdi3+0x400>
 4108df4:	01000074 	movhi	r4,1
 4108df8:	310d883a 	add	r6,r6,r4
 4108dfc:	1828d43a 	srli	r20,r3,16
 4108e00:	a18d883a 	add	r6,r20,r6
 4108e04:	81803e36 	bltu	r16,r6,4108f00 <__udivdi3+0x504>
 4108e08:	81803826 	beq	r16,r6,4108eec <__udivdi3+0x4f0>
 4108e0c:	0007883a 	mov	r3,zero
 4108e10:	003fa206 	br	4108c9c <__ram_exceptions_end+0xfc100a58>
 4108e14:	88e2983a 	sll	r17,r17,r3
 4108e18:	80a8d83a 	srl	r20,r16,r2
 4108e1c:	80e0983a 	sll	r16,r16,r3
 4108e20:	882ad43a 	srli	r21,r17,16
 4108e24:	9884d83a 	srl	r2,r19,r2
 4108e28:	a009883a 	mov	r4,r20
 4108e2c:	a80b883a 	mov	r5,r21
 4108e30:	142eb03a 	or	r23,r2,r16
 4108e34:	98e4983a 	sll	r18,r19,r3
 4108e38:	4100f500 	call	4100f50 <__umodsi3>
 4108e3c:	a009883a 	mov	r4,r20
 4108e40:	a80b883a 	mov	r5,r21
 4108e44:	1021883a 	mov	r16,r2
 4108e48:	4100eec0 	call	4100eec <__udivsi3>
 4108e4c:	1039883a 	mov	fp,r2
 4108e50:	8d3fffcc 	andi	r20,r17,65535
 4108e54:	8020943a 	slli	r16,r16,16
 4108e58:	b804d43a 	srli	r2,r23,16
 4108e5c:	a72d383a 	mul	r22,r20,fp
 4108e60:	1404b03a 	or	r2,r2,r16
 4108e64:	1580062e 	bgeu	r2,r22,4108e80 <__udivdi3+0x484>
 4108e68:	1445883a 	add	r2,r2,r17
 4108e6c:	e0ffffc4 	addi	r3,fp,-1
 4108e70:	14403836 	bltu	r2,r17,4108f54 <__udivdi3+0x558>
 4108e74:	1580372e 	bgeu	r2,r22,4108f54 <__udivdi3+0x558>
 4108e78:	e73fff84 	addi	fp,fp,-2
 4108e7c:	1445883a 	add	r2,r2,r17
 4108e80:	15adc83a 	sub	r22,r2,r22
 4108e84:	a80b883a 	mov	r5,r21
 4108e88:	b009883a 	mov	r4,r22
 4108e8c:	4100f500 	call	4100f50 <__umodsi3>
 4108e90:	1027883a 	mov	r19,r2
 4108e94:	b009883a 	mov	r4,r22
 4108e98:	a80b883a 	mov	r5,r21
 4108e9c:	4100eec0 	call	4100eec <__udivsi3>
 4108ea0:	9826943a 	slli	r19,r19,16
 4108ea4:	a0a1383a 	mul	r16,r20,r2
 4108ea8:	b93fffcc 	andi	r4,r23,65535
 4108eac:	24c8b03a 	or	r4,r4,r19
 4108eb0:	2400062e 	bgeu	r4,r16,4108ecc <__udivdi3+0x4d0>
 4108eb4:	2449883a 	add	r4,r4,r17
 4108eb8:	10ffffc4 	addi	r3,r2,-1
 4108ebc:	24402336 	bltu	r4,r17,4108f4c <__udivdi3+0x550>
 4108ec0:	2400222e 	bgeu	r4,r16,4108f4c <__udivdi3+0x550>
 4108ec4:	10bfff84 	addi	r2,r2,-2
 4108ec8:	2449883a 	add	r4,r4,r17
 4108ecc:	e038943a 	slli	fp,fp,16
 4108ed0:	2421c83a 	sub	r16,r4,r16
 4108ed4:	e086b03a 	or	r3,fp,r2
 4108ed8:	003f4306 	br	4108be8 <__ram_exceptions_end+0xfc1009a4>
 4108edc:	2005883a 	mov	r2,r4
 4108ee0:	003f6906 	br	4108c88 <__ram_exceptions_end+0xfc100a44>
 4108ee4:	1805883a 	mov	r2,r3
 4108ee8:	003f0f06 	br	4108b28 <__ram_exceptions_end+0xfc1008e4>
 4108eec:	1806943a 	slli	r3,r3,16
 4108ef0:	9d66983a 	sll	r19,r19,r21
 4108ef4:	39ffffcc 	andi	r7,r7,65535
 4108ef8:	19c7883a 	add	r3,r3,r7
 4108efc:	98ffc32e 	bgeu	r19,r3,4108e0c <__ram_exceptions_end+0xfc100bc8>
 4108f00:	10bfffc4 	addi	r2,r2,-1
 4108f04:	003fc106 	br	4108e0c <__ram_exceptions_end+0xfc100bc8>
 4108f08:	00800604 	movi	r2,24
 4108f0c:	003f1106 	br	4108b54 <__ram_exceptions_end+0xfc100910>
 4108f10:	00800604 	movi	r2,24
 4108f14:	003f2706 	br	4108bb4 <__ram_exceptions_end+0xfc100970>
 4108f18:	00800604 	movi	r2,24
 4108f1c:	003ece06 	br	4108a58 <__ram_exceptions_end+0xfc100814>
 4108f20:	0007883a 	mov	r3,zero
 4108f24:	00800044 	movi	r2,1
 4108f28:	003f5c06 	br	4108c9c <__ram_exceptions_end+0xfc100a58>
 4108f2c:	813fa12e 	bgeu	r16,r4,4108db4 <__ram_exceptions_end+0xfc100b70>
 4108f30:	10bfff84 	addi	r2,r2,-2
 4108f34:	85e1883a 	add	r16,r16,r23
 4108f38:	003f9f06 	br	4108db8 <__ram_exceptions_end+0xfc100b74>
 4108f3c:	1c7f8a2e 	bgeu	r3,r17,4108d68 <__ram_exceptions_end+0xfc100b24>
 4108f40:	31bfff84 	addi	r6,r6,-2
 4108f44:	1dc7883a 	add	r3,r3,r23
 4108f48:	003f8806 	br	4108d6c <__ram_exceptions_end+0xfc100b28>
 4108f4c:	1805883a 	mov	r2,r3
 4108f50:	003fde06 	br	4108ecc <__ram_exceptions_end+0xfc100c88>
 4108f54:	1839883a 	mov	fp,r3
 4108f58:	003fc906 	br	4108e80 <__ram_exceptions_end+0xfc100c3c>
 4108f5c:	b5bfff84 	addi	r22,r22,-2
 4108f60:	2449883a 	add	r4,r4,r17
 4108f64:	003f3406 	br	4108c38 <__ram_exceptions_end+0xfc1009f4>
 4108f68:	b5bfff84 	addi	r22,r22,-2
 4108f6c:	1445883a 	add	r2,r2,r17
 4108f70:	003edb06 	br	4108ae0 <__ram_exceptions_end+0xfc10089c>

04108f74 <__umoddi3>:
 4108f74:	defff404 	addi	sp,sp,-48
 4108f78:	df000a15 	stw	fp,40(sp)
 4108f7c:	dc400315 	stw	r17,12(sp)
 4108f80:	dc000215 	stw	r16,8(sp)
 4108f84:	dfc00b15 	stw	ra,44(sp)
 4108f88:	ddc00915 	stw	r23,36(sp)
 4108f8c:	dd800815 	stw	r22,32(sp)
 4108f90:	dd400715 	stw	r21,28(sp)
 4108f94:	dd000615 	stw	r20,24(sp)
 4108f98:	dcc00515 	stw	r19,20(sp)
 4108f9c:	dc800415 	stw	r18,16(sp)
 4108fa0:	2021883a 	mov	r16,r4
 4108fa4:	2823883a 	mov	r17,r5
 4108fa8:	2839883a 	mov	fp,r5
 4108fac:	38003c1e 	bne	r7,zero,41090a0 <__umoddi3+0x12c>
 4108fb0:	3027883a 	mov	r19,r6
 4108fb4:	2029883a 	mov	r20,r4
 4108fb8:	2980512e 	bgeu	r5,r6,4109100 <__umoddi3+0x18c>
 4108fbc:	00bfffd4 	movui	r2,65535
 4108fc0:	11809a36 	bltu	r2,r6,410922c <__umoddi3+0x2b8>
 4108fc4:	01003fc4 	movi	r4,255
 4108fc8:	2189803a 	cmpltu	r4,r4,r6
 4108fcc:	200890fa 	slli	r4,r4,3
 4108fd0:	3104d83a 	srl	r2,r6,r4
 4108fd4:	00c10474 	movhi	r3,1041
 4108fd8:	18f89d04 	addi	r3,r3,-7564
 4108fdc:	1885883a 	add	r2,r3,r2
 4108fe0:	10c00003 	ldbu	r3,0(r2)
 4108fe4:	00800804 	movi	r2,32
 4108fe8:	1909883a 	add	r4,r3,r4
 4108fec:	1125c83a 	sub	r18,r2,r4
 4108ff0:	90000526 	beq	r18,zero,4109008 <__umoddi3+0x94>
 4108ff4:	8ca2983a 	sll	r17,r17,r18
 4108ff8:	8108d83a 	srl	r4,r16,r4
 4108ffc:	34a6983a 	sll	r19,r6,r18
 4109000:	84a8983a 	sll	r20,r16,r18
 4109004:	2478b03a 	or	fp,r4,r17
 4109008:	982ed43a 	srli	r23,r19,16
 410900c:	e009883a 	mov	r4,fp
 4109010:	9dbfffcc 	andi	r22,r19,65535
 4109014:	b80b883a 	mov	r5,r23
 4109018:	4100f500 	call	4100f50 <__umodsi3>
 410901c:	e009883a 	mov	r4,fp
 4109020:	b80b883a 	mov	r5,r23
 4109024:	102b883a 	mov	r21,r2
 4109028:	4100eec0 	call	4100eec <__udivsi3>
 410902c:	a806943a 	slli	r3,r21,16
 4109030:	a008d43a 	srli	r4,r20,16
 4109034:	b085383a 	mul	r2,r22,r2
 4109038:	20c8b03a 	or	r4,r4,r3
 410903c:	2080032e 	bgeu	r4,r2,410904c <__umoddi3+0xd8>
 4109040:	24c9883a 	add	r4,r4,r19
 4109044:	24c00136 	bltu	r4,r19,410904c <__umoddi3+0xd8>
 4109048:	20811036 	bltu	r4,r2,410948c <__umoddi3+0x518>
 410904c:	20abc83a 	sub	r21,r4,r2
 4109050:	b80b883a 	mov	r5,r23
 4109054:	a809883a 	mov	r4,r21
 4109058:	4100f500 	call	4100f50 <__umodsi3>
 410905c:	1023883a 	mov	r17,r2
 4109060:	b80b883a 	mov	r5,r23
 4109064:	a809883a 	mov	r4,r21
 4109068:	4100eec0 	call	4100eec <__udivsi3>
 410906c:	8822943a 	slli	r17,r17,16
 4109070:	b085383a 	mul	r2,r22,r2
 4109074:	a0ffffcc 	andi	r3,r20,65535
 4109078:	1c46b03a 	or	r3,r3,r17
 410907c:	1880042e 	bgeu	r3,r2,4109090 <__umoddi3+0x11c>
 4109080:	1cc7883a 	add	r3,r3,r19
 4109084:	1cc00236 	bltu	r3,r19,4109090 <__umoddi3+0x11c>
 4109088:	1880012e 	bgeu	r3,r2,4109090 <__umoddi3+0x11c>
 410908c:	1cc7883a 	add	r3,r3,r19
 4109090:	1885c83a 	sub	r2,r3,r2
 4109094:	1484d83a 	srl	r2,r2,r18
 4109098:	0007883a 	mov	r3,zero
 410909c:	00004f06 	br	41091dc <__umoddi3+0x268>
 41090a0:	29c04c36 	bltu	r5,r7,41091d4 <__umoddi3+0x260>
 41090a4:	00bfffd4 	movui	r2,65535
 41090a8:	11c0582e 	bgeu	r2,r7,410920c <__umoddi3+0x298>
 41090ac:	00804034 	movhi	r2,256
 41090b0:	10bfffc4 	addi	r2,r2,-1
 41090b4:	11c0e736 	bltu	r2,r7,4109454 <__umoddi3+0x4e0>
 41090b8:	01000404 	movi	r4,16
 41090bc:	3904d83a 	srl	r2,r7,r4
 41090c0:	00c10474 	movhi	r3,1041
 41090c4:	18f89d04 	addi	r3,r3,-7564
 41090c8:	1885883a 	add	r2,r3,r2
 41090cc:	14c00003 	ldbu	r19,0(r2)
 41090d0:	00c00804 	movi	r3,32
 41090d4:	9927883a 	add	r19,r19,r4
 41090d8:	1ce9c83a 	sub	r20,r3,r19
 41090dc:	a000581e 	bne	r20,zero,4109240 <__umoddi3+0x2cc>
 41090e0:	3c400136 	bltu	r7,r17,41090e8 <__umoddi3+0x174>
 41090e4:	8180eb36 	bltu	r16,r6,4109494 <__umoddi3+0x520>
 41090e8:	8185c83a 	sub	r2,r16,r6
 41090ec:	89e3c83a 	sub	r17,r17,r7
 41090f0:	8089803a 	cmpltu	r4,r16,r2
 41090f4:	8939c83a 	sub	fp,r17,r4
 41090f8:	e007883a 	mov	r3,fp
 41090fc:	00003706 	br	41091dc <__umoddi3+0x268>
 4109100:	3000041e 	bne	r6,zero,4109114 <__umoddi3+0x1a0>
 4109104:	000b883a 	mov	r5,zero
 4109108:	01000044 	movi	r4,1
 410910c:	4100eec0 	call	4100eec <__udivsi3>
 4109110:	1027883a 	mov	r19,r2
 4109114:	00bfffd4 	movui	r2,65535
 4109118:	14c0402e 	bgeu	r2,r19,410921c <__umoddi3+0x2a8>
 410911c:	00804034 	movhi	r2,256
 4109120:	10bfffc4 	addi	r2,r2,-1
 4109124:	14c0cd36 	bltu	r2,r19,410945c <__umoddi3+0x4e8>
 4109128:	00800404 	movi	r2,16
 410912c:	9886d83a 	srl	r3,r19,r2
 4109130:	01010474 	movhi	r4,1041
 4109134:	21389d04 	addi	r4,r4,-7564
 4109138:	20c7883a 	add	r3,r4,r3
 410913c:	18c00003 	ldbu	r3,0(r3)
 4109140:	1887883a 	add	r3,r3,r2
 4109144:	00800804 	movi	r2,32
 4109148:	10e5c83a 	sub	r18,r2,r3
 410914c:	9000901e 	bne	r18,zero,4109390 <__umoddi3+0x41c>
 4109150:	982cd43a 	srli	r22,r19,16
 4109154:	8ce3c83a 	sub	r17,r17,r19
 4109158:	9d7fffcc 	andi	r21,r19,65535
 410915c:	b00b883a 	mov	r5,r22
 4109160:	8809883a 	mov	r4,r17
 4109164:	4100f500 	call	4100f50 <__umodsi3>
 4109168:	8809883a 	mov	r4,r17
 410916c:	b00b883a 	mov	r5,r22
 4109170:	1021883a 	mov	r16,r2
 4109174:	4100eec0 	call	4100eec <__udivsi3>
 4109178:	8006943a 	slli	r3,r16,16
 410917c:	a008d43a 	srli	r4,r20,16
 4109180:	1545383a 	mul	r2,r2,r21
 4109184:	20c8b03a 	or	r4,r4,r3
 4109188:	2080042e 	bgeu	r4,r2,410919c <__umoddi3+0x228>
 410918c:	24c9883a 	add	r4,r4,r19
 4109190:	24c00236 	bltu	r4,r19,410919c <__umoddi3+0x228>
 4109194:	2080012e 	bgeu	r4,r2,410919c <__umoddi3+0x228>
 4109198:	24c9883a 	add	r4,r4,r19
 410919c:	20a1c83a 	sub	r16,r4,r2
 41091a0:	b00b883a 	mov	r5,r22
 41091a4:	8009883a 	mov	r4,r16
 41091a8:	4100f500 	call	4100f50 <__umodsi3>
 41091ac:	1023883a 	mov	r17,r2
 41091b0:	b00b883a 	mov	r5,r22
 41091b4:	8009883a 	mov	r4,r16
 41091b8:	4100eec0 	call	4100eec <__udivsi3>
 41091bc:	8822943a 	slli	r17,r17,16
 41091c0:	1545383a 	mul	r2,r2,r21
 41091c4:	a53fffcc 	andi	r20,r20,65535
 41091c8:	a446b03a 	or	r3,r20,r17
 41091cc:	18bfb02e 	bgeu	r3,r2,4109090 <__ram_exceptions_end+0xfc100e4c>
 41091d0:	003fab06 	br	4109080 <__ram_exceptions_end+0xfc100e3c>
 41091d4:	2005883a 	mov	r2,r4
 41091d8:	2807883a 	mov	r3,r5
 41091dc:	dfc00b17 	ldw	ra,44(sp)
 41091e0:	df000a17 	ldw	fp,40(sp)
 41091e4:	ddc00917 	ldw	r23,36(sp)
 41091e8:	dd800817 	ldw	r22,32(sp)
 41091ec:	dd400717 	ldw	r21,28(sp)
 41091f0:	dd000617 	ldw	r20,24(sp)
 41091f4:	dcc00517 	ldw	r19,20(sp)
 41091f8:	dc800417 	ldw	r18,16(sp)
 41091fc:	dc400317 	ldw	r17,12(sp)
 4109200:	dc000217 	ldw	r16,8(sp)
 4109204:	dec00c04 	addi	sp,sp,48
 4109208:	f800283a 	ret
 410920c:	04c03fc4 	movi	r19,255
 4109210:	99c9803a 	cmpltu	r4,r19,r7
 4109214:	200890fa 	slli	r4,r4,3
 4109218:	003fa806 	br	41090bc <__ram_exceptions_end+0xfc100e78>
 410921c:	00803fc4 	movi	r2,255
 4109220:	14c5803a 	cmpltu	r2,r2,r19
 4109224:	100490fa 	slli	r2,r2,3
 4109228:	003fc006 	br	410912c <__ram_exceptions_end+0xfc100ee8>
 410922c:	00804034 	movhi	r2,256
 4109230:	10bfffc4 	addi	r2,r2,-1
 4109234:	11808b36 	bltu	r2,r6,4109464 <__umoddi3+0x4f0>
 4109238:	01000404 	movi	r4,16
 410923c:	003f6406 	br	4108fd0 <__ram_exceptions_end+0xfc100d8c>
 4109240:	34c4d83a 	srl	r2,r6,r19
 4109244:	3d0e983a 	sll	r7,r7,r20
 4109248:	8cf8d83a 	srl	fp,r17,r19
 410924c:	8d10983a 	sll	r8,r17,r20
 4109250:	38aab03a 	or	r21,r7,r2
 4109254:	a82cd43a 	srli	r22,r21,16
 4109258:	84e2d83a 	srl	r17,r16,r19
 410925c:	e009883a 	mov	r4,fp
 4109260:	b00b883a 	mov	r5,r22
 4109264:	8a22b03a 	or	r17,r17,r8
 4109268:	3524983a 	sll	r18,r6,r20
 410926c:	4100f500 	call	4100f50 <__umodsi3>
 4109270:	e009883a 	mov	r4,fp
 4109274:	b00b883a 	mov	r5,r22
 4109278:	102f883a 	mov	r23,r2
 410927c:	4100eec0 	call	4100eec <__udivsi3>
 4109280:	100d883a 	mov	r6,r2
 4109284:	b808943a 	slli	r4,r23,16
 4109288:	aa3fffcc 	andi	r8,r21,65535
 410928c:	8804d43a 	srli	r2,r17,16
 4109290:	41af383a 	mul	r23,r8,r6
 4109294:	8520983a 	sll	r16,r16,r20
 4109298:	1104b03a 	or	r2,r2,r4
 410929c:	15c0042e 	bgeu	r2,r23,41092b0 <__umoddi3+0x33c>
 41092a0:	1545883a 	add	r2,r2,r21
 41092a4:	30ffffc4 	addi	r3,r6,-1
 41092a8:	1540742e 	bgeu	r2,r21,410947c <__umoddi3+0x508>
 41092ac:	180d883a 	mov	r6,r3
 41092b0:	15efc83a 	sub	r23,r2,r23
 41092b4:	b00b883a 	mov	r5,r22
 41092b8:	b809883a 	mov	r4,r23
 41092bc:	d9800115 	stw	r6,4(sp)
 41092c0:	da000015 	stw	r8,0(sp)
 41092c4:	4100f500 	call	4100f50 <__umodsi3>
 41092c8:	b00b883a 	mov	r5,r22
 41092cc:	b809883a 	mov	r4,r23
 41092d0:	1039883a 	mov	fp,r2
 41092d4:	4100eec0 	call	4100eec <__udivsi3>
 41092d8:	da000017 	ldw	r8,0(sp)
 41092dc:	e038943a 	slli	fp,fp,16
 41092e0:	100b883a 	mov	r5,r2
 41092e4:	4089383a 	mul	r4,r8,r2
 41092e8:	8a3fffcc 	andi	r8,r17,65535
 41092ec:	4710b03a 	or	r8,r8,fp
 41092f0:	d9800117 	ldw	r6,4(sp)
 41092f4:	4100042e 	bgeu	r8,r4,4109308 <__umoddi3+0x394>
 41092f8:	4551883a 	add	r8,r8,r21
 41092fc:	10bfffc4 	addi	r2,r2,-1
 4109300:	45405a2e 	bgeu	r8,r21,410946c <__umoddi3+0x4f8>
 4109304:	100b883a 	mov	r5,r2
 4109308:	300c943a 	slli	r6,r6,16
 410930c:	91ffffcc 	andi	r7,r18,65535
 4109310:	9004d43a 	srli	r2,r18,16
 4109314:	314cb03a 	or	r6,r6,r5
 4109318:	317fffcc 	andi	r5,r6,65535
 410931c:	300cd43a 	srli	r6,r6,16
 4109320:	29d3383a 	mul	r9,r5,r7
 4109324:	288b383a 	mul	r5,r5,r2
 4109328:	31cf383a 	mul	r7,r6,r7
 410932c:	4806d43a 	srli	r3,r9,16
 4109330:	4111c83a 	sub	r8,r8,r4
 4109334:	29cb883a 	add	r5,r5,r7
 4109338:	194b883a 	add	r5,r3,r5
 410933c:	3085383a 	mul	r2,r6,r2
 4109340:	29c0022e 	bgeu	r5,r7,410934c <__umoddi3+0x3d8>
 4109344:	00c00074 	movhi	r3,1
 4109348:	10c5883a 	add	r2,r2,r3
 410934c:	2808d43a 	srli	r4,r5,16
 4109350:	280a943a 	slli	r5,r5,16
 4109354:	4a7fffcc 	andi	r9,r9,65535
 4109358:	2085883a 	add	r2,r4,r2
 410935c:	2a4b883a 	add	r5,r5,r9
 4109360:	40803636 	bltu	r8,r2,410943c <__umoddi3+0x4c8>
 4109364:	40804d26 	beq	r8,r2,410949c <__umoddi3+0x528>
 4109368:	4089c83a 	sub	r4,r8,r2
 410936c:	280f883a 	mov	r7,r5
 4109370:	81cfc83a 	sub	r7,r16,r7
 4109374:	81c7803a 	cmpltu	r3,r16,r7
 4109378:	20c7c83a 	sub	r3,r4,r3
 410937c:	1cc4983a 	sll	r2,r3,r19
 4109380:	3d0ed83a 	srl	r7,r7,r20
 4109384:	1d06d83a 	srl	r3,r3,r20
 4109388:	11c4b03a 	or	r2,r2,r7
 410938c:	003f9306 	br	41091dc <__ram_exceptions_end+0xfc100f98>
 4109390:	9ca6983a 	sll	r19,r19,r18
 4109394:	88e8d83a 	srl	r20,r17,r3
 4109398:	80c4d83a 	srl	r2,r16,r3
 410939c:	982cd43a 	srli	r22,r19,16
 41093a0:	8ca2983a 	sll	r17,r17,r18
 41093a4:	a009883a 	mov	r4,r20
 41093a8:	b00b883a 	mov	r5,r22
 41093ac:	1478b03a 	or	fp,r2,r17
 41093b0:	4100f500 	call	4100f50 <__umodsi3>
 41093b4:	a009883a 	mov	r4,r20
 41093b8:	b00b883a 	mov	r5,r22
 41093bc:	1023883a 	mov	r17,r2
 41093c0:	4100eec0 	call	4100eec <__udivsi3>
 41093c4:	9d7fffcc 	andi	r21,r19,65535
 41093c8:	880a943a 	slli	r5,r17,16
 41093cc:	e008d43a 	srli	r4,fp,16
 41093d0:	a885383a 	mul	r2,r21,r2
 41093d4:	84a8983a 	sll	r20,r16,r18
 41093d8:	2148b03a 	or	r4,r4,r5
 41093dc:	2080042e 	bgeu	r4,r2,41093f0 <__umoddi3+0x47c>
 41093e0:	24c9883a 	add	r4,r4,r19
 41093e4:	24c00236 	bltu	r4,r19,41093f0 <__umoddi3+0x47c>
 41093e8:	2080012e 	bgeu	r4,r2,41093f0 <__umoddi3+0x47c>
 41093ec:	24c9883a 	add	r4,r4,r19
 41093f0:	20a3c83a 	sub	r17,r4,r2
 41093f4:	b00b883a 	mov	r5,r22
 41093f8:	8809883a 	mov	r4,r17
 41093fc:	4100f500 	call	4100f50 <__umodsi3>
 4109400:	102f883a 	mov	r23,r2
 4109404:	8809883a 	mov	r4,r17
 4109408:	b00b883a 	mov	r5,r22
 410940c:	4100eec0 	call	4100eec <__udivsi3>
 4109410:	b82e943a 	slli	r23,r23,16
 4109414:	a885383a 	mul	r2,r21,r2
 4109418:	e13fffcc 	andi	r4,fp,65535
 410941c:	25c8b03a 	or	r4,r4,r23
 4109420:	2080042e 	bgeu	r4,r2,4109434 <__umoddi3+0x4c0>
 4109424:	24c9883a 	add	r4,r4,r19
 4109428:	24c00236 	bltu	r4,r19,4109434 <__umoddi3+0x4c0>
 410942c:	2080012e 	bgeu	r4,r2,4109434 <__umoddi3+0x4c0>
 4109430:	24c9883a 	add	r4,r4,r19
 4109434:	20a3c83a 	sub	r17,r4,r2
 4109438:	003f4806 	br	410915c <__ram_exceptions_end+0xfc100f18>
 410943c:	2c8fc83a 	sub	r7,r5,r18
 4109440:	1545c83a 	sub	r2,r2,r21
 4109444:	29cb803a 	cmpltu	r5,r5,r7
 4109448:	1145c83a 	sub	r2,r2,r5
 410944c:	4089c83a 	sub	r4,r8,r2
 4109450:	003fc706 	br	4109370 <__ram_exceptions_end+0xfc10112c>
 4109454:	01000604 	movi	r4,24
 4109458:	003f1806 	br	41090bc <__ram_exceptions_end+0xfc100e78>
 410945c:	00800604 	movi	r2,24
 4109460:	003f3206 	br	410912c <__ram_exceptions_end+0xfc100ee8>
 4109464:	01000604 	movi	r4,24
 4109468:	003ed906 	br	4108fd0 <__ram_exceptions_end+0xfc100d8c>
 410946c:	413fa52e 	bgeu	r8,r4,4109304 <__ram_exceptions_end+0xfc1010c0>
 4109470:	297fff84 	addi	r5,r5,-2
 4109474:	4551883a 	add	r8,r8,r21
 4109478:	003fa306 	br	4109308 <__ram_exceptions_end+0xfc1010c4>
 410947c:	15ff8b2e 	bgeu	r2,r23,41092ac <__ram_exceptions_end+0xfc101068>
 4109480:	31bfff84 	addi	r6,r6,-2
 4109484:	1545883a 	add	r2,r2,r21
 4109488:	003f8906 	br	41092b0 <__ram_exceptions_end+0xfc10106c>
 410948c:	24c9883a 	add	r4,r4,r19
 4109490:	003eee06 	br	410904c <__ram_exceptions_end+0xfc100e08>
 4109494:	8005883a 	mov	r2,r16
 4109498:	003f1706 	br	41090f8 <__ram_exceptions_end+0xfc100eb4>
 410949c:	817fe736 	bltu	r16,r5,410943c <__ram_exceptions_end+0xfc1011f8>
 41094a0:	280f883a 	mov	r7,r5
 41094a4:	0009883a 	mov	r4,zero
 41094a8:	003fb106 	br	4109370 <__ram_exceptions_end+0xfc10112c>

041094ac <__adddf3>:
 41094ac:	02c00434 	movhi	r11,16
 41094b0:	5affffc4 	addi	r11,r11,-1
 41094b4:	2806d7fa 	srli	r3,r5,31
 41094b8:	2ad4703a 	and	r10,r5,r11
 41094bc:	3ad2703a 	and	r9,r7,r11
 41094c0:	3804d53a 	srli	r2,r7,20
 41094c4:	3018d77a 	srli	r12,r6,29
 41094c8:	280ad53a 	srli	r5,r5,20
 41094cc:	501490fa 	slli	r10,r10,3
 41094d0:	2010d77a 	srli	r8,r4,29
 41094d4:	481290fa 	slli	r9,r9,3
 41094d8:	380ed7fa 	srli	r7,r7,31
 41094dc:	defffb04 	addi	sp,sp,-20
 41094e0:	dc800215 	stw	r18,8(sp)
 41094e4:	dc400115 	stw	r17,4(sp)
 41094e8:	dc000015 	stw	r16,0(sp)
 41094ec:	dfc00415 	stw	ra,16(sp)
 41094f0:	dcc00315 	stw	r19,12(sp)
 41094f4:	1c803fcc 	andi	r18,r3,255
 41094f8:	2c01ffcc 	andi	r16,r5,2047
 41094fc:	5210b03a 	or	r8,r10,r8
 4109500:	202290fa 	slli	r17,r4,3
 4109504:	1081ffcc 	andi	r2,r2,2047
 4109508:	4b12b03a 	or	r9,r9,r12
 410950c:	300c90fa 	slli	r6,r6,3
 4109510:	91c07526 	beq	r18,r7,41096e8 <__adddf3+0x23c>
 4109514:	8087c83a 	sub	r3,r16,r2
 4109518:	00c0ab0e 	bge	zero,r3,41097c8 <__adddf3+0x31c>
 410951c:	10002a1e 	bne	r2,zero,41095c8 <__adddf3+0x11c>
 4109520:	4984b03a 	or	r2,r9,r6
 4109524:	1000961e 	bne	r2,zero,4109780 <__adddf3+0x2d4>
 4109528:	888001cc 	andi	r2,r17,7
 410952c:	10000726 	beq	r2,zero,410954c <__adddf3+0xa0>
 4109530:	888003cc 	andi	r2,r17,15
 4109534:	00c00104 	movi	r3,4
 4109538:	10c00426 	beq	r2,r3,410954c <__adddf3+0xa0>
 410953c:	88c7883a 	add	r3,r17,r3
 4109540:	1c63803a 	cmpltu	r17,r3,r17
 4109544:	4451883a 	add	r8,r8,r17
 4109548:	1823883a 	mov	r17,r3
 410954c:	4080202c 	andhi	r2,r8,128
 4109550:	10005926 	beq	r2,zero,41096b8 <__adddf3+0x20c>
 4109554:	84000044 	addi	r16,r16,1
 4109558:	0081ffc4 	movi	r2,2047
 410955c:	8080ba26 	beq	r16,r2,4109848 <__adddf3+0x39c>
 4109560:	00bfe034 	movhi	r2,65408
 4109564:	10bfffc4 	addi	r2,r2,-1
 4109568:	4090703a 	and	r8,r8,r2
 410956c:	4004977a 	slli	r2,r8,29
 4109570:	4010927a 	slli	r8,r8,9
 4109574:	8822d0fa 	srli	r17,r17,3
 4109578:	8401ffcc 	andi	r16,r16,2047
 410957c:	4010d33a 	srli	r8,r8,12
 4109580:	9007883a 	mov	r3,r18
 4109584:	1444b03a 	or	r2,r2,r17
 4109588:	8401ffcc 	andi	r16,r16,2047
 410958c:	8020953a 	slli	r16,r16,20
 4109590:	18c03fcc 	andi	r3,r3,255
 4109594:	01000434 	movhi	r4,16
 4109598:	213fffc4 	addi	r4,r4,-1
 410959c:	180697fa 	slli	r3,r3,31
 41095a0:	4110703a 	and	r8,r8,r4
 41095a4:	4410b03a 	or	r8,r8,r16
 41095a8:	40c6b03a 	or	r3,r8,r3
 41095ac:	dfc00417 	ldw	ra,16(sp)
 41095b0:	dcc00317 	ldw	r19,12(sp)
 41095b4:	dc800217 	ldw	r18,8(sp)
 41095b8:	dc400117 	ldw	r17,4(sp)
 41095bc:	dc000017 	ldw	r16,0(sp)
 41095c0:	dec00504 	addi	sp,sp,20
 41095c4:	f800283a 	ret
 41095c8:	0081ffc4 	movi	r2,2047
 41095cc:	80bfd626 	beq	r16,r2,4109528 <__ram_exceptions_end+0xfc1012e4>
 41095d0:	4a402034 	orhi	r9,r9,128
 41095d4:	00800e04 	movi	r2,56
 41095d8:	10c09f16 	blt	r2,r3,4109858 <__adddf3+0x3ac>
 41095dc:	008007c4 	movi	r2,31
 41095e0:	10c0c216 	blt	r2,r3,41098ec <__adddf3+0x440>
 41095e4:	00800804 	movi	r2,32
 41095e8:	10c5c83a 	sub	r2,r2,r3
 41095ec:	488a983a 	sll	r5,r9,r2
 41095f0:	30c8d83a 	srl	r4,r6,r3
 41095f4:	3084983a 	sll	r2,r6,r2
 41095f8:	48c6d83a 	srl	r3,r9,r3
 41095fc:	290cb03a 	or	r6,r5,r4
 4109600:	1004c03a 	cmpne	r2,r2,zero
 4109604:	308cb03a 	or	r6,r6,r2
 4109608:	898dc83a 	sub	r6,r17,r6
 410960c:	89a3803a 	cmpltu	r17,r17,r6
 4109610:	40d1c83a 	sub	r8,r8,r3
 4109614:	4451c83a 	sub	r8,r8,r17
 4109618:	3023883a 	mov	r17,r6
 410961c:	4080202c 	andhi	r2,r8,128
 4109620:	10002326 	beq	r2,zero,41096b0 <__adddf3+0x204>
 4109624:	04c02034 	movhi	r19,128
 4109628:	9cffffc4 	addi	r19,r19,-1
 410962c:	44e6703a 	and	r19,r8,r19
 4109630:	98007626 	beq	r19,zero,410980c <__adddf3+0x360>
 4109634:	9809883a 	mov	r4,r19
 4109638:	410bab00 	call	410bab0 <__clzsi2>
 410963c:	10fffe04 	addi	r3,r2,-8
 4109640:	010007c4 	movi	r4,31
 4109644:	20c07716 	blt	r4,r3,4109824 <__adddf3+0x378>
 4109648:	00800804 	movi	r2,32
 410964c:	10c5c83a 	sub	r2,r2,r3
 4109650:	8884d83a 	srl	r2,r17,r2
 4109654:	98d0983a 	sll	r8,r19,r3
 4109658:	88e2983a 	sll	r17,r17,r3
 410965c:	1204b03a 	or	r2,r2,r8
 4109660:	1c007416 	blt	r3,r16,4109834 <__adddf3+0x388>
 4109664:	1c21c83a 	sub	r16,r3,r16
 4109668:	82000044 	addi	r8,r16,1
 410966c:	00c007c4 	movi	r3,31
 4109670:	1a009116 	blt	r3,r8,41098b8 <__adddf3+0x40c>
 4109674:	00c00804 	movi	r3,32
 4109678:	1a07c83a 	sub	r3,r3,r8
 410967c:	8a08d83a 	srl	r4,r17,r8
 4109680:	88e2983a 	sll	r17,r17,r3
 4109684:	10c6983a 	sll	r3,r2,r3
 4109688:	1210d83a 	srl	r8,r2,r8
 410968c:	8804c03a 	cmpne	r2,r17,zero
 4109690:	1906b03a 	or	r3,r3,r4
 4109694:	18a2b03a 	or	r17,r3,r2
 4109698:	0021883a 	mov	r16,zero
 410969c:	003fa206 	br	4109528 <__ram_exceptions_end+0xfc1012e4>
 41096a0:	1890b03a 	or	r8,r3,r2
 41096a4:	40017d26 	beq	r8,zero,4109c9c <__adddf3+0x7f0>
 41096a8:	1011883a 	mov	r8,r2
 41096ac:	1823883a 	mov	r17,r3
 41096b0:	888001cc 	andi	r2,r17,7
 41096b4:	103f9e1e 	bne	r2,zero,4109530 <__ram_exceptions_end+0xfc1012ec>
 41096b8:	4004977a 	slli	r2,r8,29
 41096bc:	8822d0fa 	srli	r17,r17,3
 41096c0:	4010d0fa 	srli	r8,r8,3
 41096c4:	9007883a 	mov	r3,r18
 41096c8:	1444b03a 	or	r2,r2,r17
 41096cc:	0101ffc4 	movi	r4,2047
 41096d0:	81002426 	beq	r16,r4,4109764 <__adddf3+0x2b8>
 41096d4:	8120703a 	and	r16,r16,r4
 41096d8:	01000434 	movhi	r4,16
 41096dc:	213fffc4 	addi	r4,r4,-1
 41096e0:	4110703a 	and	r8,r8,r4
 41096e4:	003fa806 	br	4109588 <__ram_exceptions_end+0xfc101344>
 41096e8:	8089c83a 	sub	r4,r16,r2
 41096ec:	01005e0e 	bge	zero,r4,4109868 <__adddf3+0x3bc>
 41096f0:	10002b26 	beq	r2,zero,41097a0 <__adddf3+0x2f4>
 41096f4:	0081ffc4 	movi	r2,2047
 41096f8:	80bf8b26 	beq	r16,r2,4109528 <__ram_exceptions_end+0xfc1012e4>
 41096fc:	4a402034 	orhi	r9,r9,128
 4109700:	00800e04 	movi	r2,56
 4109704:	1100a40e 	bge	r2,r4,4109998 <__adddf3+0x4ec>
 4109708:	498cb03a 	or	r6,r9,r6
 410970c:	300ac03a 	cmpne	r5,r6,zero
 4109710:	0013883a 	mov	r9,zero
 4109714:	2c4b883a 	add	r5,r5,r17
 4109718:	2c63803a 	cmpltu	r17,r5,r17
 410971c:	4a11883a 	add	r8,r9,r8
 4109720:	8a11883a 	add	r8,r17,r8
 4109724:	2823883a 	mov	r17,r5
 4109728:	4080202c 	andhi	r2,r8,128
 410972c:	103fe026 	beq	r2,zero,41096b0 <__ram_exceptions_end+0xfc10146c>
 4109730:	84000044 	addi	r16,r16,1
 4109734:	0081ffc4 	movi	r2,2047
 4109738:	8080d226 	beq	r16,r2,4109a84 <__adddf3+0x5d8>
 410973c:	00bfe034 	movhi	r2,65408
 4109740:	10bfffc4 	addi	r2,r2,-1
 4109744:	4090703a 	and	r8,r8,r2
 4109748:	880ad07a 	srli	r5,r17,1
 410974c:	400897fa 	slli	r4,r8,31
 4109750:	88c0004c 	andi	r3,r17,1
 4109754:	28e2b03a 	or	r17,r5,r3
 4109758:	4010d07a 	srli	r8,r8,1
 410975c:	2462b03a 	or	r17,r4,r17
 4109760:	003f7106 	br	4109528 <__ram_exceptions_end+0xfc1012e4>
 4109764:	4088b03a 	or	r4,r8,r2
 4109768:	20014526 	beq	r4,zero,4109c80 <__adddf3+0x7d4>
 410976c:	01000434 	movhi	r4,16
 4109770:	42000234 	orhi	r8,r8,8
 4109774:	213fffc4 	addi	r4,r4,-1
 4109778:	4110703a 	and	r8,r8,r4
 410977c:	003f8206 	br	4109588 <__ram_exceptions_end+0xfc101344>
 4109780:	18ffffc4 	addi	r3,r3,-1
 4109784:	1800491e 	bne	r3,zero,41098ac <__adddf3+0x400>
 4109788:	898bc83a 	sub	r5,r17,r6
 410978c:	8963803a 	cmpltu	r17,r17,r5
 4109790:	4251c83a 	sub	r8,r8,r9
 4109794:	4451c83a 	sub	r8,r8,r17
 4109798:	2823883a 	mov	r17,r5
 410979c:	003f9f06 	br	410961c <__ram_exceptions_end+0xfc1013d8>
 41097a0:	4984b03a 	or	r2,r9,r6
 41097a4:	103f6026 	beq	r2,zero,4109528 <__ram_exceptions_end+0xfc1012e4>
 41097a8:	213fffc4 	addi	r4,r4,-1
 41097ac:	2000931e 	bne	r4,zero,41099fc <__adddf3+0x550>
 41097b0:	898d883a 	add	r6,r17,r6
 41097b4:	3463803a 	cmpltu	r17,r6,r17
 41097b8:	4251883a 	add	r8,r8,r9
 41097bc:	8a11883a 	add	r8,r17,r8
 41097c0:	3023883a 	mov	r17,r6
 41097c4:	003fd806 	br	4109728 <__ram_exceptions_end+0xfc1014e4>
 41097c8:	1800541e 	bne	r3,zero,410991c <__adddf3+0x470>
 41097cc:	80800044 	addi	r2,r16,1
 41097d0:	1081ffcc 	andi	r2,r2,2047
 41097d4:	00c00044 	movi	r3,1
 41097d8:	1880a00e 	bge	r3,r2,4109a5c <__adddf3+0x5b0>
 41097dc:	8989c83a 	sub	r4,r17,r6
 41097e0:	8905803a 	cmpltu	r2,r17,r4
 41097e4:	4267c83a 	sub	r19,r8,r9
 41097e8:	98a7c83a 	sub	r19,r19,r2
 41097ec:	9880202c 	andhi	r2,r19,128
 41097f0:	10006326 	beq	r2,zero,4109980 <__adddf3+0x4d4>
 41097f4:	3463c83a 	sub	r17,r6,r17
 41097f8:	4a07c83a 	sub	r3,r9,r8
 41097fc:	344d803a 	cmpltu	r6,r6,r17
 4109800:	19a7c83a 	sub	r19,r3,r6
 4109804:	3825883a 	mov	r18,r7
 4109808:	983f8a1e 	bne	r19,zero,4109634 <__ram_exceptions_end+0xfc1013f0>
 410980c:	8809883a 	mov	r4,r17
 4109810:	410bab00 	call	410bab0 <__clzsi2>
 4109814:	10800804 	addi	r2,r2,32
 4109818:	10fffe04 	addi	r3,r2,-8
 410981c:	010007c4 	movi	r4,31
 4109820:	20ff890e 	bge	r4,r3,4109648 <__ram_exceptions_end+0xfc101404>
 4109824:	10bff604 	addi	r2,r2,-40
 4109828:	8884983a 	sll	r2,r17,r2
 410982c:	0023883a 	mov	r17,zero
 4109830:	1c3f8c0e 	bge	r3,r16,4109664 <__ram_exceptions_end+0xfc101420>
 4109834:	023fe034 	movhi	r8,65408
 4109838:	423fffc4 	addi	r8,r8,-1
 410983c:	80e1c83a 	sub	r16,r16,r3
 4109840:	1210703a 	and	r8,r2,r8
 4109844:	003f3806 	br	4109528 <__ram_exceptions_end+0xfc1012e4>
 4109848:	9007883a 	mov	r3,r18
 410984c:	0011883a 	mov	r8,zero
 4109850:	0005883a 	mov	r2,zero
 4109854:	003f4c06 	br	4109588 <__ram_exceptions_end+0xfc101344>
 4109858:	498cb03a 	or	r6,r9,r6
 410985c:	300cc03a 	cmpne	r6,r6,zero
 4109860:	0007883a 	mov	r3,zero
 4109864:	003f6806 	br	4109608 <__ram_exceptions_end+0xfc1013c4>
 4109868:	20009c1e 	bne	r4,zero,4109adc <__adddf3+0x630>
 410986c:	80800044 	addi	r2,r16,1
 4109870:	1141ffcc 	andi	r5,r2,2047
 4109874:	01000044 	movi	r4,1
 4109878:	2140670e 	bge	r4,r5,4109a18 <__adddf3+0x56c>
 410987c:	0101ffc4 	movi	r4,2047
 4109880:	11007f26 	beq	r2,r4,4109a80 <__adddf3+0x5d4>
 4109884:	898d883a 	add	r6,r17,r6
 4109888:	4247883a 	add	r3,r8,r9
 410988c:	3451803a 	cmpltu	r8,r6,r17
 4109890:	40d1883a 	add	r8,r8,r3
 4109894:	402297fa 	slli	r17,r8,31
 4109898:	300cd07a 	srli	r6,r6,1
 410989c:	4010d07a 	srli	r8,r8,1
 41098a0:	1021883a 	mov	r16,r2
 41098a4:	89a2b03a 	or	r17,r17,r6
 41098a8:	003f1f06 	br	4109528 <__ram_exceptions_end+0xfc1012e4>
 41098ac:	0081ffc4 	movi	r2,2047
 41098b0:	80bf481e 	bne	r16,r2,41095d4 <__ram_exceptions_end+0xfc101390>
 41098b4:	003f1c06 	br	4109528 <__ram_exceptions_end+0xfc1012e4>
 41098b8:	843ff844 	addi	r16,r16,-31
 41098bc:	01000804 	movi	r4,32
 41098c0:	1406d83a 	srl	r3,r2,r16
 41098c4:	41005026 	beq	r8,r4,4109a08 <__adddf3+0x55c>
 41098c8:	01001004 	movi	r4,64
 41098cc:	2211c83a 	sub	r8,r4,r8
 41098d0:	1204983a 	sll	r2,r2,r8
 41098d4:	88a2b03a 	or	r17,r17,r2
 41098d8:	8822c03a 	cmpne	r17,r17,zero
 41098dc:	1c62b03a 	or	r17,r3,r17
 41098e0:	0011883a 	mov	r8,zero
 41098e4:	0021883a 	mov	r16,zero
 41098e8:	003f7106 	br	41096b0 <__ram_exceptions_end+0xfc10146c>
 41098ec:	193ff804 	addi	r4,r3,-32
 41098f0:	00800804 	movi	r2,32
 41098f4:	4908d83a 	srl	r4,r9,r4
 41098f8:	18804526 	beq	r3,r2,4109a10 <__adddf3+0x564>
 41098fc:	00801004 	movi	r2,64
 4109900:	10c5c83a 	sub	r2,r2,r3
 4109904:	4886983a 	sll	r3,r9,r2
 4109908:	198cb03a 	or	r6,r3,r6
 410990c:	300cc03a 	cmpne	r6,r6,zero
 4109910:	218cb03a 	or	r6,r4,r6
 4109914:	0007883a 	mov	r3,zero
 4109918:	003f3b06 	br	4109608 <__ram_exceptions_end+0xfc1013c4>
 410991c:	80002a26 	beq	r16,zero,41099c8 <__adddf3+0x51c>
 4109920:	0101ffc4 	movi	r4,2047
 4109924:	11006826 	beq	r2,r4,4109ac8 <__adddf3+0x61c>
 4109928:	00c7c83a 	sub	r3,zero,r3
 410992c:	42002034 	orhi	r8,r8,128
 4109930:	01000e04 	movi	r4,56
 4109934:	20c07c16 	blt	r4,r3,4109b28 <__adddf3+0x67c>
 4109938:	010007c4 	movi	r4,31
 410993c:	20c0da16 	blt	r4,r3,4109ca8 <__adddf3+0x7fc>
 4109940:	01000804 	movi	r4,32
 4109944:	20c9c83a 	sub	r4,r4,r3
 4109948:	4114983a 	sll	r10,r8,r4
 410994c:	88cad83a 	srl	r5,r17,r3
 4109950:	8908983a 	sll	r4,r17,r4
 4109954:	40c6d83a 	srl	r3,r8,r3
 4109958:	5162b03a 	or	r17,r10,r5
 410995c:	2008c03a 	cmpne	r4,r4,zero
 4109960:	8922b03a 	or	r17,r17,r4
 4109964:	3463c83a 	sub	r17,r6,r17
 4109968:	48c7c83a 	sub	r3,r9,r3
 410996c:	344d803a 	cmpltu	r6,r6,r17
 4109970:	1991c83a 	sub	r8,r3,r6
 4109974:	1021883a 	mov	r16,r2
 4109978:	3825883a 	mov	r18,r7
 410997c:	003f2706 	br	410961c <__ram_exceptions_end+0xfc1013d8>
 4109980:	24d0b03a 	or	r8,r4,r19
 4109984:	40001b1e 	bne	r8,zero,41099f4 <__adddf3+0x548>
 4109988:	0005883a 	mov	r2,zero
 410998c:	0007883a 	mov	r3,zero
 4109990:	0021883a 	mov	r16,zero
 4109994:	003f4d06 	br	41096cc <__ram_exceptions_end+0xfc101488>
 4109998:	008007c4 	movi	r2,31
 410999c:	11003c16 	blt	r2,r4,4109a90 <__adddf3+0x5e4>
 41099a0:	00800804 	movi	r2,32
 41099a4:	1105c83a 	sub	r2,r2,r4
 41099a8:	488e983a 	sll	r7,r9,r2
 41099ac:	310ad83a 	srl	r5,r6,r4
 41099b0:	3084983a 	sll	r2,r6,r2
 41099b4:	4912d83a 	srl	r9,r9,r4
 41099b8:	394ab03a 	or	r5,r7,r5
 41099bc:	1004c03a 	cmpne	r2,r2,zero
 41099c0:	288ab03a 	or	r5,r5,r2
 41099c4:	003f5306 	br	4109714 <__ram_exceptions_end+0xfc1014d0>
 41099c8:	4448b03a 	or	r4,r8,r17
 41099cc:	20003e26 	beq	r4,zero,4109ac8 <__adddf3+0x61c>
 41099d0:	00c6303a 	nor	r3,zero,r3
 41099d4:	18003a1e 	bne	r3,zero,4109ac0 <__adddf3+0x614>
 41099d8:	3463c83a 	sub	r17,r6,r17
 41099dc:	4a07c83a 	sub	r3,r9,r8
 41099e0:	344d803a 	cmpltu	r6,r6,r17
 41099e4:	1991c83a 	sub	r8,r3,r6
 41099e8:	1021883a 	mov	r16,r2
 41099ec:	3825883a 	mov	r18,r7
 41099f0:	003f0a06 	br	410961c <__ram_exceptions_end+0xfc1013d8>
 41099f4:	2023883a 	mov	r17,r4
 41099f8:	003f0d06 	br	4109630 <__ram_exceptions_end+0xfc1013ec>
 41099fc:	0081ffc4 	movi	r2,2047
 4109a00:	80bf3f1e 	bne	r16,r2,4109700 <__ram_exceptions_end+0xfc1014bc>
 4109a04:	003ec806 	br	4109528 <__ram_exceptions_end+0xfc1012e4>
 4109a08:	0005883a 	mov	r2,zero
 4109a0c:	003fb106 	br	41098d4 <__ram_exceptions_end+0xfc101690>
 4109a10:	0007883a 	mov	r3,zero
 4109a14:	003fbc06 	br	4109908 <__ram_exceptions_end+0xfc1016c4>
 4109a18:	4444b03a 	or	r2,r8,r17
 4109a1c:	8000871e 	bne	r16,zero,4109c3c <__adddf3+0x790>
 4109a20:	1000ba26 	beq	r2,zero,4109d0c <__adddf3+0x860>
 4109a24:	4984b03a 	or	r2,r9,r6
 4109a28:	103ebf26 	beq	r2,zero,4109528 <__ram_exceptions_end+0xfc1012e4>
 4109a2c:	8985883a 	add	r2,r17,r6
 4109a30:	4247883a 	add	r3,r8,r9
 4109a34:	1451803a 	cmpltu	r8,r2,r17
 4109a38:	40d1883a 	add	r8,r8,r3
 4109a3c:	40c0202c 	andhi	r3,r8,128
 4109a40:	1023883a 	mov	r17,r2
 4109a44:	183f1a26 	beq	r3,zero,41096b0 <__ram_exceptions_end+0xfc10146c>
 4109a48:	00bfe034 	movhi	r2,65408
 4109a4c:	10bfffc4 	addi	r2,r2,-1
 4109a50:	2021883a 	mov	r16,r4
 4109a54:	4090703a 	and	r8,r8,r2
 4109a58:	003eb306 	br	4109528 <__ram_exceptions_end+0xfc1012e4>
 4109a5c:	4444b03a 	or	r2,r8,r17
 4109a60:	8000291e 	bne	r16,zero,4109b08 <__adddf3+0x65c>
 4109a64:	10004b1e 	bne	r2,zero,4109b94 <__adddf3+0x6e8>
 4109a68:	4990b03a 	or	r8,r9,r6
 4109a6c:	40008b26 	beq	r8,zero,4109c9c <__adddf3+0x7f0>
 4109a70:	4811883a 	mov	r8,r9
 4109a74:	3023883a 	mov	r17,r6
 4109a78:	3825883a 	mov	r18,r7
 4109a7c:	003eaa06 	br	4109528 <__ram_exceptions_end+0xfc1012e4>
 4109a80:	1021883a 	mov	r16,r2
 4109a84:	0011883a 	mov	r8,zero
 4109a88:	0005883a 	mov	r2,zero
 4109a8c:	003f0f06 	br	41096cc <__ram_exceptions_end+0xfc101488>
 4109a90:	217ff804 	addi	r5,r4,-32
 4109a94:	00800804 	movi	r2,32
 4109a98:	494ad83a 	srl	r5,r9,r5
 4109a9c:	20807d26 	beq	r4,r2,4109c94 <__adddf3+0x7e8>
 4109aa0:	00801004 	movi	r2,64
 4109aa4:	1109c83a 	sub	r4,r2,r4
 4109aa8:	4912983a 	sll	r9,r9,r4
 4109aac:	498cb03a 	or	r6,r9,r6
 4109ab0:	300cc03a 	cmpne	r6,r6,zero
 4109ab4:	298ab03a 	or	r5,r5,r6
 4109ab8:	0013883a 	mov	r9,zero
 4109abc:	003f1506 	br	4109714 <__ram_exceptions_end+0xfc1014d0>
 4109ac0:	0101ffc4 	movi	r4,2047
 4109ac4:	113f9a1e 	bne	r2,r4,4109930 <__ram_exceptions_end+0xfc1016ec>
 4109ac8:	4811883a 	mov	r8,r9
 4109acc:	3023883a 	mov	r17,r6
 4109ad0:	1021883a 	mov	r16,r2
 4109ad4:	3825883a 	mov	r18,r7
 4109ad8:	003e9306 	br	4109528 <__ram_exceptions_end+0xfc1012e4>
 4109adc:	8000161e 	bne	r16,zero,4109b38 <__adddf3+0x68c>
 4109ae0:	444ab03a 	or	r5,r8,r17
 4109ae4:	28005126 	beq	r5,zero,4109c2c <__adddf3+0x780>
 4109ae8:	0108303a 	nor	r4,zero,r4
 4109aec:	20004d1e 	bne	r4,zero,4109c24 <__adddf3+0x778>
 4109af0:	89a3883a 	add	r17,r17,r6
 4109af4:	4253883a 	add	r9,r8,r9
 4109af8:	898d803a 	cmpltu	r6,r17,r6
 4109afc:	3251883a 	add	r8,r6,r9
 4109b00:	1021883a 	mov	r16,r2
 4109b04:	003f0806 	br	4109728 <__ram_exceptions_end+0xfc1014e4>
 4109b08:	1000301e 	bne	r2,zero,4109bcc <__adddf3+0x720>
 4109b0c:	4984b03a 	or	r2,r9,r6
 4109b10:	10007126 	beq	r2,zero,4109cd8 <__adddf3+0x82c>
 4109b14:	4811883a 	mov	r8,r9
 4109b18:	3023883a 	mov	r17,r6
 4109b1c:	3825883a 	mov	r18,r7
 4109b20:	0401ffc4 	movi	r16,2047
 4109b24:	003e8006 	br	4109528 <__ram_exceptions_end+0xfc1012e4>
 4109b28:	4462b03a 	or	r17,r8,r17
 4109b2c:	8822c03a 	cmpne	r17,r17,zero
 4109b30:	0007883a 	mov	r3,zero
 4109b34:	003f8b06 	br	4109964 <__ram_exceptions_end+0xfc101720>
 4109b38:	0141ffc4 	movi	r5,2047
 4109b3c:	11403b26 	beq	r2,r5,4109c2c <__adddf3+0x780>
 4109b40:	0109c83a 	sub	r4,zero,r4
 4109b44:	42002034 	orhi	r8,r8,128
 4109b48:	01400e04 	movi	r5,56
 4109b4c:	29006716 	blt	r5,r4,4109cec <__adddf3+0x840>
 4109b50:	014007c4 	movi	r5,31
 4109b54:	29007016 	blt	r5,r4,4109d18 <__adddf3+0x86c>
 4109b58:	01400804 	movi	r5,32
 4109b5c:	290bc83a 	sub	r5,r5,r4
 4109b60:	4154983a 	sll	r10,r8,r5
 4109b64:	890ed83a 	srl	r7,r17,r4
 4109b68:	894a983a 	sll	r5,r17,r5
 4109b6c:	4108d83a 	srl	r4,r8,r4
 4109b70:	51e2b03a 	or	r17,r10,r7
 4109b74:	280ac03a 	cmpne	r5,r5,zero
 4109b78:	8962b03a 	or	r17,r17,r5
 4109b7c:	89a3883a 	add	r17,r17,r6
 4109b80:	2253883a 	add	r9,r4,r9
 4109b84:	898d803a 	cmpltu	r6,r17,r6
 4109b88:	3251883a 	add	r8,r6,r9
 4109b8c:	1021883a 	mov	r16,r2
 4109b90:	003ee506 	br	4109728 <__ram_exceptions_end+0xfc1014e4>
 4109b94:	4984b03a 	or	r2,r9,r6
 4109b98:	103e6326 	beq	r2,zero,4109528 <__ram_exceptions_end+0xfc1012e4>
 4109b9c:	8987c83a 	sub	r3,r17,r6
 4109ba0:	88c9803a 	cmpltu	r4,r17,r3
 4109ba4:	4245c83a 	sub	r2,r8,r9
 4109ba8:	1105c83a 	sub	r2,r2,r4
 4109bac:	1100202c 	andhi	r4,r2,128
 4109bb0:	203ebb26 	beq	r4,zero,41096a0 <__ram_exceptions_end+0xfc10145c>
 4109bb4:	3463c83a 	sub	r17,r6,r17
 4109bb8:	4a07c83a 	sub	r3,r9,r8
 4109bbc:	344d803a 	cmpltu	r6,r6,r17
 4109bc0:	1991c83a 	sub	r8,r3,r6
 4109bc4:	3825883a 	mov	r18,r7
 4109bc8:	003e5706 	br	4109528 <__ram_exceptions_end+0xfc1012e4>
 4109bcc:	4984b03a 	or	r2,r9,r6
 4109bd0:	10002e26 	beq	r2,zero,4109c8c <__adddf3+0x7e0>
 4109bd4:	4004d0fa 	srli	r2,r8,3
 4109bd8:	8822d0fa 	srli	r17,r17,3
 4109bdc:	4010977a 	slli	r8,r8,29
 4109be0:	10c0022c 	andhi	r3,r2,8
 4109be4:	4462b03a 	or	r17,r8,r17
 4109be8:	18000826 	beq	r3,zero,4109c0c <__adddf3+0x760>
 4109bec:	4808d0fa 	srli	r4,r9,3
 4109bf0:	20c0022c 	andhi	r3,r4,8
 4109bf4:	1800051e 	bne	r3,zero,4109c0c <__adddf3+0x760>
 4109bf8:	300cd0fa 	srli	r6,r6,3
 4109bfc:	4806977a 	slli	r3,r9,29
 4109c00:	2005883a 	mov	r2,r4
 4109c04:	3825883a 	mov	r18,r7
 4109c08:	19a2b03a 	or	r17,r3,r6
 4109c0c:	8810d77a 	srli	r8,r17,29
 4109c10:	100490fa 	slli	r2,r2,3
 4109c14:	882290fa 	slli	r17,r17,3
 4109c18:	0401ffc4 	movi	r16,2047
 4109c1c:	4090b03a 	or	r8,r8,r2
 4109c20:	003e4106 	br	4109528 <__ram_exceptions_end+0xfc1012e4>
 4109c24:	0141ffc4 	movi	r5,2047
 4109c28:	117fc71e 	bne	r2,r5,4109b48 <__ram_exceptions_end+0xfc101904>
 4109c2c:	4811883a 	mov	r8,r9
 4109c30:	3023883a 	mov	r17,r6
 4109c34:	1021883a 	mov	r16,r2
 4109c38:	003e3b06 	br	4109528 <__ram_exceptions_end+0xfc1012e4>
 4109c3c:	10002f26 	beq	r2,zero,4109cfc <__adddf3+0x850>
 4109c40:	4984b03a 	or	r2,r9,r6
 4109c44:	10001126 	beq	r2,zero,4109c8c <__adddf3+0x7e0>
 4109c48:	4004d0fa 	srli	r2,r8,3
 4109c4c:	8822d0fa 	srli	r17,r17,3
 4109c50:	4010977a 	slli	r8,r8,29
 4109c54:	10c0022c 	andhi	r3,r2,8
 4109c58:	4462b03a 	or	r17,r8,r17
 4109c5c:	183feb26 	beq	r3,zero,4109c0c <__ram_exceptions_end+0xfc1019c8>
 4109c60:	4808d0fa 	srli	r4,r9,3
 4109c64:	20c0022c 	andhi	r3,r4,8
 4109c68:	183fe81e 	bne	r3,zero,4109c0c <__ram_exceptions_end+0xfc1019c8>
 4109c6c:	300cd0fa 	srli	r6,r6,3
 4109c70:	4806977a 	slli	r3,r9,29
 4109c74:	2005883a 	mov	r2,r4
 4109c78:	19a2b03a 	or	r17,r3,r6
 4109c7c:	003fe306 	br	4109c0c <__ram_exceptions_end+0xfc1019c8>
 4109c80:	0011883a 	mov	r8,zero
 4109c84:	0005883a 	mov	r2,zero
 4109c88:	003e3f06 	br	4109588 <__ram_exceptions_end+0xfc101344>
 4109c8c:	0401ffc4 	movi	r16,2047
 4109c90:	003e2506 	br	4109528 <__ram_exceptions_end+0xfc1012e4>
 4109c94:	0013883a 	mov	r9,zero
 4109c98:	003f8406 	br	4109aac <__ram_exceptions_end+0xfc101868>
 4109c9c:	0005883a 	mov	r2,zero
 4109ca0:	0007883a 	mov	r3,zero
 4109ca4:	003e8906 	br	41096cc <__ram_exceptions_end+0xfc101488>
 4109ca8:	197ff804 	addi	r5,r3,-32
 4109cac:	01000804 	movi	r4,32
 4109cb0:	414ad83a 	srl	r5,r8,r5
 4109cb4:	19002426 	beq	r3,r4,4109d48 <__adddf3+0x89c>
 4109cb8:	01001004 	movi	r4,64
 4109cbc:	20c7c83a 	sub	r3,r4,r3
 4109cc0:	40c6983a 	sll	r3,r8,r3
 4109cc4:	1c46b03a 	or	r3,r3,r17
 4109cc8:	1806c03a 	cmpne	r3,r3,zero
 4109ccc:	28e2b03a 	or	r17,r5,r3
 4109cd0:	0007883a 	mov	r3,zero
 4109cd4:	003f2306 	br	4109964 <__ram_exceptions_end+0xfc101720>
 4109cd8:	0007883a 	mov	r3,zero
 4109cdc:	5811883a 	mov	r8,r11
 4109ce0:	00bfffc4 	movi	r2,-1
 4109ce4:	0401ffc4 	movi	r16,2047
 4109ce8:	003e7806 	br	41096cc <__ram_exceptions_end+0xfc101488>
 4109cec:	4462b03a 	or	r17,r8,r17
 4109cf0:	8822c03a 	cmpne	r17,r17,zero
 4109cf4:	0009883a 	mov	r4,zero
 4109cf8:	003fa006 	br	4109b7c <__ram_exceptions_end+0xfc101938>
 4109cfc:	4811883a 	mov	r8,r9
 4109d00:	3023883a 	mov	r17,r6
 4109d04:	0401ffc4 	movi	r16,2047
 4109d08:	003e0706 	br	4109528 <__ram_exceptions_end+0xfc1012e4>
 4109d0c:	4811883a 	mov	r8,r9
 4109d10:	3023883a 	mov	r17,r6
 4109d14:	003e0406 	br	4109528 <__ram_exceptions_end+0xfc1012e4>
 4109d18:	21fff804 	addi	r7,r4,-32
 4109d1c:	01400804 	movi	r5,32
 4109d20:	41ced83a 	srl	r7,r8,r7
 4109d24:	21400a26 	beq	r4,r5,4109d50 <__adddf3+0x8a4>
 4109d28:	01401004 	movi	r5,64
 4109d2c:	2909c83a 	sub	r4,r5,r4
 4109d30:	4108983a 	sll	r4,r8,r4
 4109d34:	2448b03a 	or	r4,r4,r17
 4109d38:	2008c03a 	cmpne	r4,r4,zero
 4109d3c:	3922b03a 	or	r17,r7,r4
 4109d40:	0009883a 	mov	r4,zero
 4109d44:	003f8d06 	br	4109b7c <__ram_exceptions_end+0xfc101938>
 4109d48:	0007883a 	mov	r3,zero
 4109d4c:	003fdd06 	br	4109cc4 <__ram_exceptions_end+0xfc101a80>
 4109d50:	0009883a 	mov	r4,zero
 4109d54:	003ff706 	br	4109d34 <__ram_exceptions_end+0xfc101af0>

04109d58 <__divdf3>:
 4109d58:	defff204 	addi	sp,sp,-56
 4109d5c:	dd400915 	stw	r21,36(sp)
 4109d60:	282ad53a 	srli	r21,r5,20
 4109d64:	dd000815 	stw	r20,32(sp)
 4109d68:	2828d7fa 	srli	r20,r5,31
 4109d6c:	dc000415 	stw	r16,16(sp)
 4109d70:	04000434 	movhi	r16,16
 4109d74:	df000c15 	stw	fp,48(sp)
 4109d78:	843fffc4 	addi	r16,r16,-1
 4109d7c:	dfc00d15 	stw	ra,52(sp)
 4109d80:	ddc00b15 	stw	r23,44(sp)
 4109d84:	dd800a15 	stw	r22,40(sp)
 4109d88:	dcc00715 	stw	r19,28(sp)
 4109d8c:	dc800615 	stw	r18,24(sp)
 4109d90:	dc400515 	stw	r17,20(sp)
 4109d94:	ad41ffcc 	andi	r21,r21,2047
 4109d98:	2c20703a 	and	r16,r5,r16
 4109d9c:	a7003fcc 	andi	fp,r20,255
 4109da0:	a8006126 	beq	r21,zero,4109f28 <__divdf3+0x1d0>
 4109da4:	0081ffc4 	movi	r2,2047
 4109da8:	2025883a 	mov	r18,r4
 4109dac:	a8803726 	beq	r21,r2,4109e8c <__divdf3+0x134>
 4109db0:	80800434 	orhi	r2,r16,16
 4109db4:	100490fa 	slli	r2,r2,3
 4109db8:	2020d77a 	srli	r16,r4,29
 4109dbc:	202490fa 	slli	r18,r4,3
 4109dc0:	ad7f0044 	addi	r21,r21,-1023
 4109dc4:	80a0b03a 	or	r16,r16,r2
 4109dc8:	0027883a 	mov	r19,zero
 4109dcc:	0013883a 	mov	r9,zero
 4109dd0:	3804d53a 	srli	r2,r7,20
 4109dd4:	382cd7fa 	srli	r22,r7,31
 4109dd8:	04400434 	movhi	r17,16
 4109ddc:	8c7fffc4 	addi	r17,r17,-1
 4109de0:	1081ffcc 	andi	r2,r2,2047
 4109de4:	3011883a 	mov	r8,r6
 4109de8:	3c62703a 	and	r17,r7,r17
 4109dec:	b5c03fcc 	andi	r23,r22,255
 4109df0:	10006c26 	beq	r2,zero,4109fa4 <__divdf3+0x24c>
 4109df4:	00c1ffc4 	movi	r3,2047
 4109df8:	10c06426 	beq	r2,r3,4109f8c <__divdf3+0x234>
 4109dfc:	88c00434 	orhi	r3,r17,16
 4109e00:	180690fa 	slli	r3,r3,3
 4109e04:	3022d77a 	srli	r17,r6,29
 4109e08:	301090fa 	slli	r8,r6,3
 4109e0c:	10bf0044 	addi	r2,r2,-1023
 4109e10:	88e2b03a 	or	r17,r17,r3
 4109e14:	000f883a 	mov	r7,zero
 4109e18:	a58cf03a 	xor	r6,r20,r22
 4109e1c:	3cc8b03a 	or	r4,r7,r19
 4109e20:	a8abc83a 	sub	r21,r21,r2
 4109e24:	008003c4 	movi	r2,15
 4109e28:	3007883a 	mov	r3,r6
 4109e2c:	34c03fcc 	andi	r19,r6,255
 4109e30:	11009036 	bltu	r2,r4,410a074 <__divdf3+0x31c>
 4109e34:	200890ba 	slli	r4,r4,2
 4109e38:	00810474 	movhi	r2,1041
 4109e3c:	10a79304 	addi	r2,r2,-25012
 4109e40:	2089883a 	add	r4,r4,r2
 4109e44:	20800017 	ldw	r2,0(r4)
 4109e48:	1000683a 	jmp	r2
 4109e4c:	0410a074 	movhi	r16,17025
 4109e50:	04109ec4 	movi	r16,17019
 4109e54:	0410a064 	muli	r16,zero,17025
 4109e58:	04109eb8 	rdprs	r16,zero,17018
 4109e5c:	0410a064 	muli	r16,zero,17025
 4109e60:	0410a038 	rdprs	r16,zero,17024
 4109e64:	0410a064 	muli	r16,zero,17025
 4109e68:	04109eb8 	rdprs	r16,zero,17018
 4109e6c:	04109ec4 	movi	r16,17019
 4109e70:	04109ec4 	movi	r16,17019
 4109e74:	0410a038 	rdprs	r16,zero,17024
 4109e78:	04109eb8 	rdprs	r16,zero,17018
 4109e7c:	04109ea8 	cmpgeui	r16,zero,17018
 4109e80:	04109ea8 	cmpgeui	r16,zero,17018
 4109e84:	04109ea8 	cmpgeui	r16,zero,17018
 4109e88:	0410a358 	cmpnei	r16,zero,17037
 4109e8c:	2404b03a 	or	r2,r4,r16
 4109e90:	1000661e 	bne	r2,zero,410a02c <__divdf3+0x2d4>
 4109e94:	04c00204 	movi	r19,8
 4109e98:	0021883a 	mov	r16,zero
 4109e9c:	0025883a 	mov	r18,zero
 4109ea0:	02400084 	movi	r9,2
 4109ea4:	003fca06 	br	4109dd0 <__ram_exceptions_end+0xfc101b8c>
 4109ea8:	8023883a 	mov	r17,r16
 4109eac:	9011883a 	mov	r8,r18
 4109eb0:	e02f883a 	mov	r23,fp
 4109eb4:	480f883a 	mov	r7,r9
 4109eb8:	00800084 	movi	r2,2
 4109ebc:	3881311e 	bne	r7,r2,410a384 <__divdf3+0x62c>
 4109ec0:	b827883a 	mov	r19,r23
 4109ec4:	98c0004c 	andi	r3,r19,1
 4109ec8:	0081ffc4 	movi	r2,2047
 4109ecc:	000b883a 	mov	r5,zero
 4109ed0:	0025883a 	mov	r18,zero
 4109ed4:	1004953a 	slli	r2,r2,20
 4109ed8:	18c03fcc 	andi	r3,r3,255
 4109edc:	04400434 	movhi	r17,16
 4109ee0:	8c7fffc4 	addi	r17,r17,-1
 4109ee4:	180697fa 	slli	r3,r3,31
 4109ee8:	2c4a703a 	and	r5,r5,r17
 4109eec:	288ab03a 	or	r5,r5,r2
 4109ef0:	28c6b03a 	or	r3,r5,r3
 4109ef4:	9005883a 	mov	r2,r18
 4109ef8:	dfc00d17 	ldw	ra,52(sp)
 4109efc:	df000c17 	ldw	fp,48(sp)
 4109f00:	ddc00b17 	ldw	r23,44(sp)
 4109f04:	dd800a17 	ldw	r22,40(sp)
 4109f08:	dd400917 	ldw	r21,36(sp)
 4109f0c:	dd000817 	ldw	r20,32(sp)
 4109f10:	dcc00717 	ldw	r19,28(sp)
 4109f14:	dc800617 	ldw	r18,24(sp)
 4109f18:	dc400517 	ldw	r17,20(sp)
 4109f1c:	dc000417 	ldw	r16,16(sp)
 4109f20:	dec00e04 	addi	sp,sp,56
 4109f24:	f800283a 	ret
 4109f28:	2404b03a 	or	r2,r4,r16
 4109f2c:	2027883a 	mov	r19,r4
 4109f30:	10003926 	beq	r2,zero,410a018 <__divdf3+0x2c0>
 4109f34:	80012e26 	beq	r16,zero,410a3f0 <__divdf3+0x698>
 4109f38:	8009883a 	mov	r4,r16
 4109f3c:	d9800315 	stw	r6,12(sp)
 4109f40:	d9c00215 	stw	r7,8(sp)
 4109f44:	410bab00 	call	410bab0 <__clzsi2>
 4109f48:	d9800317 	ldw	r6,12(sp)
 4109f4c:	d9c00217 	ldw	r7,8(sp)
 4109f50:	113ffd44 	addi	r4,r2,-11
 4109f54:	00c00704 	movi	r3,28
 4109f58:	19012116 	blt	r3,r4,410a3e0 <__divdf3+0x688>
 4109f5c:	00c00744 	movi	r3,29
 4109f60:	147ffe04 	addi	r17,r2,-8
 4109f64:	1907c83a 	sub	r3,r3,r4
 4109f68:	8460983a 	sll	r16,r16,r17
 4109f6c:	98c6d83a 	srl	r3,r19,r3
 4109f70:	9c64983a 	sll	r18,r19,r17
 4109f74:	1c20b03a 	or	r16,r3,r16
 4109f78:	1080fcc4 	addi	r2,r2,1011
 4109f7c:	00abc83a 	sub	r21,zero,r2
 4109f80:	0027883a 	mov	r19,zero
 4109f84:	0013883a 	mov	r9,zero
 4109f88:	003f9106 	br	4109dd0 <__ram_exceptions_end+0xfc101b8c>
 4109f8c:	3446b03a 	or	r3,r6,r17
 4109f90:	18001f1e 	bne	r3,zero,410a010 <__divdf3+0x2b8>
 4109f94:	0023883a 	mov	r17,zero
 4109f98:	0011883a 	mov	r8,zero
 4109f9c:	01c00084 	movi	r7,2
 4109fa0:	003f9d06 	br	4109e18 <__ram_exceptions_end+0xfc101bd4>
 4109fa4:	3446b03a 	or	r3,r6,r17
 4109fa8:	18001526 	beq	r3,zero,410a000 <__divdf3+0x2a8>
 4109fac:	88011b26 	beq	r17,zero,410a41c <__divdf3+0x6c4>
 4109fb0:	8809883a 	mov	r4,r17
 4109fb4:	d9800315 	stw	r6,12(sp)
 4109fb8:	da400115 	stw	r9,4(sp)
 4109fbc:	410bab00 	call	410bab0 <__clzsi2>
 4109fc0:	d9800317 	ldw	r6,12(sp)
 4109fc4:	da400117 	ldw	r9,4(sp)
 4109fc8:	113ffd44 	addi	r4,r2,-11
 4109fcc:	00c00704 	movi	r3,28
 4109fd0:	19010e16 	blt	r3,r4,410a40c <__divdf3+0x6b4>
 4109fd4:	00c00744 	movi	r3,29
 4109fd8:	123ffe04 	addi	r8,r2,-8
 4109fdc:	1907c83a 	sub	r3,r3,r4
 4109fe0:	8a22983a 	sll	r17,r17,r8
 4109fe4:	30c6d83a 	srl	r3,r6,r3
 4109fe8:	3210983a 	sll	r8,r6,r8
 4109fec:	1c62b03a 	or	r17,r3,r17
 4109ff0:	1080fcc4 	addi	r2,r2,1011
 4109ff4:	0085c83a 	sub	r2,zero,r2
 4109ff8:	000f883a 	mov	r7,zero
 4109ffc:	003f8606 	br	4109e18 <__ram_exceptions_end+0xfc101bd4>
 410a000:	0023883a 	mov	r17,zero
 410a004:	0011883a 	mov	r8,zero
 410a008:	01c00044 	movi	r7,1
 410a00c:	003f8206 	br	4109e18 <__ram_exceptions_end+0xfc101bd4>
 410a010:	01c000c4 	movi	r7,3
 410a014:	003f8006 	br	4109e18 <__ram_exceptions_end+0xfc101bd4>
 410a018:	04c00104 	movi	r19,4
 410a01c:	0021883a 	mov	r16,zero
 410a020:	0025883a 	mov	r18,zero
 410a024:	02400044 	movi	r9,1
 410a028:	003f6906 	br	4109dd0 <__ram_exceptions_end+0xfc101b8c>
 410a02c:	04c00304 	movi	r19,12
 410a030:	024000c4 	movi	r9,3
 410a034:	003f6606 	br	4109dd0 <__ram_exceptions_end+0xfc101b8c>
 410a038:	01400434 	movhi	r5,16
 410a03c:	0007883a 	mov	r3,zero
 410a040:	297fffc4 	addi	r5,r5,-1
 410a044:	04bfffc4 	movi	r18,-1
 410a048:	0081ffc4 	movi	r2,2047
 410a04c:	003fa106 	br	4109ed4 <__ram_exceptions_end+0xfc101c90>
 410a050:	00c00044 	movi	r3,1
 410a054:	1887c83a 	sub	r3,r3,r2
 410a058:	01000e04 	movi	r4,56
 410a05c:	20c1210e 	bge	r4,r3,410a4e4 <__divdf3+0x78c>
 410a060:	98c0004c 	andi	r3,r19,1
 410a064:	0005883a 	mov	r2,zero
 410a068:	000b883a 	mov	r5,zero
 410a06c:	0025883a 	mov	r18,zero
 410a070:	003f9806 	br	4109ed4 <__ram_exceptions_end+0xfc101c90>
 410a074:	8c00fd36 	bltu	r17,r16,410a46c <__divdf3+0x714>
 410a078:	8440fb26 	beq	r16,r17,410a468 <__divdf3+0x710>
 410a07c:	8007883a 	mov	r3,r16
 410a080:	ad7fffc4 	addi	r21,r21,-1
 410a084:	0021883a 	mov	r16,zero
 410a088:	4004d63a 	srli	r2,r8,24
 410a08c:	8822923a 	slli	r17,r17,8
 410a090:	1809883a 	mov	r4,r3
 410a094:	402c923a 	slli	r22,r8,8
 410a098:	88b8b03a 	or	fp,r17,r2
 410a09c:	e028d43a 	srli	r20,fp,16
 410a0a0:	d8c00015 	stw	r3,0(sp)
 410a0a4:	e5ffffcc 	andi	r23,fp,65535
 410a0a8:	a00b883a 	mov	r5,r20
 410a0ac:	4100eec0 	call	4100eec <__udivsi3>
 410a0b0:	d8c00017 	ldw	r3,0(sp)
 410a0b4:	a00b883a 	mov	r5,r20
 410a0b8:	d8800315 	stw	r2,12(sp)
 410a0bc:	1809883a 	mov	r4,r3
 410a0c0:	4100f500 	call	4100f50 <__umodsi3>
 410a0c4:	d9800317 	ldw	r6,12(sp)
 410a0c8:	1006943a 	slli	r3,r2,16
 410a0cc:	9004d43a 	srli	r2,r18,16
 410a0d0:	b9a3383a 	mul	r17,r23,r6
 410a0d4:	10c4b03a 	or	r2,r2,r3
 410a0d8:	1440062e 	bgeu	r2,r17,410a0f4 <__divdf3+0x39c>
 410a0dc:	1705883a 	add	r2,r2,fp
 410a0e0:	30ffffc4 	addi	r3,r6,-1
 410a0e4:	1700ee36 	bltu	r2,fp,410a4a0 <__divdf3+0x748>
 410a0e8:	1440ed2e 	bgeu	r2,r17,410a4a0 <__divdf3+0x748>
 410a0ec:	31bfff84 	addi	r6,r6,-2
 410a0f0:	1705883a 	add	r2,r2,fp
 410a0f4:	1463c83a 	sub	r17,r2,r17
 410a0f8:	a00b883a 	mov	r5,r20
 410a0fc:	8809883a 	mov	r4,r17
 410a100:	d9800315 	stw	r6,12(sp)
 410a104:	4100eec0 	call	4100eec <__udivsi3>
 410a108:	a00b883a 	mov	r5,r20
 410a10c:	8809883a 	mov	r4,r17
 410a110:	d8800215 	stw	r2,8(sp)
 410a114:	4100f500 	call	4100f50 <__umodsi3>
 410a118:	d9c00217 	ldw	r7,8(sp)
 410a11c:	1004943a 	slli	r2,r2,16
 410a120:	94bfffcc 	andi	r18,r18,65535
 410a124:	b9d1383a 	mul	r8,r23,r7
 410a128:	90a4b03a 	or	r18,r18,r2
 410a12c:	d9800317 	ldw	r6,12(sp)
 410a130:	9200062e 	bgeu	r18,r8,410a14c <__divdf3+0x3f4>
 410a134:	9725883a 	add	r18,r18,fp
 410a138:	38bfffc4 	addi	r2,r7,-1
 410a13c:	9700d636 	bltu	r18,fp,410a498 <__divdf3+0x740>
 410a140:	9200d52e 	bgeu	r18,r8,410a498 <__divdf3+0x740>
 410a144:	39ffff84 	addi	r7,r7,-2
 410a148:	9725883a 	add	r18,r18,fp
 410a14c:	3004943a 	slli	r2,r6,16
 410a150:	b012d43a 	srli	r9,r22,16
 410a154:	b1bfffcc 	andi	r6,r22,65535
 410a158:	11e2b03a 	or	r17,r2,r7
 410a15c:	8806d43a 	srli	r3,r17,16
 410a160:	893fffcc 	andi	r4,r17,65535
 410a164:	218b383a 	mul	r5,r4,r6
 410a168:	30c5383a 	mul	r2,r6,r3
 410a16c:	2249383a 	mul	r4,r4,r9
 410a170:	280ed43a 	srli	r7,r5,16
 410a174:	9225c83a 	sub	r18,r18,r8
 410a178:	2089883a 	add	r4,r4,r2
 410a17c:	3909883a 	add	r4,r7,r4
 410a180:	1a47383a 	mul	r3,r3,r9
 410a184:	2080022e 	bgeu	r4,r2,410a190 <__divdf3+0x438>
 410a188:	00800074 	movhi	r2,1
 410a18c:	1887883a 	add	r3,r3,r2
 410a190:	2004d43a 	srli	r2,r4,16
 410a194:	2008943a 	slli	r4,r4,16
 410a198:	297fffcc 	andi	r5,r5,65535
 410a19c:	10c7883a 	add	r3,r2,r3
 410a1a0:	2149883a 	add	r4,r4,r5
 410a1a4:	90c0a536 	bltu	r18,r3,410a43c <__divdf3+0x6e4>
 410a1a8:	90c0bf26 	beq	r18,r3,410a4a8 <__divdf3+0x750>
 410a1ac:	90c7c83a 	sub	r3,r18,r3
 410a1b0:	810fc83a 	sub	r7,r16,r4
 410a1b4:	81e5803a 	cmpltu	r18,r16,r7
 410a1b8:	1ca5c83a 	sub	r18,r3,r18
 410a1bc:	e480c126 	beq	fp,r18,410a4c4 <__divdf3+0x76c>
 410a1c0:	a00b883a 	mov	r5,r20
 410a1c4:	9009883a 	mov	r4,r18
 410a1c8:	d9800315 	stw	r6,12(sp)
 410a1cc:	d9c00215 	stw	r7,8(sp)
 410a1d0:	da400115 	stw	r9,4(sp)
 410a1d4:	4100eec0 	call	4100eec <__udivsi3>
 410a1d8:	a00b883a 	mov	r5,r20
 410a1dc:	9009883a 	mov	r4,r18
 410a1e0:	d8800015 	stw	r2,0(sp)
 410a1e4:	4100f500 	call	4100f50 <__umodsi3>
 410a1e8:	d9c00217 	ldw	r7,8(sp)
 410a1ec:	da000017 	ldw	r8,0(sp)
 410a1f0:	1006943a 	slli	r3,r2,16
 410a1f4:	3804d43a 	srli	r2,r7,16
 410a1f8:	ba21383a 	mul	r16,r23,r8
 410a1fc:	d9800317 	ldw	r6,12(sp)
 410a200:	10c4b03a 	or	r2,r2,r3
 410a204:	da400117 	ldw	r9,4(sp)
 410a208:	1400062e 	bgeu	r2,r16,410a224 <__divdf3+0x4cc>
 410a20c:	1705883a 	add	r2,r2,fp
 410a210:	40ffffc4 	addi	r3,r8,-1
 410a214:	1700ad36 	bltu	r2,fp,410a4cc <__divdf3+0x774>
 410a218:	1400ac2e 	bgeu	r2,r16,410a4cc <__divdf3+0x774>
 410a21c:	423fff84 	addi	r8,r8,-2
 410a220:	1705883a 	add	r2,r2,fp
 410a224:	1421c83a 	sub	r16,r2,r16
 410a228:	a00b883a 	mov	r5,r20
 410a22c:	8009883a 	mov	r4,r16
 410a230:	d9800315 	stw	r6,12(sp)
 410a234:	d9c00215 	stw	r7,8(sp)
 410a238:	da000015 	stw	r8,0(sp)
 410a23c:	da400115 	stw	r9,4(sp)
 410a240:	4100eec0 	call	4100eec <__udivsi3>
 410a244:	8009883a 	mov	r4,r16
 410a248:	a00b883a 	mov	r5,r20
 410a24c:	1025883a 	mov	r18,r2
 410a250:	4100f500 	call	4100f50 <__umodsi3>
 410a254:	d9c00217 	ldw	r7,8(sp)
 410a258:	1004943a 	slli	r2,r2,16
 410a25c:	bcaf383a 	mul	r23,r23,r18
 410a260:	393fffcc 	andi	r4,r7,65535
 410a264:	2088b03a 	or	r4,r4,r2
 410a268:	d9800317 	ldw	r6,12(sp)
 410a26c:	da000017 	ldw	r8,0(sp)
 410a270:	da400117 	ldw	r9,4(sp)
 410a274:	25c0062e 	bgeu	r4,r23,410a290 <__divdf3+0x538>
 410a278:	2709883a 	add	r4,r4,fp
 410a27c:	90bfffc4 	addi	r2,r18,-1
 410a280:	27009436 	bltu	r4,fp,410a4d4 <__divdf3+0x77c>
 410a284:	25c0932e 	bgeu	r4,r23,410a4d4 <__divdf3+0x77c>
 410a288:	94bfff84 	addi	r18,r18,-2
 410a28c:	2709883a 	add	r4,r4,fp
 410a290:	4004943a 	slli	r2,r8,16
 410a294:	25efc83a 	sub	r23,r4,r23
 410a298:	1490b03a 	or	r8,r2,r18
 410a29c:	4008d43a 	srli	r4,r8,16
 410a2a0:	40ffffcc 	andi	r3,r8,65535
 410a2a4:	30c5383a 	mul	r2,r6,r3
 410a2a8:	1a47383a 	mul	r3,r3,r9
 410a2ac:	310d383a 	mul	r6,r6,r4
 410a2b0:	100ad43a 	srli	r5,r2,16
 410a2b4:	4913383a 	mul	r9,r9,r4
 410a2b8:	1987883a 	add	r3,r3,r6
 410a2bc:	28c7883a 	add	r3,r5,r3
 410a2c0:	1980022e 	bgeu	r3,r6,410a2cc <__divdf3+0x574>
 410a2c4:	01000074 	movhi	r4,1
 410a2c8:	4913883a 	add	r9,r9,r4
 410a2cc:	1808d43a 	srli	r4,r3,16
 410a2d0:	1806943a 	slli	r3,r3,16
 410a2d4:	10bfffcc 	andi	r2,r2,65535
 410a2d8:	2253883a 	add	r9,r4,r9
 410a2dc:	1887883a 	add	r3,r3,r2
 410a2e0:	ba403836 	bltu	r23,r9,410a3c4 <__divdf3+0x66c>
 410a2e4:	ba403626 	beq	r23,r9,410a3c0 <__divdf3+0x668>
 410a2e8:	42000054 	ori	r8,r8,1
 410a2ec:	a880ffc4 	addi	r2,r21,1023
 410a2f0:	00bf570e 	bge	zero,r2,410a050 <__ram_exceptions_end+0xfc101e0c>
 410a2f4:	40c001cc 	andi	r3,r8,7
 410a2f8:	18000726 	beq	r3,zero,410a318 <__divdf3+0x5c0>
 410a2fc:	40c003cc 	andi	r3,r8,15
 410a300:	01000104 	movi	r4,4
 410a304:	19000426 	beq	r3,r4,410a318 <__divdf3+0x5c0>
 410a308:	4107883a 	add	r3,r8,r4
 410a30c:	1a11803a 	cmpltu	r8,r3,r8
 410a310:	8a23883a 	add	r17,r17,r8
 410a314:	1811883a 	mov	r8,r3
 410a318:	88c0402c 	andhi	r3,r17,256
 410a31c:	18000426 	beq	r3,zero,410a330 <__divdf3+0x5d8>
 410a320:	00ffc034 	movhi	r3,65280
 410a324:	18ffffc4 	addi	r3,r3,-1
 410a328:	a8810004 	addi	r2,r21,1024
 410a32c:	88e2703a 	and	r17,r17,r3
 410a330:	00c1ff84 	movi	r3,2046
 410a334:	18bee316 	blt	r3,r2,4109ec4 <__ram_exceptions_end+0xfc101c80>
 410a338:	8824977a 	slli	r18,r17,29
 410a33c:	4010d0fa 	srli	r8,r8,3
 410a340:	8822927a 	slli	r17,r17,9
 410a344:	1081ffcc 	andi	r2,r2,2047
 410a348:	9224b03a 	or	r18,r18,r8
 410a34c:	880ad33a 	srli	r5,r17,12
 410a350:	98c0004c 	andi	r3,r19,1
 410a354:	003edf06 	br	4109ed4 <__ram_exceptions_end+0xfc101c90>
 410a358:	8080022c 	andhi	r2,r16,8
 410a35c:	10001226 	beq	r2,zero,410a3a8 <__divdf3+0x650>
 410a360:	8880022c 	andhi	r2,r17,8
 410a364:	1000101e 	bne	r2,zero,410a3a8 <__divdf3+0x650>
 410a368:	00800434 	movhi	r2,16
 410a36c:	89400234 	orhi	r5,r17,8
 410a370:	10bfffc4 	addi	r2,r2,-1
 410a374:	b007883a 	mov	r3,r22
 410a378:	288a703a 	and	r5,r5,r2
 410a37c:	4025883a 	mov	r18,r8
 410a380:	003f3106 	br	410a048 <__ram_exceptions_end+0xfc101e04>
 410a384:	008000c4 	movi	r2,3
 410a388:	3880a626 	beq	r7,r2,410a624 <__divdf3+0x8cc>
 410a38c:	00800044 	movi	r2,1
 410a390:	3880521e 	bne	r7,r2,410a4dc <__divdf3+0x784>
 410a394:	b807883a 	mov	r3,r23
 410a398:	0005883a 	mov	r2,zero
 410a39c:	000b883a 	mov	r5,zero
 410a3a0:	0025883a 	mov	r18,zero
 410a3a4:	003ecb06 	br	4109ed4 <__ram_exceptions_end+0xfc101c90>
 410a3a8:	00800434 	movhi	r2,16
 410a3ac:	81400234 	orhi	r5,r16,8
 410a3b0:	10bfffc4 	addi	r2,r2,-1
 410a3b4:	a007883a 	mov	r3,r20
 410a3b8:	288a703a 	and	r5,r5,r2
 410a3bc:	003f2206 	br	410a048 <__ram_exceptions_end+0xfc101e04>
 410a3c0:	183fca26 	beq	r3,zero,410a2ec <__ram_exceptions_end+0xfc1020a8>
 410a3c4:	e5ef883a 	add	r23,fp,r23
 410a3c8:	40bfffc4 	addi	r2,r8,-1
 410a3cc:	bf00392e 	bgeu	r23,fp,410a4b4 <__divdf3+0x75c>
 410a3d0:	1011883a 	mov	r8,r2
 410a3d4:	ba7fc41e 	bne	r23,r9,410a2e8 <__ram_exceptions_end+0xfc1020a4>
 410a3d8:	b0ffc31e 	bne	r22,r3,410a2e8 <__ram_exceptions_end+0xfc1020a4>
 410a3dc:	003fc306 	br	410a2ec <__ram_exceptions_end+0xfc1020a8>
 410a3e0:	143ff604 	addi	r16,r2,-40
 410a3e4:	9c20983a 	sll	r16,r19,r16
 410a3e8:	0025883a 	mov	r18,zero
 410a3ec:	003ee206 	br	4109f78 <__ram_exceptions_end+0xfc101d34>
 410a3f0:	d9800315 	stw	r6,12(sp)
 410a3f4:	d9c00215 	stw	r7,8(sp)
 410a3f8:	410bab00 	call	410bab0 <__clzsi2>
 410a3fc:	10800804 	addi	r2,r2,32
 410a400:	d9c00217 	ldw	r7,8(sp)
 410a404:	d9800317 	ldw	r6,12(sp)
 410a408:	003ed106 	br	4109f50 <__ram_exceptions_end+0xfc101d0c>
 410a40c:	147ff604 	addi	r17,r2,-40
 410a410:	3462983a 	sll	r17,r6,r17
 410a414:	0011883a 	mov	r8,zero
 410a418:	003ef506 	br	4109ff0 <__ram_exceptions_end+0xfc101dac>
 410a41c:	3009883a 	mov	r4,r6
 410a420:	d9800315 	stw	r6,12(sp)
 410a424:	da400115 	stw	r9,4(sp)
 410a428:	410bab00 	call	410bab0 <__clzsi2>
 410a42c:	10800804 	addi	r2,r2,32
 410a430:	da400117 	ldw	r9,4(sp)
 410a434:	d9800317 	ldw	r6,12(sp)
 410a438:	003ee306 	br	4109fc8 <__ram_exceptions_end+0xfc101d84>
 410a43c:	85a1883a 	add	r16,r16,r22
 410a440:	8585803a 	cmpltu	r2,r16,r22
 410a444:	1705883a 	add	r2,r2,fp
 410a448:	14a5883a 	add	r18,r2,r18
 410a44c:	88bfffc4 	addi	r2,r17,-1
 410a450:	e4800c2e 	bgeu	fp,r18,410a484 <__divdf3+0x72c>
 410a454:	90c03e36 	bltu	r18,r3,410a550 <__divdf3+0x7f8>
 410a458:	1c806926 	beq	r3,r18,410a600 <__divdf3+0x8a8>
 410a45c:	90c7c83a 	sub	r3,r18,r3
 410a460:	1023883a 	mov	r17,r2
 410a464:	003f5206 	br	410a1b0 <__ram_exceptions_end+0xfc101f6c>
 410a468:	923f0436 	bltu	r18,r8,410a07c <__ram_exceptions_end+0xfc101e38>
 410a46c:	800897fa 	slli	r4,r16,31
 410a470:	9004d07a 	srli	r2,r18,1
 410a474:	8006d07a 	srli	r3,r16,1
 410a478:	902097fa 	slli	r16,r18,31
 410a47c:	20a4b03a 	or	r18,r4,r2
 410a480:	003f0106 	br	410a088 <__ram_exceptions_end+0xfc101e44>
 410a484:	e4bff51e 	bne	fp,r18,410a45c <__ram_exceptions_end+0xfc102218>
 410a488:	85bff22e 	bgeu	r16,r22,410a454 <__ram_exceptions_end+0xfc102210>
 410a48c:	e0c7c83a 	sub	r3,fp,r3
 410a490:	1023883a 	mov	r17,r2
 410a494:	003f4606 	br	410a1b0 <__ram_exceptions_end+0xfc101f6c>
 410a498:	100f883a 	mov	r7,r2
 410a49c:	003f2b06 	br	410a14c <__ram_exceptions_end+0xfc101f08>
 410a4a0:	180d883a 	mov	r6,r3
 410a4a4:	003f1306 	br	410a0f4 <__ram_exceptions_end+0xfc101eb0>
 410a4a8:	813fe436 	bltu	r16,r4,410a43c <__ram_exceptions_end+0xfc1021f8>
 410a4ac:	0007883a 	mov	r3,zero
 410a4b0:	003f3f06 	br	410a1b0 <__ram_exceptions_end+0xfc101f6c>
 410a4b4:	ba402c36 	bltu	r23,r9,410a568 <__divdf3+0x810>
 410a4b8:	4dc05426 	beq	r9,r23,410a60c <__divdf3+0x8b4>
 410a4bc:	1011883a 	mov	r8,r2
 410a4c0:	003f8906 	br	410a2e8 <__ram_exceptions_end+0xfc1020a4>
 410a4c4:	023fffc4 	movi	r8,-1
 410a4c8:	003f8806 	br	410a2ec <__ram_exceptions_end+0xfc1020a8>
 410a4cc:	1811883a 	mov	r8,r3
 410a4d0:	003f5406 	br	410a224 <__ram_exceptions_end+0xfc101fe0>
 410a4d4:	1025883a 	mov	r18,r2
 410a4d8:	003f6d06 	br	410a290 <__ram_exceptions_end+0xfc10204c>
 410a4dc:	b827883a 	mov	r19,r23
 410a4e0:	003f8206 	br	410a2ec <__ram_exceptions_end+0xfc1020a8>
 410a4e4:	010007c4 	movi	r4,31
 410a4e8:	20c02616 	blt	r4,r3,410a584 <__divdf3+0x82c>
 410a4ec:	00800804 	movi	r2,32
 410a4f0:	10c5c83a 	sub	r2,r2,r3
 410a4f4:	888a983a 	sll	r5,r17,r2
 410a4f8:	40c8d83a 	srl	r4,r8,r3
 410a4fc:	4084983a 	sll	r2,r8,r2
 410a500:	88e2d83a 	srl	r17,r17,r3
 410a504:	2906b03a 	or	r3,r5,r4
 410a508:	1004c03a 	cmpne	r2,r2,zero
 410a50c:	1886b03a 	or	r3,r3,r2
 410a510:	188001cc 	andi	r2,r3,7
 410a514:	10000726 	beq	r2,zero,410a534 <__divdf3+0x7dc>
 410a518:	188003cc 	andi	r2,r3,15
 410a51c:	01000104 	movi	r4,4
 410a520:	11000426 	beq	r2,r4,410a534 <__divdf3+0x7dc>
 410a524:	1805883a 	mov	r2,r3
 410a528:	10c00104 	addi	r3,r2,4
 410a52c:	1885803a 	cmpltu	r2,r3,r2
 410a530:	88a3883a 	add	r17,r17,r2
 410a534:	8880202c 	andhi	r2,r17,128
 410a538:	10002726 	beq	r2,zero,410a5d8 <__divdf3+0x880>
 410a53c:	98c0004c 	andi	r3,r19,1
 410a540:	00800044 	movi	r2,1
 410a544:	000b883a 	mov	r5,zero
 410a548:	0025883a 	mov	r18,zero
 410a54c:	003e6106 	br	4109ed4 <__ram_exceptions_end+0xfc101c90>
 410a550:	85a1883a 	add	r16,r16,r22
 410a554:	8585803a 	cmpltu	r2,r16,r22
 410a558:	1705883a 	add	r2,r2,fp
 410a55c:	14a5883a 	add	r18,r2,r18
 410a560:	8c7fff84 	addi	r17,r17,-2
 410a564:	003f1106 	br	410a1ac <__ram_exceptions_end+0xfc101f68>
 410a568:	b589883a 	add	r4,r22,r22
 410a56c:	25ad803a 	cmpltu	r22,r4,r22
 410a570:	b739883a 	add	fp,r22,fp
 410a574:	40bfff84 	addi	r2,r8,-2
 410a578:	bf2f883a 	add	r23,r23,fp
 410a57c:	202d883a 	mov	r22,r4
 410a580:	003f9306 	br	410a3d0 <__ram_exceptions_end+0xfc10218c>
 410a584:	013ff844 	movi	r4,-31
 410a588:	2085c83a 	sub	r2,r4,r2
 410a58c:	8888d83a 	srl	r4,r17,r2
 410a590:	00800804 	movi	r2,32
 410a594:	18802126 	beq	r3,r2,410a61c <__divdf3+0x8c4>
 410a598:	00801004 	movi	r2,64
 410a59c:	10c5c83a 	sub	r2,r2,r3
 410a5a0:	8884983a 	sll	r2,r17,r2
 410a5a4:	1204b03a 	or	r2,r2,r8
 410a5a8:	1004c03a 	cmpne	r2,r2,zero
 410a5ac:	2084b03a 	or	r2,r4,r2
 410a5b0:	144001cc 	andi	r17,r2,7
 410a5b4:	88000d1e 	bne	r17,zero,410a5ec <__divdf3+0x894>
 410a5b8:	000b883a 	mov	r5,zero
 410a5bc:	1024d0fa 	srli	r18,r2,3
 410a5c0:	98c0004c 	andi	r3,r19,1
 410a5c4:	0005883a 	mov	r2,zero
 410a5c8:	9464b03a 	or	r18,r18,r17
 410a5cc:	003e4106 	br	4109ed4 <__ram_exceptions_end+0xfc101c90>
 410a5d0:	1007883a 	mov	r3,r2
 410a5d4:	0023883a 	mov	r17,zero
 410a5d8:	880a927a 	slli	r5,r17,9
 410a5dc:	1805883a 	mov	r2,r3
 410a5e0:	8822977a 	slli	r17,r17,29
 410a5e4:	280ad33a 	srli	r5,r5,12
 410a5e8:	003ff406 	br	410a5bc <__ram_exceptions_end+0xfc102378>
 410a5ec:	10c003cc 	andi	r3,r2,15
 410a5f0:	01000104 	movi	r4,4
 410a5f4:	193ff626 	beq	r3,r4,410a5d0 <__ram_exceptions_end+0xfc10238c>
 410a5f8:	0023883a 	mov	r17,zero
 410a5fc:	003fca06 	br	410a528 <__ram_exceptions_end+0xfc1022e4>
 410a600:	813fd336 	bltu	r16,r4,410a550 <__ram_exceptions_end+0xfc10230c>
 410a604:	1023883a 	mov	r17,r2
 410a608:	003fa806 	br	410a4ac <__ram_exceptions_end+0xfc102268>
 410a60c:	b0ffd636 	bltu	r22,r3,410a568 <__ram_exceptions_end+0xfc102324>
 410a610:	1011883a 	mov	r8,r2
 410a614:	b0ff341e 	bne	r22,r3,410a2e8 <__ram_exceptions_end+0xfc1020a4>
 410a618:	003f3406 	br	410a2ec <__ram_exceptions_end+0xfc1020a8>
 410a61c:	0005883a 	mov	r2,zero
 410a620:	003fe006 	br	410a5a4 <__ram_exceptions_end+0xfc102360>
 410a624:	00800434 	movhi	r2,16
 410a628:	89400234 	orhi	r5,r17,8
 410a62c:	10bfffc4 	addi	r2,r2,-1
 410a630:	b807883a 	mov	r3,r23
 410a634:	288a703a 	and	r5,r5,r2
 410a638:	4025883a 	mov	r18,r8
 410a63c:	003e8206 	br	410a048 <__ram_exceptions_end+0xfc101e04>

0410a640 <__eqdf2>:
 410a640:	2804d53a 	srli	r2,r5,20
 410a644:	3806d53a 	srli	r3,r7,20
 410a648:	02000434 	movhi	r8,16
 410a64c:	423fffc4 	addi	r8,r8,-1
 410a650:	1081ffcc 	andi	r2,r2,2047
 410a654:	0281ffc4 	movi	r10,2047
 410a658:	2a12703a 	and	r9,r5,r8
 410a65c:	18c1ffcc 	andi	r3,r3,2047
 410a660:	3a10703a 	and	r8,r7,r8
 410a664:	280ad7fa 	srli	r5,r5,31
 410a668:	380ed7fa 	srli	r7,r7,31
 410a66c:	12801026 	beq	r2,r10,410a6b0 <__eqdf2+0x70>
 410a670:	0281ffc4 	movi	r10,2047
 410a674:	1a800a26 	beq	r3,r10,410a6a0 <__eqdf2+0x60>
 410a678:	10c00226 	beq	r2,r3,410a684 <__eqdf2+0x44>
 410a67c:	00800044 	movi	r2,1
 410a680:	f800283a 	ret
 410a684:	4a3ffd1e 	bne	r9,r8,410a67c <__ram_exceptions_end+0xfc102438>
 410a688:	21bffc1e 	bne	r4,r6,410a67c <__ram_exceptions_end+0xfc102438>
 410a68c:	29c00c26 	beq	r5,r7,410a6c0 <__eqdf2+0x80>
 410a690:	103ffa1e 	bne	r2,zero,410a67c <__ram_exceptions_end+0xfc102438>
 410a694:	2244b03a 	or	r2,r4,r9
 410a698:	1004c03a 	cmpne	r2,r2,zero
 410a69c:	f800283a 	ret
 410a6a0:	3214b03a 	or	r10,r6,r8
 410a6a4:	503ff426 	beq	r10,zero,410a678 <__ram_exceptions_end+0xfc102434>
 410a6a8:	00800044 	movi	r2,1
 410a6ac:	f800283a 	ret
 410a6b0:	2254b03a 	or	r10,r4,r9
 410a6b4:	503fee26 	beq	r10,zero,410a670 <__ram_exceptions_end+0xfc10242c>
 410a6b8:	00800044 	movi	r2,1
 410a6bc:	f800283a 	ret
 410a6c0:	0005883a 	mov	r2,zero
 410a6c4:	f800283a 	ret

0410a6c8 <__gedf2>:
 410a6c8:	2804d53a 	srli	r2,r5,20
 410a6cc:	3806d53a 	srli	r3,r7,20
 410a6d0:	02000434 	movhi	r8,16
 410a6d4:	423fffc4 	addi	r8,r8,-1
 410a6d8:	1081ffcc 	andi	r2,r2,2047
 410a6dc:	0241ffc4 	movi	r9,2047
 410a6e0:	2a14703a 	and	r10,r5,r8
 410a6e4:	18c1ffcc 	andi	r3,r3,2047
 410a6e8:	3a10703a 	and	r8,r7,r8
 410a6ec:	280ad7fa 	srli	r5,r5,31
 410a6f0:	380ed7fa 	srli	r7,r7,31
 410a6f4:	12401d26 	beq	r2,r9,410a76c <__gedf2+0xa4>
 410a6f8:	0241ffc4 	movi	r9,2047
 410a6fc:	1a401226 	beq	r3,r9,410a748 <__gedf2+0x80>
 410a700:	1000081e 	bne	r2,zero,410a724 <__gedf2+0x5c>
 410a704:	2296b03a 	or	r11,r4,r10
 410a708:	5813003a 	cmpeq	r9,r11,zero
 410a70c:	1800091e 	bne	r3,zero,410a734 <__gedf2+0x6c>
 410a710:	3218b03a 	or	r12,r6,r8
 410a714:	6000071e 	bne	r12,zero,410a734 <__gedf2+0x6c>
 410a718:	0005883a 	mov	r2,zero
 410a71c:	5800101e 	bne	r11,zero,410a760 <__gedf2+0x98>
 410a720:	f800283a 	ret
 410a724:	18000c1e 	bne	r3,zero,410a758 <__gedf2+0x90>
 410a728:	3212b03a 	or	r9,r6,r8
 410a72c:	48000c26 	beq	r9,zero,410a760 <__gedf2+0x98>
 410a730:	0013883a 	mov	r9,zero
 410a734:	39c03fcc 	andi	r7,r7,255
 410a738:	48000826 	beq	r9,zero,410a75c <__gedf2+0x94>
 410a73c:	38000926 	beq	r7,zero,410a764 <__gedf2+0x9c>
 410a740:	00800044 	movi	r2,1
 410a744:	f800283a 	ret
 410a748:	3212b03a 	or	r9,r6,r8
 410a74c:	483fec26 	beq	r9,zero,410a700 <__ram_exceptions_end+0xfc1024bc>
 410a750:	00bfff84 	movi	r2,-2
 410a754:	f800283a 	ret
 410a758:	39c03fcc 	andi	r7,r7,255
 410a75c:	29c00626 	beq	r5,r7,410a778 <__gedf2+0xb0>
 410a760:	283ff726 	beq	r5,zero,410a740 <__ram_exceptions_end+0xfc1024fc>
 410a764:	00bfffc4 	movi	r2,-1
 410a768:	f800283a 	ret
 410a76c:	2292b03a 	or	r9,r4,r10
 410a770:	483fe126 	beq	r9,zero,410a6f8 <__ram_exceptions_end+0xfc1024b4>
 410a774:	003ff606 	br	410a750 <__ram_exceptions_end+0xfc10250c>
 410a778:	18bff916 	blt	r3,r2,410a760 <__ram_exceptions_end+0xfc10251c>
 410a77c:	10c00316 	blt	r2,r3,410a78c <__gedf2+0xc4>
 410a780:	42bff736 	bltu	r8,r10,410a760 <__ram_exceptions_end+0xfc10251c>
 410a784:	52000326 	beq	r10,r8,410a794 <__gedf2+0xcc>
 410a788:	5200042e 	bgeu	r10,r8,410a79c <__gedf2+0xd4>
 410a78c:	283fec1e 	bne	r5,zero,410a740 <__ram_exceptions_end+0xfc1024fc>
 410a790:	003ff406 	br	410a764 <__ram_exceptions_end+0xfc102520>
 410a794:	313ff236 	bltu	r6,r4,410a760 <__ram_exceptions_end+0xfc10251c>
 410a798:	21bffc36 	bltu	r4,r6,410a78c <__ram_exceptions_end+0xfc102548>
 410a79c:	0005883a 	mov	r2,zero
 410a7a0:	f800283a 	ret

0410a7a4 <__ledf2>:
 410a7a4:	2804d53a 	srli	r2,r5,20
 410a7a8:	3810d53a 	srli	r8,r7,20
 410a7ac:	00c00434 	movhi	r3,16
 410a7b0:	18ffffc4 	addi	r3,r3,-1
 410a7b4:	1081ffcc 	andi	r2,r2,2047
 410a7b8:	0241ffc4 	movi	r9,2047
 410a7bc:	28d4703a 	and	r10,r5,r3
 410a7c0:	4201ffcc 	andi	r8,r8,2047
 410a7c4:	38c6703a 	and	r3,r7,r3
 410a7c8:	280ad7fa 	srli	r5,r5,31
 410a7cc:	380ed7fa 	srli	r7,r7,31
 410a7d0:	12401f26 	beq	r2,r9,410a850 <__ledf2+0xac>
 410a7d4:	0241ffc4 	movi	r9,2047
 410a7d8:	42401426 	beq	r8,r9,410a82c <__ledf2+0x88>
 410a7dc:	1000091e 	bne	r2,zero,410a804 <__ledf2+0x60>
 410a7e0:	2296b03a 	or	r11,r4,r10
 410a7e4:	5813003a 	cmpeq	r9,r11,zero
 410a7e8:	29403fcc 	andi	r5,r5,255
 410a7ec:	40000a1e 	bne	r8,zero,410a818 <__ledf2+0x74>
 410a7f0:	30d8b03a 	or	r12,r6,r3
 410a7f4:	6000081e 	bne	r12,zero,410a818 <__ledf2+0x74>
 410a7f8:	0005883a 	mov	r2,zero
 410a7fc:	5800111e 	bne	r11,zero,410a844 <__ledf2+0xa0>
 410a800:	f800283a 	ret
 410a804:	29403fcc 	andi	r5,r5,255
 410a808:	40000c1e 	bne	r8,zero,410a83c <__ledf2+0x98>
 410a80c:	30d2b03a 	or	r9,r6,r3
 410a810:	48000c26 	beq	r9,zero,410a844 <__ledf2+0xa0>
 410a814:	0013883a 	mov	r9,zero
 410a818:	39c03fcc 	andi	r7,r7,255
 410a81c:	48000826 	beq	r9,zero,410a840 <__ledf2+0x9c>
 410a820:	38001126 	beq	r7,zero,410a868 <__ledf2+0xc4>
 410a824:	00800044 	movi	r2,1
 410a828:	f800283a 	ret
 410a82c:	30d2b03a 	or	r9,r6,r3
 410a830:	483fea26 	beq	r9,zero,410a7dc <__ram_exceptions_end+0xfc102598>
 410a834:	00800084 	movi	r2,2
 410a838:	f800283a 	ret
 410a83c:	39c03fcc 	andi	r7,r7,255
 410a840:	39400726 	beq	r7,r5,410a860 <__ledf2+0xbc>
 410a844:	2800081e 	bne	r5,zero,410a868 <__ledf2+0xc4>
 410a848:	00800044 	movi	r2,1
 410a84c:	f800283a 	ret
 410a850:	2292b03a 	or	r9,r4,r10
 410a854:	483fdf26 	beq	r9,zero,410a7d4 <__ram_exceptions_end+0xfc102590>
 410a858:	00800084 	movi	r2,2
 410a85c:	f800283a 	ret
 410a860:	4080030e 	bge	r8,r2,410a870 <__ledf2+0xcc>
 410a864:	383fef26 	beq	r7,zero,410a824 <__ram_exceptions_end+0xfc1025e0>
 410a868:	00bfffc4 	movi	r2,-1
 410a86c:	f800283a 	ret
 410a870:	123feb16 	blt	r2,r8,410a820 <__ram_exceptions_end+0xfc1025dc>
 410a874:	1abff336 	bltu	r3,r10,410a844 <__ram_exceptions_end+0xfc102600>
 410a878:	50c00326 	beq	r10,r3,410a888 <__ledf2+0xe4>
 410a87c:	50c0042e 	bgeu	r10,r3,410a890 <__ledf2+0xec>
 410a880:	283fe81e 	bne	r5,zero,410a824 <__ram_exceptions_end+0xfc1025e0>
 410a884:	003ff806 	br	410a868 <__ram_exceptions_end+0xfc102624>
 410a888:	313fee36 	bltu	r6,r4,410a844 <__ram_exceptions_end+0xfc102600>
 410a88c:	21bffc36 	bltu	r4,r6,410a880 <__ram_exceptions_end+0xfc10263c>
 410a890:	0005883a 	mov	r2,zero
 410a894:	f800283a 	ret

0410a898 <__muldf3>:
 410a898:	defff304 	addi	sp,sp,-52
 410a89c:	2804d53a 	srli	r2,r5,20
 410a8a0:	dd800915 	stw	r22,36(sp)
 410a8a4:	282cd7fa 	srli	r22,r5,31
 410a8a8:	dc000315 	stw	r16,12(sp)
 410a8ac:	04000434 	movhi	r16,16
 410a8b0:	dd400815 	stw	r21,32(sp)
 410a8b4:	dc800515 	stw	r18,20(sp)
 410a8b8:	843fffc4 	addi	r16,r16,-1
 410a8bc:	dfc00c15 	stw	ra,48(sp)
 410a8c0:	df000b15 	stw	fp,44(sp)
 410a8c4:	ddc00a15 	stw	r23,40(sp)
 410a8c8:	dd000715 	stw	r20,28(sp)
 410a8cc:	dcc00615 	stw	r19,24(sp)
 410a8d0:	dc400415 	stw	r17,16(sp)
 410a8d4:	1481ffcc 	andi	r18,r2,2047
 410a8d8:	2c20703a 	and	r16,r5,r16
 410a8dc:	b02b883a 	mov	r21,r22
 410a8e0:	b2403fcc 	andi	r9,r22,255
 410a8e4:	90006026 	beq	r18,zero,410aa68 <__muldf3+0x1d0>
 410a8e8:	0081ffc4 	movi	r2,2047
 410a8ec:	2029883a 	mov	r20,r4
 410a8f0:	90803626 	beq	r18,r2,410a9cc <__muldf3+0x134>
 410a8f4:	80800434 	orhi	r2,r16,16
 410a8f8:	100490fa 	slli	r2,r2,3
 410a8fc:	2020d77a 	srli	r16,r4,29
 410a900:	202890fa 	slli	r20,r4,3
 410a904:	94bf0044 	addi	r18,r18,-1023
 410a908:	80a0b03a 	or	r16,r16,r2
 410a90c:	0027883a 	mov	r19,zero
 410a910:	0039883a 	mov	fp,zero
 410a914:	3804d53a 	srli	r2,r7,20
 410a918:	382ed7fa 	srli	r23,r7,31
 410a91c:	04400434 	movhi	r17,16
 410a920:	8c7fffc4 	addi	r17,r17,-1
 410a924:	1081ffcc 	andi	r2,r2,2047
 410a928:	3011883a 	mov	r8,r6
 410a92c:	3c62703a 	and	r17,r7,r17
 410a930:	ba803fcc 	andi	r10,r23,255
 410a934:	10006d26 	beq	r2,zero,410aaec <__muldf3+0x254>
 410a938:	00c1ffc4 	movi	r3,2047
 410a93c:	10c06526 	beq	r2,r3,410aad4 <__muldf3+0x23c>
 410a940:	88c00434 	orhi	r3,r17,16
 410a944:	180690fa 	slli	r3,r3,3
 410a948:	3022d77a 	srli	r17,r6,29
 410a94c:	301090fa 	slli	r8,r6,3
 410a950:	10bf0044 	addi	r2,r2,-1023
 410a954:	88e2b03a 	or	r17,r17,r3
 410a958:	000b883a 	mov	r5,zero
 410a95c:	9085883a 	add	r2,r18,r2
 410a960:	2cc8b03a 	or	r4,r5,r19
 410a964:	00c003c4 	movi	r3,15
 410a968:	bdacf03a 	xor	r22,r23,r22
 410a96c:	12c00044 	addi	r11,r2,1
 410a970:	19009936 	bltu	r3,r4,410abd8 <__muldf3+0x340>
 410a974:	200890ba 	slli	r4,r4,2
 410a978:	00c10474 	movhi	r3,1041
 410a97c:	18ea6304 	addi	r3,r3,-22132
 410a980:	20c9883a 	add	r4,r4,r3
 410a984:	20c00017 	ldw	r3,0(r4)
 410a988:	1800683a 	jmp	r3
 410a98c:	0410abd8 	cmpnei	r16,zero,17071
 410a990:	0410a9ec 	andhi	r16,zero,17063
 410a994:	0410a9ec 	andhi	r16,zero,17063
 410a998:	0410a9e8 	cmpgeui	r16,zero,17063
 410a99c:	0410abb4 	movhi	r16,17070
 410a9a0:	0410abb4 	movhi	r16,17070
 410a9a4:	0410ab9c 	xori	r16,zero,17070
 410a9a8:	0410a9e8 	cmpgeui	r16,zero,17063
 410a9ac:	0410abb4 	movhi	r16,17070
 410a9b0:	0410ab9c 	xori	r16,zero,17070
 410a9b4:	0410abb4 	movhi	r16,17070
 410a9b8:	0410a9e8 	cmpgeui	r16,zero,17063
 410a9bc:	0410abc4 	movi	r16,17071
 410a9c0:	0410abc4 	movi	r16,17071
 410a9c4:	0410abc4 	movi	r16,17071
 410a9c8:	0410ade0 	cmpeqi	r16,zero,17079
 410a9cc:	2404b03a 	or	r2,r4,r16
 410a9d0:	10006f1e 	bne	r2,zero,410ab90 <__muldf3+0x2f8>
 410a9d4:	04c00204 	movi	r19,8
 410a9d8:	0021883a 	mov	r16,zero
 410a9dc:	0029883a 	mov	r20,zero
 410a9e0:	07000084 	movi	fp,2
 410a9e4:	003fcb06 	br	410a914 <__ram_exceptions_end+0xfc1026d0>
 410a9e8:	502d883a 	mov	r22,r10
 410a9ec:	00800084 	movi	r2,2
 410a9f0:	28805726 	beq	r5,r2,410ab50 <__muldf3+0x2b8>
 410a9f4:	008000c4 	movi	r2,3
 410a9f8:	28816626 	beq	r5,r2,410af94 <__muldf3+0x6fc>
 410a9fc:	00800044 	movi	r2,1
 410aa00:	2881411e 	bne	r5,r2,410af08 <__muldf3+0x670>
 410aa04:	b02b883a 	mov	r21,r22
 410aa08:	0005883a 	mov	r2,zero
 410aa0c:	000b883a 	mov	r5,zero
 410aa10:	0029883a 	mov	r20,zero
 410aa14:	1004953a 	slli	r2,r2,20
 410aa18:	a8c03fcc 	andi	r3,r21,255
 410aa1c:	04400434 	movhi	r17,16
 410aa20:	8c7fffc4 	addi	r17,r17,-1
 410aa24:	180697fa 	slli	r3,r3,31
 410aa28:	2c4a703a 	and	r5,r5,r17
 410aa2c:	288ab03a 	or	r5,r5,r2
 410aa30:	28c6b03a 	or	r3,r5,r3
 410aa34:	a005883a 	mov	r2,r20
 410aa38:	dfc00c17 	ldw	ra,48(sp)
 410aa3c:	df000b17 	ldw	fp,44(sp)
 410aa40:	ddc00a17 	ldw	r23,40(sp)
 410aa44:	dd800917 	ldw	r22,36(sp)
 410aa48:	dd400817 	ldw	r21,32(sp)
 410aa4c:	dd000717 	ldw	r20,28(sp)
 410aa50:	dcc00617 	ldw	r19,24(sp)
 410aa54:	dc800517 	ldw	r18,20(sp)
 410aa58:	dc400417 	ldw	r17,16(sp)
 410aa5c:	dc000317 	ldw	r16,12(sp)
 410aa60:	dec00d04 	addi	sp,sp,52
 410aa64:	f800283a 	ret
 410aa68:	2404b03a 	or	r2,r4,r16
 410aa6c:	2027883a 	mov	r19,r4
 410aa70:	10004226 	beq	r2,zero,410ab7c <__muldf3+0x2e4>
 410aa74:	8000fc26 	beq	r16,zero,410ae68 <__muldf3+0x5d0>
 410aa78:	8009883a 	mov	r4,r16
 410aa7c:	d9800215 	stw	r6,8(sp)
 410aa80:	d9c00015 	stw	r7,0(sp)
 410aa84:	da400115 	stw	r9,4(sp)
 410aa88:	410bab00 	call	410bab0 <__clzsi2>
 410aa8c:	d9800217 	ldw	r6,8(sp)
 410aa90:	d9c00017 	ldw	r7,0(sp)
 410aa94:	da400117 	ldw	r9,4(sp)
 410aa98:	113ffd44 	addi	r4,r2,-11
 410aa9c:	00c00704 	movi	r3,28
 410aaa0:	1900ed16 	blt	r3,r4,410ae58 <__muldf3+0x5c0>
 410aaa4:	00c00744 	movi	r3,29
 410aaa8:	147ffe04 	addi	r17,r2,-8
 410aaac:	1907c83a 	sub	r3,r3,r4
 410aab0:	8460983a 	sll	r16,r16,r17
 410aab4:	98c6d83a 	srl	r3,r19,r3
 410aab8:	9c68983a 	sll	r20,r19,r17
 410aabc:	1c20b03a 	or	r16,r3,r16
 410aac0:	1080fcc4 	addi	r2,r2,1011
 410aac4:	00a5c83a 	sub	r18,zero,r2
 410aac8:	0027883a 	mov	r19,zero
 410aacc:	0039883a 	mov	fp,zero
 410aad0:	003f9006 	br	410a914 <__ram_exceptions_end+0xfc1026d0>
 410aad4:	3446b03a 	or	r3,r6,r17
 410aad8:	1800261e 	bne	r3,zero,410ab74 <__muldf3+0x2dc>
 410aadc:	0023883a 	mov	r17,zero
 410aae0:	0011883a 	mov	r8,zero
 410aae4:	01400084 	movi	r5,2
 410aae8:	003f9c06 	br	410a95c <__ram_exceptions_end+0xfc102718>
 410aaec:	3446b03a 	or	r3,r6,r17
 410aaf0:	18001c26 	beq	r3,zero,410ab64 <__muldf3+0x2cc>
 410aaf4:	8800ce26 	beq	r17,zero,410ae30 <__muldf3+0x598>
 410aaf8:	8809883a 	mov	r4,r17
 410aafc:	d9800215 	stw	r6,8(sp)
 410ab00:	da400115 	stw	r9,4(sp)
 410ab04:	da800015 	stw	r10,0(sp)
 410ab08:	410bab00 	call	410bab0 <__clzsi2>
 410ab0c:	d9800217 	ldw	r6,8(sp)
 410ab10:	da400117 	ldw	r9,4(sp)
 410ab14:	da800017 	ldw	r10,0(sp)
 410ab18:	113ffd44 	addi	r4,r2,-11
 410ab1c:	00c00704 	movi	r3,28
 410ab20:	1900bf16 	blt	r3,r4,410ae20 <__muldf3+0x588>
 410ab24:	00c00744 	movi	r3,29
 410ab28:	123ffe04 	addi	r8,r2,-8
 410ab2c:	1907c83a 	sub	r3,r3,r4
 410ab30:	8a22983a 	sll	r17,r17,r8
 410ab34:	30c6d83a 	srl	r3,r6,r3
 410ab38:	3210983a 	sll	r8,r6,r8
 410ab3c:	1c62b03a 	or	r17,r3,r17
 410ab40:	1080fcc4 	addi	r2,r2,1011
 410ab44:	0085c83a 	sub	r2,zero,r2
 410ab48:	000b883a 	mov	r5,zero
 410ab4c:	003f8306 	br	410a95c <__ram_exceptions_end+0xfc102718>
 410ab50:	b02b883a 	mov	r21,r22
 410ab54:	0081ffc4 	movi	r2,2047
 410ab58:	000b883a 	mov	r5,zero
 410ab5c:	0029883a 	mov	r20,zero
 410ab60:	003fac06 	br	410aa14 <__ram_exceptions_end+0xfc1027d0>
 410ab64:	0023883a 	mov	r17,zero
 410ab68:	0011883a 	mov	r8,zero
 410ab6c:	01400044 	movi	r5,1
 410ab70:	003f7a06 	br	410a95c <__ram_exceptions_end+0xfc102718>
 410ab74:	014000c4 	movi	r5,3
 410ab78:	003f7806 	br	410a95c <__ram_exceptions_end+0xfc102718>
 410ab7c:	04c00104 	movi	r19,4
 410ab80:	0021883a 	mov	r16,zero
 410ab84:	0029883a 	mov	r20,zero
 410ab88:	07000044 	movi	fp,1
 410ab8c:	003f6106 	br	410a914 <__ram_exceptions_end+0xfc1026d0>
 410ab90:	04c00304 	movi	r19,12
 410ab94:	070000c4 	movi	fp,3
 410ab98:	003f5e06 	br	410a914 <__ram_exceptions_end+0xfc1026d0>
 410ab9c:	01400434 	movhi	r5,16
 410aba0:	002b883a 	mov	r21,zero
 410aba4:	297fffc4 	addi	r5,r5,-1
 410aba8:	053fffc4 	movi	r20,-1
 410abac:	0081ffc4 	movi	r2,2047
 410abb0:	003f9806 	br	410aa14 <__ram_exceptions_end+0xfc1027d0>
 410abb4:	8023883a 	mov	r17,r16
 410abb8:	a011883a 	mov	r8,r20
 410abbc:	e00b883a 	mov	r5,fp
 410abc0:	003f8a06 	br	410a9ec <__ram_exceptions_end+0xfc1027a8>
 410abc4:	8023883a 	mov	r17,r16
 410abc8:	a011883a 	mov	r8,r20
 410abcc:	482d883a 	mov	r22,r9
 410abd0:	e00b883a 	mov	r5,fp
 410abd4:	003f8506 	br	410a9ec <__ram_exceptions_end+0xfc1027a8>
 410abd8:	a00ad43a 	srli	r5,r20,16
 410abdc:	401ad43a 	srli	r13,r8,16
 410abe0:	a53fffcc 	andi	r20,r20,65535
 410abe4:	423fffcc 	andi	r8,r8,65535
 410abe8:	4519383a 	mul	r12,r8,r20
 410abec:	4147383a 	mul	r3,r8,r5
 410abf0:	6d09383a 	mul	r4,r13,r20
 410abf4:	600cd43a 	srli	r6,r12,16
 410abf8:	2b5d383a 	mul	r14,r5,r13
 410abfc:	20c9883a 	add	r4,r4,r3
 410ac00:	310d883a 	add	r6,r6,r4
 410ac04:	30c0022e 	bgeu	r6,r3,410ac10 <__muldf3+0x378>
 410ac08:	00c00074 	movhi	r3,1
 410ac0c:	70dd883a 	add	r14,r14,r3
 410ac10:	8826d43a 	srli	r19,r17,16
 410ac14:	8bffffcc 	andi	r15,r17,65535
 410ac18:	7d23383a 	mul	r17,r15,r20
 410ac1c:	7949383a 	mul	r4,r15,r5
 410ac20:	9d29383a 	mul	r20,r19,r20
 410ac24:	8814d43a 	srli	r10,r17,16
 410ac28:	3012943a 	slli	r9,r6,16
 410ac2c:	a129883a 	add	r20,r20,r4
 410ac30:	633fffcc 	andi	r12,r12,65535
 410ac34:	5515883a 	add	r10,r10,r20
 410ac38:	3006d43a 	srli	r3,r6,16
 410ac3c:	4b13883a 	add	r9,r9,r12
 410ac40:	2ccb383a 	mul	r5,r5,r19
 410ac44:	5100022e 	bgeu	r10,r4,410ac50 <__muldf3+0x3b8>
 410ac48:	01000074 	movhi	r4,1
 410ac4c:	290b883a 	add	r5,r5,r4
 410ac50:	802ad43a 	srli	r21,r16,16
 410ac54:	843fffcc 	andi	r16,r16,65535
 410ac58:	440d383a 	mul	r6,r8,r16
 410ac5c:	4565383a 	mul	r18,r8,r21
 410ac60:	8349383a 	mul	r4,r16,r13
 410ac64:	500e943a 	slli	r7,r10,16
 410ac68:	3010d43a 	srli	r8,r6,16
 410ac6c:	5028d43a 	srli	r20,r10,16
 410ac70:	2489883a 	add	r4,r4,r18
 410ac74:	8abfffcc 	andi	r10,r17,65535
 410ac78:	3a95883a 	add	r10,r7,r10
 410ac7c:	4119883a 	add	r12,r8,r4
 410ac80:	a169883a 	add	r20,r20,r5
 410ac84:	1a87883a 	add	r3,r3,r10
 410ac88:	6d5b383a 	mul	r13,r13,r21
 410ac8c:	6480022e 	bgeu	r12,r18,410ac98 <__muldf3+0x400>
 410ac90:	01000074 	movhi	r4,1
 410ac94:	691b883a 	add	r13,r13,r4
 410ac98:	7c25383a 	mul	r18,r15,r16
 410ac9c:	7d4b383a 	mul	r5,r15,r21
 410aca0:	84cf383a 	mul	r7,r16,r19
 410aca4:	901ed43a 	srli	r15,r18,16
 410aca8:	6008d43a 	srli	r4,r12,16
 410acac:	6010943a 	slli	r8,r12,16
 410acb0:	394f883a 	add	r7,r7,r5
 410acb4:	333fffcc 	andi	r12,r6,65535
 410acb8:	79df883a 	add	r15,r15,r7
 410acbc:	235b883a 	add	r13,r4,r13
 410acc0:	9d63383a 	mul	r17,r19,r21
 410acc4:	4309883a 	add	r4,r8,r12
 410acc8:	7940022e 	bgeu	r15,r5,410acd4 <__muldf3+0x43c>
 410accc:	01400074 	movhi	r5,1
 410acd0:	8963883a 	add	r17,r17,r5
 410acd4:	780a943a 	slli	r5,r15,16
 410acd8:	91bfffcc 	andi	r6,r18,65535
 410acdc:	70c7883a 	add	r3,r14,r3
 410ace0:	298d883a 	add	r6,r5,r6
 410ace4:	1a8f803a 	cmpltu	r7,r3,r10
 410ace8:	350b883a 	add	r5,r6,r20
 410acec:	20c7883a 	add	r3,r4,r3
 410acf0:	3955883a 	add	r10,r7,r5
 410acf4:	1909803a 	cmpltu	r4,r3,r4
 410acf8:	6a91883a 	add	r8,r13,r10
 410acfc:	780cd43a 	srli	r6,r15,16
 410ad00:	2219883a 	add	r12,r4,r8
 410ad04:	2d0b803a 	cmpltu	r5,r5,r20
 410ad08:	51cf803a 	cmpltu	r7,r10,r7
 410ad0c:	29ceb03a 	or	r7,r5,r7
 410ad10:	4351803a 	cmpltu	r8,r8,r13
 410ad14:	610b803a 	cmpltu	r5,r12,r4
 410ad18:	4148b03a 	or	r4,r8,r5
 410ad1c:	398f883a 	add	r7,r7,r6
 410ad20:	3909883a 	add	r4,r7,r4
 410ad24:	1810927a 	slli	r8,r3,9
 410ad28:	2449883a 	add	r4,r4,r17
 410ad2c:	2008927a 	slli	r4,r4,9
 410ad30:	6022d5fa 	srli	r17,r12,23
 410ad34:	1806d5fa 	srli	r3,r3,23
 410ad38:	4252b03a 	or	r9,r8,r9
 410ad3c:	600a927a 	slli	r5,r12,9
 410ad40:	4810c03a 	cmpne	r8,r9,zero
 410ad44:	2462b03a 	or	r17,r4,r17
 410ad48:	40c6b03a 	or	r3,r8,r3
 410ad4c:	8900402c 	andhi	r4,r17,256
 410ad50:	1950b03a 	or	r8,r3,r5
 410ad54:	20000726 	beq	r4,zero,410ad74 <__muldf3+0x4dc>
 410ad58:	4006d07a 	srli	r3,r8,1
 410ad5c:	880497fa 	slli	r2,r17,31
 410ad60:	4200004c 	andi	r8,r8,1
 410ad64:	8822d07a 	srli	r17,r17,1
 410ad68:	1a10b03a 	or	r8,r3,r8
 410ad6c:	1210b03a 	or	r8,r2,r8
 410ad70:	5805883a 	mov	r2,r11
 410ad74:	1140ffc4 	addi	r5,r2,1023
 410ad78:	0140440e 	bge	zero,r5,410ae8c <__muldf3+0x5f4>
 410ad7c:	40c001cc 	andi	r3,r8,7
 410ad80:	18000726 	beq	r3,zero,410ada0 <__muldf3+0x508>
 410ad84:	40c003cc 	andi	r3,r8,15
 410ad88:	01000104 	movi	r4,4
 410ad8c:	19000426 	beq	r3,r4,410ada0 <__muldf3+0x508>
 410ad90:	4107883a 	add	r3,r8,r4
 410ad94:	1a11803a 	cmpltu	r8,r3,r8
 410ad98:	8a23883a 	add	r17,r17,r8
 410ad9c:	1811883a 	mov	r8,r3
 410ada0:	88c0402c 	andhi	r3,r17,256
 410ada4:	18000426 	beq	r3,zero,410adb8 <__muldf3+0x520>
 410ada8:	11410004 	addi	r5,r2,1024
 410adac:	00bfc034 	movhi	r2,65280
 410adb0:	10bfffc4 	addi	r2,r2,-1
 410adb4:	88a2703a 	and	r17,r17,r2
 410adb8:	0081ff84 	movi	r2,2046
 410adbc:	117f6416 	blt	r2,r5,410ab50 <__ram_exceptions_end+0xfc10290c>
 410adc0:	8828977a 	slli	r20,r17,29
 410adc4:	4010d0fa 	srli	r8,r8,3
 410adc8:	8822927a 	slli	r17,r17,9
 410adcc:	2881ffcc 	andi	r2,r5,2047
 410add0:	a228b03a 	or	r20,r20,r8
 410add4:	880ad33a 	srli	r5,r17,12
 410add8:	b02b883a 	mov	r21,r22
 410addc:	003f0d06 	br	410aa14 <__ram_exceptions_end+0xfc1027d0>
 410ade0:	8080022c 	andhi	r2,r16,8
 410ade4:	10000926 	beq	r2,zero,410ae0c <__muldf3+0x574>
 410ade8:	8880022c 	andhi	r2,r17,8
 410adec:	1000071e 	bne	r2,zero,410ae0c <__muldf3+0x574>
 410adf0:	00800434 	movhi	r2,16
 410adf4:	89400234 	orhi	r5,r17,8
 410adf8:	10bfffc4 	addi	r2,r2,-1
 410adfc:	b82b883a 	mov	r21,r23
 410ae00:	288a703a 	and	r5,r5,r2
 410ae04:	4029883a 	mov	r20,r8
 410ae08:	003f6806 	br	410abac <__ram_exceptions_end+0xfc102968>
 410ae0c:	00800434 	movhi	r2,16
 410ae10:	81400234 	orhi	r5,r16,8
 410ae14:	10bfffc4 	addi	r2,r2,-1
 410ae18:	288a703a 	and	r5,r5,r2
 410ae1c:	003f6306 	br	410abac <__ram_exceptions_end+0xfc102968>
 410ae20:	147ff604 	addi	r17,r2,-40
 410ae24:	3462983a 	sll	r17,r6,r17
 410ae28:	0011883a 	mov	r8,zero
 410ae2c:	003f4406 	br	410ab40 <__ram_exceptions_end+0xfc1028fc>
 410ae30:	3009883a 	mov	r4,r6
 410ae34:	d9800215 	stw	r6,8(sp)
 410ae38:	da400115 	stw	r9,4(sp)
 410ae3c:	da800015 	stw	r10,0(sp)
 410ae40:	410bab00 	call	410bab0 <__clzsi2>
 410ae44:	10800804 	addi	r2,r2,32
 410ae48:	da800017 	ldw	r10,0(sp)
 410ae4c:	da400117 	ldw	r9,4(sp)
 410ae50:	d9800217 	ldw	r6,8(sp)
 410ae54:	003f3006 	br	410ab18 <__ram_exceptions_end+0xfc1028d4>
 410ae58:	143ff604 	addi	r16,r2,-40
 410ae5c:	9c20983a 	sll	r16,r19,r16
 410ae60:	0029883a 	mov	r20,zero
 410ae64:	003f1606 	br	410aac0 <__ram_exceptions_end+0xfc10287c>
 410ae68:	d9800215 	stw	r6,8(sp)
 410ae6c:	d9c00015 	stw	r7,0(sp)
 410ae70:	da400115 	stw	r9,4(sp)
 410ae74:	410bab00 	call	410bab0 <__clzsi2>
 410ae78:	10800804 	addi	r2,r2,32
 410ae7c:	da400117 	ldw	r9,4(sp)
 410ae80:	d9c00017 	ldw	r7,0(sp)
 410ae84:	d9800217 	ldw	r6,8(sp)
 410ae88:	003f0306 	br	410aa98 <__ram_exceptions_end+0xfc102854>
 410ae8c:	00c00044 	movi	r3,1
 410ae90:	1947c83a 	sub	r3,r3,r5
 410ae94:	00800e04 	movi	r2,56
 410ae98:	10feda16 	blt	r2,r3,410aa04 <__ram_exceptions_end+0xfc1027c0>
 410ae9c:	008007c4 	movi	r2,31
 410aea0:	10c01b16 	blt	r2,r3,410af10 <__muldf3+0x678>
 410aea4:	00800804 	movi	r2,32
 410aea8:	10c5c83a 	sub	r2,r2,r3
 410aeac:	888a983a 	sll	r5,r17,r2
 410aeb0:	40c8d83a 	srl	r4,r8,r3
 410aeb4:	4084983a 	sll	r2,r8,r2
 410aeb8:	88e2d83a 	srl	r17,r17,r3
 410aebc:	2906b03a 	or	r3,r5,r4
 410aec0:	1004c03a 	cmpne	r2,r2,zero
 410aec4:	1886b03a 	or	r3,r3,r2
 410aec8:	188001cc 	andi	r2,r3,7
 410aecc:	10000726 	beq	r2,zero,410aeec <__muldf3+0x654>
 410aed0:	188003cc 	andi	r2,r3,15
 410aed4:	01000104 	movi	r4,4
 410aed8:	11000426 	beq	r2,r4,410aeec <__muldf3+0x654>
 410aedc:	1805883a 	mov	r2,r3
 410aee0:	10c00104 	addi	r3,r2,4
 410aee4:	1885803a 	cmpltu	r2,r3,r2
 410aee8:	88a3883a 	add	r17,r17,r2
 410aeec:	8880202c 	andhi	r2,r17,128
 410aef0:	10001c26 	beq	r2,zero,410af64 <__muldf3+0x6cc>
 410aef4:	b02b883a 	mov	r21,r22
 410aef8:	00800044 	movi	r2,1
 410aefc:	000b883a 	mov	r5,zero
 410af00:	0029883a 	mov	r20,zero
 410af04:	003ec306 	br	410aa14 <__ram_exceptions_end+0xfc1027d0>
 410af08:	5805883a 	mov	r2,r11
 410af0c:	003f9906 	br	410ad74 <__ram_exceptions_end+0xfc102b30>
 410af10:	00bff844 	movi	r2,-31
 410af14:	1145c83a 	sub	r2,r2,r5
 410af18:	8888d83a 	srl	r4,r17,r2
 410af1c:	00800804 	movi	r2,32
 410af20:	18801a26 	beq	r3,r2,410af8c <__muldf3+0x6f4>
 410af24:	00801004 	movi	r2,64
 410af28:	10c5c83a 	sub	r2,r2,r3
 410af2c:	8884983a 	sll	r2,r17,r2
 410af30:	1204b03a 	or	r2,r2,r8
 410af34:	1004c03a 	cmpne	r2,r2,zero
 410af38:	2084b03a 	or	r2,r4,r2
 410af3c:	144001cc 	andi	r17,r2,7
 410af40:	88000d1e 	bne	r17,zero,410af78 <__muldf3+0x6e0>
 410af44:	000b883a 	mov	r5,zero
 410af48:	1028d0fa 	srli	r20,r2,3
 410af4c:	b02b883a 	mov	r21,r22
 410af50:	0005883a 	mov	r2,zero
 410af54:	a468b03a 	or	r20,r20,r17
 410af58:	003eae06 	br	410aa14 <__ram_exceptions_end+0xfc1027d0>
 410af5c:	1007883a 	mov	r3,r2
 410af60:	0023883a 	mov	r17,zero
 410af64:	880a927a 	slli	r5,r17,9
 410af68:	1805883a 	mov	r2,r3
 410af6c:	8822977a 	slli	r17,r17,29
 410af70:	280ad33a 	srli	r5,r5,12
 410af74:	003ff406 	br	410af48 <__ram_exceptions_end+0xfc102d04>
 410af78:	10c003cc 	andi	r3,r2,15
 410af7c:	01000104 	movi	r4,4
 410af80:	193ff626 	beq	r3,r4,410af5c <__ram_exceptions_end+0xfc102d18>
 410af84:	0023883a 	mov	r17,zero
 410af88:	003fd506 	br	410aee0 <__ram_exceptions_end+0xfc102c9c>
 410af8c:	0005883a 	mov	r2,zero
 410af90:	003fe706 	br	410af30 <__ram_exceptions_end+0xfc102cec>
 410af94:	00800434 	movhi	r2,16
 410af98:	89400234 	orhi	r5,r17,8
 410af9c:	10bfffc4 	addi	r2,r2,-1
 410afa0:	b02b883a 	mov	r21,r22
 410afa4:	288a703a 	and	r5,r5,r2
 410afa8:	4029883a 	mov	r20,r8
 410afac:	003eff06 	br	410abac <__ram_exceptions_end+0xfc102968>

0410afb0 <__subdf3>:
 410afb0:	02000434 	movhi	r8,16
 410afb4:	423fffc4 	addi	r8,r8,-1
 410afb8:	defffb04 	addi	sp,sp,-20
 410afbc:	2a14703a 	and	r10,r5,r8
 410afc0:	3812d53a 	srli	r9,r7,20
 410afc4:	3a10703a 	and	r8,r7,r8
 410afc8:	2006d77a 	srli	r3,r4,29
 410afcc:	3004d77a 	srli	r2,r6,29
 410afd0:	dc000015 	stw	r16,0(sp)
 410afd4:	501490fa 	slli	r10,r10,3
 410afd8:	2820d53a 	srli	r16,r5,20
 410afdc:	401090fa 	slli	r8,r8,3
 410afe0:	dc800215 	stw	r18,8(sp)
 410afe4:	dc400115 	stw	r17,4(sp)
 410afe8:	dfc00415 	stw	ra,16(sp)
 410afec:	202290fa 	slli	r17,r4,3
 410aff0:	dcc00315 	stw	r19,12(sp)
 410aff4:	4a41ffcc 	andi	r9,r9,2047
 410aff8:	0101ffc4 	movi	r4,2047
 410affc:	2824d7fa 	srli	r18,r5,31
 410b000:	8401ffcc 	andi	r16,r16,2047
 410b004:	50c6b03a 	or	r3,r10,r3
 410b008:	380ed7fa 	srli	r7,r7,31
 410b00c:	408ab03a 	or	r5,r8,r2
 410b010:	300c90fa 	slli	r6,r6,3
 410b014:	49009626 	beq	r9,r4,410b270 <__subdf3+0x2c0>
 410b018:	39c0005c 	xori	r7,r7,1
 410b01c:	8245c83a 	sub	r2,r16,r9
 410b020:	3c807426 	beq	r7,r18,410b1f4 <__subdf3+0x244>
 410b024:	0080af0e 	bge	zero,r2,410b2e4 <__subdf3+0x334>
 410b028:	48002a1e 	bne	r9,zero,410b0d4 <__subdf3+0x124>
 410b02c:	2988b03a 	or	r4,r5,r6
 410b030:	20009a1e 	bne	r4,zero,410b29c <__subdf3+0x2ec>
 410b034:	888001cc 	andi	r2,r17,7
 410b038:	10000726 	beq	r2,zero,410b058 <__subdf3+0xa8>
 410b03c:	888003cc 	andi	r2,r17,15
 410b040:	01000104 	movi	r4,4
 410b044:	11000426 	beq	r2,r4,410b058 <__subdf3+0xa8>
 410b048:	890b883a 	add	r5,r17,r4
 410b04c:	2c63803a 	cmpltu	r17,r5,r17
 410b050:	1c47883a 	add	r3,r3,r17
 410b054:	2823883a 	mov	r17,r5
 410b058:	1880202c 	andhi	r2,r3,128
 410b05c:	10005926 	beq	r2,zero,410b1c4 <__subdf3+0x214>
 410b060:	84000044 	addi	r16,r16,1
 410b064:	0081ffc4 	movi	r2,2047
 410b068:	8080be26 	beq	r16,r2,410b364 <__subdf3+0x3b4>
 410b06c:	017fe034 	movhi	r5,65408
 410b070:	297fffc4 	addi	r5,r5,-1
 410b074:	1946703a 	and	r3,r3,r5
 410b078:	1804977a 	slli	r2,r3,29
 410b07c:	1806927a 	slli	r3,r3,9
 410b080:	8822d0fa 	srli	r17,r17,3
 410b084:	8401ffcc 	andi	r16,r16,2047
 410b088:	180ad33a 	srli	r5,r3,12
 410b08c:	9100004c 	andi	r4,r18,1
 410b090:	1444b03a 	or	r2,r2,r17
 410b094:	80c1ffcc 	andi	r3,r16,2047
 410b098:	1820953a 	slli	r16,r3,20
 410b09c:	20c03fcc 	andi	r3,r4,255
 410b0a0:	180897fa 	slli	r4,r3,31
 410b0a4:	00c00434 	movhi	r3,16
 410b0a8:	18ffffc4 	addi	r3,r3,-1
 410b0ac:	28c6703a 	and	r3,r5,r3
 410b0b0:	1c06b03a 	or	r3,r3,r16
 410b0b4:	1906b03a 	or	r3,r3,r4
 410b0b8:	dfc00417 	ldw	ra,16(sp)
 410b0bc:	dcc00317 	ldw	r19,12(sp)
 410b0c0:	dc800217 	ldw	r18,8(sp)
 410b0c4:	dc400117 	ldw	r17,4(sp)
 410b0c8:	dc000017 	ldw	r16,0(sp)
 410b0cc:	dec00504 	addi	sp,sp,20
 410b0d0:	f800283a 	ret
 410b0d4:	0101ffc4 	movi	r4,2047
 410b0d8:	813fd626 	beq	r16,r4,410b034 <__ram_exceptions_end+0xfc102df0>
 410b0dc:	29402034 	orhi	r5,r5,128
 410b0e0:	01000e04 	movi	r4,56
 410b0e4:	2080a316 	blt	r4,r2,410b374 <__subdf3+0x3c4>
 410b0e8:	010007c4 	movi	r4,31
 410b0ec:	2080c616 	blt	r4,r2,410b408 <__subdf3+0x458>
 410b0f0:	01000804 	movi	r4,32
 410b0f4:	2089c83a 	sub	r4,r4,r2
 410b0f8:	2910983a 	sll	r8,r5,r4
 410b0fc:	308ed83a 	srl	r7,r6,r2
 410b100:	3108983a 	sll	r4,r6,r4
 410b104:	2884d83a 	srl	r2,r5,r2
 410b108:	41ccb03a 	or	r6,r8,r7
 410b10c:	2008c03a 	cmpne	r4,r4,zero
 410b110:	310cb03a 	or	r6,r6,r4
 410b114:	898dc83a 	sub	r6,r17,r6
 410b118:	89a3803a 	cmpltu	r17,r17,r6
 410b11c:	1887c83a 	sub	r3,r3,r2
 410b120:	1c47c83a 	sub	r3,r3,r17
 410b124:	3023883a 	mov	r17,r6
 410b128:	1880202c 	andhi	r2,r3,128
 410b12c:	10002326 	beq	r2,zero,410b1bc <__subdf3+0x20c>
 410b130:	04c02034 	movhi	r19,128
 410b134:	9cffffc4 	addi	r19,r19,-1
 410b138:	1ce6703a 	and	r19,r3,r19
 410b13c:	98007a26 	beq	r19,zero,410b328 <__subdf3+0x378>
 410b140:	9809883a 	mov	r4,r19
 410b144:	410bab00 	call	410bab0 <__clzsi2>
 410b148:	113ffe04 	addi	r4,r2,-8
 410b14c:	00c007c4 	movi	r3,31
 410b150:	19007b16 	blt	r3,r4,410b340 <__subdf3+0x390>
 410b154:	00800804 	movi	r2,32
 410b158:	1105c83a 	sub	r2,r2,r4
 410b15c:	8884d83a 	srl	r2,r17,r2
 410b160:	9906983a 	sll	r3,r19,r4
 410b164:	8922983a 	sll	r17,r17,r4
 410b168:	10c4b03a 	or	r2,r2,r3
 410b16c:	24007816 	blt	r4,r16,410b350 <__subdf3+0x3a0>
 410b170:	2421c83a 	sub	r16,r4,r16
 410b174:	80c00044 	addi	r3,r16,1
 410b178:	010007c4 	movi	r4,31
 410b17c:	20c09516 	blt	r4,r3,410b3d4 <__subdf3+0x424>
 410b180:	01400804 	movi	r5,32
 410b184:	28cbc83a 	sub	r5,r5,r3
 410b188:	88c8d83a 	srl	r4,r17,r3
 410b18c:	8962983a 	sll	r17,r17,r5
 410b190:	114a983a 	sll	r5,r2,r5
 410b194:	10c6d83a 	srl	r3,r2,r3
 410b198:	8804c03a 	cmpne	r2,r17,zero
 410b19c:	290ab03a 	or	r5,r5,r4
 410b1a0:	28a2b03a 	or	r17,r5,r2
 410b1a4:	0021883a 	mov	r16,zero
 410b1a8:	003fa206 	br	410b034 <__ram_exceptions_end+0xfc102df0>
 410b1ac:	2090b03a 	or	r8,r4,r2
 410b1b0:	40018e26 	beq	r8,zero,410b7ec <__subdf3+0x83c>
 410b1b4:	1007883a 	mov	r3,r2
 410b1b8:	2023883a 	mov	r17,r4
 410b1bc:	888001cc 	andi	r2,r17,7
 410b1c0:	103f9e1e 	bne	r2,zero,410b03c <__ram_exceptions_end+0xfc102df8>
 410b1c4:	1804977a 	slli	r2,r3,29
 410b1c8:	8822d0fa 	srli	r17,r17,3
 410b1cc:	1810d0fa 	srli	r8,r3,3
 410b1d0:	9100004c 	andi	r4,r18,1
 410b1d4:	1444b03a 	or	r2,r2,r17
 410b1d8:	00c1ffc4 	movi	r3,2047
 410b1dc:	80c02826 	beq	r16,r3,410b280 <__subdf3+0x2d0>
 410b1e0:	01400434 	movhi	r5,16
 410b1e4:	297fffc4 	addi	r5,r5,-1
 410b1e8:	80e0703a 	and	r16,r16,r3
 410b1ec:	414a703a 	and	r5,r8,r5
 410b1f0:	003fa806 	br	410b094 <__ram_exceptions_end+0xfc102e50>
 410b1f4:	0080630e 	bge	zero,r2,410b384 <__subdf3+0x3d4>
 410b1f8:	48003026 	beq	r9,zero,410b2bc <__subdf3+0x30c>
 410b1fc:	0101ffc4 	movi	r4,2047
 410b200:	813f8c26 	beq	r16,r4,410b034 <__ram_exceptions_end+0xfc102df0>
 410b204:	29402034 	orhi	r5,r5,128
 410b208:	01000e04 	movi	r4,56
 410b20c:	2080a90e 	bge	r4,r2,410b4b4 <__subdf3+0x504>
 410b210:	298cb03a 	or	r6,r5,r6
 410b214:	3012c03a 	cmpne	r9,r6,zero
 410b218:	0005883a 	mov	r2,zero
 410b21c:	4c53883a 	add	r9,r9,r17
 410b220:	4c63803a 	cmpltu	r17,r9,r17
 410b224:	10c7883a 	add	r3,r2,r3
 410b228:	88c7883a 	add	r3,r17,r3
 410b22c:	4823883a 	mov	r17,r9
 410b230:	1880202c 	andhi	r2,r3,128
 410b234:	1000d026 	beq	r2,zero,410b578 <__subdf3+0x5c8>
 410b238:	84000044 	addi	r16,r16,1
 410b23c:	0081ffc4 	movi	r2,2047
 410b240:	8080fe26 	beq	r16,r2,410b63c <__subdf3+0x68c>
 410b244:	00bfe034 	movhi	r2,65408
 410b248:	10bfffc4 	addi	r2,r2,-1
 410b24c:	1886703a 	and	r3,r3,r2
 410b250:	880ad07a 	srli	r5,r17,1
 410b254:	180497fa 	slli	r2,r3,31
 410b258:	8900004c 	andi	r4,r17,1
 410b25c:	2922b03a 	or	r17,r5,r4
 410b260:	1806d07a 	srli	r3,r3,1
 410b264:	1462b03a 	or	r17,r2,r17
 410b268:	3825883a 	mov	r18,r7
 410b26c:	003f7106 	br	410b034 <__ram_exceptions_end+0xfc102df0>
 410b270:	2984b03a 	or	r2,r5,r6
 410b274:	103f6826 	beq	r2,zero,410b018 <__ram_exceptions_end+0xfc102dd4>
 410b278:	39c03fcc 	andi	r7,r7,255
 410b27c:	003f6706 	br	410b01c <__ram_exceptions_end+0xfc102dd8>
 410b280:	4086b03a 	or	r3,r8,r2
 410b284:	18015226 	beq	r3,zero,410b7d0 <__subdf3+0x820>
 410b288:	00c00434 	movhi	r3,16
 410b28c:	41400234 	orhi	r5,r8,8
 410b290:	18ffffc4 	addi	r3,r3,-1
 410b294:	28ca703a 	and	r5,r5,r3
 410b298:	003f7e06 	br	410b094 <__ram_exceptions_end+0xfc102e50>
 410b29c:	10bfffc4 	addi	r2,r2,-1
 410b2a0:	1000491e 	bne	r2,zero,410b3c8 <__subdf3+0x418>
 410b2a4:	898fc83a 	sub	r7,r17,r6
 410b2a8:	89e3803a 	cmpltu	r17,r17,r7
 410b2ac:	1947c83a 	sub	r3,r3,r5
 410b2b0:	1c47c83a 	sub	r3,r3,r17
 410b2b4:	3823883a 	mov	r17,r7
 410b2b8:	003f9b06 	br	410b128 <__ram_exceptions_end+0xfc102ee4>
 410b2bc:	2988b03a 	or	r4,r5,r6
 410b2c0:	203f5c26 	beq	r4,zero,410b034 <__ram_exceptions_end+0xfc102df0>
 410b2c4:	10bfffc4 	addi	r2,r2,-1
 410b2c8:	1000931e 	bne	r2,zero,410b518 <__subdf3+0x568>
 410b2cc:	898d883a 	add	r6,r17,r6
 410b2d0:	3463803a 	cmpltu	r17,r6,r17
 410b2d4:	1947883a 	add	r3,r3,r5
 410b2d8:	88c7883a 	add	r3,r17,r3
 410b2dc:	3023883a 	mov	r17,r6
 410b2e0:	003fd306 	br	410b230 <__ram_exceptions_end+0xfc102fec>
 410b2e4:	1000541e 	bne	r2,zero,410b438 <__subdf3+0x488>
 410b2e8:	80800044 	addi	r2,r16,1
 410b2ec:	1081ffcc 	andi	r2,r2,2047
 410b2f0:	01000044 	movi	r4,1
 410b2f4:	2080a20e 	bge	r4,r2,410b580 <__subdf3+0x5d0>
 410b2f8:	8989c83a 	sub	r4,r17,r6
 410b2fc:	8905803a 	cmpltu	r2,r17,r4
 410b300:	1967c83a 	sub	r19,r3,r5
 410b304:	98a7c83a 	sub	r19,r19,r2
 410b308:	9880202c 	andhi	r2,r19,128
 410b30c:	10006326 	beq	r2,zero,410b49c <__subdf3+0x4ec>
 410b310:	3463c83a 	sub	r17,r6,r17
 410b314:	28c7c83a 	sub	r3,r5,r3
 410b318:	344d803a 	cmpltu	r6,r6,r17
 410b31c:	19a7c83a 	sub	r19,r3,r6
 410b320:	3825883a 	mov	r18,r7
 410b324:	983f861e 	bne	r19,zero,410b140 <__ram_exceptions_end+0xfc102efc>
 410b328:	8809883a 	mov	r4,r17
 410b32c:	410bab00 	call	410bab0 <__clzsi2>
 410b330:	10800804 	addi	r2,r2,32
 410b334:	113ffe04 	addi	r4,r2,-8
 410b338:	00c007c4 	movi	r3,31
 410b33c:	193f850e 	bge	r3,r4,410b154 <__ram_exceptions_end+0xfc102f10>
 410b340:	10bff604 	addi	r2,r2,-40
 410b344:	8884983a 	sll	r2,r17,r2
 410b348:	0023883a 	mov	r17,zero
 410b34c:	243f880e 	bge	r4,r16,410b170 <__ram_exceptions_end+0xfc102f2c>
 410b350:	00ffe034 	movhi	r3,65408
 410b354:	18ffffc4 	addi	r3,r3,-1
 410b358:	8121c83a 	sub	r16,r16,r4
 410b35c:	10c6703a 	and	r3,r2,r3
 410b360:	003f3406 	br	410b034 <__ram_exceptions_end+0xfc102df0>
 410b364:	9100004c 	andi	r4,r18,1
 410b368:	000b883a 	mov	r5,zero
 410b36c:	0005883a 	mov	r2,zero
 410b370:	003f4806 	br	410b094 <__ram_exceptions_end+0xfc102e50>
 410b374:	298cb03a 	or	r6,r5,r6
 410b378:	300cc03a 	cmpne	r6,r6,zero
 410b37c:	0005883a 	mov	r2,zero
 410b380:	003f6406 	br	410b114 <__ram_exceptions_end+0xfc102ed0>
 410b384:	10009a1e 	bne	r2,zero,410b5f0 <__subdf3+0x640>
 410b388:	82400044 	addi	r9,r16,1
 410b38c:	4881ffcc 	andi	r2,r9,2047
 410b390:	02800044 	movi	r10,1
 410b394:	5080670e 	bge	r10,r2,410b534 <__subdf3+0x584>
 410b398:	0081ffc4 	movi	r2,2047
 410b39c:	4880af26 	beq	r9,r2,410b65c <__subdf3+0x6ac>
 410b3a0:	898d883a 	add	r6,r17,r6
 410b3a4:	1945883a 	add	r2,r3,r5
 410b3a8:	3447803a 	cmpltu	r3,r6,r17
 410b3ac:	1887883a 	add	r3,r3,r2
 410b3b0:	182297fa 	slli	r17,r3,31
 410b3b4:	300cd07a 	srli	r6,r6,1
 410b3b8:	1806d07a 	srli	r3,r3,1
 410b3bc:	4821883a 	mov	r16,r9
 410b3c0:	89a2b03a 	or	r17,r17,r6
 410b3c4:	003f1b06 	br	410b034 <__ram_exceptions_end+0xfc102df0>
 410b3c8:	0101ffc4 	movi	r4,2047
 410b3cc:	813f441e 	bne	r16,r4,410b0e0 <__ram_exceptions_end+0xfc102e9c>
 410b3d0:	003f1806 	br	410b034 <__ram_exceptions_end+0xfc102df0>
 410b3d4:	843ff844 	addi	r16,r16,-31
 410b3d8:	01400804 	movi	r5,32
 410b3dc:	1408d83a 	srl	r4,r2,r16
 410b3e0:	19405026 	beq	r3,r5,410b524 <__subdf3+0x574>
 410b3e4:	01401004 	movi	r5,64
 410b3e8:	28c7c83a 	sub	r3,r5,r3
 410b3ec:	10c4983a 	sll	r2,r2,r3
 410b3f0:	88a2b03a 	or	r17,r17,r2
 410b3f4:	8822c03a 	cmpne	r17,r17,zero
 410b3f8:	2462b03a 	or	r17,r4,r17
 410b3fc:	0007883a 	mov	r3,zero
 410b400:	0021883a 	mov	r16,zero
 410b404:	003f6d06 	br	410b1bc <__ram_exceptions_end+0xfc102f78>
 410b408:	11fff804 	addi	r7,r2,-32
 410b40c:	01000804 	movi	r4,32
 410b410:	29ced83a 	srl	r7,r5,r7
 410b414:	11004526 	beq	r2,r4,410b52c <__subdf3+0x57c>
 410b418:	01001004 	movi	r4,64
 410b41c:	2089c83a 	sub	r4,r4,r2
 410b420:	2904983a 	sll	r2,r5,r4
 410b424:	118cb03a 	or	r6,r2,r6
 410b428:	300cc03a 	cmpne	r6,r6,zero
 410b42c:	398cb03a 	or	r6,r7,r6
 410b430:	0005883a 	mov	r2,zero
 410b434:	003f3706 	br	410b114 <__ram_exceptions_end+0xfc102ed0>
 410b438:	80002a26 	beq	r16,zero,410b4e4 <__subdf3+0x534>
 410b43c:	0101ffc4 	movi	r4,2047
 410b440:	49006626 	beq	r9,r4,410b5dc <__subdf3+0x62c>
 410b444:	0085c83a 	sub	r2,zero,r2
 410b448:	18c02034 	orhi	r3,r3,128
 410b44c:	01000e04 	movi	r4,56
 410b450:	20807e16 	blt	r4,r2,410b64c <__subdf3+0x69c>
 410b454:	010007c4 	movi	r4,31
 410b458:	2080e716 	blt	r4,r2,410b7f8 <__subdf3+0x848>
 410b45c:	01000804 	movi	r4,32
 410b460:	2089c83a 	sub	r4,r4,r2
 410b464:	1914983a 	sll	r10,r3,r4
 410b468:	8890d83a 	srl	r8,r17,r2
 410b46c:	8908983a 	sll	r4,r17,r4
 410b470:	1884d83a 	srl	r2,r3,r2
 410b474:	5222b03a 	or	r17,r10,r8
 410b478:	2006c03a 	cmpne	r3,r4,zero
 410b47c:	88e2b03a 	or	r17,r17,r3
 410b480:	3463c83a 	sub	r17,r6,r17
 410b484:	2885c83a 	sub	r2,r5,r2
 410b488:	344d803a 	cmpltu	r6,r6,r17
 410b48c:	1187c83a 	sub	r3,r2,r6
 410b490:	4821883a 	mov	r16,r9
 410b494:	3825883a 	mov	r18,r7
 410b498:	003f2306 	br	410b128 <__ram_exceptions_end+0xfc102ee4>
 410b49c:	24d0b03a 	or	r8,r4,r19
 410b4a0:	40001b1e 	bne	r8,zero,410b510 <__subdf3+0x560>
 410b4a4:	0005883a 	mov	r2,zero
 410b4a8:	0009883a 	mov	r4,zero
 410b4ac:	0021883a 	mov	r16,zero
 410b4b0:	003f4906 	br	410b1d8 <__ram_exceptions_end+0xfc102f94>
 410b4b4:	010007c4 	movi	r4,31
 410b4b8:	20803a16 	blt	r4,r2,410b5a4 <__subdf3+0x5f4>
 410b4bc:	01000804 	movi	r4,32
 410b4c0:	2089c83a 	sub	r4,r4,r2
 410b4c4:	2912983a 	sll	r9,r5,r4
 410b4c8:	3090d83a 	srl	r8,r6,r2
 410b4cc:	3108983a 	sll	r4,r6,r4
 410b4d0:	2884d83a 	srl	r2,r5,r2
 410b4d4:	4a12b03a 	or	r9,r9,r8
 410b4d8:	2008c03a 	cmpne	r4,r4,zero
 410b4dc:	4912b03a 	or	r9,r9,r4
 410b4e0:	003f4e06 	br	410b21c <__ram_exceptions_end+0xfc102fd8>
 410b4e4:	1c48b03a 	or	r4,r3,r17
 410b4e8:	20003c26 	beq	r4,zero,410b5dc <__subdf3+0x62c>
 410b4ec:	0084303a 	nor	r2,zero,r2
 410b4f0:	1000381e 	bne	r2,zero,410b5d4 <__subdf3+0x624>
 410b4f4:	3463c83a 	sub	r17,r6,r17
 410b4f8:	28c5c83a 	sub	r2,r5,r3
 410b4fc:	344d803a 	cmpltu	r6,r6,r17
 410b500:	1187c83a 	sub	r3,r2,r6
 410b504:	4821883a 	mov	r16,r9
 410b508:	3825883a 	mov	r18,r7
 410b50c:	003f0606 	br	410b128 <__ram_exceptions_end+0xfc102ee4>
 410b510:	2023883a 	mov	r17,r4
 410b514:	003f0906 	br	410b13c <__ram_exceptions_end+0xfc102ef8>
 410b518:	0101ffc4 	movi	r4,2047
 410b51c:	813f3a1e 	bne	r16,r4,410b208 <__ram_exceptions_end+0xfc102fc4>
 410b520:	003ec406 	br	410b034 <__ram_exceptions_end+0xfc102df0>
 410b524:	0005883a 	mov	r2,zero
 410b528:	003fb106 	br	410b3f0 <__ram_exceptions_end+0xfc1031ac>
 410b52c:	0005883a 	mov	r2,zero
 410b530:	003fbc06 	br	410b424 <__ram_exceptions_end+0xfc1031e0>
 410b534:	1c44b03a 	or	r2,r3,r17
 410b538:	80008e1e 	bne	r16,zero,410b774 <__subdf3+0x7c4>
 410b53c:	1000c826 	beq	r2,zero,410b860 <__subdf3+0x8b0>
 410b540:	2984b03a 	or	r2,r5,r6
 410b544:	103ebb26 	beq	r2,zero,410b034 <__ram_exceptions_end+0xfc102df0>
 410b548:	8989883a 	add	r4,r17,r6
 410b54c:	1945883a 	add	r2,r3,r5
 410b550:	2447803a 	cmpltu	r3,r4,r17
 410b554:	1887883a 	add	r3,r3,r2
 410b558:	1880202c 	andhi	r2,r3,128
 410b55c:	2023883a 	mov	r17,r4
 410b560:	103f1626 	beq	r2,zero,410b1bc <__ram_exceptions_end+0xfc102f78>
 410b564:	00bfe034 	movhi	r2,65408
 410b568:	10bfffc4 	addi	r2,r2,-1
 410b56c:	5021883a 	mov	r16,r10
 410b570:	1886703a 	and	r3,r3,r2
 410b574:	003eaf06 	br	410b034 <__ram_exceptions_end+0xfc102df0>
 410b578:	3825883a 	mov	r18,r7
 410b57c:	003f0f06 	br	410b1bc <__ram_exceptions_end+0xfc102f78>
 410b580:	1c44b03a 	or	r2,r3,r17
 410b584:	8000251e 	bne	r16,zero,410b61c <__subdf3+0x66c>
 410b588:	1000661e 	bne	r2,zero,410b724 <__subdf3+0x774>
 410b58c:	2990b03a 	or	r8,r5,r6
 410b590:	40009626 	beq	r8,zero,410b7ec <__subdf3+0x83c>
 410b594:	2807883a 	mov	r3,r5
 410b598:	3023883a 	mov	r17,r6
 410b59c:	3825883a 	mov	r18,r7
 410b5a0:	003ea406 	br	410b034 <__ram_exceptions_end+0xfc102df0>
 410b5a4:	127ff804 	addi	r9,r2,-32
 410b5a8:	01000804 	movi	r4,32
 410b5ac:	2a52d83a 	srl	r9,r5,r9
 410b5b0:	11008c26 	beq	r2,r4,410b7e4 <__subdf3+0x834>
 410b5b4:	01001004 	movi	r4,64
 410b5b8:	2085c83a 	sub	r2,r4,r2
 410b5bc:	2884983a 	sll	r2,r5,r2
 410b5c0:	118cb03a 	or	r6,r2,r6
 410b5c4:	300cc03a 	cmpne	r6,r6,zero
 410b5c8:	4992b03a 	or	r9,r9,r6
 410b5cc:	0005883a 	mov	r2,zero
 410b5d0:	003f1206 	br	410b21c <__ram_exceptions_end+0xfc102fd8>
 410b5d4:	0101ffc4 	movi	r4,2047
 410b5d8:	493f9c1e 	bne	r9,r4,410b44c <__ram_exceptions_end+0xfc103208>
 410b5dc:	2807883a 	mov	r3,r5
 410b5e0:	3023883a 	mov	r17,r6
 410b5e4:	4821883a 	mov	r16,r9
 410b5e8:	3825883a 	mov	r18,r7
 410b5ec:	003e9106 	br	410b034 <__ram_exceptions_end+0xfc102df0>
 410b5f0:	80001f1e 	bne	r16,zero,410b670 <__subdf3+0x6c0>
 410b5f4:	1c48b03a 	or	r4,r3,r17
 410b5f8:	20005a26 	beq	r4,zero,410b764 <__subdf3+0x7b4>
 410b5fc:	0084303a 	nor	r2,zero,r2
 410b600:	1000561e 	bne	r2,zero,410b75c <__subdf3+0x7ac>
 410b604:	89a3883a 	add	r17,r17,r6
 410b608:	1945883a 	add	r2,r3,r5
 410b60c:	898d803a 	cmpltu	r6,r17,r6
 410b610:	3087883a 	add	r3,r6,r2
 410b614:	4821883a 	mov	r16,r9
 410b618:	003f0506 	br	410b230 <__ram_exceptions_end+0xfc102fec>
 410b61c:	10002b1e 	bne	r2,zero,410b6cc <__subdf3+0x71c>
 410b620:	2984b03a 	or	r2,r5,r6
 410b624:	10008026 	beq	r2,zero,410b828 <__subdf3+0x878>
 410b628:	2807883a 	mov	r3,r5
 410b62c:	3023883a 	mov	r17,r6
 410b630:	3825883a 	mov	r18,r7
 410b634:	0401ffc4 	movi	r16,2047
 410b638:	003e7e06 	br	410b034 <__ram_exceptions_end+0xfc102df0>
 410b63c:	3809883a 	mov	r4,r7
 410b640:	0011883a 	mov	r8,zero
 410b644:	0005883a 	mov	r2,zero
 410b648:	003ee306 	br	410b1d8 <__ram_exceptions_end+0xfc102f94>
 410b64c:	1c62b03a 	or	r17,r3,r17
 410b650:	8822c03a 	cmpne	r17,r17,zero
 410b654:	0005883a 	mov	r2,zero
 410b658:	003f8906 	br	410b480 <__ram_exceptions_end+0xfc10323c>
 410b65c:	3809883a 	mov	r4,r7
 410b660:	4821883a 	mov	r16,r9
 410b664:	0011883a 	mov	r8,zero
 410b668:	0005883a 	mov	r2,zero
 410b66c:	003eda06 	br	410b1d8 <__ram_exceptions_end+0xfc102f94>
 410b670:	0101ffc4 	movi	r4,2047
 410b674:	49003b26 	beq	r9,r4,410b764 <__subdf3+0x7b4>
 410b678:	0085c83a 	sub	r2,zero,r2
 410b67c:	18c02034 	orhi	r3,r3,128
 410b680:	01000e04 	movi	r4,56
 410b684:	20806e16 	blt	r4,r2,410b840 <__subdf3+0x890>
 410b688:	010007c4 	movi	r4,31
 410b68c:	20807716 	blt	r4,r2,410b86c <__subdf3+0x8bc>
 410b690:	01000804 	movi	r4,32
 410b694:	2089c83a 	sub	r4,r4,r2
 410b698:	1914983a 	sll	r10,r3,r4
 410b69c:	8890d83a 	srl	r8,r17,r2
 410b6a0:	8908983a 	sll	r4,r17,r4
 410b6a4:	1884d83a 	srl	r2,r3,r2
 410b6a8:	5222b03a 	or	r17,r10,r8
 410b6ac:	2006c03a 	cmpne	r3,r4,zero
 410b6b0:	88e2b03a 	or	r17,r17,r3
 410b6b4:	89a3883a 	add	r17,r17,r6
 410b6b8:	1145883a 	add	r2,r2,r5
 410b6bc:	898d803a 	cmpltu	r6,r17,r6
 410b6c0:	3087883a 	add	r3,r6,r2
 410b6c4:	4821883a 	mov	r16,r9
 410b6c8:	003ed906 	br	410b230 <__ram_exceptions_end+0xfc102fec>
 410b6cc:	2984b03a 	or	r2,r5,r6
 410b6d0:	10004226 	beq	r2,zero,410b7dc <__subdf3+0x82c>
 410b6d4:	1808d0fa 	srli	r4,r3,3
 410b6d8:	8822d0fa 	srli	r17,r17,3
 410b6dc:	1806977a 	slli	r3,r3,29
 410b6e0:	2080022c 	andhi	r2,r4,8
 410b6e4:	1c62b03a 	or	r17,r3,r17
 410b6e8:	10000826 	beq	r2,zero,410b70c <__subdf3+0x75c>
 410b6ec:	2812d0fa 	srli	r9,r5,3
 410b6f0:	4880022c 	andhi	r2,r9,8
 410b6f4:	1000051e 	bne	r2,zero,410b70c <__subdf3+0x75c>
 410b6f8:	300cd0fa 	srli	r6,r6,3
 410b6fc:	2804977a 	slli	r2,r5,29
 410b700:	4809883a 	mov	r4,r9
 410b704:	3825883a 	mov	r18,r7
 410b708:	11a2b03a 	or	r17,r2,r6
 410b70c:	8806d77a 	srli	r3,r17,29
 410b710:	200890fa 	slli	r4,r4,3
 410b714:	882290fa 	slli	r17,r17,3
 410b718:	0401ffc4 	movi	r16,2047
 410b71c:	1906b03a 	or	r3,r3,r4
 410b720:	003e4406 	br	410b034 <__ram_exceptions_end+0xfc102df0>
 410b724:	2984b03a 	or	r2,r5,r6
 410b728:	103e4226 	beq	r2,zero,410b034 <__ram_exceptions_end+0xfc102df0>
 410b72c:	8989c83a 	sub	r4,r17,r6
 410b730:	8911803a 	cmpltu	r8,r17,r4
 410b734:	1945c83a 	sub	r2,r3,r5
 410b738:	1205c83a 	sub	r2,r2,r8
 410b73c:	1200202c 	andhi	r8,r2,128
 410b740:	403e9a26 	beq	r8,zero,410b1ac <__ram_exceptions_end+0xfc102f68>
 410b744:	3463c83a 	sub	r17,r6,r17
 410b748:	28c5c83a 	sub	r2,r5,r3
 410b74c:	344d803a 	cmpltu	r6,r6,r17
 410b750:	1187c83a 	sub	r3,r2,r6
 410b754:	3825883a 	mov	r18,r7
 410b758:	003e3606 	br	410b034 <__ram_exceptions_end+0xfc102df0>
 410b75c:	0101ffc4 	movi	r4,2047
 410b760:	493fc71e 	bne	r9,r4,410b680 <__ram_exceptions_end+0xfc10343c>
 410b764:	2807883a 	mov	r3,r5
 410b768:	3023883a 	mov	r17,r6
 410b76c:	4821883a 	mov	r16,r9
 410b770:	003e3006 	br	410b034 <__ram_exceptions_end+0xfc102df0>
 410b774:	10003626 	beq	r2,zero,410b850 <__subdf3+0x8a0>
 410b778:	2984b03a 	or	r2,r5,r6
 410b77c:	10001726 	beq	r2,zero,410b7dc <__subdf3+0x82c>
 410b780:	1808d0fa 	srli	r4,r3,3
 410b784:	8822d0fa 	srli	r17,r17,3
 410b788:	1806977a 	slli	r3,r3,29
 410b78c:	2080022c 	andhi	r2,r4,8
 410b790:	1c62b03a 	or	r17,r3,r17
 410b794:	10000726 	beq	r2,zero,410b7b4 <__subdf3+0x804>
 410b798:	2812d0fa 	srli	r9,r5,3
 410b79c:	4880022c 	andhi	r2,r9,8
 410b7a0:	1000041e 	bne	r2,zero,410b7b4 <__subdf3+0x804>
 410b7a4:	300cd0fa 	srli	r6,r6,3
 410b7a8:	2804977a 	slli	r2,r5,29
 410b7ac:	4809883a 	mov	r4,r9
 410b7b0:	11a2b03a 	or	r17,r2,r6
 410b7b4:	8806d77a 	srli	r3,r17,29
 410b7b8:	200890fa 	slli	r4,r4,3
 410b7bc:	882290fa 	slli	r17,r17,3
 410b7c0:	3825883a 	mov	r18,r7
 410b7c4:	1906b03a 	or	r3,r3,r4
 410b7c8:	0401ffc4 	movi	r16,2047
 410b7cc:	003e1906 	br	410b034 <__ram_exceptions_end+0xfc102df0>
 410b7d0:	000b883a 	mov	r5,zero
 410b7d4:	0005883a 	mov	r2,zero
 410b7d8:	003e2e06 	br	410b094 <__ram_exceptions_end+0xfc102e50>
 410b7dc:	0401ffc4 	movi	r16,2047
 410b7e0:	003e1406 	br	410b034 <__ram_exceptions_end+0xfc102df0>
 410b7e4:	0005883a 	mov	r2,zero
 410b7e8:	003f7506 	br	410b5c0 <__ram_exceptions_end+0xfc10337c>
 410b7ec:	0005883a 	mov	r2,zero
 410b7f0:	0009883a 	mov	r4,zero
 410b7f4:	003e7806 	br	410b1d8 <__ram_exceptions_end+0xfc102f94>
 410b7f8:	123ff804 	addi	r8,r2,-32
 410b7fc:	01000804 	movi	r4,32
 410b800:	1a10d83a 	srl	r8,r3,r8
 410b804:	11002526 	beq	r2,r4,410b89c <__subdf3+0x8ec>
 410b808:	01001004 	movi	r4,64
 410b80c:	2085c83a 	sub	r2,r4,r2
 410b810:	1884983a 	sll	r2,r3,r2
 410b814:	1444b03a 	or	r2,r2,r17
 410b818:	1004c03a 	cmpne	r2,r2,zero
 410b81c:	40a2b03a 	or	r17,r8,r2
 410b820:	0005883a 	mov	r2,zero
 410b824:	003f1606 	br	410b480 <__ram_exceptions_end+0xfc10323c>
 410b828:	02000434 	movhi	r8,16
 410b82c:	0009883a 	mov	r4,zero
 410b830:	423fffc4 	addi	r8,r8,-1
 410b834:	00bfffc4 	movi	r2,-1
 410b838:	0401ffc4 	movi	r16,2047
 410b83c:	003e6606 	br	410b1d8 <__ram_exceptions_end+0xfc102f94>
 410b840:	1c62b03a 	or	r17,r3,r17
 410b844:	8822c03a 	cmpne	r17,r17,zero
 410b848:	0005883a 	mov	r2,zero
 410b84c:	003f9906 	br	410b6b4 <__ram_exceptions_end+0xfc103470>
 410b850:	2807883a 	mov	r3,r5
 410b854:	3023883a 	mov	r17,r6
 410b858:	0401ffc4 	movi	r16,2047
 410b85c:	003df506 	br	410b034 <__ram_exceptions_end+0xfc102df0>
 410b860:	2807883a 	mov	r3,r5
 410b864:	3023883a 	mov	r17,r6
 410b868:	003df206 	br	410b034 <__ram_exceptions_end+0xfc102df0>
 410b86c:	123ff804 	addi	r8,r2,-32
 410b870:	01000804 	movi	r4,32
 410b874:	1a10d83a 	srl	r8,r3,r8
 410b878:	11000a26 	beq	r2,r4,410b8a4 <__subdf3+0x8f4>
 410b87c:	01001004 	movi	r4,64
 410b880:	2085c83a 	sub	r2,r4,r2
 410b884:	1884983a 	sll	r2,r3,r2
 410b888:	1444b03a 	or	r2,r2,r17
 410b88c:	1004c03a 	cmpne	r2,r2,zero
 410b890:	40a2b03a 	or	r17,r8,r2
 410b894:	0005883a 	mov	r2,zero
 410b898:	003f8606 	br	410b6b4 <__ram_exceptions_end+0xfc103470>
 410b89c:	0005883a 	mov	r2,zero
 410b8a0:	003fdc06 	br	410b814 <__ram_exceptions_end+0xfc1035d0>
 410b8a4:	0005883a 	mov	r2,zero
 410b8a8:	003ff706 	br	410b888 <__ram_exceptions_end+0xfc103644>

0410b8ac <__fixdfsi>:
 410b8ac:	280cd53a 	srli	r6,r5,20
 410b8b0:	00c00434 	movhi	r3,16
 410b8b4:	18ffffc4 	addi	r3,r3,-1
 410b8b8:	3181ffcc 	andi	r6,r6,2047
 410b8bc:	01c0ff84 	movi	r7,1022
 410b8c0:	28c6703a 	and	r3,r5,r3
 410b8c4:	280ad7fa 	srli	r5,r5,31
 410b8c8:	3980120e 	bge	r7,r6,410b914 <__fixdfsi+0x68>
 410b8cc:	00810744 	movi	r2,1053
 410b8d0:	11800c16 	blt	r2,r6,410b904 <__fixdfsi+0x58>
 410b8d4:	00810cc4 	movi	r2,1075
 410b8d8:	1185c83a 	sub	r2,r2,r6
 410b8dc:	01c007c4 	movi	r7,31
 410b8e0:	18c00434 	orhi	r3,r3,16
 410b8e4:	38800d16 	blt	r7,r2,410b91c <__fixdfsi+0x70>
 410b8e8:	31befb44 	addi	r6,r6,-1043
 410b8ec:	2084d83a 	srl	r2,r4,r2
 410b8f0:	1986983a 	sll	r3,r3,r6
 410b8f4:	1884b03a 	or	r2,r3,r2
 410b8f8:	28000726 	beq	r5,zero,410b918 <__fixdfsi+0x6c>
 410b8fc:	0085c83a 	sub	r2,zero,r2
 410b900:	f800283a 	ret
 410b904:	00a00034 	movhi	r2,32768
 410b908:	10bfffc4 	addi	r2,r2,-1
 410b90c:	2885883a 	add	r2,r5,r2
 410b910:	f800283a 	ret
 410b914:	0005883a 	mov	r2,zero
 410b918:	f800283a 	ret
 410b91c:	008104c4 	movi	r2,1043
 410b920:	1185c83a 	sub	r2,r2,r6
 410b924:	1884d83a 	srl	r2,r3,r2
 410b928:	003ff306 	br	410b8f8 <__ram_exceptions_end+0xfc1036b4>

0410b92c <__floatsidf>:
 410b92c:	defffd04 	addi	sp,sp,-12
 410b930:	dfc00215 	stw	ra,8(sp)
 410b934:	dc400115 	stw	r17,4(sp)
 410b938:	dc000015 	stw	r16,0(sp)
 410b93c:	20002b26 	beq	r4,zero,410b9ec <__floatsidf+0xc0>
 410b940:	2023883a 	mov	r17,r4
 410b944:	2020d7fa 	srli	r16,r4,31
 410b948:	20002d16 	blt	r4,zero,410ba00 <__floatsidf+0xd4>
 410b94c:	8809883a 	mov	r4,r17
 410b950:	410bab00 	call	410bab0 <__clzsi2>
 410b954:	01410784 	movi	r5,1054
 410b958:	288bc83a 	sub	r5,r5,r2
 410b95c:	01010cc4 	movi	r4,1075
 410b960:	2149c83a 	sub	r4,r4,r5
 410b964:	00c007c4 	movi	r3,31
 410b968:	1900160e 	bge	r3,r4,410b9c4 <__floatsidf+0x98>
 410b96c:	00c104c4 	movi	r3,1043
 410b970:	1947c83a 	sub	r3,r3,r5
 410b974:	88c6983a 	sll	r3,r17,r3
 410b978:	00800434 	movhi	r2,16
 410b97c:	10bfffc4 	addi	r2,r2,-1
 410b980:	1886703a 	and	r3,r3,r2
 410b984:	2941ffcc 	andi	r5,r5,2047
 410b988:	800d883a 	mov	r6,r16
 410b98c:	0005883a 	mov	r2,zero
 410b990:	280a953a 	slli	r5,r5,20
 410b994:	31803fcc 	andi	r6,r6,255
 410b998:	01000434 	movhi	r4,16
 410b99c:	300c97fa 	slli	r6,r6,31
 410b9a0:	213fffc4 	addi	r4,r4,-1
 410b9a4:	1906703a 	and	r3,r3,r4
 410b9a8:	1946b03a 	or	r3,r3,r5
 410b9ac:	1986b03a 	or	r3,r3,r6
 410b9b0:	dfc00217 	ldw	ra,8(sp)
 410b9b4:	dc400117 	ldw	r17,4(sp)
 410b9b8:	dc000017 	ldw	r16,0(sp)
 410b9bc:	dec00304 	addi	sp,sp,12
 410b9c0:	f800283a 	ret
 410b9c4:	00c002c4 	movi	r3,11
 410b9c8:	1887c83a 	sub	r3,r3,r2
 410b9cc:	88c6d83a 	srl	r3,r17,r3
 410b9d0:	8904983a 	sll	r2,r17,r4
 410b9d4:	01000434 	movhi	r4,16
 410b9d8:	213fffc4 	addi	r4,r4,-1
 410b9dc:	2941ffcc 	andi	r5,r5,2047
 410b9e0:	1906703a 	and	r3,r3,r4
 410b9e4:	800d883a 	mov	r6,r16
 410b9e8:	003fe906 	br	410b990 <__ram_exceptions_end+0xfc10374c>
 410b9ec:	000d883a 	mov	r6,zero
 410b9f0:	000b883a 	mov	r5,zero
 410b9f4:	0007883a 	mov	r3,zero
 410b9f8:	0005883a 	mov	r2,zero
 410b9fc:	003fe406 	br	410b990 <__ram_exceptions_end+0xfc10374c>
 410ba00:	0123c83a 	sub	r17,zero,r4
 410ba04:	003fd106 	br	410b94c <__ram_exceptions_end+0xfc103708>

0410ba08 <__floatunsidf>:
 410ba08:	defffe04 	addi	sp,sp,-8
 410ba0c:	dc000015 	stw	r16,0(sp)
 410ba10:	dfc00115 	stw	ra,4(sp)
 410ba14:	2021883a 	mov	r16,r4
 410ba18:	20002226 	beq	r4,zero,410baa4 <__floatunsidf+0x9c>
 410ba1c:	410bab00 	call	410bab0 <__clzsi2>
 410ba20:	01010784 	movi	r4,1054
 410ba24:	2089c83a 	sub	r4,r4,r2
 410ba28:	01810cc4 	movi	r6,1075
 410ba2c:	310dc83a 	sub	r6,r6,r4
 410ba30:	00c007c4 	movi	r3,31
 410ba34:	1980120e 	bge	r3,r6,410ba80 <__floatunsidf+0x78>
 410ba38:	00c104c4 	movi	r3,1043
 410ba3c:	1907c83a 	sub	r3,r3,r4
 410ba40:	80ca983a 	sll	r5,r16,r3
 410ba44:	00800434 	movhi	r2,16
 410ba48:	10bfffc4 	addi	r2,r2,-1
 410ba4c:	2101ffcc 	andi	r4,r4,2047
 410ba50:	0021883a 	mov	r16,zero
 410ba54:	288a703a 	and	r5,r5,r2
 410ba58:	2008953a 	slli	r4,r4,20
 410ba5c:	00c00434 	movhi	r3,16
 410ba60:	18ffffc4 	addi	r3,r3,-1
 410ba64:	28c6703a 	and	r3,r5,r3
 410ba68:	8005883a 	mov	r2,r16
 410ba6c:	1906b03a 	or	r3,r3,r4
 410ba70:	dfc00117 	ldw	ra,4(sp)
 410ba74:	dc000017 	ldw	r16,0(sp)
 410ba78:	dec00204 	addi	sp,sp,8
 410ba7c:	f800283a 	ret
 410ba80:	00c002c4 	movi	r3,11
 410ba84:	188bc83a 	sub	r5,r3,r2
 410ba88:	814ad83a 	srl	r5,r16,r5
 410ba8c:	00c00434 	movhi	r3,16
 410ba90:	18ffffc4 	addi	r3,r3,-1
 410ba94:	81a0983a 	sll	r16,r16,r6
 410ba98:	2101ffcc 	andi	r4,r4,2047
 410ba9c:	28ca703a 	and	r5,r5,r3
 410baa0:	003fed06 	br	410ba58 <__ram_exceptions_end+0xfc103814>
 410baa4:	0009883a 	mov	r4,zero
 410baa8:	000b883a 	mov	r5,zero
 410baac:	003fea06 	br	410ba58 <__ram_exceptions_end+0xfc103814>

0410bab0 <__clzsi2>:
 410bab0:	00bfffd4 	movui	r2,65535
 410bab4:	11000536 	bltu	r2,r4,410bacc <__clzsi2+0x1c>
 410bab8:	00803fc4 	movi	r2,255
 410babc:	11000f36 	bltu	r2,r4,410bafc <__clzsi2+0x4c>
 410bac0:	00800804 	movi	r2,32
 410bac4:	0007883a 	mov	r3,zero
 410bac8:	00000506 	br	410bae0 <__clzsi2+0x30>
 410bacc:	00804034 	movhi	r2,256
 410bad0:	10bfffc4 	addi	r2,r2,-1
 410bad4:	11000c2e 	bgeu	r2,r4,410bb08 <__clzsi2+0x58>
 410bad8:	00800204 	movi	r2,8
 410badc:	00c00604 	movi	r3,24
 410bae0:	20c8d83a 	srl	r4,r4,r3
 410bae4:	00c10474 	movhi	r3,1041
 410bae8:	18f89d04 	addi	r3,r3,-7564
 410baec:	1909883a 	add	r4,r3,r4
 410baf0:	20c00003 	ldbu	r3,0(r4)
 410baf4:	10c5c83a 	sub	r2,r2,r3
 410baf8:	f800283a 	ret
 410bafc:	00800604 	movi	r2,24
 410bb00:	00c00204 	movi	r3,8
 410bb04:	003ff606 	br	410bae0 <__ram_exceptions_end+0xfc10389c>
 410bb08:	00800404 	movi	r2,16
 410bb0c:	1007883a 	mov	r3,r2
 410bb10:	003ff306 	br	410bae0 <__ram_exceptions_end+0xfc10389c>

0410bb14 <alt_ic_isr_register>:
  * @param irq              IRQ number
  * @return                 0 if successful, else error (-1)
  */
int alt_ic_isr_register(alt_u32 ic_id, alt_u32 irq, alt_isr_func isr, 
  void *isr_context, void *flags)
{
 410bb14:	defff904 	addi	sp,sp,-28
 410bb18:	dfc00615 	stw	ra,24(sp)
 410bb1c:	df000515 	stw	fp,20(sp)
 410bb20:	df000504 	addi	fp,sp,20
 410bb24:	e13ffc15 	stw	r4,-16(fp)
 410bb28:	e17ffd15 	stw	r5,-12(fp)
 410bb2c:	e1bffe15 	stw	r6,-8(fp)
 410bb30:	e1ffff15 	stw	r7,-4(fp)
    return alt_iic_isr_register(ic_id, irq, isr, isr_context, flags);
 410bb34:	e0800217 	ldw	r2,8(fp)
 410bb38:	d8800015 	stw	r2,0(sp)
 410bb3c:	e1ffff17 	ldw	r7,-4(fp)
 410bb40:	e1bffe17 	ldw	r6,-8(fp)
 410bb44:	e17ffd17 	ldw	r5,-12(fp)
 410bb48:	e13ffc17 	ldw	r4,-16(fp)
 410bb4c:	410bcc40 	call	410bcc4 <alt_iic_isr_register>
}  
 410bb50:	e037883a 	mov	sp,fp
 410bb54:	dfc00117 	ldw	ra,4(sp)
 410bb58:	df000017 	ldw	fp,0(sp)
 410bb5c:	dec00204 	addi	sp,sp,8
 410bb60:	f800283a 	ret

0410bb64 <alt_ic_irq_enable>:
  * @param ic_id            Ignored.
  * @param irq              IRQ number
  * @return                 0 if successful, else error (-1)
  */
int alt_ic_irq_enable (alt_u32 ic_id, alt_u32 irq)
{
 410bb64:	defff904 	addi	sp,sp,-28
 410bb68:	df000615 	stw	fp,24(sp)
 410bb6c:	df000604 	addi	fp,sp,24
 410bb70:	e13ffe15 	stw	r4,-8(fp)
 410bb74:	e17fff15 	stw	r5,-4(fp)
 410bb78:	e0bfff17 	ldw	r2,-4(fp)
 410bb7c:	e0bffa15 	stw	r2,-24(fp)
static ALT_INLINE alt_irq_context ALT_ALWAYS_INLINE 
       alt_irq_disable_all (void)
{
  alt_irq_context context;

  NIOS2_READ_STATUS (context);
 410bb80:	0005303a 	rdctl	r2,status
 410bb84:	e0bffb15 	stw	r2,-20(fp)

  NIOS2_WRITE_STATUS (context & ~NIOS2_STATUS_PIE_MSK);
 410bb88:	e0fffb17 	ldw	r3,-20(fp)
 410bb8c:	00bfff84 	movi	r2,-2
 410bb90:	1884703a 	and	r2,r3,r2
 410bb94:	1001703a 	wrctl	status,r2
  
  return context;
 410bb98:	e0bffb17 	ldw	r2,-20(fp)
static ALT_INLINE int ALT_ALWAYS_INLINE alt_irq_enable (alt_u32 id)
{
  alt_irq_context  status;
  extern volatile alt_u32 alt_irq_active;

  status = alt_irq_disable_all ();
 410bb9c:	e0bffc15 	stw	r2,-16(fp)

  alt_irq_active |= (1 << id);
 410bba0:	00c00044 	movi	r3,1
 410bba4:	e0bffa17 	ldw	r2,-24(fp)
 410bba8:	1884983a 	sll	r2,r3,r2
 410bbac:	1007883a 	mov	r3,r2
 410bbb0:	d0a6e517 	ldw	r2,-25708(gp)
 410bbb4:	1884b03a 	or	r2,r3,r2
 410bbb8:	d0a6e515 	stw	r2,-25708(gp)
  NIOS2_WRITE_IENABLE (alt_irq_active);
 410bbbc:	d0a6e517 	ldw	r2,-25708(gp)
 410bbc0:	100170fa 	wrctl	ienable,r2
 410bbc4:	e0bffc17 	ldw	r2,-16(fp)
 410bbc8:	e0bffd15 	stw	r2,-12(fp)
  status &= ~NIOS2_STATUS_PIE_MSK;
  status |= (context & NIOS2_STATUS_PIE_MSK);
  
  NIOS2_WRITE_STATUS (status);
#else
  NIOS2_WRITE_STATUS (context);
 410bbcc:	e0bffd17 	ldw	r2,-12(fp)
 410bbd0:	1001703a 	wrctl	status,r2

  alt_irq_enable_all(status);

  return 0;
 410bbd4:	0005883a 	mov	r2,zero
    return alt_irq_enable(irq);
 410bbd8:	0001883a 	nop
}
 410bbdc:	e037883a 	mov	sp,fp
 410bbe0:	df000017 	ldw	fp,0(sp)
 410bbe4:	dec00104 	addi	sp,sp,4
 410bbe8:	f800283a 	ret

0410bbec <alt_ic_irq_disable>:
  * @param ic_id            Ignored.
  * @param irq              IRQ number
  * @return                 0 if successful, else error (-1)
  */
int alt_ic_irq_disable(alt_u32 ic_id, alt_u32 irq)
{
 410bbec:	defff904 	addi	sp,sp,-28
 410bbf0:	df000615 	stw	fp,24(sp)
 410bbf4:	df000604 	addi	fp,sp,24
 410bbf8:	e13ffe15 	stw	r4,-8(fp)
 410bbfc:	e17fff15 	stw	r5,-4(fp)
 410bc00:	e0bfff17 	ldw	r2,-4(fp)
 410bc04:	e0bffa15 	stw	r2,-24(fp)
static ALT_INLINE alt_irq_context ALT_ALWAYS_INLINE 
       alt_irq_disable_all (void)
{
  alt_irq_context context;

  NIOS2_READ_STATUS (context);
 410bc08:	0005303a 	rdctl	r2,status
 410bc0c:	e0bffb15 	stw	r2,-20(fp)

  NIOS2_WRITE_STATUS (context & ~NIOS2_STATUS_PIE_MSK);
 410bc10:	e0fffb17 	ldw	r3,-20(fp)
 410bc14:	00bfff84 	movi	r2,-2
 410bc18:	1884703a 	and	r2,r3,r2
 410bc1c:	1001703a 	wrctl	status,r2
  
  return context;
 410bc20:	e0bffb17 	ldw	r2,-20(fp)
static ALT_INLINE int ALT_ALWAYS_INLINE alt_irq_disable (alt_u32 id)
{
  alt_irq_context  status;
  extern volatile alt_u32 alt_irq_active;

  status = alt_irq_disable_all ();
 410bc24:	e0bffc15 	stw	r2,-16(fp)

  alt_irq_active &= ~(1 << id);
 410bc28:	00c00044 	movi	r3,1
 410bc2c:	e0bffa17 	ldw	r2,-24(fp)
 410bc30:	1884983a 	sll	r2,r3,r2
 410bc34:	0084303a 	nor	r2,zero,r2
 410bc38:	1007883a 	mov	r3,r2
 410bc3c:	d0a6e517 	ldw	r2,-25708(gp)
 410bc40:	1884703a 	and	r2,r3,r2
 410bc44:	d0a6e515 	stw	r2,-25708(gp)
  NIOS2_WRITE_IENABLE (alt_irq_active);
 410bc48:	d0a6e517 	ldw	r2,-25708(gp)
 410bc4c:	100170fa 	wrctl	ienable,r2
 410bc50:	e0bffc17 	ldw	r2,-16(fp)
 410bc54:	e0bffd15 	stw	r2,-12(fp)
  status &= ~NIOS2_STATUS_PIE_MSK;
  status |= (context & NIOS2_STATUS_PIE_MSK);
  
  NIOS2_WRITE_STATUS (status);
#else
  NIOS2_WRITE_STATUS (context);
 410bc58:	e0bffd17 	ldw	r2,-12(fp)
 410bc5c:	1001703a 	wrctl	status,r2

  alt_irq_enable_all(status);

  return 0;
 410bc60:	0005883a 	mov	r2,zero
    return alt_irq_disable(irq);
 410bc64:	0001883a 	nop
}
 410bc68:	e037883a 	mov	sp,fp
 410bc6c:	df000017 	ldw	fp,0(sp)
 410bc70:	dec00104 	addi	sp,sp,4
 410bc74:	f800283a 	ret

0410bc78 <alt_ic_irq_enabled>:
  * @param irq              IRQ number
  * @return                 Zero if corresponding interrupt is disabled and
  *                         non-zero otherwise.
  */
alt_u32 alt_ic_irq_enabled(alt_u32 ic_id, alt_u32 irq)
{
 410bc78:	defffc04 	addi	sp,sp,-16
 410bc7c:	df000315 	stw	fp,12(sp)
 410bc80:	df000304 	addi	fp,sp,12
 410bc84:	e13ffe15 	stw	r4,-8(fp)
 410bc88:	e17fff15 	stw	r5,-4(fp)
    alt_u32 irq_enabled;

    NIOS2_READ_IENABLE(irq_enabled);
 410bc8c:	000530fa 	rdctl	r2,ienable
 410bc90:	e0bffd15 	stw	r2,-12(fp)

    return (irq_enabled & (1 << irq)) ? 1: 0;
 410bc94:	00c00044 	movi	r3,1
 410bc98:	e0bfff17 	ldw	r2,-4(fp)
 410bc9c:	1884983a 	sll	r2,r3,r2
 410bca0:	1007883a 	mov	r3,r2
 410bca4:	e0bffd17 	ldw	r2,-12(fp)
 410bca8:	1884703a 	and	r2,r3,r2
 410bcac:	1004c03a 	cmpne	r2,r2,zero
 410bcb0:	10803fcc 	andi	r2,r2,255
}
 410bcb4:	e037883a 	mov	sp,fp
 410bcb8:	df000017 	ldw	fp,0(sp)
 410bcbc:	dec00104 	addi	sp,sp,4
 410bcc0:	f800283a 	ret

0410bcc4 <alt_iic_isr_register>:
  * @param flags            
  * @return                 0 if successful, else error (-1)
  */
int alt_iic_isr_register(alt_u32 ic_id, alt_u32 irq, alt_isr_func isr, 
  void *isr_context, void *flags)
{
 410bcc4:	defff504 	addi	sp,sp,-44
 410bcc8:	dfc00a15 	stw	ra,40(sp)
 410bccc:	df000915 	stw	fp,36(sp)
 410bcd0:	df000904 	addi	fp,sp,36
 410bcd4:	e13ffc15 	stw	r4,-16(fp)
 410bcd8:	e17ffd15 	stw	r5,-12(fp)
 410bcdc:	e1bffe15 	stw	r6,-8(fp)
 410bce0:	e1ffff15 	stw	r7,-4(fp)
  int rc = -EINVAL;  
 410bce4:	00bffa84 	movi	r2,-22
 410bce8:	e0bff715 	stw	r2,-36(fp)
  int id = irq;             /* IRQ interpreted as the interrupt ID. */
 410bcec:	e0bffd17 	ldw	r2,-12(fp)
 410bcf0:	e0bff815 	stw	r2,-32(fp)
  alt_irq_context status;

  if (id < ALT_NIRQ)
 410bcf4:	e0bff817 	ldw	r2,-32(fp)
 410bcf8:	10800808 	cmpgei	r2,r2,32
 410bcfc:	1000271e 	bne	r2,zero,410bd9c <alt_iic_isr_register+0xd8>
static ALT_INLINE alt_irq_context ALT_ALWAYS_INLINE 
       alt_irq_disable_all (void)
{
  alt_irq_context context;

  NIOS2_READ_STATUS (context);
 410bd00:	0005303a 	rdctl	r2,status
 410bd04:	e0bffb15 	stw	r2,-20(fp)

  NIOS2_WRITE_STATUS (context & ~NIOS2_STATUS_PIE_MSK);
 410bd08:	e0fffb17 	ldw	r3,-20(fp)
 410bd0c:	00bfff84 	movi	r2,-2
 410bd10:	1884703a 	and	r2,r3,r2
 410bd14:	1001703a 	wrctl	status,r2
  
  return context;
 410bd18:	e0bffb17 	ldw	r2,-20(fp)
     * interrupts are disabled while the handler tables are updated to ensure
     * that an interrupt doesn't occur while the tables are in an inconsistant
     * state.
     */

    status = alt_irq_disable_all();
 410bd1c:	e0bffa15 	stw	r2,-24(fp)

    alt_irq[id].handler = isr;
 410bd20:	00810474 	movhi	r2,1041
 410bd24:	10869304 	addi	r2,r2,6732
 410bd28:	e0fff817 	ldw	r3,-32(fp)
 410bd2c:	180690fa 	slli	r3,r3,3
 410bd30:	10c5883a 	add	r2,r2,r3
 410bd34:	e0fffe17 	ldw	r3,-8(fp)
 410bd38:	10c00015 	stw	r3,0(r2)
    alt_irq[id].context = isr_context;
 410bd3c:	00810474 	movhi	r2,1041
 410bd40:	10869304 	addi	r2,r2,6732
 410bd44:	e0fff817 	ldw	r3,-32(fp)
 410bd48:	180690fa 	slli	r3,r3,3
 410bd4c:	10c5883a 	add	r2,r2,r3
 410bd50:	10800104 	addi	r2,r2,4
 410bd54:	e0ffff17 	ldw	r3,-4(fp)
 410bd58:	10c00015 	stw	r3,0(r2)

    rc = (isr) ? alt_ic_irq_enable(ic_id, id) : alt_ic_irq_disable(ic_id, id);
 410bd5c:	e0bffe17 	ldw	r2,-8(fp)
 410bd60:	10000526 	beq	r2,zero,410bd78 <alt_iic_isr_register+0xb4>
 410bd64:	e0bff817 	ldw	r2,-32(fp)
 410bd68:	100b883a 	mov	r5,r2
 410bd6c:	e13ffc17 	ldw	r4,-16(fp)
 410bd70:	410bb640 	call	410bb64 <alt_ic_irq_enable>
 410bd74:	00000406 	br	410bd88 <alt_iic_isr_register+0xc4>
 410bd78:	e0bff817 	ldw	r2,-32(fp)
 410bd7c:	100b883a 	mov	r5,r2
 410bd80:	e13ffc17 	ldw	r4,-16(fp)
 410bd84:	410bbec0 	call	410bbec <alt_ic_irq_disable>
 410bd88:	e0bff715 	stw	r2,-36(fp)
 410bd8c:	e0bffa17 	ldw	r2,-24(fp)
 410bd90:	e0bff915 	stw	r2,-28(fp)
  status &= ~NIOS2_STATUS_PIE_MSK;
  status |= (context & NIOS2_STATUS_PIE_MSK);
  
  NIOS2_WRITE_STATUS (status);
#else
  NIOS2_WRITE_STATUS (context);
 410bd94:	e0bff917 	ldw	r2,-28(fp)
 410bd98:	1001703a 	wrctl	status,r2

    alt_irq_enable_all(status);
  }

  return rc; 
 410bd9c:	e0bff717 	ldw	r2,-36(fp)
}
 410bda0:	e037883a 	mov	sp,fp
 410bda4:	dfc00117 	ldw	ra,4(sp)
 410bda8:	df000017 	ldw	fp,0(sp)
 410bdac:	dec00204 	addi	sp,sp,8
 410bdb0:	f800283a 	ret

0410bdb4 <alt_load_section>:
 */

static void ALT_INLINE alt_load_section (alt_u32* from, 
                                         alt_u32* to, 
                                         alt_u32* end)
{
 410bdb4:	defffc04 	addi	sp,sp,-16
 410bdb8:	df000315 	stw	fp,12(sp)
 410bdbc:	df000304 	addi	fp,sp,12
 410bdc0:	e13ffd15 	stw	r4,-12(fp)
 410bdc4:	e17ffe15 	stw	r5,-8(fp)
 410bdc8:	e1bfff15 	stw	r6,-4(fp)
  if (to != from)
 410bdcc:	e0fffe17 	ldw	r3,-8(fp)
 410bdd0:	e0bffd17 	ldw	r2,-12(fp)
 410bdd4:	18800c26 	beq	r3,r2,410be08 <alt_load_section+0x54>
  {
    while( to != end )
 410bdd8:	00000806 	br	410bdfc <alt_load_section+0x48>
    {
      *to++ = *from++;
 410bddc:	e0bffe17 	ldw	r2,-8(fp)
 410bde0:	10c00104 	addi	r3,r2,4
 410bde4:	e0fffe15 	stw	r3,-8(fp)
 410bde8:	e0fffd17 	ldw	r3,-12(fp)
 410bdec:	19000104 	addi	r4,r3,4
 410bdf0:	e13ffd15 	stw	r4,-12(fp)
 410bdf4:	18c00017 	ldw	r3,0(r3)
 410bdf8:	10c00015 	stw	r3,0(r2)
                                         alt_u32* to, 
                                         alt_u32* end)
{
  if (to != from)
  {
    while( to != end )
 410bdfc:	e0fffe17 	ldw	r3,-8(fp)
 410be00:	e0bfff17 	ldw	r2,-4(fp)
 410be04:	18bff51e 	bne	r3,r2,410bddc <__ram_exceptions_end+0xfc103b98>
    {
      *to++ = *from++;
    }
  }
}
 410be08:	0001883a 	nop
 410be0c:	e037883a 	mov	sp,fp
 410be10:	df000017 	ldw	fp,0(sp)
 410be14:	dec00104 	addi	sp,sp,4
 410be18:	f800283a 	ret

0410be1c <alt_load>:
 * there is no bootloader, so this application is responsible for loading to
 * RAM any sections that are required.
 */  

void alt_load (void)
{
 410be1c:	defffe04 	addi	sp,sp,-8
 410be20:	dfc00115 	stw	ra,4(sp)
 410be24:	df000015 	stw	fp,0(sp)
 410be28:	d839883a 	mov	fp,sp
  /* 
   * Copy the .rwdata section. 
   */

  alt_load_section (&__flash_rwdata_start, 
 410be2c:	01810474 	movhi	r6,1041
 410be30:	31bfaf04 	addi	r6,r6,-324
 410be34:	01410474 	movhi	r5,1041
 410be38:	2978ee04 	addi	r5,r5,-7240
 410be3c:	01010474 	movhi	r4,1041
 410be40:	213faf04 	addi	r4,r4,-324
 410be44:	410bdb40 	call	410bdb4 <alt_load_section>

  /*
   * Copy the exception handler.
   */

  alt_load_section (&__flash_exceptions_start, 
 410be48:	01820074 	movhi	r6,2049
 410be4c:	31a09104 	addi	r6,r6,-32188
 410be50:	01420074 	movhi	r5,2049
 410be54:	29600804 	addi	r5,r5,-32736
 410be58:	01010434 	movhi	r4,1040
 410be5c:	21000004 	addi	r4,r4,0
 410be60:	410bdb40 	call	410bdb4 <alt_load_section>

  /*
   * Copy the .rodata section.
   */

  alt_load_section (&__flash_rodata_start, 
 410be64:	01810474 	movhi	r6,1041
 410be68:	31b8ee04 	addi	r6,r6,-7240
 410be6c:	01410474 	movhi	r5,1041
 410be70:	29780b04 	addi	r5,r5,-8148
 410be74:	01010474 	movhi	r4,1041
 410be78:	21380b04 	addi	r4,r4,-8148
 410be7c:	410bdb40 	call	410bdb4 <alt_load_section>
  
  /*
   * Now ensure that the caches are in synch.
   */
  
  alt_dcache_flush_all();
 410be80:	410d1280 	call	410d128 <alt_dcache_flush_all>
  alt_icache_flush_all();
 410be84:	410d3cc0 	call	410d3cc <alt_icache_flush_all>
}
 410be88:	0001883a 	nop
 410be8c:	e037883a 	mov	sp,fp
 410be90:	dfc00117 	ldw	ra,4(sp)
 410be94:	df000017 	ldw	fp,0(sp)
 410be98:	dec00204 	addi	sp,sp,8
 410be9c:	f800283a 	ret

0410bea0 <alt_main>:
 * devices/filesystems/components in the system; and call the entry point for
 * the users application, i.e. main().
 */

void alt_main (void)
{
 410bea0:	defffd04 	addi	sp,sp,-12
 410bea4:	dfc00215 	stw	ra,8(sp)
 410bea8:	df000115 	stw	fp,4(sp)
 410beac:	df000104 	addi	fp,sp,4
#endif

  /* ALT LOG - please see HAL/sys/alt_log_printf.h for details */
  ALT_LOG_PRINT_BOOT("[alt_main.c] Entering alt_main, calling alt_irq_init.\r\n");
  /* Initialize the interrupt controller. */
  alt_irq_init (NULL);
 410beb0:	0009883a 	mov	r4,zero
 410beb4:	410c0ec0 	call	410c0ec <alt_irq_init>

  /* Initialize the operating system */
  ALT_LOG_PRINT_BOOT("[alt_main.c] Done alt_irq_init, calling alt_os_init.\r\n");
  ALT_OS_INIT();
 410beb8:	0001883a 	nop
  ALT_LOG_PRINT_BOOT("[alt_main.c] Done OS Init, calling alt_sem_create.\r\n");
  ALT_SEM_CREATE (&alt_fd_list_lock, 1);

  /* Initialize the device drivers/software components. */
  ALT_LOG_PRINT_BOOT("[alt_main.c] Calling alt_sys_init.\r\n");
  alt_sys_init();
 410bebc:	410c1240 	call	410c124 <alt_sys_init>
   * devices be present (not equal to /dev/null) and if direct drivers
   * aren't being used.
   */

    ALT_LOG_PRINT_BOOT("[alt_main.c] Redirecting IO.\r\n");
    alt_io_redirect(ALT_STDOUT, ALT_STDIN, ALT_STDERR);
 410bec0:	01810474 	movhi	r6,1041
 410bec4:	31b8dd04 	addi	r6,r6,-7308
 410bec8:	01410474 	movhi	r5,1041
 410becc:	2978dd04 	addi	r5,r5,-7308
 410bed0:	01010474 	movhi	r4,1041
 410bed4:	2138dd04 	addi	r4,r4,-7308
 410bed8:	410d5600 	call	410d560 <alt_io_redirect>
  /* 
   * Call the C++ constructors 
   */

  ALT_LOG_PRINT_BOOT("[alt_main.c] Calling C++ constructors.\r\n");
  _do_ctors ();
 410bedc:	410d27c0 	call	410d27c <_do_ctors>
   * redefined as _exit()). This is in the interest of reducing code footprint,
   * in that the atexit() overhead is removed when it's not needed.
   */

  ALT_LOG_PRINT_BOOT("[alt_main.c] Calling atexit.\r\n");
  atexit (_do_dtors);
 410bee0:	01010474 	movhi	r4,1041
 410bee4:	2134b704 	addi	r4,r4,-11556
 410bee8:	410dc980 	call	410dc98 <atexit>
  ALT_LOG_PRINT_BOOT("[alt_main.c] Calling main.\r\n");

#ifdef ALT_NO_EXIT
  main (alt_argc, alt_argv, alt_envp);
#else
  result = main (alt_argc, alt_argv, alt_envp);
 410beec:	d0a6e617 	ldw	r2,-25704(gp)
 410bef0:	d0e6e717 	ldw	r3,-25700(gp)
 410bef4:	d126e817 	ldw	r4,-25696(gp)
 410bef8:	200d883a 	mov	r6,r4
 410befc:	180b883a 	mov	r5,r3
 410bf00:	1009883a 	mov	r4,r2
 410bf04:	41002700 	call	4100270 <main>
 410bf08:	e0bfff15 	stw	r2,-4(fp)
  close(STDOUT_FILENO);
 410bf0c:	01000044 	movi	r4,1
 410bf10:	410d0580 	call	410d058 <close>
  exit (result);
 410bf14:	e13fff17 	ldw	r4,-4(fp)
 410bf18:	410dcac0 	call	410dcac <exit>

0410bf1c <__malloc_lock>:
 * configuration is single threaded, so there is nothing to do here. Note that 
 * this requires that malloc is never called by an interrupt service routine.
 */

void __malloc_lock ( struct _reent *_r )
{
 410bf1c:	defffe04 	addi	sp,sp,-8
 410bf20:	df000115 	stw	fp,4(sp)
 410bf24:	df000104 	addi	fp,sp,4
 410bf28:	e13fff15 	stw	r4,-4(fp)
}
 410bf2c:	0001883a 	nop
 410bf30:	e037883a 	mov	sp,fp
 410bf34:	df000017 	ldw	fp,0(sp)
 410bf38:	dec00104 	addi	sp,sp,4
 410bf3c:	f800283a 	ret

0410bf40 <__malloc_unlock>:
/*
 *
 */

void __malloc_unlock ( struct _reent *_r )
{
 410bf40:	defffe04 	addi	sp,sp,-8
 410bf44:	df000115 	stw	fp,4(sp)
 410bf48:	df000104 	addi	fp,sp,4
 410bf4c:	e13fff15 	stw	r4,-4(fp)
}
 410bf50:	0001883a 	nop
 410bf54:	e037883a 	mov	sp,fp
 410bf58:	df000017 	ldw	fp,0(sp)
 410bf5c:	dec00104 	addi	sp,sp,4
 410bf60:	f800283a 	ret

0410bf64 <sbrk>:
#endif
 
caddr_t ALT_SBRK (int incr) __attribute__ ((no_instrument_function ));

caddr_t ALT_SBRK (int incr)
{ 
 410bf64:	defff904 	addi	sp,sp,-28
 410bf68:	df000615 	stw	fp,24(sp)
 410bf6c:	df000604 	addi	fp,sp,24
 410bf70:	e13fff15 	stw	r4,-4(fp)
static ALT_INLINE alt_irq_context ALT_ALWAYS_INLINE 
       alt_irq_disable_all (void)
{
  alt_irq_context context;

  NIOS2_READ_STATUS (context);
 410bf74:	0005303a 	rdctl	r2,status
 410bf78:	e0bffe15 	stw	r2,-8(fp)

  NIOS2_WRITE_STATUS (context & ~NIOS2_STATUS_PIE_MSK);
 410bf7c:	e0fffe17 	ldw	r3,-8(fp)
 410bf80:	00bfff84 	movi	r2,-2
 410bf84:	1884703a 	and	r2,r3,r2
 410bf88:	1001703a 	wrctl	status,r2
  
  return context;
 410bf8c:	e0bffe17 	ldw	r2,-8(fp)
  alt_irq_context context;
  char *prev_heap_end; 

  context = alt_irq_disable_all();
 410bf90:	e0bffb15 	stw	r2,-20(fp)

  /* Always return data aligned on a word boundary */
  heap_end = (char *)(((unsigned int)heap_end + 3) & ~3);
 410bf94:	d0a00717 	ldw	r2,-32740(gp)
 410bf98:	10c000c4 	addi	r3,r2,3
 410bf9c:	00bfff04 	movi	r2,-4
 410bfa0:	1884703a 	and	r2,r3,r2
 410bfa4:	d0a00715 	stw	r2,-32740(gp)
  if (((heap_end + incr) - __alt_heap_start) > ALT_MAX_HEAP_BYTES) {
    alt_irq_enable_all(context);
    return (caddr_t)-1;
  }
#else
  if ((heap_end + incr) > __alt_heap_limit) {
 410bfa8:	d0e00717 	ldw	r3,-32740(gp)
 410bfac:	e0bfff17 	ldw	r2,-4(fp)
 410bfb0:	1887883a 	add	r3,r3,r2
 410bfb4:	00810834 	movhi	r2,1056
 410bfb8:	10800004 	addi	r2,r2,0
 410bfbc:	10c0062e 	bgeu	r2,r3,410bfd8 <sbrk+0x74>
 410bfc0:	e0bffb17 	ldw	r2,-20(fp)
 410bfc4:	e0bffa15 	stw	r2,-24(fp)
  status &= ~NIOS2_STATUS_PIE_MSK;
  status |= (context & NIOS2_STATUS_PIE_MSK);
  
  NIOS2_WRITE_STATUS (status);
#else
  NIOS2_WRITE_STATUS (context);
 410bfc8:	e0bffa17 	ldw	r2,-24(fp)
 410bfcc:	1001703a 	wrctl	status,r2
    alt_irq_enable_all(context);
    return (caddr_t)-1;
 410bfd0:	00bfffc4 	movi	r2,-1
 410bfd4:	00000b06 	br	410c004 <sbrk+0xa0>
  }
#endif

  prev_heap_end = heap_end; 
 410bfd8:	d0a00717 	ldw	r2,-32740(gp)
 410bfdc:	e0bffd15 	stw	r2,-12(fp)
  heap_end += incr; 
 410bfe0:	d0e00717 	ldw	r3,-32740(gp)
 410bfe4:	e0bfff17 	ldw	r2,-4(fp)
 410bfe8:	1885883a 	add	r2,r3,r2
 410bfec:	d0a00715 	stw	r2,-32740(gp)
 410bff0:	e0bffb17 	ldw	r2,-20(fp)
 410bff4:	e0bffc15 	stw	r2,-16(fp)
 410bff8:	e0bffc17 	ldw	r2,-16(fp)
 410bffc:	1001703a 	wrctl	status,r2

#endif

  alt_irq_enable_all(context);

  return (caddr_t) prev_heap_end; 
 410c000:	e0bffd17 	ldw	r2,-12(fp)
} 
 410c004:	e037883a 	mov	sp,fp
 410c008:	df000017 	ldw	fp,0(sp)
 410c00c:	dec00104 	addi	sp,sp,4
 410c010:	f800283a 	ret

0410c014 <alt_dev_reg>:
 */

extern int alt_fs_reg  (alt_dev* dev); 

static ALT_INLINE int alt_dev_reg (alt_dev* dev)
{
 410c014:	defffd04 	addi	sp,sp,-12
 410c018:	dfc00215 	stw	ra,8(sp)
 410c01c:	df000115 	stw	fp,4(sp)
 410c020:	df000104 	addi	fp,sp,4
 410c024:	e13fff15 	stw	r4,-4(fp)
  extern alt_llist alt_dev_list;

  return alt_dev_llist_insert ((alt_dev_llist*) dev, &alt_dev_list);
 410c028:	d1600c04 	addi	r5,gp,-32720
 410c02c:	e13fff17 	ldw	r4,-4(fp)
 410c030:	410d1d80 	call	410d1d8 <alt_dev_llist_insert>
}
 410c034:	e037883a 	mov	sp,fp
 410c038:	dfc00117 	ldw	ra,4(sp)
 410c03c:	df000017 	ldw	fp,0(sp)
 410c040:	dec00204 	addi	sp,sp,8
 410c044:	f800283a 	ret

0410c048 <alt_get_errno>:
#undef errno

extern int errno;

static ALT_INLINE int* alt_get_errno(void)
{
 410c048:	defffe04 	addi	sp,sp,-8
 410c04c:	dfc00115 	stw	ra,4(sp)
 410c050:	df000015 	stw	fp,0(sp)
 410c054:	d839883a 	mov	fp,sp
  return ((alt_errno) ? alt_errno() : &errno);
 410c058:	d0a00f17 	ldw	r2,-32708(gp)
 410c05c:	10000326 	beq	r2,zero,410c06c <alt_get_errno+0x24>
 410c060:	d0a00f17 	ldw	r2,-32708(gp)
 410c064:	103ee83a 	callr	r2
 410c068:	00000106 	br	410c070 <alt_get_errno+0x28>
 410c06c:	d0a6e404 	addi	r2,gp,-25712
}
 410c070:	e037883a 	mov	sp,fp
 410c074:	dfc00117 	ldw	ra,4(sp)
 410c078:	df000017 	ldw	fp,0(sp)
 410c07c:	dec00204 	addi	sp,sp,8
 410c080:	f800283a 	ret

0410c084 <alt_avalon_mutex_reg>:
/*
 * Register a Mutex device
 */

static ALT_INLINE int alt_avalon_mutex_reg (alt_mutex_dev* dev)
{
 410c084:	defffc04 	addi	sp,sp,-16
 410c088:	dfc00315 	stw	ra,12(sp)
 410c08c:	df000215 	stw	fp,8(sp)
 410c090:	df000204 	addi	fp,sp,8
 410c094:	e13fff15 	stw	r4,-4(fp)
 * HAL.
 */

static ALT_INLINE int ALT_ALWAYS_INLINE alt_no_error (void)
{
  return 0;
 410c098:	0005883a 	mov	r2,zero
  int ret_code;
  extern alt_llist alt_mutex_list;
  ret_code = ALT_SEM_CREATE (&dev->lock, 1);
 410c09c:	e0bffe15 	stw	r2,-8(fp)
  if (!ret_code)
 410c0a0:	e0bffe17 	ldw	r2,-8(fp)
 410c0a4:	1000051e 	bne	r2,zero,410c0bc <alt_avalon_mutex_reg+0x38>
  {
    ret_code = alt_dev_llist_insert((alt_dev_llist*) dev, &alt_mutex_list);
 410c0a8:	d1600804 	addi	r5,gp,-32736
 410c0ac:	e13fff17 	ldw	r4,-4(fp)
 410c0b0:	410d1d80 	call	410d1d8 <alt_dev_llist_insert>
 410c0b4:	e0bffe15 	stw	r2,-8(fp)
 410c0b8:	00000606 	br	410c0d4 <alt_avalon_mutex_reg+0x50>
  }
  else
  {
    ALT_ERRNO = ENOMEM;
 410c0bc:	410c0480 	call	410c048 <alt_get_errno>
 410c0c0:	1007883a 	mov	r3,r2
 410c0c4:	00800304 	movi	r2,12
 410c0c8:	18800015 	stw	r2,0(r3)
    ret_code = -ENOMEM;
 410c0cc:	00bffd04 	movi	r2,-12
 410c0d0:	e0bffe15 	stw	r2,-8(fp)
  }

  return ret_code;
 410c0d4:	e0bffe17 	ldw	r2,-8(fp)
}
 410c0d8:	e037883a 	mov	sp,fp
 410c0dc:	dfc00117 	ldw	ra,4(sp)
 410c0e0:	df000017 	ldw	fp,0(sp)
 410c0e4:	dec00204 	addi	sp,sp,8
 410c0e8:	f800283a 	ret

0410c0ec <alt_irq_init>:
 * The "base" parameter is ignored and only
 * present for backwards-compatibility.
 */

void alt_irq_init ( const void* base )
{
 410c0ec:	defffd04 	addi	sp,sp,-12
 410c0f0:	dfc00215 	stw	ra,8(sp)
 410c0f4:	df000115 	stw	fp,4(sp)
 410c0f8:	df000104 	addi	fp,sp,4
 410c0fc:	e13fff15 	stw	r4,-4(fp)
    ALTERA_NIOS2_GEN2_IRQ_INIT ( CONTROL_PROC, control_proc);
 410c100:	410da380 	call	410da38 <altera_nios2_gen2_irq_init>
 * alt_irq_cpu_enable_interrupts() enables the CPU to start taking interrupts.
 */
static ALT_INLINE void ALT_ALWAYS_INLINE 
       alt_irq_cpu_enable_interrupts (void)
{
    NIOS2_WRITE_STATUS(NIOS2_STATUS_PIE_MSK
 410c104:	00800044 	movi	r2,1
 410c108:	1001703a 	wrctl	status,r2
    alt_irq_cpu_enable_interrupts();
}
 410c10c:	0001883a 	nop
 410c110:	e037883a 	mov	sp,fp
 410c114:	dfc00117 	ldw	ra,4(sp)
 410c118:	df000017 	ldw	fp,0(sp)
 410c11c:	dec00204 	addi	sp,sp,8
 410c120:	f800283a 	ret

0410c124 <alt_sys_init>:
 * Initialize the non-interrupt controller devices.
 * Called after alt_irq_init().
 */

void alt_sys_init( void )
{
 410c124:	defffe04 	addi	sp,sp,-8
 410c128:	dfc00115 	stw	ra,4(sp)
 410c12c:	df000015 	stw	fp,0(sp)
 410c130:	d839883a 	mov	fp,sp
    ALTERA_AVALON_JTAG_UART_INIT ( JTAG_CONTROL, jtag_control);
 410c134:	000d883a 	mov	r6,zero
 410c138:	000b883a 	mov	r5,zero
 410c13c:	01010474 	movhi	r4,1041
 410c140:	213b2104 	addi	r4,r4,-4988
 410c144:	410c2dc0 	call	410c2dc <altera_avalon_jtag_uart_init>
 410c148:	01010474 	movhi	r4,1041
 410c14c:	213b1704 	addi	r4,r4,-5028
 410c150:	410c0140 	call	410c014 <alt_dev_reg>
    ALTERA_AVALON_MUTEX_INIT ( MUTEX_0, mutex_0);
 410c154:	01010474 	movhi	r4,1041
 410c158:	213f2f04 	addi	r4,r4,-836
 410c15c:	410c0840 	call	410c084 <alt_avalon_mutex_reg>
}
 410c160:	0001883a 	nop
 410c164:	e037883a 	mov	sp,fp
 410c168:	dfc00117 	ldw	ra,4(sp)
 410c16c:	df000017 	ldw	fp,0(sp)
 410c170:	dec00204 	addi	sp,sp,8
 410c174:	f800283a 	ret

0410c178 <altera_avalon_jtag_uart_read_fd>:
 *
 */

int 
altera_avalon_jtag_uart_read_fd(alt_fd* fd, char* buffer, int space)
{
 410c178:	defffa04 	addi	sp,sp,-24
 410c17c:	dfc00515 	stw	ra,20(sp)
 410c180:	df000415 	stw	fp,16(sp)
 410c184:	df000404 	addi	fp,sp,16
 410c188:	e13ffd15 	stw	r4,-12(fp)
 410c18c:	e17ffe15 	stw	r5,-8(fp)
 410c190:	e1bfff15 	stw	r6,-4(fp)
    altera_avalon_jtag_uart_dev* dev = (altera_avalon_jtag_uart_dev*) fd->dev; 
 410c194:	e0bffd17 	ldw	r2,-12(fp)
 410c198:	10800017 	ldw	r2,0(r2)
 410c19c:	e0bffc15 	stw	r2,-16(fp)

    return altera_avalon_jtag_uart_read(&dev->state, buffer, space,
 410c1a0:	e0bffc17 	ldw	r2,-16(fp)
 410c1a4:	10c00a04 	addi	r3,r2,40
 410c1a8:	e0bffd17 	ldw	r2,-12(fp)
 410c1ac:	10800217 	ldw	r2,8(r2)
 410c1b0:	100f883a 	mov	r7,r2
 410c1b4:	e1bfff17 	ldw	r6,-4(fp)
 410c1b8:	e17ffe17 	ldw	r5,-8(fp)
 410c1bc:	1809883a 	mov	r4,r3
 410c1c0:	410c7a00 	call	410c7a0 <altera_avalon_jtag_uart_read>
      fd->fd_flags);
}
 410c1c4:	e037883a 	mov	sp,fp
 410c1c8:	dfc00117 	ldw	ra,4(sp)
 410c1cc:	df000017 	ldw	fp,0(sp)
 410c1d0:	dec00204 	addi	sp,sp,8
 410c1d4:	f800283a 	ret

0410c1d8 <altera_avalon_jtag_uart_write_fd>:

int 
altera_avalon_jtag_uart_write_fd(alt_fd* fd, const char* buffer, int space)
{
 410c1d8:	defffa04 	addi	sp,sp,-24
 410c1dc:	dfc00515 	stw	ra,20(sp)
 410c1e0:	df000415 	stw	fp,16(sp)
 410c1e4:	df000404 	addi	fp,sp,16
 410c1e8:	e13ffd15 	stw	r4,-12(fp)
 410c1ec:	e17ffe15 	stw	r5,-8(fp)
 410c1f0:	e1bfff15 	stw	r6,-4(fp)
    altera_avalon_jtag_uart_dev* dev = (altera_avalon_jtag_uart_dev*) fd->dev; 
 410c1f4:	e0bffd17 	ldw	r2,-12(fp)
 410c1f8:	10800017 	ldw	r2,0(r2)
 410c1fc:	e0bffc15 	stw	r2,-16(fp)

    return altera_avalon_jtag_uart_write(&dev->state, buffer, space,
 410c200:	e0bffc17 	ldw	r2,-16(fp)
 410c204:	10c00a04 	addi	r3,r2,40
 410c208:	e0bffd17 	ldw	r2,-12(fp)
 410c20c:	10800217 	ldw	r2,8(r2)
 410c210:	100f883a 	mov	r7,r2
 410c214:	e1bfff17 	ldw	r6,-4(fp)
 410c218:	e17ffe17 	ldw	r5,-8(fp)
 410c21c:	1809883a 	mov	r4,r3
 410c220:	410c9bc0 	call	410c9bc <altera_avalon_jtag_uart_write>
      fd->fd_flags);
}
 410c224:	e037883a 	mov	sp,fp
 410c228:	dfc00117 	ldw	ra,4(sp)
 410c22c:	df000017 	ldw	fp,0(sp)
 410c230:	dec00204 	addi	sp,sp,8
 410c234:	f800283a 	ret

0410c238 <altera_avalon_jtag_uart_close_fd>:

#ifndef ALTERA_AVALON_JTAG_UART_SMALL

int 
altera_avalon_jtag_uart_close_fd(alt_fd* fd)
{
 410c238:	defffc04 	addi	sp,sp,-16
 410c23c:	dfc00315 	stw	ra,12(sp)
 410c240:	df000215 	stw	fp,8(sp)
 410c244:	df000204 	addi	fp,sp,8
 410c248:	e13fff15 	stw	r4,-4(fp)
    altera_avalon_jtag_uart_dev* dev = (altera_avalon_jtag_uart_dev*) fd->dev; 
 410c24c:	e0bfff17 	ldw	r2,-4(fp)
 410c250:	10800017 	ldw	r2,0(r2)
 410c254:	e0bffe15 	stw	r2,-8(fp)

    return altera_avalon_jtag_uart_close(&dev->state, fd->fd_flags);
 410c258:	e0bffe17 	ldw	r2,-8(fp)
 410c25c:	10c00a04 	addi	r3,r2,40
 410c260:	e0bfff17 	ldw	r2,-4(fp)
 410c264:	10800217 	ldw	r2,8(r2)
 410c268:	100b883a 	mov	r5,r2
 410c26c:	1809883a 	mov	r4,r3
 410c270:	410c6480 	call	410c648 <altera_avalon_jtag_uart_close>
}
 410c274:	e037883a 	mov	sp,fp
 410c278:	dfc00117 	ldw	ra,4(sp)
 410c27c:	df000017 	ldw	fp,0(sp)
 410c280:	dec00204 	addi	sp,sp,8
 410c284:	f800283a 	ret

0410c288 <altera_avalon_jtag_uart_ioctl_fd>:

int 
altera_avalon_jtag_uart_ioctl_fd(alt_fd* fd, int req, void* arg)
{
 410c288:	defffa04 	addi	sp,sp,-24
 410c28c:	dfc00515 	stw	ra,20(sp)
 410c290:	df000415 	stw	fp,16(sp)
 410c294:	df000404 	addi	fp,sp,16
 410c298:	e13ffd15 	stw	r4,-12(fp)
 410c29c:	e17ffe15 	stw	r5,-8(fp)
 410c2a0:	e1bfff15 	stw	r6,-4(fp)
    altera_avalon_jtag_uart_dev* dev = (altera_avalon_jtag_uart_dev*) fd->dev;
 410c2a4:	e0bffd17 	ldw	r2,-12(fp)
 410c2a8:	10800017 	ldw	r2,0(r2)
 410c2ac:	e0bffc15 	stw	r2,-16(fp)

    return altera_avalon_jtag_uart_ioctl(&dev->state, req, arg);
 410c2b0:	e0bffc17 	ldw	r2,-16(fp)
 410c2b4:	10800a04 	addi	r2,r2,40
 410c2b8:	e1bfff17 	ldw	r6,-4(fp)
 410c2bc:	e17ffe17 	ldw	r5,-8(fp)
 410c2c0:	1009883a 	mov	r4,r2
 410c2c4:	410c6b00 	call	410c6b0 <altera_avalon_jtag_uart_ioctl>
}
 410c2c8:	e037883a 	mov	sp,fp
 410c2cc:	dfc00117 	ldw	ra,4(sp)
 410c2d0:	df000017 	ldw	fp,0(sp)
 410c2d4:	dec00204 	addi	sp,sp,8
 410c2d8:	f800283a 	ret

0410c2dc <altera_avalon_jtag_uart_init>:
 * Return 1 on sucessful IRQ register and 0 on failure.
 */

void altera_avalon_jtag_uart_init(altera_avalon_jtag_uart_state* sp, 
                                  int irq_controller_id, int irq)
{
 410c2dc:	defffa04 	addi	sp,sp,-24
 410c2e0:	dfc00515 	stw	ra,20(sp)
 410c2e4:	df000415 	stw	fp,16(sp)
 410c2e8:	df000404 	addi	fp,sp,16
 410c2ec:	e13ffd15 	stw	r4,-12(fp)
 410c2f0:	e17ffe15 	stw	r5,-8(fp)
 410c2f4:	e1bfff15 	stw	r6,-4(fp)
  ALT_FLAG_CREATE(&sp->events, 0);
  ALT_SEM_CREATE(&sp->read_lock, 1);
  ALT_SEM_CREATE(&sp->write_lock, 1);

  /* enable read interrupts at the device */
  sp->irq_enable = ALTERA_AVALON_JTAG_UART_CONTROL_RE_MSK;
 410c2f8:	e0bffd17 	ldw	r2,-12(fp)
 410c2fc:	00c00044 	movi	r3,1
 410c300:	10c00815 	stw	r3,32(r2)

  IOWR_ALTERA_AVALON_JTAG_UART_CONTROL(sp->base, sp->irq_enable); 
 410c304:	e0bffd17 	ldw	r2,-12(fp)
 410c308:	10800017 	ldw	r2,0(r2)
 410c30c:	10800104 	addi	r2,r2,4
 410c310:	1007883a 	mov	r3,r2
 410c314:	e0bffd17 	ldw	r2,-12(fp)
 410c318:	10800817 	ldw	r2,32(r2)
 410c31c:	18800035 	stwio	r2,0(r3)
  
  /* register the interrupt handler */
#ifdef ALT_ENHANCED_INTERRUPT_API_PRESENT
  alt_ic_isr_register(irq_controller_id, irq, altera_avalon_jtag_uart_irq, 
 410c320:	e0bffe17 	ldw	r2,-8(fp)
 410c324:	e0ffff17 	ldw	r3,-4(fp)
 410c328:	d8000015 	stw	zero,0(sp)
 410c32c:	e1fffd17 	ldw	r7,-12(fp)
 410c330:	01810474 	movhi	r6,1041
 410c334:	31b0e704 	addi	r6,r6,-15460
 410c338:	180b883a 	mov	r5,r3
 410c33c:	1009883a 	mov	r4,r2
 410c340:	410bb140 	call	410bb14 <alt_ic_isr_register>
#else
  alt_irq_register(irq, sp, altera_avalon_jtag_uart_irq);
#endif  

  /* Register an alarm to go off every second to check for presence of host */
  sp->host_inactive = 0;
 410c344:	e0bffd17 	ldw	r2,-12(fp)
 410c348:	10000915 	stw	zero,36(r2)

  if (alt_alarm_start(&sp->alarm, alt_ticks_per_second(), 
 410c34c:	e0bffd17 	ldw	r2,-12(fp)
 410c350:	10800204 	addi	r2,r2,8
 * Obtain the system clock rate in ticks/s. 
 */

static ALT_INLINE alt_u32 ALT_ALWAYS_INLINE alt_ticks_per_second (void)
{
  return _alt_tick_rate;
 410c354:	d0e6ea17 	ldw	r3,-25688(gp)
 410c358:	e1fffd17 	ldw	r7,-12(fp)
 410c35c:	01810474 	movhi	r6,1041
 410c360:	31b16a04 	addi	r6,r6,-14936
 410c364:	180b883a 	mov	r5,r3
 410c368:	1009883a 	mov	r4,r2
 410c36c:	410cef00 	call	410cef0 <alt_alarm_start>
 410c370:	1000040e 	bge	r2,zero,410c384 <altera_avalon_jtag_uart_init+0xa8>
    &altera_avalon_jtag_uart_timeout, sp) < 0)
  {
    /* If we can't set the alarm then record "don't know if host present" 
     * and behave as though the host is present.
     */
    sp->timeout = INT_MAX;
 410c374:	e0fffd17 	ldw	r3,-12(fp)
 410c378:	00a00034 	movhi	r2,32768
 410c37c:	10bfffc4 	addi	r2,r2,-1
 410c380:	18800115 	stw	r2,4(r3)
  }

  /* ALT_LOG - see altera_hal/HAL/inc/sys/alt_log_printf.h */ 
  ALT_LOG_JTAG_UART_ALARM_REGISTER(sp, sp->base);
}
 410c384:	0001883a 	nop
 410c388:	e037883a 	mov	sp,fp
 410c38c:	dfc00117 	ldw	ra,4(sp)
 410c390:	df000017 	ldw	fp,0(sp)
 410c394:	dec00204 	addi	sp,sp,8
 410c398:	f800283a 	ret

0410c39c <altera_avalon_jtag_uart_irq>:
#ifdef ALT_ENHANCED_INTERRUPT_API_PRESENT
static void altera_avalon_jtag_uart_irq(void* context)
#else
static void altera_avalon_jtag_uart_irq(void* context, alt_u32 id)
#endif
{
 410c39c:	defff804 	addi	sp,sp,-32
 410c3a0:	df000715 	stw	fp,28(sp)
 410c3a4:	df000704 	addi	fp,sp,28
 410c3a8:	e13fff15 	stw	r4,-4(fp)
  altera_avalon_jtag_uart_state* sp = (altera_avalon_jtag_uart_state*) context;
 410c3ac:	e0bfff17 	ldw	r2,-4(fp)
 410c3b0:	e0bffb15 	stw	r2,-20(fp)
  unsigned int base = sp->base;
 410c3b4:	e0bffb17 	ldw	r2,-20(fp)
 410c3b8:	10800017 	ldw	r2,0(r2)
 410c3bc:	e0bffc15 	stw	r2,-16(fp)
  /* ALT_LOG - see altera_hal/HAL/inc/sys/alt_log_printf.h */ 
  ALT_LOG_JTAG_UART_ISR_FUNCTION(base, sp);

  for ( ; ; )
  {
    unsigned int control = IORD_ALTERA_AVALON_JTAG_UART_CONTROL(base);
 410c3c0:	e0bffc17 	ldw	r2,-16(fp)
 410c3c4:	10800104 	addi	r2,r2,4
 410c3c8:	10800037 	ldwio	r2,0(r2)
 410c3cc:	e0bffd15 	stw	r2,-12(fp)

    /* Return once nothing more to do */
    if ((control & (ALTERA_AVALON_JTAG_UART_CONTROL_RI_MSK | ALTERA_AVALON_JTAG_UART_CONTROL_WI_MSK)) == 0)
 410c3d0:	e0bffd17 	ldw	r2,-12(fp)
 410c3d4:	1080c00c 	andi	r2,r2,768
 410c3d8:	10006d26 	beq	r2,zero,410c590 <altera_avalon_jtag_uart_irq+0x1f4>
      break;

    if (control & ALTERA_AVALON_JTAG_UART_CONTROL_RI_MSK)
 410c3dc:	e0bffd17 	ldw	r2,-12(fp)
 410c3e0:	1080400c 	andi	r2,r2,256
 410c3e4:	10003526 	beq	r2,zero,410c4bc <altera_avalon_jtag_uart_irq+0x120>
    {
      /* process a read irq.  Start by assuming that there is data in the
       * receive FIFO (otherwise why would we have been interrupted?)
       */
      unsigned int data = 1 << ALTERA_AVALON_JTAG_UART_DATA_RAVAIL_OFST;
 410c3e8:	00800074 	movhi	r2,1
 410c3ec:	e0bff915 	stw	r2,-28(fp)
      for ( ; ; )
      {
        /* Check whether there is space in the buffer.  If not then we must not
         * read any characters from the buffer as they will be lost.
         */
        unsigned int next = (sp->rx_in + 1) % ALTERA_AVALON_JTAG_UART_BUF_LEN;
 410c3f0:	e0bffb17 	ldw	r2,-20(fp)
 410c3f4:	10800a17 	ldw	r2,40(r2)
 410c3f8:	10800044 	addi	r2,r2,1
 410c3fc:	1081ffcc 	andi	r2,r2,2047
 410c400:	e0bffe15 	stw	r2,-8(fp)
        if (next == sp->rx_out)
 410c404:	e0bffb17 	ldw	r2,-20(fp)
 410c408:	10c00b17 	ldw	r3,44(r2)
 410c40c:	e0bffe17 	ldw	r2,-8(fp)
 410c410:	18801526 	beq	r3,r2,410c468 <altera_avalon_jtag_uart_irq+0xcc>
          break;

        /* Try to remove a character from the FIFO and find out whether there
         * are any more characters remaining.
         */
        data = IORD_ALTERA_AVALON_JTAG_UART_DATA(base);
 410c414:	e0bffc17 	ldw	r2,-16(fp)
 410c418:	10800037 	ldwio	r2,0(r2)
 410c41c:	e0bff915 	stw	r2,-28(fp)
        
        if ((data & ALTERA_AVALON_JTAG_UART_DATA_RVALID_MSK) == 0)
 410c420:	e0bff917 	ldw	r2,-28(fp)
 410c424:	10a0000c 	andi	r2,r2,32768
 410c428:	10001126 	beq	r2,zero,410c470 <altera_avalon_jtag_uart_irq+0xd4>
          break;

        sp->rx_buf[sp->rx_in] = (data & ALTERA_AVALON_JTAG_UART_DATA_DATA_MSK) >> ALTERA_AVALON_JTAG_UART_DATA_DATA_OFST;
 410c42c:	e0bffb17 	ldw	r2,-20(fp)
 410c430:	10800a17 	ldw	r2,40(r2)
 410c434:	e0fff917 	ldw	r3,-28(fp)
 410c438:	1809883a 	mov	r4,r3
 410c43c:	e0fffb17 	ldw	r3,-20(fp)
 410c440:	1885883a 	add	r2,r3,r2
 410c444:	10800e04 	addi	r2,r2,56
 410c448:	11000005 	stb	r4,0(r2)
        sp->rx_in = (sp->rx_in + 1) % ALTERA_AVALON_JTAG_UART_BUF_LEN;
 410c44c:	e0bffb17 	ldw	r2,-20(fp)
 410c450:	10800a17 	ldw	r2,40(r2)
 410c454:	10800044 	addi	r2,r2,1
 410c458:	10c1ffcc 	andi	r3,r2,2047
 410c45c:	e0bffb17 	ldw	r2,-20(fp)
 410c460:	10c00a15 	stw	r3,40(r2)

        /* Post an event to notify jtag_uart_read that a character has been read */
        ALT_FLAG_POST (sp->events, ALT_JTAG_UART_READ_RDY, OS_FLAG_SET);
      }
 410c464:	003fe206 	br	410c3f0 <__ram_exceptions_end+0xfc1041ac>
        /* Check whether there is space in the buffer.  If not then we must not
         * read any characters from the buffer as they will be lost.
         */
        unsigned int next = (sp->rx_in + 1) % ALTERA_AVALON_JTAG_UART_BUF_LEN;
        if (next == sp->rx_out)
          break;
 410c468:	0001883a 	nop
 410c46c:	00000106 	br	410c474 <altera_avalon_jtag_uart_irq+0xd8>
         * are any more characters remaining.
         */
        data = IORD_ALTERA_AVALON_JTAG_UART_DATA(base);
        
        if ((data & ALTERA_AVALON_JTAG_UART_DATA_RVALID_MSK) == 0)
          break;
 410c470:	0001883a 	nop

        /* Post an event to notify jtag_uart_read that a character has been read */
        ALT_FLAG_POST (sp->events, ALT_JTAG_UART_READ_RDY, OS_FLAG_SET);
      }

      if (data & ALTERA_AVALON_JTAG_UART_DATA_RAVAIL_MSK)
 410c474:	e0bff917 	ldw	r2,-28(fp)
 410c478:	10bfffec 	andhi	r2,r2,65535
 410c47c:	10000f26 	beq	r2,zero,410c4bc <altera_avalon_jtag_uart_irq+0x120>
      {
        /* If there is still data available here then the buffer is full 
         * so turn off receive interrupts until some space becomes available.
         */
        sp->irq_enable &= ~ALTERA_AVALON_JTAG_UART_CONTROL_RE_MSK;
 410c480:	e0bffb17 	ldw	r2,-20(fp)
 410c484:	10c00817 	ldw	r3,32(r2)
 410c488:	00bfff84 	movi	r2,-2
 410c48c:	1886703a 	and	r3,r3,r2
 410c490:	e0bffb17 	ldw	r2,-20(fp)
 410c494:	10c00815 	stw	r3,32(r2)
        IOWR_ALTERA_AVALON_JTAG_UART_CONTROL(base, sp->irq_enable);
 410c498:	e0bffc17 	ldw	r2,-16(fp)
 410c49c:	10800104 	addi	r2,r2,4
 410c4a0:	1007883a 	mov	r3,r2
 410c4a4:	e0bffb17 	ldw	r2,-20(fp)
 410c4a8:	10800817 	ldw	r2,32(r2)
 410c4ac:	18800035 	stwio	r2,0(r3)
        
        /* Dummy read to ensure IRQ is cleared prior to ISR completion */
        IORD_ALTERA_AVALON_JTAG_UART_CONTROL(base);
 410c4b0:	e0bffc17 	ldw	r2,-16(fp)
 410c4b4:	10800104 	addi	r2,r2,4
 410c4b8:	10800037 	ldwio	r2,0(r2)
      }
    }

    if (control & ALTERA_AVALON_JTAG_UART_CONTROL_WI_MSK)
 410c4bc:	e0bffd17 	ldw	r2,-12(fp)
 410c4c0:	1080800c 	andi	r2,r2,512
 410c4c4:	103fbe26 	beq	r2,zero,410c3c0 <__ram_exceptions_end+0xfc10417c>
    {
      /* process a write irq */
      unsigned int space = (control & ALTERA_AVALON_JTAG_UART_CONTROL_WSPACE_MSK) >> ALTERA_AVALON_JTAG_UART_CONTROL_WSPACE_OFST;
 410c4c8:	e0bffd17 	ldw	r2,-12(fp)
 410c4cc:	1004d43a 	srli	r2,r2,16
 410c4d0:	e0bffa15 	stw	r2,-24(fp)

      while (space > 0 && sp->tx_out != sp->tx_in)
 410c4d4:	00001406 	br	410c528 <altera_avalon_jtag_uart_irq+0x18c>
      {
        IOWR_ALTERA_AVALON_JTAG_UART_DATA(base, sp->tx_buf[sp->tx_out]);
 410c4d8:	e0bffc17 	ldw	r2,-16(fp)
 410c4dc:	e0fffb17 	ldw	r3,-20(fp)
 410c4e0:	18c00d17 	ldw	r3,52(r3)
 410c4e4:	e13ffb17 	ldw	r4,-20(fp)
 410c4e8:	20c7883a 	add	r3,r4,r3
 410c4ec:	18c20e04 	addi	r3,r3,2104
 410c4f0:	18c00003 	ldbu	r3,0(r3)
 410c4f4:	18c03fcc 	andi	r3,r3,255
 410c4f8:	18c0201c 	xori	r3,r3,128
 410c4fc:	18ffe004 	addi	r3,r3,-128
 410c500:	10c00035 	stwio	r3,0(r2)

        sp->tx_out = (sp->tx_out + 1) % ALTERA_AVALON_JTAG_UART_BUF_LEN;
 410c504:	e0bffb17 	ldw	r2,-20(fp)
 410c508:	10800d17 	ldw	r2,52(r2)
 410c50c:	10800044 	addi	r2,r2,1
 410c510:	10c1ffcc 	andi	r3,r2,2047
 410c514:	e0bffb17 	ldw	r2,-20(fp)
 410c518:	10c00d15 	stw	r3,52(r2)

        /* Post an event to notify jtag_uart_write that a character has been written */
        ALT_FLAG_POST (sp->events, ALT_JTAG_UART_WRITE_RDY, OS_FLAG_SET);

        space--;
 410c51c:	e0bffa17 	ldw	r2,-24(fp)
 410c520:	10bfffc4 	addi	r2,r2,-1
 410c524:	e0bffa15 	stw	r2,-24(fp)
    if (control & ALTERA_AVALON_JTAG_UART_CONTROL_WI_MSK)
    {
      /* process a write irq */
      unsigned int space = (control & ALTERA_AVALON_JTAG_UART_CONTROL_WSPACE_MSK) >> ALTERA_AVALON_JTAG_UART_CONTROL_WSPACE_OFST;

      while (space > 0 && sp->tx_out != sp->tx_in)
 410c528:	e0bffa17 	ldw	r2,-24(fp)
 410c52c:	10000526 	beq	r2,zero,410c544 <altera_avalon_jtag_uart_irq+0x1a8>
 410c530:	e0bffb17 	ldw	r2,-20(fp)
 410c534:	10c00d17 	ldw	r3,52(r2)
 410c538:	e0bffb17 	ldw	r2,-20(fp)
 410c53c:	10800c17 	ldw	r2,48(r2)
 410c540:	18bfe51e 	bne	r3,r2,410c4d8 <__ram_exceptions_end+0xfc104294>
        ALT_FLAG_POST (sp->events, ALT_JTAG_UART_WRITE_RDY, OS_FLAG_SET);

        space--;
      }

      if (space > 0)
 410c544:	e0bffa17 	ldw	r2,-24(fp)
 410c548:	103f9d26 	beq	r2,zero,410c3c0 <__ram_exceptions_end+0xfc10417c>
      {
        /* If we don't have any more data available then turn off the TX interrupt */
        sp->irq_enable &= ~ALTERA_AVALON_JTAG_UART_CONTROL_WE_MSK;
 410c54c:	e0bffb17 	ldw	r2,-20(fp)
 410c550:	10c00817 	ldw	r3,32(r2)
 410c554:	00bfff44 	movi	r2,-3
 410c558:	1886703a 	and	r3,r3,r2
 410c55c:	e0bffb17 	ldw	r2,-20(fp)
 410c560:	10c00815 	stw	r3,32(r2)
        IOWR_ALTERA_AVALON_JTAG_UART_CONTROL(sp->base, sp->irq_enable);
 410c564:	e0bffb17 	ldw	r2,-20(fp)
 410c568:	10800017 	ldw	r2,0(r2)
 410c56c:	10800104 	addi	r2,r2,4
 410c570:	1007883a 	mov	r3,r2
 410c574:	e0bffb17 	ldw	r2,-20(fp)
 410c578:	10800817 	ldw	r2,32(r2)
 410c57c:	18800035 	stwio	r2,0(r3)
        
        /* Dummy read to ensure IRQ is cleared prior to ISR completion */
        IORD_ALTERA_AVALON_JTAG_UART_CONTROL(base);
 410c580:	e0bffc17 	ldw	r2,-16(fp)
 410c584:	10800104 	addi	r2,r2,4
 410c588:	10800037 	ldwio	r2,0(r2)
      }
    }
  }
 410c58c:	003f8c06 	br	410c3c0 <__ram_exceptions_end+0xfc10417c>
  {
    unsigned int control = IORD_ALTERA_AVALON_JTAG_UART_CONTROL(base);

    /* Return once nothing more to do */
    if ((control & (ALTERA_AVALON_JTAG_UART_CONTROL_RI_MSK | ALTERA_AVALON_JTAG_UART_CONTROL_WI_MSK)) == 0)
      break;
 410c590:	0001883a 	nop
        /* Dummy read to ensure IRQ is cleared prior to ISR completion */
        IORD_ALTERA_AVALON_JTAG_UART_CONTROL(base);
      }
    }
  }
}
 410c594:	0001883a 	nop
 410c598:	e037883a 	mov	sp,fp
 410c59c:	df000017 	ldw	fp,0(sp)
 410c5a0:	dec00104 	addi	sp,sp,4
 410c5a4:	f800283a 	ret

0410c5a8 <altera_avalon_jtag_uart_timeout>:
 * Timeout routine is called every second
 */

static alt_u32 
altera_avalon_jtag_uart_timeout(void* context) 
{
 410c5a8:	defff804 	addi	sp,sp,-32
 410c5ac:	df000715 	stw	fp,28(sp)
 410c5b0:	df000704 	addi	fp,sp,28
 410c5b4:	e13ffb15 	stw	r4,-20(fp)
  altera_avalon_jtag_uart_state* sp = (altera_avalon_jtag_uart_state *) context;
 410c5b8:	e0bffb17 	ldw	r2,-20(fp)
 410c5bc:	e0bff915 	stw	r2,-28(fp)

  unsigned int control = IORD_ALTERA_AVALON_JTAG_UART_CONTROL(sp->base);
 410c5c0:	e0bff917 	ldw	r2,-28(fp)
 410c5c4:	10800017 	ldw	r2,0(r2)
 410c5c8:	10800104 	addi	r2,r2,4
 410c5cc:	10800037 	ldwio	r2,0(r2)
 410c5d0:	e0bffa15 	stw	r2,-24(fp)

  if (control & ALTERA_AVALON_JTAG_UART_CONTROL_AC_MSK)
 410c5d4:	e0bffa17 	ldw	r2,-24(fp)
 410c5d8:	1081000c 	andi	r2,r2,1024
 410c5dc:	10000b26 	beq	r2,zero,410c60c <altera_avalon_jtag_uart_timeout+0x64>
  {
    IOWR_ALTERA_AVALON_JTAG_UART_CONTROL(sp->base, sp->irq_enable | ALTERA_AVALON_JTAG_UART_CONTROL_AC_MSK);
 410c5e0:	e0bff917 	ldw	r2,-28(fp)
 410c5e4:	10800017 	ldw	r2,0(r2)
 410c5e8:	10800104 	addi	r2,r2,4
 410c5ec:	1007883a 	mov	r3,r2
 410c5f0:	e0bff917 	ldw	r2,-28(fp)
 410c5f4:	10800817 	ldw	r2,32(r2)
 410c5f8:	10810014 	ori	r2,r2,1024
 410c5fc:	18800035 	stwio	r2,0(r3)
    sp->host_inactive = 0;
 410c600:	e0bff917 	ldw	r2,-28(fp)
 410c604:	10000915 	stw	zero,36(r2)
 410c608:	00000a06 	br	410c634 <altera_avalon_jtag_uart_timeout+0x8c>
  }
  else if (sp->host_inactive < INT_MAX - 2) {
 410c60c:	e0bff917 	ldw	r2,-28(fp)
 410c610:	10c00917 	ldw	r3,36(r2)
 410c614:	00a00034 	movhi	r2,32768
 410c618:	10bfff04 	addi	r2,r2,-4
 410c61c:	10c00536 	bltu	r2,r3,410c634 <altera_avalon_jtag_uart_timeout+0x8c>
    sp->host_inactive++;
 410c620:	e0bff917 	ldw	r2,-28(fp)
 410c624:	10800917 	ldw	r2,36(r2)
 410c628:	10c00044 	addi	r3,r2,1
 410c62c:	e0bff917 	ldw	r2,-28(fp)
 410c630:	10c00915 	stw	r3,36(r2)
 410c634:	d0a6ea17 	ldw	r2,-25688(gp)
      ALT_FLAG_POST (sp->events, ALT_JTAG_UART_TIMEOUT, OS_FLAG_SET);
    }
  }

  return alt_ticks_per_second();
}
 410c638:	e037883a 	mov	sp,fp
 410c63c:	df000017 	ldw	fp,0(sp)
 410c640:	dec00104 	addi	sp,sp,4
 410c644:	f800283a 	ret

0410c648 <altera_avalon_jtag_uart_close>:
 * The close routine is not implemented for the small driver; instead it will
 * map to null. This is because the small driver simply waits while characters
 * are transmitted; there is no interrupt-serviced buffer to empty 
 */
int altera_avalon_jtag_uart_close(altera_avalon_jtag_uart_state* sp, int flags)
{
 410c648:	defffd04 	addi	sp,sp,-12
 410c64c:	df000215 	stw	fp,8(sp)
 410c650:	df000204 	addi	fp,sp,8
 410c654:	e13ffe15 	stw	r4,-8(fp)
 410c658:	e17fff15 	stw	r5,-4(fp)
  /* 
   * Wait for all transmit data to be emptied by the JTAG UART ISR, or
   * for a host-inactivity timeout, in which case transmit data will be lost
   */
  while ( (sp->tx_out != sp->tx_in) && (sp->host_inactive < sp->timeout) ) {
 410c65c:	00000506 	br	410c674 <altera_avalon_jtag_uart_close+0x2c>
    if (flags & O_NONBLOCK) {
 410c660:	e0bfff17 	ldw	r2,-4(fp)
 410c664:	1090000c 	andi	r2,r2,16384
 410c668:	10000226 	beq	r2,zero,410c674 <altera_avalon_jtag_uart_close+0x2c>
      return -EWOULDBLOCK; 
 410c66c:	00bffd44 	movi	r2,-11
 410c670:	00000b06 	br	410c6a0 <altera_avalon_jtag_uart_close+0x58>
{
  /* 
   * Wait for all transmit data to be emptied by the JTAG UART ISR, or
   * for a host-inactivity timeout, in which case transmit data will be lost
   */
  while ( (sp->tx_out != sp->tx_in) && (sp->host_inactive < sp->timeout) ) {
 410c674:	e0bffe17 	ldw	r2,-8(fp)
 410c678:	10c00d17 	ldw	r3,52(r2)
 410c67c:	e0bffe17 	ldw	r2,-8(fp)
 410c680:	10800c17 	ldw	r2,48(r2)
 410c684:	18800526 	beq	r3,r2,410c69c <altera_avalon_jtag_uart_close+0x54>
 410c688:	e0bffe17 	ldw	r2,-8(fp)
 410c68c:	10c00917 	ldw	r3,36(r2)
 410c690:	e0bffe17 	ldw	r2,-8(fp)
 410c694:	10800117 	ldw	r2,4(r2)
 410c698:	18bff136 	bltu	r3,r2,410c660 <__ram_exceptions_end+0xfc10441c>
    if (flags & O_NONBLOCK) {
      return -EWOULDBLOCK; 
    }
  }

  return 0;
 410c69c:	0005883a 	mov	r2,zero
}
 410c6a0:	e037883a 	mov	sp,fp
 410c6a4:	df000017 	ldw	fp,0(sp)
 410c6a8:	dec00104 	addi	sp,sp,4
 410c6ac:	f800283a 	ret

0410c6b0 <altera_avalon_jtag_uart_ioctl>:
/* ----------------------------------------------------------- */

int 
altera_avalon_jtag_uart_ioctl(altera_avalon_jtag_uart_state* sp, int req,
  void* arg)
{
 410c6b0:	defffa04 	addi	sp,sp,-24
 410c6b4:	df000515 	stw	fp,20(sp)
 410c6b8:	df000504 	addi	fp,sp,20
 410c6bc:	e13ffd15 	stw	r4,-12(fp)
 410c6c0:	e17ffe15 	stw	r5,-8(fp)
 410c6c4:	e1bfff15 	stw	r6,-4(fp)
  int rc = -ENOTTY;
 410c6c8:	00bff9c4 	movi	r2,-25
 410c6cc:	e0bffb15 	stw	r2,-20(fp)

  switch (req)
 410c6d0:	e0bffe17 	ldw	r2,-8(fp)
 410c6d4:	10da8060 	cmpeqi	r3,r2,27137
 410c6d8:	1800031e 	bne	r3,zero,410c6e8 <altera_avalon_jtag_uart_ioctl+0x38>
 410c6dc:	109a80a0 	cmpeqi	r2,r2,27138
 410c6e0:	1000181e 	bne	r2,zero,410c744 <altera_avalon_jtag_uart_ioctl+0x94>
      rc = 0;
    }
    break;

  default:
    break;
 410c6e4:	00002906 	br	410c78c <altera_avalon_jtag_uart_ioctl+0xdc>

  switch (req)
  {
  case TIOCSTIMEOUT:
    /* Set the time to wait until assuming host is not connected */
    if (sp->timeout != INT_MAX)
 410c6e8:	e0bffd17 	ldw	r2,-12(fp)
 410c6ec:	10c00117 	ldw	r3,4(r2)
 410c6f0:	00a00034 	movhi	r2,32768
 410c6f4:	10bfffc4 	addi	r2,r2,-1
 410c6f8:	18802126 	beq	r3,r2,410c780 <altera_avalon_jtag_uart_ioctl+0xd0>
    {
      int timeout = *((int *)arg);
 410c6fc:	e0bfff17 	ldw	r2,-4(fp)
 410c700:	10800017 	ldw	r2,0(r2)
 410c704:	e0bffc15 	stw	r2,-16(fp)
      sp->timeout = (timeout >= 2 && timeout < INT_MAX) ? timeout : INT_MAX - 1;
 410c708:	e0bffc17 	ldw	r2,-16(fp)
 410c70c:	10800090 	cmplti	r2,r2,2
 410c710:	1000061e 	bne	r2,zero,410c72c <altera_avalon_jtag_uart_ioctl+0x7c>
 410c714:	e0fffc17 	ldw	r3,-16(fp)
 410c718:	00a00034 	movhi	r2,32768
 410c71c:	10bfffc4 	addi	r2,r2,-1
 410c720:	18800226 	beq	r3,r2,410c72c <altera_avalon_jtag_uart_ioctl+0x7c>
 410c724:	e0bffc17 	ldw	r2,-16(fp)
 410c728:	00000206 	br	410c734 <altera_avalon_jtag_uart_ioctl+0x84>
 410c72c:	00a00034 	movhi	r2,32768
 410c730:	10bfff84 	addi	r2,r2,-2
 410c734:	e0fffd17 	ldw	r3,-12(fp)
 410c738:	18800115 	stw	r2,4(r3)
      rc = 0;
 410c73c:	e03ffb15 	stw	zero,-20(fp)
    }
    break;
 410c740:	00000f06 	br	410c780 <altera_avalon_jtag_uart_ioctl+0xd0>

  case TIOCGCONNECTED:
    /* Find out whether host is connected */
    if (sp->timeout != INT_MAX)
 410c744:	e0bffd17 	ldw	r2,-12(fp)
 410c748:	10c00117 	ldw	r3,4(r2)
 410c74c:	00a00034 	movhi	r2,32768
 410c750:	10bfffc4 	addi	r2,r2,-1
 410c754:	18800c26 	beq	r3,r2,410c788 <altera_avalon_jtag_uart_ioctl+0xd8>
    {
      *((int *)arg) = (sp->host_inactive < sp->timeout) ? 1 : 0;
 410c758:	e0bffd17 	ldw	r2,-12(fp)
 410c75c:	10c00917 	ldw	r3,36(r2)
 410c760:	e0bffd17 	ldw	r2,-12(fp)
 410c764:	10800117 	ldw	r2,4(r2)
 410c768:	1885803a 	cmpltu	r2,r3,r2
 410c76c:	10c03fcc 	andi	r3,r2,255
 410c770:	e0bfff17 	ldw	r2,-4(fp)
 410c774:	10c00015 	stw	r3,0(r2)
      rc = 0;
 410c778:	e03ffb15 	stw	zero,-20(fp)
    }
    break;
 410c77c:	00000206 	br	410c788 <altera_avalon_jtag_uart_ioctl+0xd8>
    {
      int timeout = *((int *)arg);
      sp->timeout = (timeout >= 2 && timeout < INT_MAX) ? timeout : INT_MAX - 1;
      rc = 0;
    }
    break;
 410c780:	0001883a 	nop
 410c784:	00000106 	br	410c78c <altera_avalon_jtag_uart_ioctl+0xdc>
    if (sp->timeout != INT_MAX)
    {
      *((int *)arg) = (sp->host_inactive < sp->timeout) ? 1 : 0;
      rc = 0;
    }
    break;
 410c788:	0001883a 	nop

  default:
    break;
  }

  return rc;
 410c78c:	e0bffb17 	ldw	r2,-20(fp)
}
 410c790:	e037883a 	mov	sp,fp
 410c794:	df000017 	ldw	fp,0(sp)
 410c798:	dec00104 	addi	sp,sp,4
 410c79c:	f800283a 	ret

0410c7a0 <altera_avalon_jtag_uart_read>:
/* ----------------------------------------------------------- */

int 
altera_avalon_jtag_uart_read(altera_avalon_jtag_uart_state* sp, 
  char * buffer, int space, int flags)
{
 410c7a0:	defff304 	addi	sp,sp,-52
 410c7a4:	dfc00c15 	stw	ra,48(sp)
 410c7a8:	df000b15 	stw	fp,44(sp)
 410c7ac:	df000b04 	addi	fp,sp,44
 410c7b0:	e13ffc15 	stw	r4,-16(fp)
 410c7b4:	e17ffd15 	stw	r5,-12(fp)
 410c7b8:	e1bffe15 	stw	r6,-8(fp)
 410c7bc:	e1ffff15 	stw	r7,-4(fp)
  char * ptr = buffer;
 410c7c0:	e0bffd17 	ldw	r2,-12(fp)
 410c7c4:	e0bff515 	stw	r2,-44(fp)
   * When running in a multi threaded environment, obtain the "read_lock"
   * semaphore. This ensures that reading from the device is thread-safe.
   */
  ALT_SEM_PEND (sp->read_lock, 0);

  while (space > 0)
 410c7c8:	00004706 	br	410c8e8 <altera_avalon_jtag_uart_read+0x148>
    unsigned int in, out;

    /* Read as much data as possible */
    do
    {
      in  = sp->rx_in;
 410c7cc:	e0bffc17 	ldw	r2,-16(fp)
 410c7d0:	10800a17 	ldw	r2,40(r2)
 410c7d4:	e0bff715 	stw	r2,-36(fp)
      out = sp->rx_out;
 410c7d8:	e0bffc17 	ldw	r2,-16(fp)
 410c7dc:	10800b17 	ldw	r2,44(r2)
 410c7e0:	e0bff815 	stw	r2,-32(fp)

      if (in >= out)
 410c7e4:	e0fff717 	ldw	r3,-36(fp)
 410c7e8:	e0bff817 	ldw	r2,-32(fp)
 410c7ec:	18800536 	bltu	r3,r2,410c804 <altera_avalon_jtag_uart_read+0x64>
        n = in - out;
 410c7f0:	e0fff717 	ldw	r3,-36(fp)
 410c7f4:	e0bff817 	ldw	r2,-32(fp)
 410c7f8:	1885c83a 	sub	r2,r3,r2
 410c7fc:	e0bff615 	stw	r2,-40(fp)
 410c800:	00000406 	br	410c814 <altera_avalon_jtag_uart_read+0x74>
      else
        n = ALTERA_AVALON_JTAG_UART_BUF_LEN - out;
 410c804:	00c20004 	movi	r3,2048
 410c808:	e0bff817 	ldw	r2,-32(fp)
 410c80c:	1885c83a 	sub	r2,r3,r2
 410c810:	e0bff615 	stw	r2,-40(fp)

      if (n == 0)
 410c814:	e0bff617 	ldw	r2,-40(fp)
 410c818:	10001e26 	beq	r2,zero,410c894 <altera_avalon_jtag_uart_read+0xf4>
        break; /* No more data available */

      if (n > space)
 410c81c:	e0fffe17 	ldw	r3,-8(fp)
 410c820:	e0bff617 	ldw	r2,-40(fp)
 410c824:	1880022e 	bgeu	r3,r2,410c830 <altera_avalon_jtag_uart_read+0x90>
        n = space;
 410c828:	e0bffe17 	ldw	r2,-8(fp)
 410c82c:	e0bff615 	stw	r2,-40(fp)

      memcpy(ptr, sp->rx_buf + out, n);
 410c830:	e0bffc17 	ldw	r2,-16(fp)
 410c834:	10c00e04 	addi	r3,r2,56
 410c838:	e0bff817 	ldw	r2,-32(fp)
 410c83c:	1885883a 	add	r2,r3,r2
 410c840:	e1bff617 	ldw	r6,-40(fp)
 410c844:	100b883a 	mov	r5,r2
 410c848:	e13ff517 	ldw	r4,-44(fp)
 410c84c:	4100fa80 	call	4100fa8 <memcpy>
      ptr   += n;
 410c850:	e0fff517 	ldw	r3,-44(fp)
 410c854:	e0bff617 	ldw	r2,-40(fp)
 410c858:	1885883a 	add	r2,r3,r2
 410c85c:	e0bff515 	stw	r2,-44(fp)
      space -= n;
 410c860:	e0fffe17 	ldw	r3,-8(fp)
 410c864:	e0bff617 	ldw	r2,-40(fp)
 410c868:	1885c83a 	sub	r2,r3,r2
 410c86c:	e0bffe15 	stw	r2,-8(fp)

      sp->rx_out = (out + n) % ALTERA_AVALON_JTAG_UART_BUF_LEN;
 410c870:	e0fff817 	ldw	r3,-32(fp)
 410c874:	e0bff617 	ldw	r2,-40(fp)
 410c878:	1885883a 	add	r2,r3,r2
 410c87c:	10c1ffcc 	andi	r3,r2,2047
 410c880:	e0bffc17 	ldw	r2,-16(fp)
 410c884:	10c00b15 	stw	r3,44(r2)
    }
    while (space > 0);
 410c888:	e0bffe17 	ldw	r2,-8(fp)
 410c88c:	00bfcf16 	blt	zero,r2,410c7cc <__ram_exceptions_end+0xfc104588>
 410c890:	00000106 	br	410c898 <altera_avalon_jtag_uart_read+0xf8>
        n = in - out;
      else
        n = ALTERA_AVALON_JTAG_UART_BUF_LEN - out;

      if (n == 0)
        break; /* No more data available */
 410c894:	0001883a 	nop
      sp->rx_out = (out + n) % ALTERA_AVALON_JTAG_UART_BUF_LEN;
    }
    while (space > 0);

    /* If we read any data then return it */
    if (ptr != buffer)
 410c898:	e0fff517 	ldw	r3,-44(fp)
 410c89c:	e0bffd17 	ldw	r2,-12(fp)
 410c8a0:	1880141e 	bne	r3,r2,410c8f4 <altera_avalon_jtag_uart_read+0x154>
      break;

    /* If in non-blocking mode then return error */
    if (flags & O_NONBLOCK)
 410c8a4:	e0bfff17 	ldw	r2,-4(fp)
 410c8a8:	1090000c 	andi	r2,r2,16384
 410c8ac:	1000131e 	bne	r2,zero,410c8fc <altera_avalon_jtag_uart_read+0x15c>
      while (in == sp->rx_in && sp->host_inactive < sp->timeout)
        ;
    }
#else
    /* No OS: Always spin */
    while (in == sp->rx_in && sp->host_inactive < sp->timeout)
 410c8b0:	0001883a 	nop
 410c8b4:	e0bffc17 	ldw	r2,-16(fp)
 410c8b8:	10c00a17 	ldw	r3,40(r2)
 410c8bc:	e0bff717 	ldw	r2,-36(fp)
 410c8c0:	1880051e 	bne	r3,r2,410c8d8 <altera_avalon_jtag_uart_read+0x138>
 410c8c4:	e0bffc17 	ldw	r2,-16(fp)
 410c8c8:	10c00917 	ldw	r3,36(r2)
 410c8cc:	e0bffc17 	ldw	r2,-16(fp)
 410c8d0:	10800117 	ldw	r2,4(r2)
 410c8d4:	18bff736 	bltu	r3,r2,410c8b4 <__ram_exceptions_end+0xfc104670>
      ;
#endif /* __ucosii__ */

    if (in == sp->rx_in)
 410c8d8:	e0bffc17 	ldw	r2,-16(fp)
 410c8dc:	10c00a17 	ldw	r3,40(r2)
 410c8e0:	e0bff717 	ldw	r2,-36(fp)
 410c8e4:	18800726 	beq	r3,r2,410c904 <altera_avalon_jtag_uart_read+0x164>
   * When running in a multi threaded environment, obtain the "read_lock"
   * semaphore. This ensures that reading from the device is thread-safe.
   */
  ALT_SEM_PEND (sp->read_lock, 0);

  while (space > 0)
 410c8e8:	e0bffe17 	ldw	r2,-8(fp)
 410c8ec:	00bfb716 	blt	zero,r2,410c7cc <__ram_exceptions_end+0xfc104588>
 410c8f0:	00000506 	br	410c908 <altera_avalon_jtag_uart_read+0x168>
    }
    while (space > 0);

    /* If we read any data then return it */
    if (ptr != buffer)
      break;
 410c8f4:	0001883a 	nop
 410c8f8:	00000306 	br	410c908 <altera_avalon_jtag_uart_read+0x168>

    /* If in non-blocking mode then return error */
    if (flags & O_NONBLOCK)
      break;
 410c8fc:	0001883a 	nop
 410c900:	00000106 	br	410c908 <altera_avalon_jtag_uart_read+0x168>
    while (in == sp->rx_in && sp->host_inactive < sp->timeout)
      ;
#endif /* __ucosii__ */

    if (in == sp->rx_in)
      break;
 410c904:	0001883a 	nop
   * semaphore so that other threads can access the buffer.
   */

  ALT_SEM_POST (sp->read_lock);

  if (ptr != buffer)
 410c908:	e0fff517 	ldw	r3,-44(fp)
 410c90c:	e0bffd17 	ldw	r2,-12(fp)
 410c910:	18801826 	beq	r3,r2,410c974 <altera_avalon_jtag_uart_read+0x1d4>
static ALT_INLINE alt_irq_context ALT_ALWAYS_INLINE 
       alt_irq_disable_all (void)
{
  alt_irq_context context;

  NIOS2_READ_STATUS (context);
 410c914:	0005303a 	rdctl	r2,status
 410c918:	e0bffb15 	stw	r2,-20(fp)

  NIOS2_WRITE_STATUS (context & ~NIOS2_STATUS_PIE_MSK);
 410c91c:	e0fffb17 	ldw	r3,-20(fp)
 410c920:	00bfff84 	movi	r2,-2
 410c924:	1884703a 	and	r2,r3,r2
 410c928:	1001703a 	wrctl	status,r2
  
  return context;
 410c92c:	e0bffb17 	ldw	r2,-20(fp)
  {
    /* If we read any data then there is space in the buffer so enable interrupts */
    context = alt_irq_disable_all();
 410c930:	e0bffa15 	stw	r2,-24(fp)
    sp->irq_enable |= ALTERA_AVALON_JTAG_UART_CONTROL_RE_MSK;
 410c934:	e0bffc17 	ldw	r2,-16(fp)
 410c938:	10800817 	ldw	r2,32(r2)
 410c93c:	10c00054 	ori	r3,r2,1
 410c940:	e0bffc17 	ldw	r2,-16(fp)
 410c944:	10c00815 	stw	r3,32(r2)
    IOWR_ALTERA_AVALON_JTAG_UART_CONTROL(sp->base, sp->irq_enable);
 410c948:	e0bffc17 	ldw	r2,-16(fp)
 410c94c:	10800017 	ldw	r2,0(r2)
 410c950:	10800104 	addi	r2,r2,4
 410c954:	1007883a 	mov	r3,r2
 410c958:	e0bffc17 	ldw	r2,-16(fp)
 410c95c:	10800817 	ldw	r2,32(r2)
 410c960:	18800035 	stwio	r2,0(r3)
 410c964:	e0bffa17 	ldw	r2,-24(fp)
 410c968:	e0bff915 	stw	r2,-28(fp)
  status &= ~NIOS2_STATUS_PIE_MSK;
  status |= (context & NIOS2_STATUS_PIE_MSK);
  
  NIOS2_WRITE_STATUS (status);
#else
  NIOS2_WRITE_STATUS (context);
 410c96c:	e0bff917 	ldw	r2,-28(fp)
 410c970:	1001703a 	wrctl	status,r2
    alt_irq_enable_all(context);
  }

  if (ptr != buffer)
 410c974:	e0fff517 	ldw	r3,-44(fp)
 410c978:	e0bffd17 	ldw	r2,-12(fp)
 410c97c:	18800426 	beq	r3,r2,410c990 <altera_avalon_jtag_uart_read+0x1f0>
    return ptr - buffer;
 410c980:	e0fff517 	ldw	r3,-44(fp)
 410c984:	e0bffd17 	ldw	r2,-12(fp)
 410c988:	1885c83a 	sub	r2,r3,r2
 410c98c:	00000606 	br	410c9a8 <altera_avalon_jtag_uart_read+0x208>
  else if (flags & O_NONBLOCK)
 410c990:	e0bfff17 	ldw	r2,-4(fp)
 410c994:	1090000c 	andi	r2,r2,16384
 410c998:	10000226 	beq	r2,zero,410c9a4 <altera_avalon_jtag_uart_read+0x204>
    return -EWOULDBLOCK;
 410c99c:	00bffd44 	movi	r2,-11
 410c9a0:	00000106 	br	410c9a8 <altera_avalon_jtag_uart_read+0x208>
  else
    return -EIO;
 410c9a4:	00bffec4 	movi	r2,-5
}
 410c9a8:	e037883a 	mov	sp,fp
 410c9ac:	dfc00117 	ldw	ra,4(sp)
 410c9b0:	df000017 	ldw	fp,0(sp)
 410c9b4:	dec00204 	addi	sp,sp,8
 410c9b8:	f800283a 	ret

0410c9bc <altera_avalon_jtag_uart_write>:
/* ----------------------------------------------------------- */

int 
altera_avalon_jtag_uart_write(altera_avalon_jtag_uart_state* sp, 
  const char * ptr, int count, int flags)
{
 410c9bc:	defff304 	addi	sp,sp,-52
 410c9c0:	dfc00c15 	stw	ra,48(sp)
 410c9c4:	df000b15 	stw	fp,44(sp)
 410c9c8:	df000b04 	addi	fp,sp,44
 410c9cc:	e13ffc15 	stw	r4,-16(fp)
 410c9d0:	e17ffd15 	stw	r5,-12(fp)
 410c9d4:	e1bffe15 	stw	r6,-8(fp)
 410c9d8:	e1ffff15 	stw	r7,-4(fp)
  /* Remove warning at optimisation level 03 by seting out to 0 */
  unsigned int in, out=0;
 410c9dc:	e03ff515 	stw	zero,-44(fp)
  unsigned int n;
  alt_irq_context context;

  const char * start = ptr;
 410c9e0:	e0bffd17 	ldw	r2,-12(fp)
 410c9e4:	e0bff715 	stw	r2,-36(fp)
  ALT_SEM_PEND (sp->write_lock, 0);

  do
  {
    /* Copy as much as we can into the transmit buffer */
    while (count > 0)
 410c9e8:	00003706 	br	410cac8 <altera_avalon_jtag_uart_write+0x10c>
    {
      /* We need a stable value of the out pointer to calculate the space available */
      in  = sp->tx_in;
 410c9ec:	e0bffc17 	ldw	r2,-16(fp)
 410c9f0:	10800c17 	ldw	r2,48(r2)
 410c9f4:	e0bff915 	stw	r2,-28(fp)
      out = sp->tx_out;
 410c9f8:	e0bffc17 	ldw	r2,-16(fp)
 410c9fc:	10800d17 	ldw	r2,52(r2)
 410ca00:	e0bff515 	stw	r2,-44(fp)

      if (in < out)
 410ca04:	e0fff917 	ldw	r3,-28(fp)
 410ca08:	e0bff517 	ldw	r2,-44(fp)
 410ca0c:	1880062e 	bgeu	r3,r2,410ca28 <altera_avalon_jtag_uart_write+0x6c>
        n = out - 1 - in;
 410ca10:	e0fff517 	ldw	r3,-44(fp)
 410ca14:	e0bff917 	ldw	r2,-28(fp)
 410ca18:	1885c83a 	sub	r2,r3,r2
 410ca1c:	10bfffc4 	addi	r2,r2,-1
 410ca20:	e0bff615 	stw	r2,-40(fp)
 410ca24:	00000b06 	br	410ca54 <altera_avalon_jtag_uart_write+0x98>
      else if (out > 0)
 410ca28:	e0bff517 	ldw	r2,-44(fp)
 410ca2c:	10000526 	beq	r2,zero,410ca44 <altera_avalon_jtag_uart_write+0x88>
        n = ALTERA_AVALON_JTAG_UART_BUF_LEN - in;
 410ca30:	00c20004 	movi	r3,2048
 410ca34:	e0bff917 	ldw	r2,-28(fp)
 410ca38:	1885c83a 	sub	r2,r3,r2
 410ca3c:	e0bff615 	stw	r2,-40(fp)
 410ca40:	00000406 	br	410ca54 <altera_avalon_jtag_uart_write+0x98>
      else
        n = ALTERA_AVALON_JTAG_UART_BUF_LEN - 1 - in;
 410ca44:	00c1ffc4 	movi	r3,2047
 410ca48:	e0bff917 	ldw	r2,-28(fp)
 410ca4c:	1885c83a 	sub	r2,r3,r2
 410ca50:	e0bff615 	stw	r2,-40(fp)

      if (n == 0)
 410ca54:	e0bff617 	ldw	r2,-40(fp)
 410ca58:	10001e26 	beq	r2,zero,410cad4 <altera_avalon_jtag_uart_write+0x118>
        break;

      if (n > count)
 410ca5c:	e0fffe17 	ldw	r3,-8(fp)
 410ca60:	e0bff617 	ldw	r2,-40(fp)
 410ca64:	1880022e 	bgeu	r3,r2,410ca70 <altera_avalon_jtag_uart_write+0xb4>
        n = count;
 410ca68:	e0bffe17 	ldw	r2,-8(fp)
 410ca6c:	e0bff615 	stw	r2,-40(fp)

      memcpy(sp->tx_buf + in, ptr, n);
 410ca70:	e0bffc17 	ldw	r2,-16(fp)
 410ca74:	10c20e04 	addi	r3,r2,2104
 410ca78:	e0bff917 	ldw	r2,-28(fp)
 410ca7c:	1885883a 	add	r2,r3,r2
 410ca80:	e1bff617 	ldw	r6,-40(fp)
 410ca84:	e17ffd17 	ldw	r5,-12(fp)
 410ca88:	1009883a 	mov	r4,r2
 410ca8c:	4100fa80 	call	4100fa8 <memcpy>
      ptr   += n;
 410ca90:	e0fffd17 	ldw	r3,-12(fp)
 410ca94:	e0bff617 	ldw	r2,-40(fp)
 410ca98:	1885883a 	add	r2,r3,r2
 410ca9c:	e0bffd15 	stw	r2,-12(fp)
      count -= n;
 410caa0:	e0fffe17 	ldw	r3,-8(fp)
 410caa4:	e0bff617 	ldw	r2,-40(fp)
 410caa8:	1885c83a 	sub	r2,r3,r2
 410caac:	e0bffe15 	stw	r2,-8(fp)

      sp->tx_in = (in + n) % ALTERA_AVALON_JTAG_UART_BUF_LEN;
 410cab0:	e0fff917 	ldw	r3,-28(fp)
 410cab4:	e0bff617 	ldw	r2,-40(fp)
 410cab8:	1885883a 	add	r2,r3,r2
 410cabc:	10c1ffcc 	andi	r3,r2,2047
 410cac0:	e0bffc17 	ldw	r2,-16(fp)
 410cac4:	10c00c15 	stw	r3,48(r2)
  ALT_SEM_PEND (sp->write_lock, 0);

  do
  {
    /* Copy as much as we can into the transmit buffer */
    while (count > 0)
 410cac8:	e0bffe17 	ldw	r2,-8(fp)
 410cacc:	00bfc716 	blt	zero,r2,410c9ec <__ram_exceptions_end+0xfc1047a8>
 410cad0:	00000106 	br	410cad8 <altera_avalon_jtag_uart_write+0x11c>
        n = ALTERA_AVALON_JTAG_UART_BUF_LEN - in;
      else
        n = ALTERA_AVALON_JTAG_UART_BUF_LEN - 1 - in;

      if (n == 0)
        break;
 410cad4:	0001883a 	nop
static ALT_INLINE alt_irq_context ALT_ALWAYS_INLINE 
       alt_irq_disable_all (void)
{
  alt_irq_context context;

  NIOS2_READ_STATUS (context);
 410cad8:	0005303a 	rdctl	r2,status
 410cadc:	e0bffb15 	stw	r2,-20(fp)

  NIOS2_WRITE_STATUS (context & ~NIOS2_STATUS_PIE_MSK);
 410cae0:	e0fffb17 	ldw	r3,-20(fp)
 410cae4:	00bfff84 	movi	r2,-2
 410cae8:	1884703a 	and	r2,r3,r2
 410caec:	1001703a 	wrctl	status,r2
  
  return context;
 410caf0:	e0bffb17 	ldw	r2,-20(fp)
     * to enable interrupts if there is no space left in the FIFO
     *
     * For now kick the interrupt routine every time to make it transmit 
     * the data 
     */
    context = alt_irq_disable_all();
 410caf4:	e0bffa15 	stw	r2,-24(fp)
    sp->irq_enable |= ALTERA_AVALON_JTAG_UART_CONTROL_WE_MSK;
 410caf8:	e0bffc17 	ldw	r2,-16(fp)
 410cafc:	10800817 	ldw	r2,32(r2)
 410cb00:	10c00094 	ori	r3,r2,2
 410cb04:	e0bffc17 	ldw	r2,-16(fp)
 410cb08:	10c00815 	stw	r3,32(r2)
    IOWR_ALTERA_AVALON_JTAG_UART_CONTROL(sp->base, sp->irq_enable);
 410cb0c:	e0bffc17 	ldw	r2,-16(fp)
 410cb10:	10800017 	ldw	r2,0(r2)
 410cb14:	10800104 	addi	r2,r2,4
 410cb18:	1007883a 	mov	r3,r2
 410cb1c:	e0bffc17 	ldw	r2,-16(fp)
 410cb20:	10800817 	ldw	r2,32(r2)
 410cb24:	18800035 	stwio	r2,0(r3)
 410cb28:	e0bffa17 	ldw	r2,-24(fp)
 410cb2c:	e0bff815 	stw	r2,-32(fp)
  status &= ~NIOS2_STATUS_PIE_MSK;
  status |= (context & NIOS2_STATUS_PIE_MSK);
  
  NIOS2_WRITE_STATUS (status);
#else
  NIOS2_WRITE_STATUS (context);
 410cb30:	e0bff817 	ldw	r2,-32(fp)
 410cb34:	1001703a 	wrctl	status,r2
    /* 
     * If there is any data left then either return now or block until 
     * some has been sent 
     */
    /* consider: test whether there is anything there while doing this and delay for at most 2s. */
    if (count > 0)
 410cb38:	e0bffe17 	ldw	r2,-8(fp)
 410cb3c:	0080100e 	bge	zero,r2,410cb80 <altera_avalon_jtag_uart_write+0x1c4>
    {
      if (flags & O_NONBLOCK)
 410cb40:	e0bfff17 	ldw	r2,-4(fp)
 410cb44:	1090000c 	andi	r2,r2,16384
 410cb48:	1000101e 	bne	r2,zero,410cb8c <altera_avalon_jtag_uart_write+0x1d0>
      /*
       * No OS present: Always wait for data to be removed from buffer.  Once
       * the interrupt routine has removed some data then we will be able to
       * insert some more.
       */
      while (out == sp->tx_out && sp->host_inactive < sp->timeout)
 410cb4c:	0001883a 	nop
 410cb50:	e0bffc17 	ldw	r2,-16(fp)
 410cb54:	10c00d17 	ldw	r3,52(r2)
 410cb58:	e0bff517 	ldw	r2,-44(fp)
 410cb5c:	1880051e 	bne	r3,r2,410cb74 <altera_avalon_jtag_uart_write+0x1b8>
 410cb60:	e0bffc17 	ldw	r2,-16(fp)
 410cb64:	10c00917 	ldw	r3,36(r2)
 410cb68:	e0bffc17 	ldw	r2,-16(fp)
 410cb6c:	10800117 	ldw	r2,4(r2)
 410cb70:	18bff736 	bltu	r3,r2,410cb50 <__ram_exceptions_end+0xfc10490c>
        ;
#endif /* __ucosii__ */

      if  (sp->host_inactive)
 410cb74:	e0bffc17 	ldw	r2,-16(fp)
 410cb78:	10800917 	ldw	r2,36(r2)
 410cb7c:	1000051e 	bne	r2,zero,410cb94 <altera_avalon_jtag_uart_write+0x1d8>
         break;
    }
  }
  while (count > 0);
 410cb80:	e0bffe17 	ldw	r2,-8(fp)
 410cb84:	00bfd016 	blt	zero,r2,410cac8 <__ram_exceptions_end+0xfc104884>
 410cb88:	00000306 	br	410cb98 <altera_avalon_jtag_uart_write+0x1dc>
     */
    /* consider: test whether there is anything there while doing this and delay for at most 2s. */
    if (count > 0)
    {
      if (flags & O_NONBLOCK)
        break;
 410cb8c:	0001883a 	nop
 410cb90:	00000106 	br	410cb98 <altera_avalon_jtag_uart_write+0x1dc>
      while (out == sp->tx_out && sp->host_inactive < sp->timeout)
        ;
#endif /* __ucosii__ */

      if  (sp->host_inactive)
         break;
 410cb94:	0001883a 	nop
   * Now that access to the circular buffer is complete, release the write
   * semaphore so that other threads can access the buffer.
   */
  ALT_SEM_POST (sp->write_lock);

  if (ptr != start)
 410cb98:	e0fffd17 	ldw	r3,-12(fp)
 410cb9c:	e0bff717 	ldw	r2,-36(fp)
 410cba0:	18800426 	beq	r3,r2,410cbb4 <altera_avalon_jtag_uart_write+0x1f8>
    return ptr - start;
 410cba4:	e0fffd17 	ldw	r3,-12(fp)
 410cba8:	e0bff717 	ldw	r2,-36(fp)
 410cbac:	1885c83a 	sub	r2,r3,r2
 410cbb0:	00001706 	br	410cc10 <altera_avalon_jtag_uart_write+0x254>
  else if (flags & O_NONBLOCK)
 410cbb4:	e0bfff17 	ldw	r2,-4(fp)
 410cbb8:	1090000c 	andi	r2,r2,16384
 410cbbc:	10000226 	beq	r2,zero,410cbc8 <altera_avalon_jtag_uart_write+0x20c>
    return -EWOULDBLOCK;
 410cbc0:	00bffd44 	movi	r2,-11
 410cbc4:	00001206 	br	410cc10 <altera_avalon_jtag_uart_write+0x254>
#ifdef ALTERA_AVALON_JTAG_UART_IGNORE_FIFO_FULL_ERROR
  else if (sp->host_inactive >= sp->timeout) {
 410cbc8:	e0bffc17 	ldw	r2,-16(fp)
 410cbcc:	10c00917 	ldw	r3,36(r2)
 410cbd0:	e0bffc17 	ldw	r2,-16(fp)
 410cbd4:	10800117 	ldw	r2,4(r2)
 410cbd8:	18800c36 	bltu	r3,r2,410cc0c <altera_avalon_jtag_uart_write+0x250>
    /* 
     * Reset the software FIFO, hardware FIFO could not be reset.
     * Just throw away characters without reporting error. 
     */
    sp->tx_out = sp->tx_in = 0;
 410cbdc:	e0bffc17 	ldw	r2,-16(fp)
 410cbe0:	10000c15 	stw	zero,48(r2)
 410cbe4:	e0bffc17 	ldw	r2,-16(fp)
 410cbe8:	10c00c17 	ldw	r3,48(r2)
 410cbec:	e0bffc17 	ldw	r2,-16(fp)
 410cbf0:	10c00d15 	stw	r3,52(r2)
    return ptr - start + count;
 410cbf4:	e0fffd17 	ldw	r3,-12(fp)
 410cbf8:	e0bff717 	ldw	r2,-36(fp)
 410cbfc:	1887c83a 	sub	r3,r3,r2
 410cc00:	e0bffe17 	ldw	r2,-8(fp)
 410cc04:	1885883a 	add	r2,r3,r2
 410cc08:	00000106 	br	410cc10 <altera_avalon_jtag_uart_write+0x254>
  }
#endif
  else
    return -EIO; /* Host not connected */
 410cc0c:	00bffec4 	movi	r2,-5
}
 410cc10:	e037883a 	mov	sp,fp
 410cc14:	dfc00117 	ldw	ra,4(sp)
 410cc18:	df000017 	ldw	fp,0(sp)
 410cc1c:	dec00204 	addi	sp,sp,8
 410cc20:	f800283a 	ret

0410cc24 <alt_get_errno>:
#undef errno

extern int errno;

static ALT_INLINE int* alt_get_errno(void)
{
 410cc24:	defffe04 	addi	sp,sp,-8
 410cc28:	dfc00115 	stw	ra,4(sp)
 410cc2c:	df000015 	stw	fp,0(sp)
 410cc30:	d839883a 	mov	fp,sp
  return ((alt_errno) ? alt_errno() : &errno);
 410cc34:	d0a00f17 	ldw	r2,-32708(gp)
 410cc38:	10000326 	beq	r2,zero,410cc48 <alt_get_errno+0x24>
 410cc3c:	d0a00f17 	ldw	r2,-32708(gp)
 410cc40:	103ee83a 	callr	r2
 410cc44:	00000106 	br	410cc4c <alt_get_errno+0x28>
 410cc48:	d0a6e404 	addi	r2,gp,-25712
}
 410cc4c:	e037883a 	mov	sp,fp
 410cc50:	dfc00117 	ldw	ra,4(sp)
 410cc54:	df000017 	ldw	fp,0(sp)
 410cc58:	dec00204 	addi	sp,sp,8
 410cc5c:	f800283a 	ret

0410cc60 <alt_mutex_trylock>:
 *
 * returns 0 on success -1 otherwise
 *
 */
static int alt_mutex_trylock( alt_mutex_dev* dev, alt_u32 value )
{
 410cc60:	defff904 	addi	sp,sp,-28
 410cc64:	df000615 	stw	fp,24(sp)
 410cc68:	df000604 	addi	fp,sp,24
 410cc6c:	e13ffe15 	stw	r4,-8(fp)
 410cc70:	e17fff15 	stw	r5,-4(fp)
  alt_u32 id, data, check;
  int ret_code = -1;
 410cc74:	00bfffc4 	movi	r2,-1
 410cc78:	e0bffa15 	stw	r2,-24(fp)

  NIOS2_READ_CPUID(id);
 410cc7c:	0005317a 	rdctl	r2,cpuid
 410cc80:	e0bffb15 	stw	r2,-20(fp)

  /* the data we want the mutex to hold */
  data = (id << ALTERA_AVALON_MUTEX_MUTEX_OWNER_OFST) | value;
 410cc84:	e0bffb17 	ldw	r2,-20(fp)
 410cc88:	1006943a 	slli	r3,r2,16
 410cc8c:	e0bfff17 	ldw	r2,-4(fp)
 410cc90:	1884b03a 	or	r2,r3,r2
 410cc94:	e0bffc15 	stw	r2,-16(fp)

  /* attempt to write to the mutex */
  IOWR_ALTERA_AVALON_MUTEX_MUTEX(dev->mutex_base, data);
 410cc98:	e0bffe17 	ldw	r2,-8(fp)
 410cc9c:	10800317 	ldw	r2,12(r2)
 410cca0:	e0fffc17 	ldw	r3,-16(fp)
 410cca4:	10c00035 	stwio	r3,0(r2)
  
  check = IORD_ALTERA_AVALON_MUTEX_MUTEX(dev->mutex_base);
 410cca8:	e0bffe17 	ldw	r2,-8(fp)
 410ccac:	10800317 	ldw	r2,12(r2)
 410ccb0:	10800037 	ldwio	r2,0(r2)
 410ccb4:	e0bffd15 	stw	r2,-12(fp)

  if ( check == data)
 410ccb8:	e0fffd17 	ldw	r3,-12(fp)
 410ccbc:	e0bffc17 	ldw	r2,-16(fp)
 410ccc0:	1880011e 	bne	r3,r2,410ccc8 <alt_mutex_trylock+0x68>
  {
    ret_code = 0;
 410ccc4:	e03ffa15 	stw	zero,-24(fp)
  }

  return ret_code;
 410ccc8:	e0bffa17 	ldw	r2,-24(fp)
}
 410cccc:	e037883a 	mov	sp,fp
 410ccd0:	df000017 	ldw	fp,0(sp)
 410ccd4:	dec00104 	addi	sp,sp,4
 410ccd8:	f800283a 	ret

0410ccdc <altera_avalon_mutex_open>:
 * Search the list of registered mutexes for one with the supplied name.
 *
 * The return value will be NULL on failure, and non-NULL otherwise.
 */
alt_mutex_dev* altera_avalon_mutex_open (const char* name)
{
 410ccdc:	defffc04 	addi	sp,sp,-16
 410cce0:	dfc00315 	stw	ra,12(sp)
 410cce4:	df000215 	stw	fp,8(sp)
 410cce8:	df000204 	addi	fp,sp,8
 410ccec:	e13fff15 	stw	r4,-4(fp)
  alt_mutex_dev* dev;

  dev = (alt_mutex_dev*) alt_find_dev (name, &alt_mutex_list);
 410ccf0:	d1600804 	addi	r5,gp,-32736
 410ccf4:	e13fff17 	ldw	r4,-4(fp)
 410ccf8:	410d33c0 	call	410d33c <alt_find_dev>
 410ccfc:	e0bffe15 	stw	r2,-8(fp)

  if (NULL == dev)
 410cd00:	e0bffe17 	ldw	r2,-8(fp)
 410cd04:	1000041e 	bne	r2,zero,410cd18 <altera_avalon_mutex_open+0x3c>
  {
    ALT_ERRNO = ENODEV;
 410cd08:	410cc240 	call	410cc24 <alt_get_errno>
 410cd0c:	1007883a 	mov	r3,r2
 410cd10:	008004c4 	movi	r2,19
 410cd14:	18800015 	stw	r2,0(r3)
  }

  return dev;
 410cd18:	e0bffe17 	ldw	r2,-8(fp)
}
 410cd1c:	e037883a 	mov	sp,fp
 410cd20:	dfc00117 	ldw	ra,4(sp)
 410cd24:	df000017 	ldw	fp,0(sp)
 410cd28:	dec00204 	addi	sp,sp,8
 410cd2c:	f800283a 	ret

0410cd30 <altera_avalon_mutex_close>:
 * altera_avalon_mutex_close - Does nothing at the moment, but included for 
 * completeness
 *
 */
void altera_avalon_mutex_close (alt_mutex_dev* dev)
{
 410cd30:	defffe04 	addi	sp,sp,-8
 410cd34:	df000115 	stw	fp,4(sp)
 410cd38:	df000104 	addi	fp,sp,4
 410cd3c:	e13fff15 	stw	r4,-4(fp)
  return;
 410cd40:	0001883a 	nop
}
 410cd44:	e037883a 	mov	sp,fp
 410cd48:	df000017 	ldw	fp,0(sp)
 410cd4c:	dec00104 	addi	sp,sp,4
 410cd50:	f800283a 	ret

0410cd54 <altera_avalon_mutex_lock>:
/*
 * altera_avalon_mutex_lock - Lock the hardware mutex
 *
 */
void altera_avalon_mutex_lock( alt_mutex_dev* dev, alt_u32 value )
{
 410cd54:	defffc04 	addi	sp,sp,-16
 410cd58:	dfc00315 	stw	ra,12(sp)
 410cd5c:	df000215 	stw	fp,8(sp)
 410cd60:	df000204 	addi	fp,sp,8
 410cd64:	e13ffe15 	stw	r4,-8(fp)
 410cd68:	e17fff15 	stw	r5,-4(fp)
   * semaphore. This ensures that reading from the device is thread-safe.
   */

  ALT_SEM_PEND (dev->lock, 0);

  while ( alt_mutex_trylock( dev, value ) != 0);
 410cd6c:	0001883a 	nop
 410cd70:	e17fff17 	ldw	r5,-4(fp)
 410cd74:	e13ffe17 	ldw	r4,-8(fp)
 410cd78:	410cc600 	call	410cc60 <alt_mutex_trylock>
 410cd7c:	103ffc1e 	bne	r2,zero,410cd70 <__ram_exceptions_end+0xfc104b2c>
}
 410cd80:	0001883a 	nop
 410cd84:	e037883a 	mov	sp,fp
 410cd88:	dfc00117 	ldw	ra,4(sp)
 410cd8c:	df000017 	ldw	fp,0(sp)
 410cd90:	dec00204 	addi	sp,sp,8
 410cd94:	f800283a 	ret

0410cd98 <altera_avalon_mutex_trylock>:
 *
 * returns 0 on success -1 otherwise
 *
 */
int altera_avalon_mutex_trylock( alt_mutex_dev* dev, alt_u32 value )
{
 410cd98:	defffa04 	addi	sp,sp,-24
 410cd9c:	dfc00515 	stw	ra,20(sp)
 410cda0:	df000415 	stw	fp,16(sp)
 410cda4:	df000404 	addi	fp,sp,16
 410cda8:	e13ffd15 	stw	r4,-12(fp)
 410cdac:	e17ffe15 	stw	r5,-8(fp)
  int ret_code;

  ALT_SEM_PEND (dev->lock, 0);

  ret_code = alt_mutex_trylock( dev, value);
 410cdb0:	e17ffe17 	ldw	r5,-8(fp)
 410cdb4:	e13ffd17 	ldw	r4,-12(fp)
 410cdb8:	410cc600 	call	410cc60 <alt_mutex_trylock>
 410cdbc:	e0bffc15 	stw	r2,-16(fp)
  if (ret_code)
  {
    ALT_SEM_POST (dev->lock);
  }

  return ret_code;
 410cdc0:	e0bffc17 	ldw	r2,-16(fp)
}
 410cdc4:	e037883a 	mov	sp,fp
 410cdc8:	dfc00117 	ldw	ra,4(sp)
 410cdcc:	df000017 	ldw	fp,0(sp)
 410cdd0:	dec00204 	addi	sp,sp,8
 410cdd4:	f800283a 	ret

0410cdd8 <altera_avalon_mutex_unlock>:
 * This function does not check that you own the Mutex if you try to release
 * a Mutex you do not own the behaviour is undefined
 *
 */
void altera_avalon_mutex_unlock( alt_mutex_dev* dev )
{
 410cdd8:	defffd04 	addi	sp,sp,-12
 410cddc:	df000215 	stw	fp,8(sp)
 410cde0:	df000204 	addi	fp,sp,8
 410cde4:	e13fff15 	stw	r4,-4(fp)
  alt_u32 id;
  NIOS2_READ_CPUID(id);
 410cde8:	0005317a 	rdctl	r2,cpuid
 410cdec:	e0bffe15 	stw	r2,-8(fp)

  /*
  * This Mutex has been claimed and released since Reset so clear the Reset bit
  * This MUST happen before we release the MUTEX
  */
  IOWR_ALTERA_AVALON_MUTEX_RESET(dev->mutex_base, 
 410cdf0:	e0bfff17 	ldw	r2,-4(fp)
 410cdf4:	10800317 	ldw	r2,12(r2)
 410cdf8:	10800104 	addi	r2,r2,4
 410cdfc:	00c00044 	movi	r3,1
 410ce00:	10c00035 	stwio	r3,0(r2)
                                  ALTERA_AVALON_MUTEX_RESET_RESET_MSK);
  IOWR_ALTERA_AVALON_MUTEX_MUTEX(dev->mutex_base, 
 410ce04:	e0bfff17 	ldw	r2,-4(fp)
 410ce08:	10800317 	ldw	r2,12(r2)
 410ce0c:	e0fffe17 	ldw	r3,-8(fp)
 410ce10:	1806943a 	slli	r3,r3,16
 410ce14:	10c00035 	stwio	r3,0(r2)

  /*
  * Now that access to the hardware Mutex is complete, release the thread lock
  */
  ALT_SEM_POST (dev->lock);
}
 410ce18:	0001883a 	nop
 410ce1c:	e037883a 	mov	sp,fp
 410ce20:	df000017 	ldw	fp,0(sp)
 410ce24:	dec00104 	addi	sp,sp,4
 410ce28:	f800283a 	ret

0410ce2c <altera_avalon_mutex_is_mine>:
 * altera_avalon_mutex_is_mine - Do I own the Mutex?
 *
 *  returns non zero if the mutex is owned by this CPU
 */
int altera_avalon_mutex_is_mine( alt_mutex_dev* dev )
{
 410ce2c:	defff904 	addi	sp,sp,-28
 410ce30:	df000615 	stw	fp,24(sp)
 410ce34:	df000604 	addi	fp,sp,24
 410ce38:	e13fff15 	stw	r4,-4(fp)
  alt_u32 id, data, owner, value;
  int ret_code = 0;
 410ce3c:	e03ffa15 	stw	zero,-24(fp)

  NIOS2_READ_CPUID(id);
 410ce40:	0005317a 	rdctl	r2,cpuid
 410ce44:	e0bffb15 	stw	r2,-20(fp)

  /* retrieve the contents of the mutex */
  data = IORD_ALTERA_AVALON_MUTEX_MUTEX(dev->mutex_base);
 410ce48:	e0bfff17 	ldw	r2,-4(fp)
 410ce4c:	10800317 	ldw	r2,12(r2)
 410ce50:	10800037 	ldwio	r2,0(r2)
 410ce54:	e0bffc15 	stw	r2,-16(fp)
  owner = (data & ALTERA_AVALON_MUTEX_MUTEX_OWNER_MSK) >> 
 410ce58:	e0bffc17 	ldw	r2,-16(fp)
 410ce5c:	1004d43a 	srli	r2,r2,16
 410ce60:	e0bffd15 	stw	r2,-12(fp)
              ALTERA_AVALON_MUTEX_MUTEX_OWNER_OFST;

  if (owner == id) 
 410ce64:	e0fffd17 	ldw	r3,-12(fp)
 410ce68:	e0bffb17 	ldw	r2,-20(fp)
 410ce6c:	1880071e 	bne	r3,r2,410ce8c <altera_avalon_mutex_is_mine+0x60>
  {
    value = (data & ALTERA_AVALON_MUTEX_MUTEX_VALUE_MSK) >> 
 410ce70:	e0bffc17 	ldw	r2,-16(fp)
 410ce74:	10bfffcc 	andi	r2,r2,65535
 410ce78:	e0bffe15 	stw	r2,-8(fp)
                  ALTERA_AVALON_MUTEX_MUTEX_VALUE_OFST;
    if (value != 0)
 410ce7c:	e0bffe17 	ldw	r2,-8(fp)
 410ce80:	10000226 	beq	r2,zero,410ce8c <altera_avalon_mutex_is_mine+0x60>
    {
      ret_code = 1;
 410ce84:	00800044 	movi	r2,1
 410ce88:	e0bffa15 	stw	r2,-24(fp)
    }
  }

  return ret_code;
 410ce8c:	e0bffa17 	ldw	r2,-24(fp)
}
 410ce90:	e037883a 	mov	sp,fp
 410ce94:	df000017 	ldw	fp,0(sp)
 410ce98:	dec00104 	addi	sp,sp,4
 410ce9c:	f800283a 	ret

0410cea0 <altera_avalon_mutex_first_lock>:
 *
 * Has this Mutex been released since reset if not return 1
 * otherwise return 0
 */
int altera_avalon_mutex_first_lock( alt_mutex_dev* dev )
{
 410cea0:	defffc04 	addi	sp,sp,-16
 410cea4:	df000315 	stw	fp,12(sp)
 410cea8:	df000304 	addi	fp,sp,12
 410ceac:	e13fff15 	stw	r4,-4(fp)
  alt_u32 data;
  int ret_code = 0;
 410ceb0:	e03ffd15 	stw	zero,-12(fp)

  data = IORD_ALTERA_AVALON_MUTEX_RESET(dev->mutex_base);
 410ceb4:	e0bfff17 	ldw	r2,-4(fp)
 410ceb8:	10800317 	ldw	r2,12(r2)
 410cebc:	10800104 	addi	r2,r2,4
 410cec0:	10800037 	ldwio	r2,0(r2)
 410cec4:	e0bffe15 	stw	r2,-8(fp)

  if (data & ALTERA_AVALON_MUTEX_RESET_RESET_MSK) 
 410cec8:	e0bffe17 	ldw	r2,-8(fp)
 410cecc:	1080004c 	andi	r2,r2,1
 410ced0:	10000226 	beq	r2,zero,410cedc <altera_avalon_mutex_first_lock+0x3c>
  {
    ret_code = 1;
 410ced4:	00800044 	movi	r2,1
 410ced8:	e0bffd15 	stw	r2,-12(fp)
  }

  return ret_code;
 410cedc:	e0bffd17 	ldw	r2,-12(fp)
}
 410cee0:	e037883a 	mov	sp,fp
 410cee4:	df000017 	ldw	fp,0(sp)
 410cee8:	dec00104 	addi	sp,sp,4
 410ceec:	f800283a 	ret

0410cef0 <alt_alarm_start>:
 */ 

int alt_alarm_start (alt_alarm* alarm, alt_u32 nticks,
                     alt_u32 (*callback) (void* context),
                     void* context)
{
 410cef0:	defff504 	addi	sp,sp,-44
 410cef4:	df000a15 	stw	fp,40(sp)
 410cef8:	df000a04 	addi	fp,sp,40
 410cefc:	e13ffc15 	stw	r4,-16(fp)
 410cf00:	e17ffd15 	stw	r5,-12(fp)
 410cf04:	e1bffe15 	stw	r6,-8(fp)
 410cf08:	e1ffff15 	stw	r7,-4(fp)
  alt_irq_context irq_context;
  alt_u32 current_nticks = 0;
 410cf0c:	e03ff615 	stw	zero,-40(fp)
 410cf10:	d0a6ea17 	ldw	r2,-25688(gp)
  
  if (alt_ticks_per_second ())
 410cf14:	10003c26 	beq	r2,zero,410d008 <alt_alarm_start+0x118>
  {
    if (alarm)
 410cf18:	e0bffc17 	ldw	r2,-16(fp)
 410cf1c:	10003826 	beq	r2,zero,410d000 <alt_alarm_start+0x110>
    {
      alarm->callback = callback;
 410cf20:	e0bffc17 	ldw	r2,-16(fp)
 410cf24:	e0fffe17 	ldw	r3,-8(fp)
 410cf28:	10c00315 	stw	r3,12(r2)
      alarm->context  = context;
 410cf2c:	e0bffc17 	ldw	r2,-16(fp)
 410cf30:	e0ffff17 	ldw	r3,-4(fp)
 410cf34:	10c00515 	stw	r3,20(r2)
static ALT_INLINE alt_irq_context ALT_ALWAYS_INLINE 
       alt_irq_disable_all (void)
{
  alt_irq_context context;

  NIOS2_READ_STATUS (context);
 410cf38:	0005303a 	rdctl	r2,status
 410cf3c:	e0bff915 	stw	r2,-28(fp)

  NIOS2_WRITE_STATUS (context & ~NIOS2_STATUS_PIE_MSK);
 410cf40:	e0fff917 	ldw	r3,-28(fp)
 410cf44:	00bfff84 	movi	r2,-2
 410cf48:	1884703a 	and	r2,r3,r2
 410cf4c:	1001703a 	wrctl	status,r2
  
  return context;
 410cf50:	e0bff917 	ldw	r2,-28(fp)
 
      irq_context = alt_irq_disable_all ();
 410cf54:	e0bff815 	stw	r2,-32(fp)
 * alt_nticks() returns the elapsed number of system clock ticks since reset.
 */

static ALT_INLINE alt_u32 ALT_ALWAYS_INLINE alt_nticks (void)
{
  return _alt_nticks;
 410cf58:	d0a6eb17 	ldw	r2,-25684(gp)
      
      current_nticks = alt_nticks();
 410cf5c:	e0bff615 	stw	r2,-40(fp)
      
      alarm->time = nticks + current_nticks + 1; 
 410cf60:	e0fffd17 	ldw	r3,-12(fp)
 410cf64:	e0bff617 	ldw	r2,-40(fp)
 410cf68:	1885883a 	add	r2,r3,r2
 410cf6c:	10c00044 	addi	r3,r2,1
 410cf70:	e0bffc17 	ldw	r2,-16(fp)
 410cf74:	10c00215 	stw	r3,8(r2)
      /* 
       * If the desired alarm time causes a roll-over, set the rollover
       * flag. This will prevent the subsequent tick event from causing
       * an alarm too early.
       */
      if(alarm->time < current_nticks)
 410cf78:	e0bffc17 	ldw	r2,-16(fp)
 410cf7c:	10c00217 	ldw	r3,8(r2)
 410cf80:	e0bff617 	ldw	r2,-40(fp)
 410cf84:	1880042e 	bgeu	r3,r2,410cf98 <alt_alarm_start+0xa8>
      {
        alarm->rollover = 1;
 410cf88:	e0bffc17 	ldw	r2,-16(fp)
 410cf8c:	00c00044 	movi	r3,1
 410cf90:	10c00405 	stb	r3,16(r2)
 410cf94:	00000206 	br	410cfa0 <alt_alarm_start+0xb0>
      }
      else
      {
        alarm->rollover = 0;
 410cf98:	e0bffc17 	ldw	r2,-16(fp)
 410cf9c:	10000405 	stb	zero,16(r2)
      }
    
      alt_llist_insert (&alt_alarm_list, &alarm->llist);
 410cfa0:	e0bffc17 	ldw	r2,-16(fp)
 410cfa4:	d0e01004 	addi	r3,gp,-32704
 410cfa8:	e0fffa15 	stw	r3,-24(fp)
 410cfac:	e0bffb15 	stw	r2,-20(fp)
 */

static ALT_INLINE void ALT_ALWAYS_INLINE alt_llist_insert(alt_llist* list, 
                alt_llist* entry)
{
  entry->previous = list;
 410cfb0:	e0bffb17 	ldw	r2,-20(fp)
 410cfb4:	e0fffa17 	ldw	r3,-24(fp)
 410cfb8:	10c00115 	stw	r3,4(r2)
  entry->next     = list->next;
 410cfbc:	e0bffa17 	ldw	r2,-24(fp)
 410cfc0:	10c00017 	ldw	r3,0(r2)
 410cfc4:	e0bffb17 	ldw	r2,-20(fp)
 410cfc8:	10c00015 	stw	r3,0(r2)

  list->next->previous = entry;
 410cfcc:	e0bffa17 	ldw	r2,-24(fp)
 410cfd0:	10800017 	ldw	r2,0(r2)
 410cfd4:	e0fffb17 	ldw	r3,-20(fp)
 410cfd8:	10c00115 	stw	r3,4(r2)
  list->next           = entry;
 410cfdc:	e0bffa17 	ldw	r2,-24(fp)
 410cfe0:	e0fffb17 	ldw	r3,-20(fp)
 410cfe4:	10c00015 	stw	r3,0(r2)
 410cfe8:	e0bff817 	ldw	r2,-32(fp)
 410cfec:	e0bff715 	stw	r2,-36(fp)
  status &= ~NIOS2_STATUS_PIE_MSK;
  status |= (context & NIOS2_STATUS_PIE_MSK);
  
  NIOS2_WRITE_STATUS (status);
#else
  NIOS2_WRITE_STATUS (context);
 410cff0:	e0bff717 	ldw	r2,-36(fp)
 410cff4:	1001703a 	wrctl	status,r2
      alt_irq_enable_all (irq_context);

      return 0;
 410cff8:	0005883a 	mov	r2,zero
 410cffc:	00000306 	br	410d00c <alt_alarm_start+0x11c>
    }
    else
    {
      return -EINVAL;
 410d000:	00bffa84 	movi	r2,-22
 410d004:	00000106 	br	410d00c <alt_alarm_start+0x11c>
    }
  }
  else
  {
    return -ENOTSUP;
 410d008:	00bfde84 	movi	r2,-134
  }
}
 410d00c:	e037883a 	mov	sp,fp
 410d010:	df000017 	ldw	fp,0(sp)
 410d014:	dec00104 	addi	sp,sp,4
 410d018:	f800283a 	ret

0410d01c <alt_get_errno>:
#undef errno

extern int errno;

static ALT_INLINE int* alt_get_errno(void)
{
 410d01c:	defffe04 	addi	sp,sp,-8
 410d020:	dfc00115 	stw	ra,4(sp)
 410d024:	df000015 	stw	fp,0(sp)
 410d028:	d839883a 	mov	fp,sp
  return ((alt_errno) ? alt_errno() : &errno);
 410d02c:	d0a00f17 	ldw	r2,-32708(gp)
 410d030:	10000326 	beq	r2,zero,410d040 <alt_get_errno+0x24>
 410d034:	d0a00f17 	ldw	r2,-32708(gp)
 410d038:	103ee83a 	callr	r2
 410d03c:	00000106 	br	410d044 <alt_get_errno+0x28>
 410d040:	d0a6e404 	addi	r2,gp,-25712
}
 410d044:	e037883a 	mov	sp,fp
 410d048:	dfc00117 	ldw	ra,4(sp)
 410d04c:	df000017 	ldw	fp,0(sp)
 410d050:	dec00204 	addi	sp,sp,8
 410d054:	f800283a 	ret

0410d058 <close>:
 *
 * ALT_CLOSE is mapped onto the close() system call in alt_syscall.h
 */
 
int ALT_CLOSE (int fildes)
{
 410d058:	defffb04 	addi	sp,sp,-20
 410d05c:	dfc00415 	stw	ra,16(sp)
 410d060:	df000315 	stw	fp,12(sp)
 410d064:	df000304 	addi	fp,sp,12
 410d068:	e13fff15 	stw	r4,-4(fp)
   * A common error case is that when the file descriptor was created, the call
   * to open() failed resulting in a negative file descriptor. This is trapped
   * below so that we don't try and process an invalid file descriptor.
   */

  fd = (fildes < 0) ? NULL : &alt_fd_list[fildes];
 410d06c:	e0bfff17 	ldw	r2,-4(fp)
 410d070:	10000616 	blt	r2,zero,410d08c <close+0x34>
 410d074:	e0bfff17 	ldw	r2,-4(fp)
 410d078:	10c00324 	muli	r3,r2,12
 410d07c:	00810474 	movhi	r2,1041
 410d080:	10bf3d04 	addi	r2,r2,-780
 410d084:	1885883a 	add	r2,r3,r2
 410d088:	00000106 	br	410d090 <close+0x38>
 410d08c:	0005883a 	mov	r2,zero
 410d090:	e0bffd15 	stw	r2,-12(fp)

  if (fd)
 410d094:	e0bffd17 	ldw	r2,-12(fp)
 410d098:	10001926 	beq	r2,zero,410d100 <close+0xa8>
    /*
     * If the associated file system/device has a close function, call it so 
     * that any necessary cleanup code can run.
     */

    rval = (fd->dev->close) ? fd->dev->close(fd) : 0;
 410d09c:	e0bffd17 	ldw	r2,-12(fp)
 410d0a0:	10800017 	ldw	r2,0(r2)
 410d0a4:	10800417 	ldw	r2,16(r2)
 410d0a8:	10000626 	beq	r2,zero,410d0c4 <close+0x6c>
 410d0ac:	e0bffd17 	ldw	r2,-12(fp)
 410d0b0:	10800017 	ldw	r2,0(r2)
 410d0b4:	10800417 	ldw	r2,16(r2)
 410d0b8:	e13ffd17 	ldw	r4,-12(fp)
 410d0bc:	103ee83a 	callr	r2
 410d0c0:	00000106 	br	410d0c8 <close+0x70>
 410d0c4:	0005883a 	mov	r2,zero
 410d0c8:	e0bffe15 	stw	r2,-8(fp)

    /* Free the file descriptor structure and return. */

    alt_release_fd (fildes);
 410d0cc:	e13fff17 	ldw	r4,-4(fp)
 410d0d0:	410d8300 	call	410d830 <alt_release_fd>
    if (rval < 0)
 410d0d4:	e0bffe17 	ldw	r2,-8(fp)
 410d0d8:	1000070e 	bge	r2,zero,410d0f8 <close+0xa0>
    {
      ALT_ERRNO = -rval;
 410d0dc:	410d01c0 	call	410d01c <alt_get_errno>
 410d0e0:	1007883a 	mov	r3,r2
 410d0e4:	e0bffe17 	ldw	r2,-8(fp)
 410d0e8:	0085c83a 	sub	r2,zero,r2
 410d0ec:	18800015 	stw	r2,0(r3)
      return -1;
 410d0f0:	00bfffc4 	movi	r2,-1
 410d0f4:	00000706 	br	410d114 <close+0xbc>
    }
    return 0;
 410d0f8:	0005883a 	mov	r2,zero
 410d0fc:	00000506 	br	410d114 <close+0xbc>
  }
  else
  {
    ALT_ERRNO = EBADFD;
 410d100:	410d01c0 	call	410d01c <alt_get_errno>
 410d104:	1007883a 	mov	r3,r2
 410d108:	00801444 	movi	r2,81
 410d10c:	18800015 	stw	r2,0(r3)
    return -1;
 410d110:	00bfffc4 	movi	r2,-1
  }
}
 410d114:	e037883a 	mov	sp,fp
 410d118:	dfc00117 	ldw	ra,4(sp)
 410d11c:	df000017 	ldw	fp,0(sp)
 410d120:	dec00204 	addi	sp,sp,8
 410d124:	f800283a 	ret

0410d128 <alt_dcache_flush_all>:
/*
 * alt_dcache_flush_all() is called to flush the entire data cache.
 */

void alt_dcache_flush_all (void)
{
 410d128:	defffe04 	addi	sp,sp,-8
 410d12c:	df000115 	stw	fp,4(sp)
 410d130:	df000104 	addi	fp,sp,4
#if NIOS2_DCACHE_SIZE > 0
  char* i;
  
  for (i = (char*) 0; i < (char*) NIOS2_DCACHE_SIZE; i+= NIOS2_DCACHE_LINE_SIZE)
 410d134:	e03fff15 	stw	zero,-4(fp)
 410d138:	00000506 	br	410d150 <alt_dcache_flush_all+0x28>
  { 
    __asm__ volatile ("flushd (%0)" :: "r" (i));
 410d13c:	e0bfff17 	ldw	r2,-4(fp)
 410d140:	1000003b 	flushd	0(r2)
void alt_dcache_flush_all (void)
{
#if NIOS2_DCACHE_SIZE > 0
  char* i;
  
  for (i = (char*) 0; i < (char*) NIOS2_DCACHE_SIZE; i+= NIOS2_DCACHE_LINE_SIZE)
 410d144:	e0bfff17 	ldw	r2,-4(fp)
 410d148:	10800804 	addi	r2,r2,32
 410d14c:	e0bfff15 	stw	r2,-4(fp)
 410d150:	e0bfff17 	ldw	r2,-4(fp)
 410d154:	10820030 	cmpltui	r2,r2,2048
 410d158:	103ff81e 	bne	r2,zero,410d13c <__ram_exceptions_end+0xfc104ef8>
  { 
    __asm__ volatile ("flushd (%0)" :: "r" (i));
  }
#endif /* NIOS2_DCACHE_SIZE > 0 */
}
 410d15c:	0001883a 	nop
 410d160:	e037883a 	mov	sp,fp
 410d164:	df000017 	ldw	fp,0(sp)
 410d168:	dec00104 	addi	sp,sp,4
 410d16c:	f800283a 	ret

0410d170 <alt_dev_null_write>:
 * by the alt_dev_null device. It simple discards all data passed to it, and
 * indicates that the data has been successfully transmitted.
 */

static int alt_dev_null_write (alt_fd* fd, const char* ptr, int len)
{
 410d170:	defffc04 	addi	sp,sp,-16
 410d174:	df000315 	stw	fp,12(sp)
 410d178:	df000304 	addi	fp,sp,12
 410d17c:	e13ffd15 	stw	r4,-12(fp)
 410d180:	e17ffe15 	stw	r5,-8(fp)
 410d184:	e1bfff15 	stw	r6,-4(fp)
  return len;
 410d188:	e0bfff17 	ldw	r2,-4(fp)
}
 410d18c:	e037883a 	mov	sp,fp
 410d190:	df000017 	ldw	fp,0(sp)
 410d194:	dec00104 	addi	sp,sp,4
 410d198:	f800283a 	ret

0410d19c <alt_get_errno>:
#undef errno

extern int errno;

static ALT_INLINE int* alt_get_errno(void)
{
 410d19c:	defffe04 	addi	sp,sp,-8
 410d1a0:	dfc00115 	stw	ra,4(sp)
 410d1a4:	df000015 	stw	fp,0(sp)
 410d1a8:	d839883a 	mov	fp,sp
  return ((alt_errno) ? alt_errno() : &errno);
 410d1ac:	d0a00f17 	ldw	r2,-32708(gp)
 410d1b0:	10000326 	beq	r2,zero,410d1c0 <alt_get_errno+0x24>
 410d1b4:	d0a00f17 	ldw	r2,-32708(gp)
 410d1b8:	103ee83a 	callr	r2
 410d1bc:	00000106 	br	410d1c4 <alt_get_errno+0x28>
 410d1c0:	d0a6e404 	addi	r2,gp,-25712
}
 410d1c4:	e037883a 	mov	sp,fp
 410d1c8:	dfc00117 	ldw	ra,4(sp)
 410d1cc:	df000017 	ldw	fp,0(sp)
 410d1d0:	dec00204 	addi	sp,sp,8
 410d1d4:	f800283a 	ret

0410d1d8 <alt_dev_llist_insert>:
/*
 *
 */

int alt_dev_llist_insert (alt_dev_llist* dev, alt_llist* list)
{
 410d1d8:	defffa04 	addi	sp,sp,-24
 410d1dc:	dfc00515 	stw	ra,20(sp)
 410d1e0:	df000415 	stw	fp,16(sp)
 410d1e4:	df000404 	addi	fp,sp,16
 410d1e8:	e13ffe15 	stw	r4,-8(fp)
 410d1ec:	e17fff15 	stw	r5,-4(fp)
  /*
   * check that the device exists, and that it has a valid name.
   */

  if (!dev || !dev->name)
 410d1f0:	e0bffe17 	ldw	r2,-8(fp)
 410d1f4:	10000326 	beq	r2,zero,410d204 <alt_dev_llist_insert+0x2c>
 410d1f8:	e0bffe17 	ldw	r2,-8(fp)
 410d1fc:	10800217 	ldw	r2,8(r2)
 410d200:	1000061e 	bne	r2,zero,410d21c <alt_dev_llist_insert+0x44>
  {
    ALT_ERRNO = EINVAL;
 410d204:	410d19c0 	call	410d19c <alt_get_errno>
 410d208:	1007883a 	mov	r3,r2
 410d20c:	00800584 	movi	r2,22
 410d210:	18800015 	stw	r2,0(r3)
    return -EINVAL;
 410d214:	00bffa84 	movi	r2,-22
 410d218:	00001306 	br	410d268 <alt_dev_llist_insert+0x90>
  
  /*
   * register the device.
   */
  
  alt_llist_insert(list, &dev->llist);
 410d21c:	e0bffe17 	ldw	r2,-8(fp)
 410d220:	e0ffff17 	ldw	r3,-4(fp)
 410d224:	e0fffc15 	stw	r3,-16(fp)
 410d228:	e0bffd15 	stw	r2,-12(fp)
 */

static ALT_INLINE void ALT_ALWAYS_INLINE alt_llist_insert(alt_llist* list, 
                alt_llist* entry)
{
  entry->previous = list;
 410d22c:	e0bffd17 	ldw	r2,-12(fp)
 410d230:	e0fffc17 	ldw	r3,-16(fp)
 410d234:	10c00115 	stw	r3,4(r2)
  entry->next     = list->next;
 410d238:	e0bffc17 	ldw	r2,-16(fp)
 410d23c:	10c00017 	ldw	r3,0(r2)
 410d240:	e0bffd17 	ldw	r2,-12(fp)
 410d244:	10c00015 	stw	r3,0(r2)

  list->next->previous = entry;
 410d248:	e0bffc17 	ldw	r2,-16(fp)
 410d24c:	10800017 	ldw	r2,0(r2)
 410d250:	e0fffd17 	ldw	r3,-12(fp)
 410d254:	10c00115 	stw	r3,4(r2)
  list->next           = entry;
 410d258:	e0bffc17 	ldw	r2,-16(fp)
 410d25c:	e0fffd17 	ldw	r3,-12(fp)
 410d260:	10c00015 	stw	r3,0(r2)

  return 0;  
 410d264:	0005883a 	mov	r2,zero
}
 410d268:	e037883a 	mov	sp,fp
 410d26c:	dfc00117 	ldw	ra,4(sp)
 410d270:	df000017 	ldw	fp,0(sp)
 410d274:	dec00204 	addi	sp,sp,8
 410d278:	f800283a 	ret

0410d27c <_do_ctors>:
/*
 * Run the C++ static constructors.
 */

void _do_ctors(void)
{
 410d27c:	defffd04 	addi	sp,sp,-12
 410d280:	dfc00215 	stw	ra,8(sp)
 410d284:	df000115 	stw	fp,4(sp)
 410d288:	df000104 	addi	fp,sp,4
  constructor* ctor;

  for (ctor = &__CTOR_END__[-1]; ctor >= __CTOR_LIST__; ctor--)
 410d28c:	00810474 	movhi	r2,1041
 410d290:	10b80a04 	addi	r2,r2,-8152
 410d294:	e0bfff15 	stw	r2,-4(fp)
 410d298:	00000606 	br	410d2b4 <_do_ctors+0x38>
        (*ctor) (); 
 410d29c:	e0bfff17 	ldw	r2,-4(fp)
 410d2a0:	10800017 	ldw	r2,0(r2)
 410d2a4:	103ee83a 	callr	r2

void _do_ctors(void)
{
  constructor* ctor;

  for (ctor = &__CTOR_END__[-1]; ctor >= __CTOR_LIST__; ctor--)
 410d2a8:	e0bfff17 	ldw	r2,-4(fp)
 410d2ac:	10bfff04 	addi	r2,r2,-4
 410d2b0:	e0bfff15 	stw	r2,-4(fp)
 410d2b4:	e0ffff17 	ldw	r3,-4(fp)
 410d2b8:	00810474 	movhi	r2,1041
 410d2bc:	10b80b04 	addi	r2,r2,-8148
 410d2c0:	18bff62e 	bgeu	r3,r2,410d29c <__ram_exceptions_end+0xfc105058>
        (*ctor) (); 
}
 410d2c4:	0001883a 	nop
 410d2c8:	e037883a 	mov	sp,fp
 410d2cc:	dfc00117 	ldw	ra,4(sp)
 410d2d0:	df000017 	ldw	fp,0(sp)
 410d2d4:	dec00204 	addi	sp,sp,8
 410d2d8:	f800283a 	ret

0410d2dc <_do_dtors>:
/*
 * Run the C++ static destructors.
 */

void _do_dtors(void)
{
 410d2dc:	defffd04 	addi	sp,sp,-12
 410d2e0:	dfc00215 	stw	ra,8(sp)
 410d2e4:	df000115 	stw	fp,4(sp)
 410d2e8:	df000104 	addi	fp,sp,4
  destructor* dtor;

  for (dtor = &__DTOR_END__[-1]; dtor >= __DTOR_LIST__; dtor--)
 410d2ec:	00810474 	movhi	r2,1041
 410d2f0:	10b80a04 	addi	r2,r2,-8152
 410d2f4:	e0bfff15 	stw	r2,-4(fp)
 410d2f8:	00000606 	br	410d314 <_do_dtors+0x38>
        (*dtor) (); 
 410d2fc:	e0bfff17 	ldw	r2,-4(fp)
 410d300:	10800017 	ldw	r2,0(r2)
 410d304:	103ee83a 	callr	r2

void _do_dtors(void)
{
  destructor* dtor;

  for (dtor = &__DTOR_END__[-1]; dtor >= __DTOR_LIST__; dtor--)
 410d308:	e0bfff17 	ldw	r2,-4(fp)
 410d30c:	10bfff04 	addi	r2,r2,-4
 410d310:	e0bfff15 	stw	r2,-4(fp)
 410d314:	e0ffff17 	ldw	r3,-4(fp)
 410d318:	00810474 	movhi	r2,1041
 410d31c:	10b80b04 	addi	r2,r2,-8148
 410d320:	18bff62e 	bgeu	r3,r2,410d2fc <__ram_exceptions_end+0xfc1050b8>
        (*dtor) (); 
}
 410d324:	0001883a 	nop
 410d328:	e037883a 	mov	sp,fp
 410d32c:	dfc00117 	ldw	ra,4(sp)
 410d330:	df000017 	ldw	fp,0(sp)
 410d334:	dec00204 	addi	sp,sp,8
 410d338:	f800283a 	ret

0410d33c <alt_find_dev>:
 * "name" must be an exact match for the devices registered name for a match to
 * be found.
 */
 
alt_dev* alt_find_dev(const char* name, alt_llist* llist)
{
 410d33c:	defffa04 	addi	sp,sp,-24
 410d340:	dfc00515 	stw	ra,20(sp)
 410d344:	df000415 	stw	fp,16(sp)
 410d348:	df000404 	addi	fp,sp,16
 410d34c:	e13ffe15 	stw	r4,-8(fp)
 410d350:	e17fff15 	stw	r5,-4(fp)
  alt_dev* next = (alt_dev*) llist->next;
 410d354:	e0bfff17 	ldw	r2,-4(fp)
 410d358:	10800017 	ldw	r2,0(r2)
 410d35c:	e0bffc15 	stw	r2,-16(fp)
  alt_32 len;

  len  = strlen(name) + 1;
 410d360:	e13ffe17 	ldw	r4,-8(fp)
 410d364:	41012ac0 	call	41012ac <strlen>
 410d368:	10800044 	addi	r2,r2,1
 410d36c:	e0bffd15 	stw	r2,-12(fp)
  /*
   * Check each list entry in turn, until a match is found, or we reach the
   * end of the list (i.e. next winds up pointing back to the list head).
   */ 

  while (next != (alt_dev*) llist)
 410d370:	00000d06 	br	410d3a8 <alt_find_dev+0x6c>
    /* 
     * memcmp() is used here rather than strcmp() in order to reduce the size
     * of the executable.
     */

    if (!memcmp (next->name, name, len))
 410d374:	e0bffc17 	ldw	r2,-16(fp)
 410d378:	10800217 	ldw	r2,8(r2)
 410d37c:	e0fffd17 	ldw	r3,-12(fp)
 410d380:	180d883a 	mov	r6,r3
 410d384:	e17ffe17 	ldw	r5,-8(fp)
 410d388:	1009883a 	mov	r4,r2
 410d38c:	410dce40 	call	410dce4 <memcmp>
 410d390:	1000021e 	bne	r2,zero,410d39c <alt_find_dev+0x60>
    {
      /* match found */

      return next;
 410d394:	e0bffc17 	ldw	r2,-16(fp)
 410d398:	00000706 	br	410d3b8 <alt_find_dev+0x7c>
    }
    next = (alt_dev*) next->llist.next;
 410d39c:	e0bffc17 	ldw	r2,-16(fp)
 410d3a0:	10800017 	ldw	r2,0(r2)
 410d3a4:	e0bffc15 	stw	r2,-16(fp)
  /*
   * Check each list entry in turn, until a match is found, or we reach the
   * end of the list (i.e. next winds up pointing back to the list head).
   */ 

  while (next != (alt_dev*) llist)
 410d3a8:	e0fffc17 	ldw	r3,-16(fp)
 410d3ac:	e0bfff17 	ldw	r2,-4(fp)
 410d3b0:	18bff01e 	bne	r3,r2,410d374 <__ram_exceptions_end+0xfc105130>
    next = (alt_dev*) next->llist.next;
  }
  
  /* No match found */
  
  return NULL;
 410d3b4:	0005883a 	mov	r2,zero
}
 410d3b8:	e037883a 	mov	sp,fp
 410d3bc:	dfc00117 	ldw	ra,4(sp)
 410d3c0:	df000017 	ldw	fp,0(sp)
 410d3c4:	dec00204 	addi	sp,sp,8
 410d3c8:	f800283a 	ret

0410d3cc <alt_icache_flush_all>:
/*
 * alt_icache_flush_all() is called to flush the entire instruction cache.
 */

void alt_icache_flush_all (void)
{
 410d3cc:	defffe04 	addi	sp,sp,-8
 410d3d0:	dfc00115 	stw	ra,4(sp)
 410d3d4:	df000015 	stw	fp,0(sp)
 410d3d8:	d839883a 	mov	fp,sp
#if NIOS2_ICACHE_SIZE > 0
  alt_icache_flush (0, NIOS2_ICACHE_SIZE);
 410d3dc:	01440004 	movi	r5,4096
 410d3e0:	0009883a 	mov	r4,zero
 410d3e4:	410dc080 	call	410dc08 <alt_icache_flush>
#endif
}
 410d3e8:	0001883a 	nop
 410d3ec:	e037883a 	mov	sp,fp
 410d3f0:	dfc00117 	ldw	ra,4(sp)
 410d3f4:	df000017 	ldw	fp,0(sp)
 410d3f8:	dec00204 	addi	sp,sp,8
 410d3fc:	f800283a 	ret

0410d400 <alt_exception_cause_generated_bad_addr>:
 * Return: 1: BADADDR (bad_addr argument to handler) is valid
 *         0: BADADDR is not valid
 */
int 
alt_exception_cause_generated_bad_addr(alt_exception_cause cause)
{
 410d400:	defffe04 	addi	sp,sp,-8
 410d404:	df000115 	stw	fp,4(sp)
 410d408:	df000104 	addi	fp,sp,4
 410d40c:	e13fff15 	stw	r4,-4(fp)
  switch (cause) {
 410d410:	e0bfff17 	ldw	r2,-4(fp)
 410d414:	10bffe84 	addi	r2,r2,-6
 410d418:	10c00428 	cmpgeui	r3,r2,16
 410d41c:	18001a1e 	bne	r3,zero,410d488 <alt_exception_cause_generated_bad_addr+0x88>
 410d420:	100690ba 	slli	r3,r2,2
 410d424:	00810474 	movhi	r2,1041
 410d428:	10b50e04 	addi	r2,r2,-11208
 410d42c:	1885883a 	add	r2,r3,r2
 410d430:	10800017 	ldw	r2,0(r2)
 410d434:	1000683a 	jmp	r2
 410d438:	0410d478 	rdprs	r16,zero,17233
 410d43c:	0410d478 	rdprs	r16,zero,17233
 410d440:	0410d488 	cmpgei	r16,zero,17234
 410d444:	0410d488 	cmpgei	r16,zero,17234
 410d448:	0410d488 	cmpgei	r16,zero,17234
 410d44c:	0410d478 	rdprs	r16,zero,17233
 410d450:	0410d480 	call	410d48 <__alt_mem_new_sdram_controller_0-0x3bef2b8>
 410d454:	0410d488 	cmpgei	r16,zero,17234
 410d458:	0410d478 	rdprs	r16,zero,17233
 410d45c:	0410d478 	rdprs	r16,zero,17233
 410d460:	0410d488 	cmpgei	r16,zero,17234
 410d464:	0410d478 	rdprs	r16,zero,17233
 410d468:	0410d480 	call	410d48 <__alt_mem_new_sdram_controller_0-0x3bef2b8>
 410d46c:	0410d488 	cmpgei	r16,zero,17234
 410d470:	0410d488 	cmpgei	r16,zero,17234
 410d474:	0410d478 	rdprs	r16,zero,17233
  case NIOS2_EXCEPTION_MISALIGNED_TARGET_PC:
  case NIOS2_EXCEPTION_TLB_READ_PERM_VIOLATION:
  case NIOS2_EXCEPTION_TLB_WRITE_PERM_VIOLATION:
  case NIOS2_EXCEPTION_MPU_DATA_REGION_VIOLATION:
  case NIOS2_EXCEPTION_ECC_DATA_ERR:
    return 1;
 410d478:	00800044 	movi	r2,1
 410d47c:	00000306 	br	410d48c <alt_exception_cause_generated_bad_addr+0x8c>

  case NIOS2_EXCEPTION_TLB_MISS:
  case NIOS2_EXCEPTION_ECC_TLB_ERR:
    return 0;
 410d480:	0005883a 	mov	r2,zero
 410d484:	00000106 	br	410d48c <alt_exception_cause_generated_bad_addr+0x8c>

  default:
    return 0;
 410d488:	0005883a 	mov	r2,zero
  }
}
 410d48c:	e037883a 	mov	sp,fp
 410d490:	df000017 	ldw	fp,0(sp)
 410d494:	dec00104 	addi	sp,sp,4
 410d498:	f800283a 	ret

0410d49c <alt_open_fd>:
 * If the device can not be succesfully opened, then the input file descriptor
 * remains unchanged.
 */

static void alt_open_fd(alt_fd* fd, const char* name, int flags, int mode)
{
 410d49c:	defff904 	addi	sp,sp,-28
 410d4a0:	dfc00615 	stw	ra,24(sp)
 410d4a4:	df000515 	stw	fp,20(sp)
 410d4a8:	df000504 	addi	fp,sp,20
 410d4ac:	e13ffc15 	stw	r4,-16(fp)
 410d4b0:	e17ffd15 	stw	r5,-12(fp)
 410d4b4:	e1bffe15 	stw	r6,-8(fp)
 410d4b8:	e1ffff15 	stw	r7,-4(fp)
  int old;

  old = open (name, flags, mode);
 410d4bc:	e1bfff17 	ldw	r6,-4(fp)
 410d4c0:	e17ffe17 	ldw	r5,-8(fp)
 410d4c4:	e13ffd17 	ldw	r4,-12(fp)
 410d4c8:	410d6dc0 	call	410d6dc <open>
 410d4cc:	e0bffb15 	stw	r2,-20(fp)

  if (old >= 0)
 410d4d0:	e0bffb17 	ldw	r2,-20(fp)
 410d4d4:	10001c16 	blt	r2,zero,410d548 <alt_open_fd+0xac>
  {
    fd->dev      = alt_fd_list[old].dev;
 410d4d8:	00810474 	movhi	r2,1041
 410d4dc:	10bf3d04 	addi	r2,r2,-780
 410d4e0:	e0fffb17 	ldw	r3,-20(fp)
 410d4e4:	18c00324 	muli	r3,r3,12
 410d4e8:	10c5883a 	add	r2,r2,r3
 410d4ec:	10c00017 	ldw	r3,0(r2)
 410d4f0:	e0bffc17 	ldw	r2,-16(fp)
 410d4f4:	10c00015 	stw	r3,0(r2)
    fd->priv     = alt_fd_list[old].priv;
 410d4f8:	00810474 	movhi	r2,1041
 410d4fc:	10bf3d04 	addi	r2,r2,-780
 410d500:	e0fffb17 	ldw	r3,-20(fp)
 410d504:	18c00324 	muli	r3,r3,12
 410d508:	10c5883a 	add	r2,r2,r3
 410d50c:	10800104 	addi	r2,r2,4
 410d510:	10c00017 	ldw	r3,0(r2)
 410d514:	e0bffc17 	ldw	r2,-16(fp)
 410d518:	10c00115 	stw	r3,4(r2)
    fd->fd_flags = alt_fd_list[old].fd_flags;
 410d51c:	00810474 	movhi	r2,1041
 410d520:	10bf3d04 	addi	r2,r2,-780
 410d524:	e0fffb17 	ldw	r3,-20(fp)
 410d528:	18c00324 	muli	r3,r3,12
 410d52c:	10c5883a 	add	r2,r2,r3
 410d530:	10800204 	addi	r2,r2,8
 410d534:	10c00017 	ldw	r3,0(r2)
 410d538:	e0bffc17 	ldw	r2,-16(fp)
 410d53c:	10c00215 	stw	r3,8(r2)

    alt_release_fd (old);
 410d540:	e13ffb17 	ldw	r4,-20(fp)
 410d544:	410d8300 	call	410d830 <alt_release_fd>
  }
} 
 410d548:	0001883a 	nop
 410d54c:	e037883a 	mov	sp,fp
 410d550:	dfc00117 	ldw	ra,4(sp)
 410d554:	df000017 	ldw	fp,0(sp)
 410d558:	dec00204 	addi	sp,sp,8
 410d55c:	f800283a 	ret

0410d560 <alt_io_redirect>:
 */
 
void alt_io_redirect(const char* stdout_dev, 
                     const char* stdin_dev, 
                     const char* stderr_dev)
{
 410d560:	defffb04 	addi	sp,sp,-20
 410d564:	dfc00415 	stw	ra,16(sp)
 410d568:	df000315 	stw	fp,12(sp)
 410d56c:	df000304 	addi	fp,sp,12
 410d570:	e13ffd15 	stw	r4,-12(fp)
 410d574:	e17ffe15 	stw	r5,-8(fp)
 410d578:	e1bfff15 	stw	r6,-4(fp)
  /* Redirect the channels */

  alt_open_fd (&alt_fd_list[STDOUT_FILENO], stdout_dev, O_WRONLY, 0777);
 410d57c:	01c07fc4 	movi	r7,511
 410d580:	01800044 	movi	r6,1
 410d584:	e17ffd17 	ldw	r5,-12(fp)
 410d588:	01010474 	movhi	r4,1041
 410d58c:	213f4004 	addi	r4,r4,-768
 410d590:	410d49c0 	call	410d49c <alt_open_fd>
  alt_open_fd (&alt_fd_list[STDIN_FILENO], stdin_dev, O_RDONLY, 0777);
 410d594:	01c07fc4 	movi	r7,511
 410d598:	000d883a 	mov	r6,zero
 410d59c:	e17ffe17 	ldw	r5,-8(fp)
 410d5a0:	01010474 	movhi	r4,1041
 410d5a4:	213f3d04 	addi	r4,r4,-780
 410d5a8:	410d49c0 	call	410d49c <alt_open_fd>
  alt_open_fd (&alt_fd_list[STDERR_FILENO], stderr_dev, O_WRONLY, 0777);
 410d5ac:	01c07fc4 	movi	r7,511
 410d5b0:	01800044 	movi	r6,1
 410d5b4:	e17fff17 	ldw	r5,-4(fp)
 410d5b8:	01010474 	movhi	r4,1041
 410d5bc:	213f4304 	addi	r4,r4,-756
 410d5c0:	410d49c0 	call	410d49c <alt_open_fd>
}  
 410d5c4:	0001883a 	nop
 410d5c8:	e037883a 	mov	sp,fp
 410d5cc:	dfc00117 	ldw	ra,4(sp)
 410d5d0:	df000017 	ldw	fp,0(sp)
 410d5d4:	dec00204 	addi	sp,sp,8
 410d5d8:	f800283a 	ret

0410d5dc <alt_get_errno>:
#undef errno

extern int errno;

static ALT_INLINE int* alt_get_errno(void)
{
 410d5dc:	defffe04 	addi	sp,sp,-8
 410d5e0:	dfc00115 	stw	ra,4(sp)
 410d5e4:	df000015 	stw	fp,0(sp)
 410d5e8:	d839883a 	mov	fp,sp
  return ((alt_errno) ? alt_errno() : &errno);
 410d5ec:	d0a00f17 	ldw	r2,-32708(gp)
 410d5f0:	10000326 	beq	r2,zero,410d600 <alt_get_errno+0x24>
 410d5f4:	d0a00f17 	ldw	r2,-32708(gp)
 410d5f8:	103ee83a 	callr	r2
 410d5fc:	00000106 	br	410d604 <alt_get_errno+0x28>
 410d600:	d0a6e404 	addi	r2,gp,-25712
}
 410d604:	e037883a 	mov	sp,fp
 410d608:	dfc00117 	ldw	ra,4(sp)
 410d60c:	df000017 	ldw	fp,0(sp)
 410d610:	dec00204 	addi	sp,sp,8
 410d614:	f800283a 	ret

0410d618 <alt_file_locked>:
 * performed for devices. Filesystems are required to handle the ioctl() call
 * themselves, and report the error from the filesystems open() function. 
 */ 

static int alt_file_locked (alt_fd* fd)
{
 410d618:	defffd04 	addi	sp,sp,-12
 410d61c:	df000215 	stw	fp,8(sp)
 410d620:	df000204 	addi	fp,sp,8
 410d624:	e13fff15 	stw	r4,-4(fp)

  /*
   * Mark the file descriptor as belonging to a device.
   */

  fd->fd_flags |= ALT_FD_DEV;
 410d628:	e0bfff17 	ldw	r2,-4(fp)
 410d62c:	10800217 	ldw	r2,8(r2)
 410d630:	10d00034 	orhi	r3,r2,16384
 410d634:	e0bfff17 	ldw	r2,-4(fp)
 410d638:	10c00215 	stw	r3,8(r2)
  /*
   * Loop through all current file descriptors searching for one that's locked
   * for exclusive access. If a match is found, generate an error.
   */

  for (i = 0; i <= alt_max_fd; i++)
 410d63c:	e03ffe15 	stw	zero,-8(fp)
 410d640:	00001d06 	br	410d6b8 <alt_file_locked+0xa0>
  {
    if ((alt_fd_list[i].dev == fd->dev) &&
 410d644:	00810474 	movhi	r2,1041
 410d648:	10bf3d04 	addi	r2,r2,-780
 410d64c:	e0fffe17 	ldw	r3,-8(fp)
 410d650:	18c00324 	muli	r3,r3,12
 410d654:	10c5883a 	add	r2,r2,r3
 410d658:	10c00017 	ldw	r3,0(r2)
 410d65c:	e0bfff17 	ldw	r2,-4(fp)
 410d660:	10800017 	ldw	r2,0(r2)
 410d664:	1880111e 	bne	r3,r2,410d6ac <alt_file_locked+0x94>
        (alt_fd_list[i].fd_flags & ALT_FD_EXCL) &&
 410d668:	00810474 	movhi	r2,1041
 410d66c:	10bf3d04 	addi	r2,r2,-780
 410d670:	e0fffe17 	ldw	r3,-8(fp)
 410d674:	18c00324 	muli	r3,r3,12
 410d678:	10c5883a 	add	r2,r2,r3
 410d67c:	10800204 	addi	r2,r2,8
 410d680:	10800017 	ldw	r2,0(r2)
   * for exclusive access. If a match is found, generate an error.
   */

  for (i = 0; i <= alt_max_fd; i++)
  {
    if ((alt_fd_list[i].dev == fd->dev) &&
 410d684:	1000090e 	bge	r2,zero,410d6ac <alt_file_locked+0x94>
        (alt_fd_list[i].fd_flags & ALT_FD_EXCL) &&
        (&alt_fd_list[i] != fd))
 410d688:	e0bffe17 	ldw	r2,-8(fp)
 410d68c:	10c00324 	muli	r3,r2,12
 410d690:	00810474 	movhi	r2,1041
 410d694:	10bf3d04 	addi	r2,r2,-780
 410d698:	1887883a 	add	r3,r3,r2
   */

  for (i = 0; i <= alt_max_fd; i++)
  {
    if ((alt_fd_list[i].dev == fd->dev) &&
        (alt_fd_list[i].fd_flags & ALT_FD_EXCL) &&
 410d69c:	e0bfff17 	ldw	r2,-4(fp)
 410d6a0:	18800226 	beq	r3,r2,410d6ac <alt_file_locked+0x94>
        (&alt_fd_list[i] != fd))
    {
      return -EACCES;
 410d6a4:	00bffcc4 	movi	r2,-13
 410d6a8:	00000806 	br	410d6cc <alt_file_locked+0xb4>
  /*
   * Loop through all current file descriptors searching for one that's locked
   * for exclusive access. If a match is found, generate an error.
   */

  for (i = 0; i <= alt_max_fd; i++)
 410d6ac:	e0bffe17 	ldw	r2,-8(fp)
 410d6b0:	10800044 	addi	r2,r2,1
 410d6b4:	e0bffe15 	stw	r2,-8(fp)
 410d6b8:	d0a00e17 	ldw	r2,-32712(gp)
 410d6bc:	1007883a 	mov	r3,r2
 410d6c0:	e0bffe17 	ldw	r2,-8(fp)
 410d6c4:	18bfdf2e 	bgeu	r3,r2,410d644 <__ram_exceptions_end+0xfc105400>
    }
  }
  
  /* The device is not locked */
 
  return 0;
 410d6c8:	0005883a 	mov	r2,zero
}
 410d6cc:	e037883a 	mov	sp,fp
 410d6d0:	df000017 	ldw	fp,0(sp)
 410d6d4:	dec00104 	addi	sp,sp,4
 410d6d8:	f800283a 	ret

0410d6dc <open>:
 *
 * ALT_OPEN is mapped onto the open() system call in alt_syscall.h
 */
 
int ALT_OPEN (const char* file, int flags, int mode)
{ 
 410d6dc:	defff604 	addi	sp,sp,-40
 410d6e0:	dfc00915 	stw	ra,36(sp)
 410d6e4:	df000815 	stw	fp,32(sp)
 410d6e8:	df000804 	addi	fp,sp,32
 410d6ec:	e13ffd15 	stw	r4,-12(fp)
 410d6f0:	e17ffe15 	stw	r5,-8(fp)
 410d6f4:	e1bfff15 	stw	r6,-4(fp)
  alt_dev* dev;
  alt_fd*  fd;
  int index  = -1;
 410d6f8:	00bfffc4 	movi	r2,-1
 410d6fc:	e0bff915 	stw	r2,-28(fp)
  int status = -ENODEV;
 410d700:	00bffb44 	movi	r2,-19
 410d704:	e0bffa15 	stw	r2,-24(fp)
  int isafs = 0;
 410d708:	e03ffb15 	stw	zero,-20(fp)
  /* 
   * Check the device list, to see if a device with a matching name is 
   * registered.
   */
  
  if (!(dev = alt_find_dev (file, &alt_dev_list)))
 410d70c:	d1600c04 	addi	r5,gp,-32720
 410d710:	e13ffd17 	ldw	r4,-12(fp)
 410d714:	410d33c0 	call	410d33c <alt_find_dev>
 410d718:	e0bff815 	stw	r2,-32(fp)
 410d71c:	e0bff817 	ldw	r2,-32(fp)
 410d720:	1000051e 	bne	r2,zero,410d738 <open+0x5c>
  {
    /* No matching device, so try the filesystem list */

    dev   = alt_find_file (file);
 410d724:	e13ffd17 	ldw	r4,-12(fp)
 410d728:	410da5c0 	call	410da5c <alt_find_file>
 410d72c:	e0bff815 	stw	r2,-32(fp)
    isafs = 1;
 410d730:	00800044 	movi	r2,1
 410d734:	e0bffb15 	stw	r2,-20(fp)

  /* 
   * If a matching device or filesystem is found, allocate a file descriptor. 
   */

  if (dev)
 410d738:	e0bff817 	ldw	r2,-32(fp)
 410d73c:	10002926 	beq	r2,zero,410d7e4 <open+0x108>
  {
    if ((index = alt_get_fd (dev)) < 0)
 410d740:	e13ff817 	ldw	r4,-32(fp)
 410d744:	410db640 	call	410db64 <alt_get_fd>
 410d748:	e0bff915 	stw	r2,-28(fp)
 410d74c:	e0bff917 	ldw	r2,-28(fp)
 410d750:	1000030e 	bge	r2,zero,410d760 <open+0x84>
    {
      status = index;
 410d754:	e0bff917 	ldw	r2,-28(fp)
 410d758:	e0bffa15 	stw	r2,-24(fp)
 410d75c:	00002306 	br	410d7ec <open+0x110>
    }
    else
    {
      fd = &alt_fd_list[index];
 410d760:	e0bff917 	ldw	r2,-28(fp)
 410d764:	10c00324 	muli	r3,r2,12
 410d768:	00810474 	movhi	r2,1041
 410d76c:	10bf3d04 	addi	r2,r2,-780
 410d770:	1885883a 	add	r2,r3,r2
 410d774:	e0bffc15 	stw	r2,-16(fp)
      fd->fd_flags = (flags & ~ALT_FD_FLAGS_MASK);
 410d778:	e0fffe17 	ldw	r3,-8(fp)
 410d77c:	00900034 	movhi	r2,16384
 410d780:	10bfffc4 	addi	r2,r2,-1
 410d784:	1886703a 	and	r3,r3,r2
 410d788:	e0bffc17 	ldw	r2,-16(fp)
 410d78c:	10c00215 	stw	r3,8(r2)
      
      /* If this is a device, ensure it isn't already locked */

      if (isafs || ((status = alt_file_locked (fd)) >= 0))
 410d790:	e0bffb17 	ldw	r2,-20(fp)
 410d794:	1000051e 	bne	r2,zero,410d7ac <open+0xd0>
 410d798:	e13ffc17 	ldw	r4,-16(fp)
 410d79c:	410d6180 	call	410d618 <alt_file_locked>
 410d7a0:	e0bffa15 	stw	r2,-24(fp)
 410d7a4:	e0bffa17 	ldw	r2,-24(fp)
 410d7a8:	10001016 	blt	r2,zero,410d7ec <open+0x110>
        /* 
         * If the device or filesystem provides an open() callback function,
         * call it now to perform any device/filesystem specific operations.
         */
    
        status = (dev->open) ? dev->open(fd, file, flags, mode): 0;
 410d7ac:	e0bff817 	ldw	r2,-32(fp)
 410d7b0:	10800317 	ldw	r2,12(r2)
 410d7b4:	10000826 	beq	r2,zero,410d7d8 <open+0xfc>
 410d7b8:	e0bff817 	ldw	r2,-32(fp)
 410d7bc:	10800317 	ldw	r2,12(r2)
 410d7c0:	e1ffff17 	ldw	r7,-4(fp)
 410d7c4:	e1bffe17 	ldw	r6,-8(fp)
 410d7c8:	e17ffd17 	ldw	r5,-12(fp)
 410d7cc:	e13ffc17 	ldw	r4,-16(fp)
 410d7d0:	103ee83a 	callr	r2
 410d7d4:	00000106 	br	410d7dc <open+0x100>
 410d7d8:	0005883a 	mov	r2,zero
 410d7dc:	e0bffa15 	stw	r2,-24(fp)
 410d7e0:	00000206 	br	410d7ec <open+0x110>
      }
    }
  }
  else
  {
    status = -ENODEV;
 410d7e4:	00bffb44 	movi	r2,-19
 410d7e8:	e0bffa15 	stw	r2,-24(fp)
  }

  /* Allocation failed, so clean up and return an error */ 

  if (status < 0)
 410d7ec:	e0bffa17 	ldw	r2,-24(fp)
 410d7f0:	1000090e 	bge	r2,zero,410d818 <open+0x13c>
  {
    alt_release_fd (index);  
 410d7f4:	e13ff917 	ldw	r4,-28(fp)
 410d7f8:	410d8300 	call	410d830 <alt_release_fd>
    ALT_ERRNO = -status;
 410d7fc:	410d5dc0 	call	410d5dc <alt_get_errno>
 410d800:	1007883a 	mov	r3,r2
 410d804:	e0bffa17 	ldw	r2,-24(fp)
 410d808:	0085c83a 	sub	r2,zero,r2
 410d80c:	18800015 	stw	r2,0(r3)
    return -1;
 410d810:	00bfffc4 	movi	r2,-1
 410d814:	00000106 	br	410d81c <open+0x140>
  }
  
  /* return the reference upon success */

  return index;
 410d818:	e0bff917 	ldw	r2,-28(fp)
}
 410d81c:	e037883a 	mov	sp,fp
 410d820:	dfc00117 	ldw	ra,4(sp)
 410d824:	df000017 	ldw	fp,0(sp)
 410d828:	dec00204 	addi	sp,sp,8
 410d82c:	f800283a 	ret

0410d830 <alt_release_fd>:
 * File descriptors correcponding to standard in, standard out and standard 
 * error cannont be released backed to the pool. They are always reserved.
 */

void alt_release_fd (int fd)
{
 410d830:	defffe04 	addi	sp,sp,-8
 410d834:	df000115 	stw	fp,4(sp)
 410d838:	df000104 	addi	fp,sp,4
 410d83c:	e13fff15 	stw	r4,-4(fp)
  if (fd > 2)
 410d840:	e0bfff17 	ldw	r2,-4(fp)
 410d844:	108000d0 	cmplti	r2,r2,3
 410d848:	10000d1e 	bne	r2,zero,410d880 <alt_release_fd+0x50>
  {
    alt_fd_list[fd].fd_flags = 0;
 410d84c:	00810474 	movhi	r2,1041
 410d850:	10bf3d04 	addi	r2,r2,-780
 410d854:	e0ffff17 	ldw	r3,-4(fp)
 410d858:	18c00324 	muli	r3,r3,12
 410d85c:	10c5883a 	add	r2,r2,r3
 410d860:	10800204 	addi	r2,r2,8
 410d864:	10000015 	stw	zero,0(r2)
    alt_fd_list[fd].dev      = 0;
 410d868:	00810474 	movhi	r2,1041
 410d86c:	10bf3d04 	addi	r2,r2,-780
 410d870:	e0ffff17 	ldw	r3,-4(fp)
 410d874:	18c00324 	muli	r3,r3,12
 410d878:	10c5883a 	add	r2,r2,r3
 410d87c:	10000015 	stw	zero,0(r2)
  }
}
 410d880:	0001883a 	nop
 410d884:	e037883a 	mov	sp,fp
 410d888:	df000017 	ldw	fp,0(sp)
 410d88c:	dec00104 	addi	sp,sp,4
 410d890:	f800283a 	ret

0410d894 <alt_alarm_stop>:
 * alarms. Alternatively an alarm can unregister itself by returning zero when 
 * the alarm executes.
 */

void alt_alarm_stop (alt_alarm* alarm)
{
 410d894:	defffa04 	addi	sp,sp,-24
 410d898:	df000515 	stw	fp,20(sp)
 410d89c:	df000504 	addi	fp,sp,20
 410d8a0:	e13fff15 	stw	r4,-4(fp)
static ALT_INLINE alt_irq_context ALT_ALWAYS_INLINE 
       alt_irq_disable_all (void)
{
  alt_irq_context context;

  NIOS2_READ_STATUS (context);
 410d8a4:	0005303a 	rdctl	r2,status
 410d8a8:	e0bffc15 	stw	r2,-16(fp)

  NIOS2_WRITE_STATUS (context & ~NIOS2_STATUS_PIE_MSK);
 410d8ac:	e0fffc17 	ldw	r3,-16(fp)
 410d8b0:	00bfff84 	movi	r2,-2
 410d8b4:	1884703a 	and	r2,r3,r2
 410d8b8:	1001703a 	wrctl	status,r2
  
  return context;
 410d8bc:	e0bffc17 	ldw	r2,-16(fp)
  alt_irq_context irq_context;

  irq_context = alt_irq_disable_all();
 410d8c0:	e0bffb15 	stw	r2,-20(fp)
  alt_llist_remove (&alarm->llist);
 410d8c4:	e0bfff17 	ldw	r2,-4(fp)
 410d8c8:	e0bffd15 	stw	r2,-12(fp)
 * input argument is the element to remove.
 */
     
static ALT_INLINE void ALT_ALWAYS_INLINE alt_llist_remove(alt_llist* entry)
{
  entry->next->previous = entry->previous;
 410d8cc:	e0bffd17 	ldw	r2,-12(fp)
 410d8d0:	10800017 	ldw	r2,0(r2)
 410d8d4:	e0fffd17 	ldw	r3,-12(fp)
 410d8d8:	18c00117 	ldw	r3,4(r3)
 410d8dc:	10c00115 	stw	r3,4(r2)
  entry->previous->next = entry->next;
 410d8e0:	e0bffd17 	ldw	r2,-12(fp)
 410d8e4:	10800117 	ldw	r2,4(r2)
 410d8e8:	e0fffd17 	ldw	r3,-12(fp)
 410d8ec:	18c00017 	ldw	r3,0(r3)
 410d8f0:	10c00015 	stw	r3,0(r2)
  /* 
   * Set the entry to point to itself, so that any further calls to
   * alt_llist_remove() are harmless.
   */

  entry->previous = entry;
 410d8f4:	e0bffd17 	ldw	r2,-12(fp)
 410d8f8:	e0fffd17 	ldw	r3,-12(fp)
 410d8fc:	10c00115 	stw	r3,4(r2)
  entry->next     = entry;
 410d900:	e0bffd17 	ldw	r2,-12(fp)
 410d904:	e0fffd17 	ldw	r3,-12(fp)
 410d908:	10c00015 	stw	r3,0(r2)
 410d90c:	e0bffb17 	ldw	r2,-20(fp)
 410d910:	e0bffe15 	stw	r2,-8(fp)
  status &= ~NIOS2_STATUS_PIE_MSK;
  status |= (context & NIOS2_STATUS_PIE_MSK);
  
  NIOS2_WRITE_STATUS (status);
#else
  NIOS2_WRITE_STATUS (context);
 410d914:	e0bffe17 	ldw	r2,-8(fp)
 410d918:	1001703a 	wrctl	status,r2
  alt_irq_enable_all (irq_context);
}
 410d91c:	0001883a 	nop
 410d920:	e037883a 	mov	sp,fp
 410d924:	df000017 	ldw	fp,0(sp)
 410d928:	dec00104 	addi	sp,sp,4
 410d92c:	f800283a 	ret

0410d930 <alt_tick>:
 * 
 * alt_tick() is expected to run at interrupt level.
 */

void alt_tick (void)
{
 410d930:	defffb04 	addi	sp,sp,-20
 410d934:	dfc00415 	stw	ra,16(sp)
 410d938:	df000315 	stw	fp,12(sp)
 410d93c:	df000304 	addi	fp,sp,12
  alt_alarm* next;
  alt_alarm* alarm = (alt_alarm*) alt_alarm_list.next;
 410d940:	d0a01017 	ldw	r2,-32704(gp)
 410d944:	e0bffd15 	stw	r2,-12(fp)

  alt_u32    next_callback;

  /* update the tick counter */

  _alt_nticks++;
 410d948:	d0a6eb17 	ldw	r2,-25684(gp)
 410d94c:	10800044 	addi	r2,r2,1
 410d950:	d0a6eb15 	stw	r2,-25684(gp)

  /* process the registered callbacks */

  while (alarm != (alt_alarm*) &alt_alarm_list)
 410d954:	00002e06 	br	410da10 <alt_tick+0xe0>
  {
    next = (alt_alarm*) alarm->llist.next;
 410d958:	e0bffd17 	ldw	r2,-12(fp)
 410d95c:	10800017 	ldw	r2,0(r2)
 410d960:	e0bffe15 	stw	r2,-8(fp)
    /* 
     * Upon the tick-counter rolling over it is safe to clear the 
     * roll-over flag; once the flag is cleared this (or subsequnt)
     * tick events are enabled to generate an alarm event. 
     */
    if ((alarm->rollover) && (_alt_nticks == 0))
 410d964:	e0bffd17 	ldw	r2,-12(fp)
 410d968:	10800403 	ldbu	r2,16(r2)
 410d96c:	10803fcc 	andi	r2,r2,255
 410d970:	10000426 	beq	r2,zero,410d984 <alt_tick+0x54>
 410d974:	d0a6eb17 	ldw	r2,-25684(gp)
 410d978:	1000021e 	bne	r2,zero,410d984 <alt_tick+0x54>
    {
      alarm->rollover = 0;
 410d97c:	e0bffd17 	ldw	r2,-12(fp)
 410d980:	10000405 	stb	zero,16(r2)
    }
    
    /* if the alarm period has expired, make the callback */    
    if ((alarm->time <= _alt_nticks) && (alarm->rollover == 0))
 410d984:	e0bffd17 	ldw	r2,-12(fp)
 410d988:	10800217 	ldw	r2,8(r2)
 410d98c:	d0e6eb17 	ldw	r3,-25684(gp)
 410d990:	18801d36 	bltu	r3,r2,410da08 <alt_tick+0xd8>
 410d994:	e0bffd17 	ldw	r2,-12(fp)
 410d998:	10800403 	ldbu	r2,16(r2)
 410d99c:	10803fcc 	andi	r2,r2,255
 410d9a0:	1000191e 	bne	r2,zero,410da08 <alt_tick+0xd8>
    {
      next_callback = alarm->callback (alarm->context);
 410d9a4:	e0bffd17 	ldw	r2,-12(fp)
 410d9a8:	10800317 	ldw	r2,12(r2)
 410d9ac:	e0fffd17 	ldw	r3,-12(fp)
 410d9b0:	18c00517 	ldw	r3,20(r3)
 410d9b4:	1809883a 	mov	r4,r3
 410d9b8:	103ee83a 	callr	r2
 410d9bc:	e0bfff15 	stw	r2,-4(fp)

      /* deactivate the alarm if the return value is zero */

      if (next_callback == 0)
 410d9c0:	e0bfff17 	ldw	r2,-4(fp)
 410d9c4:	1000031e 	bne	r2,zero,410d9d4 <alt_tick+0xa4>
      {
        alt_alarm_stop (alarm);
 410d9c8:	e13ffd17 	ldw	r4,-12(fp)
 410d9cc:	410d8940 	call	410d894 <alt_alarm_stop>
 410d9d0:	00000d06 	br	410da08 <alt_tick+0xd8>
      }
      else
      {
        alarm->time += next_callback;
 410d9d4:	e0bffd17 	ldw	r2,-12(fp)
 410d9d8:	10c00217 	ldw	r3,8(r2)
 410d9dc:	e0bfff17 	ldw	r2,-4(fp)
 410d9e0:	1887883a 	add	r3,r3,r2
 410d9e4:	e0bffd17 	ldw	r2,-12(fp)
 410d9e8:	10c00215 	stw	r3,8(r2)
        /* 
         * If the desired alarm time causes a roll-over, set the rollover
         * flag. This will prevent the subsequent tick event from causing
         * an alarm too early.
         */
        if(alarm->time < _alt_nticks)
 410d9ec:	e0bffd17 	ldw	r2,-12(fp)
 410d9f0:	10c00217 	ldw	r3,8(r2)
 410d9f4:	d0a6eb17 	ldw	r2,-25684(gp)
 410d9f8:	1880032e 	bgeu	r3,r2,410da08 <alt_tick+0xd8>
        {
          alarm->rollover = 1;
 410d9fc:	e0bffd17 	ldw	r2,-12(fp)
 410da00:	00c00044 	movi	r3,1
 410da04:	10c00405 	stb	r3,16(r2)
        }
      }
    }
    alarm = next;
 410da08:	e0bffe17 	ldw	r2,-8(fp)
 410da0c:	e0bffd15 	stw	r2,-12(fp)

  _alt_nticks++;

  /* process the registered callbacks */

  while (alarm != (alt_alarm*) &alt_alarm_list)
 410da10:	e0fffd17 	ldw	r3,-12(fp)
 410da14:	d0a01004 	addi	r2,gp,-32704
 410da18:	18bfcf1e 	bne	r3,r2,410d958 <__ram_exceptions_end+0xfc105714>

  /* 
   * Update the operating system specific timer facilities.
   */

  ALT_OS_TIME_TICK();
 410da1c:	0001883a 	nop
}
 410da20:	0001883a 	nop
 410da24:	e037883a 	mov	sp,fp
 410da28:	dfc00117 	ldw	ra,4(sp)
 410da2c:	df000017 	ldw	fp,0(sp)
 410da30:	dec00204 	addi	sp,sp,8
 410da34:	f800283a 	ret

0410da38 <altera_nios2_gen2_irq_init>:
/*
 * To initialize the internal interrupt controller, just clear the IENABLE
 * register so that all possible IRQs are disabled.
 */
void altera_nios2_gen2_irq_init(void) 
{
 410da38:	deffff04 	addi	sp,sp,-4
 410da3c:	df000015 	stw	fp,0(sp)
 410da40:	d839883a 	mov	fp,sp
    NIOS2_WRITE_IENABLE(0);
 410da44:	000170fa 	wrctl	ienable,zero
}
 410da48:	0001883a 	nop
 410da4c:	e037883a 	mov	sp,fp
 410da50:	df000017 	ldw	fp,0(sp)
 410da54:	dec00104 	addi	sp,sp,4
 410da58:	f800283a 	ret

0410da5c <alt_find_file>:
 * either '/' or '\0' is the prefix of the filename. For example the filename:
 * "/myfilesystem/junk.txt" would match: "/myfilesystem", but not: "/myfile". 
 */
 
alt_dev* alt_find_file (const char* name)
{
 410da5c:	defffb04 	addi	sp,sp,-20
 410da60:	dfc00415 	stw	ra,16(sp)
 410da64:	df000315 	stw	fp,12(sp)
 410da68:	df000304 	addi	fp,sp,12
 410da6c:	e13fff15 	stw	r4,-4(fp)
  alt_dev* next = (alt_dev*) alt_fs_list.next;   
 410da70:	d0a00a17 	ldw	r2,-32728(gp)
 410da74:	e0bffd15 	stw	r2,-12(fp)
  /*
   * Check each list entry in turn, until a match is found, or we reach the
   * end of the list (i.e. next winds up pointing back to the list head).
   */ 
 
  while (next != (alt_dev*) &alt_fs_list)
 410da78:	00003106 	br	410db40 <alt_find_file+0xe4>
  {
    len = strlen(next->name);
 410da7c:	e0bffd17 	ldw	r2,-12(fp)
 410da80:	10800217 	ldw	r2,8(r2)
 410da84:	1009883a 	mov	r4,r2
 410da88:	41012ac0 	call	41012ac <strlen>
 410da8c:	e0bffe15 	stw	r2,-8(fp)
    
    if (next->name[len-1] == '/')
 410da90:	e0bffd17 	ldw	r2,-12(fp)
 410da94:	10c00217 	ldw	r3,8(r2)
 410da98:	e0bffe17 	ldw	r2,-8(fp)
 410da9c:	10bfffc4 	addi	r2,r2,-1
 410daa0:	1885883a 	add	r2,r3,r2
 410daa4:	10800003 	ldbu	r2,0(r2)
 410daa8:	10803fcc 	andi	r2,r2,255
 410daac:	1080201c 	xori	r2,r2,128
 410dab0:	10bfe004 	addi	r2,r2,-128
 410dab4:	10800bd8 	cmpnei	r2,r2,47
 410dab8:	1000031e 	bne	r2,zero,410dac8 <alt_find_file+0x6c>
    {
      len -= 1;
 410dabc:	e0bffe17 	ldw	r2,-8(fp)
 410dac0:	10bfffc4 	addi	r2,r2,-1
 410dac4:	e0bffe15 	stw	r2,-8(fp)
    }

    if (((name[len] == '/') || (name[len] == '\0')) && 
 410dac8:	e0bffe17 	ldw	r2,-8(fp)
 410dacc:	e0ffff17 	ldw	r3,-4(fp)
 410dad0:	1885883a 	add	r2,r3,r2
 410dad4:	10800003 	ldbu	r2,0(r2)
 410dad8:	10803fcc 	andi	r2,r2,255
 410dadc:	1080201c 	xori	r2,r2,128
 410dae0:	10bfe004 	addi	r2,r2,-128
 410dae4:	10800be0 	cmpeqi	r2,r2,47
 410dae8:	1000081e 	bne	r2,zero,410db0c <alt_find_file+0xb0>
 410daec:	e0bffe17 	ldw	r2,-8(fp)
 410daf0:	e0ffff17 	ldw	r3,-4(fp)
 410daf4:	1885883a 	add	r2,r3,r2
 410daf8:	10800003 	ldbu	r2,0(r2)
 410dafc:	10803fcc 	andi	r2,r2,255
 410db00:	1080201c 	xori	r2,r2,128
 410db04:	10bfe004 	addi	r2,r2,-128
 410db08:	10000a1e 	bne	r2,zero,410db34 <alt_find_file+0xd8>
        !memcmp (next->name, name, len))
 410db0c:	e0bffd17 	ldw	r2,-12(fp)
 410db10:	10800217 	ldw	r2,8(r2)
 410db14:	e0fffe17 	ldw	r3,-8(fp)
 410db18:	180d883a 	mov	r6,r3
 410db1c:	e17fff17 	ldw	r5,-4(fp)
 410db20:	1009883a 	mov	r4,r2
 410db24:	410dce40 	call	410dce4 <memcmp>
    if (next->name[len-1] == '/')
    {
      len -= 1;
    }

    if (((name[len] == '/') || (name[len] == '\0')) && 
 410db28:	1000021e 	bne	r2,zero,410db34 <alt_find_file+0xd8>
        !memcmp (next->name, name, len))
    {
      /* match found */

      return next;
 410db2c:	e0bffd17 	ldw	r2,-12(fp)
 410db30:	00000706 	br	410db50 <alt_find_file+0xf4>
    }
    next = (alt_dev*) next->llist.next;
 410db34:	e0bffd17 	ldw	r2,-12(fp)
 410db38:	10800017 	ldw	r2,0(r2)
 410db3c:	e0bffd15 	stw	r2,-12(fp)
  /*
   * Check each list entry in turn, until a match is found, or we reach the
   * end of the list (i.e. next winds up pointing back to the list head).
   */ 
 
  while (next != (alt_dev*) &alt_fs_list)
 410db40:	e0fffd17 	ldw	r3,-12(fp)
 410db44:	d0a00a04 	addi	r2,gp,-32728
 410db48:	18bfcc1e 	bne	r3,r2,410da7c <__ram_exceptions_end+0xfc105838>
    next = (alt_dev*) next->llist.next;
  }
  
  /* No match found */
  
  return NULL;     
 410db4c:	0005883a 	mov	r2,zero
}
 410db50:	e037883a 	mov	sp,fp
 410db54:	dfc00117 	ldw	ra,4(sp)
 410db58:	df000017 	ldw	fp,0(sp)
 410db5c:	dec00204 	addi	sp,sp,8
 410db60:	f800283a 	ret

0410db64 <alt_get_fd>:
 * the offset of the file descriptor within the file descriptor array). A
 * negative value indicates failure.
 */

int alt_get_fd (alt_dev* dev)
{
 410db64:	defffc04 	addi	sp,sp,-16
 410db68:	df000315 	stw	fp,12(sp)
 410db6c:	df000304 	addi	fp,sp,12
 410db70:	e13fff15 	stw	r4,-4(fp)
  alt_32 i;
  int rc = -EMFILE;
 410db74:	00bffa04 	movi	r2,-24
 410db78:	e0bffe15 	stw	r2,-8(fp)
   * indicates the highest file descriptor ever allocated. This is used to
   * improve efficency when searching the file descriptor list, and 
   * therefore reduce contention on the alt_fd_list_lock semaphore. 
   */

  for (i = 0; i < ALT_MAX_FD; i++)
 410db7c:	e03ffd15 	stw	zero,-12(fp)
 410db80:	00001906 	br	410dbe8 <alt_get_fd+0x84>
  {
    if (!alt_fd_list[i].dev)
 410db84:	00810474 	movhi	r2,1041
 410db88:	10bf3d04 	addi	r2,r2,-780
 410db8c:	e0fffd17 	ldw	r3,-12(fp)
 410db90:	18c00324 	muli	r3,r3,12
 410db94:	10c5883a 	add	r2,r2,r3
 410db98:	10800017 	ldw	r2,0(r2)
 410db9c:	10000f1e 	bne	r2,zero,410dbdc <alt_get_fd+0x78>
    {
      alt_fd_list[i].dev = dev;
 410dba0:	00810474 	movhi	r2,1041
 410dba4:	10bf3d04 	addi	r2,r2,-780
 410dba8:	e0fffd17 	ldw	r3,-12(fp)
 410dbac:	18c00324 	muli	r3,r3,12
 410dbb0:	10c5883a 	add	r2,r2,r3
 410dbb4:	e0ffff17 	ldw	r3,-4(fp)
 410dbb8:	10c00015 	stw	r3,0(r2)
      if (i > alt_max_fd)
 410dbbc:	d0e00e17 	ldw	r3,-32712(gp)
 410dbc0:	e0bffd17 	ldw	r2,-12(fp)
 410dbc4:	1880020e 	bge	r3,r2,410dbd0 <alt_get_fd+0x6c>
      {
        alt_max_fd = i;
 410dbc8:	e0bffd17 	ldw	r2,-12(fp)
 410dbcc:	d0a00e15 	stw	r2,-32712(gp)
      }
      rc = i;
 410dbd0:	e0bffd17 	ldw	r2,-12(fp)
 410dbd4:	e0bffe15 	stw	r2,-8(fp)
      goto alt_get_fd_exit;
 410dbd8:	00000606 	br	410dbf4 <alt_get_fd+0x90>
   * indicates the highest file descriptor ever allocated. This is used to
   * improve efficency when searching the file descriptor list, and 
   * therefore reduce contention on the alt_fd_list_lock semaphore. 
   */

  for (i = 0; i < ALT_MAX_FD; i++)
 410dbdc:	e0bffd17 	ldw	r2,-12(fp)
 410dbe0:	10800044 	addi	r2,r2,1
 410dbe4:	e0bffd15 	stw	r2,-12(fp)
 410dbe8:	e0bffd17 	ldw	r2,-12(fp)
 410dbec:	10800810 	cmplti	r2,r2,32
 410dbf0:	103fe41e 	bne	r2,zero,410db84 <__ram_exceptions_end+0xfc105940>
   * file descriptor pool.
   */

  ALT_SEM_POST(alt_fd_list_lock);

  return rc;
 410dbf4:	e0bffe17 	ldw	r2,-8(fp)
}
 410dbf8:	e037883a 	mov	sp,fp
 410dbfc:	df000017 	ldw	fp,0(sp)
 410dc00:	dec00104 	addi	sp,sp,4
 410dc04:	f800283a 	ret

0410dc08 <alt_icache_flush>:
 * alt_icache_flush() is called to flush the instruction cache for a memory
 * region of length "len" bytes, starting at address "start".
 */

void alt_icache_flush (void* start, alt_u32 len)
{
 410dc08:	defffb04 	addi	sp,sp,-20
 410dc0c:	df000415 	stw	fp,16(sp)
 410dc10:	df000404 	addi	fp,sp,16
 410dc14:	e13ffe15 	stw	r4,-8(fp)
 410dc18:	e17fff15 	stw	r5,-4(fp)

  /*
   * This is the most we would ever need to flush.
   */
 
  if (len > NIOS2_ICACHE_SIZE)
 410dc1c:	e0bfff17 	ldw	r2,-4(fp)
 410dc20:	10840070 	cmpltui	r2,r2,4097
 410dc24:	1000021e 	bne	r2,zero,410dc30 <alt_icache_flush+0x28>
  {
    len = NIOS2_ICACHE_SIZE;
 410dc28:	00840004 	movi	r2,4096
 410dc2c:	e0bfff15 	stw	r2,-4(fp)
  }

  end = ((char*) start) + len;
 410dc30:	e0fffe17 	ldw	r3,-8(fp)
 410dc34:	e0bfff17 	ldw	r2,-4(fp)
 410dc38:	1885883a 	add	r2,r3,r2
 410dc3c:	e0bffd15 	stw	r2,-12(fp)

  for (i = start; i < end; i+= NIOS2_ICACHE_LINE_SIZE)
 410dc40:	e0bffe17 	ldw	r2,-8(fp)
 410dc44:	e0bffc15 	stw	r2,-16(fp)
 410dc48:	00000506 	br	410dc60 <alt_icache_flush+0x58>
  { 
    __asm__ volatile ("flushi %0" :: "r" (i)); 
 410dc4c:	e0bffc17 	ldw	r2,-16(fp)
 410dc50:	1000603a 	flushi	r2
    len = NIOS2_ICACHE_SIZE;
  }

  end = ((char*) start) + len;

  for (i = start; i < end; i+= NIOS2_ICACHE_LINE_SIZE)
 410dc54:	e0bffc17 	ldw	r2,-16(fp)
 410dc58:	10800804 	addi	r2,r2,32
 410dc5c:	e0bffc15 	stw	r2,-16(fp)
 410dc60:	e0fffc17 	ldw	r3,-16(fp)
 410dc64:	e0bffd17 	ldw	r2,-12(fp)
 410dc68:	18bff836 	bltu	r3,r2,410dc4c <__ram_exceptions_end+0xfc105a08>
   * For an unaligned flush request, we've got one more line left.
   * Note that this is dependent on NIOS2_ICACHE_LINE_SIZE to be a 
   * multiple of 2 (which it always is).
   */

  if (((alt_u32) start) & (NIOS2_ICACHE_LINE_SIZE - 1))
 410dc6c:	e0bffe17 	ldw	r2,-8(fp)
 410dc70:	108007cc 	andi	r2,r2,31
 410dc74:	10000226 	beq	r2,zero,410dc80 <alt_icache_flush+0x78>
  {
    __asm__ volatile ("flushi %0" :: "r" (i));
 410dc78:	e0bffc17 	ldw	r2,-16(fp)
 410dc7c:	1000603a 	flushi	r2
  /* 
   * Having flushed the cache, flush any stale instructions in the 
   * pipeline 
   */

  __asm__ volatile ("flushp");
 410dc80:	0000203a 	flushp

#endif /* NIOS2_ICACHE_SIZE > 0 */
}
 410dc84:	0001883a 	nop
 410dc88:	e037883a 	mov	sp,fp
 410dc8c:	df000017 	ldw	fp,0(sp)
 410dc90:	dec00104 	addi	sp,sp,4
 410dc94:	f800283a 	ret

0410dc98 <atexit>:
 410dc98:	200b883a 	mov	r5,r4
 410dc9c:	000f883a 	mov	r7,zero
 410dca0:	000d883a 	mov	r6,zero
 410dca4:	0009883a 	mov	r4,zero
 410dca8:	410dd601 	jmpi	410dd60 <__register_exitproc>

0410dcac <exit>:
 410dcac:	defffe04 	addi	sp,sp,-8
 410dcb0:	000b883a 	mov	r5,zero
 410dcb4:	dc000015 	stw	r16,0(sp)
 410dcb8:	dfc00115 	stw	ra,4(sp)
 410dcbc:	2021883a 	mov	r16,r4
 410dcc0:	410de780 	call	410de78 <__call_exitprocs>
 410dcc4:	00810474 	movhi	r2,1041
 410dcc8:	10bf9e04 	addi	r2,r2,-392
 410dccc:	11000017 	ldw	r4,0(r2)
 410dcd0:	20800f17 	ldw	r2,60(r4)
 410dcd4:	10000126 	beq	r2,zero,410dcdc <exit+0x30>
 410dcd8:	103ee83a 	callr	r2
 410dcdc:	8009883a 	mov	r4,r16
 410dce0:	410dff80 	call	410dff8 <_exit>

0410dce4 <memcmp>:
 410dce4:	01c000c4 	movi	r7,3
 410dce8:	3980192e 	bgeu	r7,r6,410dd50 <memcmp+0x6c>
 410dcec:	2144b03a 	or	r2,r4,r5
 410dcf0:	11c4703a 	and	r2,r2,r7
 410dcf4:	10000f26 	beq	r2,zero,410dd34 <memcmp+0x50>
 410dcf8:	20800003 	ldbu	r2,0(r4)
 410dcfc:	28c00003 	ldbu	r3,0(r5)
 410dd00:	10c0151e 	bne	r2,r3,410dd58 <memcmp+0x74>
 410dd04:	31bfff84 	addi	r6,r6,-2
 410dd08:	01ffffc4 	movi	r7,-1
 410dd0c:	00000406 	br	410dd20 <memcmp+0x3c>
 410dd10:	20800003 	ldbu	r2,0(r4)
 410dd14:	28c00003 	ldbu	r3,0(r5)
 410dd18:	31bfffc4 	addi	r6,r6,-1
 410dd1c:	10c00e1e 	bne	r2,r3,410dd58 <memcmp+0x74>
 410dd20:	21000044 	addi	r4,r4,1
 410dd24:	29400044 	addi	r5,r5,1
 410dd28:	31fff91e 	bne	r6,r7,410dd10 <__ram_exceptions_end+0xfc105acc>
 410dd2c:	0005883a 	mov	r2,zero
 410dd30:	f800283a 	ret
 410dd34:	20c00017 	ldw	r3,0(r4)
 410dd38:	28800017 	ldw	r2,0(r5)
 410dd3c:	18bfee1e 	bne	r3,r2,410dcf8 <__ram_exceptions_end+0xfc105ab4>
 410dd40:	31bfff04 	addi	r6,r6,-4
 410dd44:	21000104 	addi	r4,r4,4
 410dd48:	29400104 	addi	r5,r5,4
 410dd4c:	39bff936 	bltu	r7,r6,410dd34 <__ram_exceptions_end+0xfc105af0>
 410dd50:	303fe91e 	bne	r6,zero,410dcf8 <__ram_exceptions_end+0xfc105ab4>
 410dd54:	003ff506 	br	410dd2c <__ram_exceptions_end+0xfc105ae8>
 410dd58:	10c5c83a 	sub	r2,r2,r3
 410dd5c:	f800283a 	ret

0410dd60 <__register_exitproc>:
 410dd60:	defffa04 	addi	sp,sp,-24
 410dd64:	dc000315 	stw	r16,12(sp)
 410dd68:	04010474 	movhi	r16,1041
 410dd6c:	843f9e04 	addi	r16,r16,-392
 410dd70:	80c00017 	ldw	r3,0(r16)
 410dd74:	dc400415 	stw	r17,16(sp)
 410dd78:	dfc00515 	stw	ra,20(sp)
 410dd7c:	18805217 	ldw	r2,328(r3)
 410dd80:	2023883a 	mov	r17,r4
 410dd84:	10003726 	beq	r2,zero,410de64 <__register_exitproc+0x104>
 410dd88:	10c00117 	ldw	r3,4(r2)
 410dd8c:	010007c4 	movi	r4,31
 410dd90:	20c00e16 	blt	r4,r3,410ddcc <__register_exitproc+0x6c>
 410dd94:	1a000044 	addi	r8,r3,1
 410dd98:	8800221e 	bne	r17,zero,410de24 <__register_exitproc+0xc4>
 410dd9c:	18c00084 	addi	r3,r3,2
 410dda0:	18c7883a 	add	r3,r3,r3
 410dda4:	18c7883a 	add	r3,r3,r3
 410dda8:	12000115 	stw	r8,4(r2)
 410ddac:	10c7883a 	add	r3,r2,r3
 410ddb0:	19400015 	stw	r5,0(r3)
 410ddb4:	0005883a 	mov	r2,zero
 410ddb8:	dfc00517 	ldw	ra,20(sp)
 410ddbc:	dc400417 	ldw	r17,16(sp)
 410ddc0:	dc000317 	ldw	r16,12(sp)
 410ddc4:	dec00604 	addi	sp,sp,24
 410ddc8:	f800283a 	ret
 410ddcc:	00800034 	movhi	r2,0
 410ddd0:	10800004 	addi	r2,r2,0
 410ddd4:	10002626 	beq	r2,zero,410de70 <__register_exitproc+0x110>
 410ddd8:	01006404 	movi	r4,400
 410dddc:	d9400015 	stw	r5,0(sp)
 410dde0:	d9800115 	stw	r6,4(sp)
 410dde4:	d9c00215 	stw	r7,8(sp)
 410dde8:	00000000 	call	0 <__alt_mem_new_sdram_controller_0-0x4000000>
 410ddec:	d9400017 	ldw	r5,0(sp)
 410ddf0:	d9800117 	ldw	r6,4(sp)
 410ddf4:	d9c00217 	ldw	r7,8(sp)
 410ddf8:	10001d26 	beq	r2,zero,410de70 <__register_exitproc+0x110>
 410ddfc:	81000017 	ldw	r4,0(r16)
 410de00:	10000115 	stw	zero,4(r2)
 410de04:	02000044 	movi	r8,1
 410de08:	22405217 	ldw	r9,328(r4)
 410de0c:	0007883a 	mov	r3,zero
 410de10:	12400015 	stw	r9,0(r2)
 410de14:	20805215 	stw	r2,328(r4)
 410de18:	10006215 	stw	zero,392(r2)
 410de1c:	10006315 	stw	zero,396(r2)
 410de20:	883fde26 	beq	r17,zero,410dd9c <__ram_exceptions_end+0xfc105b58>
 410de24:	18c9883a 	add	r4,r3,r3
 410de28:	2109883a 	add	r4,r4,r4
 410de2c:	1109883a 	add	r4,r2,r4
 410de30:	21802215 	stw	r6,136(r4)
 410de34:	01800044 	movi	r6,1
 410de38:	12406217 	ldw	r9,392(r2)
 410de3c:	30cc983a 	sll	r6,r6,r3
 410de40:	4992b03a 	or	r9,r9,r6
 410de44:	12406215 	stw	r9,392(r2)
 410de48:	21c04215 	stw	r7,264(r4)
 410de4c:	01000084 	movi	r4,2
 410de50:	893fd21e 	bne	r17,r4,410dd9c <__ram_exceptions_end+0xfc105b58>
 410de54:	11006317 	ldw	r4,396(r2)
 410de58:	218cb03a 	or	r6,r4,r6
 410de5c:	11806315 	stw	r6,396(r2)
 410de60:	003fce06 	br	410dd9c <__ram_exceptions_end+0xfc105b58>
 410de64:	18805304 	addi	r2,r3,332
 410de68:	18805215 	stw	r2,328(r3)
 410de6c:	003fc606 	br	410dd88 <__ram_exceptions_end+0xfc105b44>
 410de70:	00bfffc4 	movi	r2,-1
 410de74:	003fd006 	br	410ddb8 <__ram_exceptions_end+0xfc105b74>

0410de78 <__call_exitprocs>:
 410de78:	defff504 	addi	sp,sp,-44
 410de7c:	df000915 	stw	fp,36(sp)
 410de80:	dd400615 	stw	r21,24(sp)
 410de84:	dc800315 	stw	r18,12(sp)
 410de88:	dfc00a15 	stw	ra,40(sp)
 410de8c:	ddc00815 	stw	r23,32(sp)
 410de90:	dd800715 	stw	r22,28(sp)
 410de94:	dd000515 	stw	r20,20(sp)
 410de98:	dcc00415 	stw	r19,16(sp)
 410de9c:	dc400215 	stw	r17,8(sp)
 410dea0:	dc000115 	stw	r16,4(sp)
 410dea4:	d9000015 	stw	r4,0(sp)
 410dea8:	2839883a 	mov	fp,r5
 410deac:	04800044 	movi	r18,1
 410deb0:	057fffc4 	movi	r21,-1
 410deb4:	00810474 	movhi	r2,1041
 410deb8:	10bf9e04 	addi	r2,r2,-392
 410debc:	12000017 	ldw	r8,0(r2)
 410dec0:	45005217 	ldw	r20,328(r8)
 410dec4:	44c05204 	addi	r19,r8,328
 410dec8:	a0001c26 	beq	r20,zero,410df3c <__call_exitprocs+0xc4>
 410decc:	a0800117 	ldw	r2,4(r20)
 410ded0:	15ffffc4 	addi	r23,r2,-1
 410ded4:	b8000d16 	blt	r23,zero,410df0c <__call_exitprocs+0x94>
 410ded8:	14000044 	addi	r16,r2,1
 410dedc:	8421883a 	add	r16,r16,r16
 410dee0:	8421883a 	add	r16,r16,r16
 410dee4:	84402004 	addi	r17,r16,128
 410dee8:	a463883a 	add	r17,r20,r17
 410deec:	a421883a 	add	r16,r20,r16
 410def0:	e0001e26 	beq	fp,zero,410df6c <__call_exitprocs+0xf4>
 410def4:	80804017 	ldw	r2,256(r16)
 410def8:	e0801c26 	beq	fp,r2,410df6c <__call_exitprocs+0xf4>
 410defc:	bdffffc4 	addi	r23,r23,-1
 410df00:	843fff04 	addi	r16,r16,-4
 410df04:	8c7fff04 	addi	r17,r17,-4
 410df08:	bd7ff91e 	bne	r23,r21,410def0 <__ram_exceptions_end+0xfc105cac>
 410df0c:	00800034 	movhi	r2,0
 410df10:	10800004 	addi	r2,r2,0
 410df14:	10000926 	beq	r2,zero,410df3c <__call_exitprocs+0xc4>
 410df18:	a0800117 	ldw	r2,4(r20)
 410df1c:	1000301e 	bne	r2,zero,410dfe0 <__call_exitprocs+0x168>
 410df20:	a0800017 	ldw	r2,0(r20)
 410df24:	10003226 	beq	r2,zero,410dff0 <__call_exitprocs+0x178>
 410df28:	a009883a 	mov	r4,r20
 410df2c:	98800015 	stw	r2,0(r19)
 410df30:	00000000 	call	0 <__alt_mem_new_sdram_controller_0-0x4000000>
 410df34:	9d000017 	ldw	r20,0(r19)
 410df38:	a03fe41e 	bne	r20,zero,410decc <__ram_exceptions_end+0xfc105c88>
 410df3c:	dfc00a17 	ldw	ra,40(sp)
 410df40:	df000917 	ldw	fp,36(sp)
 410df44:	ddc00817 	ldw	r23,32(sp)
 410df48:	dd800717 	ldw	r22,28(sp)
 410df4c:	dd400617 	ldw	r21,24(sp)
 410df50:	dd000517 	ldw	r20,20(sp)
 410df54:	dcc00417 	ldw	r19,16(sp)
 410df58:	dc800317 	ldw	r18,12(sp)
 410df5c:	dc400217 	ldw	r17,8(sp)
 410df60:	dc000117 	ldw	r16,4(sp)
 410df64:	dec00b04 	addi	sp,sp,44
 410df68:	f800283a 	ret
 410df6c:	a0800117 	ldw	r2,4(r20)
 410df70:	80c00017 	ldw	r3,0(r16)
 410df74:	10bfffc4 	addi	r2,r2,-1
 410df78:	15c01426 	beq	r2,r23,410dfcc <__call_exitprocs+0x154>
 410df7c:	80000015 	stw	zero,0(r16)
 410df80:	183fde26 	beq	r3,zero,410defc <__ram_exceptions_end+0xfc105cb8>
 410df84:	95c8983a 	sll	r4,r18,r23
 410df88:	a0806217 	ldw	r2,392(r20)
 410df8c:	a5800117 	ldw	r22,4(r20)
 410df90:	2084703a 	and	r2,r4,r2
 410df94:	10000b26 	beq	r2,zero,410dfc4 <__call_exitprocs+0x14c>
 410df98:	a0806317 	ldw	r2,396(r20)
 410df9c:	2088703a 	and	r4,r4,r2
 410dfa0:	20000c1e 	bne	r4,zero,410dfd4 <__call_exitprocs+0x15c>
 410dfa4:	89400017 	ldw	r5,0(r17)
 410dfa8:	d9000017 	ldw	r4,0(sp)
 410dfac:	183ee83a 	callr	r3
 410dfb0:	a0800117 	ldw	r2,4(r20)
 410dfb4:	15bfbf1e 	bne	r2,r22,410deb4 <__ram_exceptions_end+0xfc105c70>
 410dfb8:	98800017 	ldw	r2,0(r19)
 410dfbc:	153fcf26 	beq	r2,r20,410defc <__ram_exceptions_end+0xfc105cb8>
 410dfc0:	003fbc06 	br	410deb4 <__ram_exceptions_end+0xfc105c70>
 410dfc4:	183ee83a 	callr	r3
 410dfc8:	003ff906 	br	410dfb0 <__ram_exceptions_end+0xfc105d6c>
 410dfcc:	a5c00115 	stw	r23,4(r20)
 410dfd0:	003feb06 	br	410df80 <__ram_exceptions_end+0xfc105d3c>
 410dfd4:	89000017 	ldw	r4,0(r17)
 410dfd8:	183ee83a 	callr	r3
 410dfdc:	003ff406 	br	410dfb0 <__ram_exceptions_end+0xfc105d6c>
 410dfe0:	a0800017 	ldw	r2,0(r20)
 410dfe4:	a027883a 	mov	r19,r20
 410dfe8:	1029883a 	mov	r20,r2
 410dfec:	003fb606 	br	410dec8 <__ram_exceptions_end+0xfc105c84>
 410dff0:	0005883a 	mov	r2,zero
 410dff4:	003ffb06 	br	410dfe4 <__ram_exceptions_end+0xfc105da0>

0410dff8 <_exit>:
 *
 * ALT_EXIT is mapped onto the _exit() system call in alt_syscall.h
 */

void ALT_EXIT (int exit_code)
{
 410dff8:	defffd04 	addi	sp,sp,-12
 410dffc:	df000215 	stw	fp,8(sp)
 410e000:	df000204 	addi	fp,sp,8
 410e004:	e13fff15 	stw	r4,-4(fp)
  ALT_LOG_PRINT_BOOT("[alt_exit.c] Entering _exit() function.\r\n");
  ALT_LOG_PRINT_BOOT("[alt_exit.c] Exit code from main was %d.\r\n",exit_code);
  /* Stop all other threads */

  ALT_LOG_PRINT_BOOT("[alt_exit.c] Calling ALT_OS_STOP().\r\n");
  ALT_OS_STOP();
 410e008:	0001883a 	nop
 410e00c:	e0bfff17 	ldw	r2,-4(fp)
 410e010:	e0bffe15 	stw	r2,-8(fp)
/*
 * Routine called on exit.
 */
static ALT_INLINE ALT_ALWAYS_INLINE void alt_sim_halt(int exit_code)
{
  register int r2 asm ("r2") = exit_code;
 410e014:	e0bffe17 	ldw	r2,-8(fp)
  __asm__ volatile ("\n0:\n\taddi %0,%0, -1\n\tbgt %0,zero,0b" : : "r" (ALT_CPU_FREQ/100) ); /* Delay for >30ms */

  __asm__ volatile ("break 2" : : "r"(r2), "r"(r3) ALT_GMON_DATA );

#else /* !DEBUG_STUB */
  if (r2) {
 410e018:	10000226 	beq	r2,zero,410e024 <_exit+0x2c>
    ALT_SIM_FAIL();
 410e01c:	002af070 	cmpltui	zero,zero,43969
 410e020:	00000106 	br	410e028 <_exit+0x30>
  } else {
    ALT_SIM_PASS();
 410e024:	002af0b0 	cmpltui	zero,zero,43970
  ALT_SIM_HALT(exit_code);

  /* spin forever, since there's no where to go back to */

  ALT_LOG_PRINT_BOOT("[alt_exit.c] Spinning forever.\r\n");
  while (1);
 410e028:	003fff06 	br	410e028 <__ram_exceptions_end+0xfc105de4>
