
vga.elf:     file format elf32-littlenios2
vga.elf
architecture: nios2:r1, flags 0x00000112:
EXEC_P, HAS_SYMS, D_PAGED
start address 0x04300000

Program Header:
    LOAD off    0x00001000 vaddr 0x00004000 paddr 0x00004000 align 2**12
         filesz 0x00000020 memsz 0x00000020 flags r-x
    LOAD off    0x00001020 vaddr 0x00004020 paddr 0x00004020 align 2**12
         filesz 0x00000228 memsz 0x00000228 flags r-x
    LOAD off    0x00002000 vaddr 0x04300000 paddr 0x04300000 align 2**12
         filesz 0x00020308 memsz 0x00020308 flags r-x
    LOAD off    0x00022308 vaddr 0x04320308 paddr 0x04321e6c align 2**12
         filesz 0x00001b64 memsz 0x00001b64 flags rw-
    LOAD off    0x000249d0 vaddr 0x043239d0 paddr 0x043239d0 align 2**12
         filesz 0x00000000 memsz 0x0000481c flags rw-

Sections:
Idx Name          Size      VMA       LMA       File off  Algn
  0 .entry        00000020  00004000  00004000  00001000  2**5
                  CONTENTS, ALLOC, LOAD, READONLY, CODE
  1 .exceptions   00000228  00004020  00004020  00001020  2**2
                  CONTENTS, ALLOC, LOAD, READONLY, CODE
  2 .text         0001f490  04300000  04300000  00002000  2**2
                  CONTENTS, ALLOC, LOAD, READONLY, CODE
  3 .rodata       00000e78  0431f490  0431f490  00021490  2**2
                  CONTENTS, ALLOC, LOAD, READONLY, DATA
  4 .rwdata       00001b64  04320308  04321e6c  00022308  2**2
                  CONTENTS, ALLOC, LOAD, DATA, SMALL_DATA
  5 .bss          0000481c  043239d0  043239d0  000249d0  2**2
                  ALLOC, SMALL_DATA
  6 .vga_mem      00000000  00004248  00004248  00023e6c  2**0
                  CONTENTS
  7 .new_sdram_controller_0 00000000  043281ec  043281ec  00023e6c  2**0
                  CONTENTS
  8 .comment      00000023  00000000  00000000  00023e6c  2**0
                  CONTENTS, READONLY
  9 .debug_aranges 00001118  00000000  00000000  00023e90  2**3
                  CONTENTS, READONLY, DEBUGGING
 10 .debug_info   0002fa80  00000000  00000000  00024fa8  2**0
                  CONTENTS, READONLY, DEBUGGING
 11 .debug_abbrev 0000b3c6  00000000  00000000  00054a28  2**0
                  CONTENTS, READONLY, DEBUGGING
 12 .debug_line   0000ffcb  00000000  00000000  0005fdee  2**0
                  CONTENTS, READONLY, DEBUGGING
 13 .debug_frame  00004b7c  00000000  00000000  0006fdbc  2**2
                  CONTENTS, READONLY, DEBUGGING
 14 .debug_str    00005643  00000000  00000000  00074938  2**0
                  CONTENTS, READONLY, DEBUGGING
 15 .debug_loc    0001ccdf  00000000  00000000  00079f7b  2**0
                  CONTENTS, READONLY, DEBUGGING
 16 .debug_alt_sim_info 00000060  00000000  00000000  00096c5c  2**2
                  CONTENTS, READONLY, DEBUGGING
 17 .debug_ranges 00001b38  00000000  00000000  00096cc0  2**3
                  CONTENTS, READONLY, DEBUGGING
 18 .thread_model 00000003  00000000  00000000  0009ebfe  2**0
                  CONTENTS, READONLY
 19 .cpu          00000008  00000000  00000000  0009ec01  2**0
                  CONTENTS, READONLY
 20 .qsys         00000001  00000000  00000000  0009ec09  2**0
                  CONTENTS, READONLY
 21 .simulation_enabled 00000001  00000000  00000000  0009ec0a  2**0
                  CONTENTS, READONLY
 22 .stderr_dev   00000008  00000000  00000000  0009ec0b  2**0
                  CONTENTS, READONLY
 23 .stdin_dev    00000008  00000000  00000000  0009ec13  2**0
                  CONTENTS, READONLY
 24 .stdout_dev   00000008  00000000  00000000  0009ec1b  2**0
                  CONTENTS, READONLY
 25 .sopc_system_name 0000000c  00000000  00000000  0009ec23  2**0
                  CONTENTS, READONLY
 26 .quartus_project_dir 00000042  00000000  00000000  0009ec2f  2**0
                  CONTENTS, READONLY
 27 .jdi          000106fb  00000000  00000000  0009ec71  2**0
                  CONTENTS, READONLY
 28 .sopcinfo     001555d2  00000000  00000000  000af36c  2**0
                  CONTENTS, READONLY
SYMBOL TABLE:
00004000 l    d  .entry	00000000 .entry
00004020 l    d  .exceptions	00000000 .exceptions
04300000 l    d  .text	00000000 .text
0431f490 l    d  .rodata	00000000 .rodata
04320308 l    d  .rwdata	00000000 .rwdata
043239d0 l    d  .bss	00000000 .bss
00004248 l    d  .vga_mem	00000000 .vga_mem
043281ec l    d  .new_sdram_controller_0	00000000 .new_sdram_controller_0
00000000 l    d  .comment	00000000 .comment
00000000 l    d  .debug_aranges	00000000 .debug_aranges
00000000 l    d  .debug_info	00000000 .debug_info
00000000 l    d  .debug_abbrev	00000000 .debug_abbrev
00000000 l    d  .debug_line	00000000 .debug_line
00000000 l    d  .debug_frame	00000000 .debug_frame
00000000 l    d  .debug_str	00000000 .debug_str
00000000 l    d  .debug_loc	00000000 .debug_loc
00000000 l    d  .debug_alt_sim_info	00000000 .debug_alt_sim_info
00000000 l    d  .debug_ranges	00000000 .debug_ranges
00000000 l    df *ABS*	00000000 ../vga_bsp//obj/HAL/src/crt0.o
04300048 l       .text	00000000 alt_after_alt_main
00000000 l    df *ABS*	00000000 alt_irq_handler.c
00000000 l    df *ABS*	00000000 alt_instruction_exception_entry.c
00000000 l    df *ABS*	00000000 accel.c
043239d0 l     O .bss	00000004 acc_dev
00000000 l    df *ABS*	00000000 debug.c
04323b4c l     O .bss	000000ea debug_lines
043239d4 l     O .bss	00000004 debug_line_count
043239d8 l     O .bss	00000004 last_text_seq
043239dc l     O .bss	00000004 last_image_seq
043239e0 l     O .bss	00000004 current_image_valid
043239e4 l     O .bss	00000004 debug_last_line_is_text_fragment
043001a8 l     F .text	00000044 read_u16_le
043001ec l     F .text	00000074 read_u32_le
04300260 l     F .text	00000034 shared_read32
04300294 l     F .text	00000040 shared_write32
043002d4 l     F .text	0000004c shared_write8
04300320 l     F .text	0000002c vga_irq_tx_set_true
04300378 l     F .text	00000060 packet_ready
043003d8 l     F .text	00000040 get_text_len
04300418 l     F .text	00000040 get_image_len
04300458 l     F .text	00000028 rgb332_to_vga_color
04300480 l     F .text	00000118 draw_image_from_sdram
04300598 l     F .text	000000d8 draw_image_frame
04300670 l     F .text	0000008c debug_image_buffer_should_be_valid
043006fc l     F .text	00000040 debug_refresh_image_from_sdram
0430073c l     F .text	00000060 debug_clear_lines
0430079c l     F .text	000000b8 debug_make_empty_line_for_append
04300854 l     F .text	0000010c debug_add_line
04300960 l     F .text	00000154 debug_append_text_fragment
04300ab4 l     F .text	00000024 debug_end_current_text_instruction
04300ad8 l     F .text	000000e4 debug_draw_text_panel
04300bbc l     F .text	00000094 debug_packet_contains_newline
04300c50 l     F .text	00000224 debug_append_text_from_sdram
04300e74 l     F .text	00000084 draw_static_screen
04300ef8 l     F .text	000000b4 display_capture_from_sdram
00000000 l    df *ABS*	00000000 draw.c
043239e8 l     O .bss	00000004 time_draw_last_seq
043239ec l     O .bss	00000004 time_draw_last_bg_seq
043239f0 l     O .bss	00000004 time_draw_rx_last_seq
043239f4 l     O .bss	00000004 time_draw_rx_ticks
04321df0 l     O .rwdata	00000004 time_draw_rx_indicator_state
04323c36 l     O .bss	00002400 time_draw_grid
043239f8 l     O .bss	00000004 draw_count_red
043239fc l     O .bss	00000004 draw_count_green
04323a00 l     O .bss	00000004 draw_count_blue
04323a04 l     O .bss	00000004 draw_count_yellow
04323a08 l     O .bss	00000004 draw_count_black
04323a0c l     O .bss	00000004 draw_count_white
04323a10 l     O .bss	00000004 draw_count_other
043012f0 l     F .text	00000034 time_shared_read32
04301324 l     F .text	00000040 time_shared_write32
04301364 l     F .text	00000044 trigger_sfx_flag
043013a8 l     F .text	0000003c debug_write32
043013e4 l     F .text	00000030 debug_read32
04301414 l     F .text	000000d8 debug_write_message
043014ec l     F .text	00000068 publish_control_message
04301554 l     F .text	000000fc count_color_add
04301650 l     F .text	000000ec publish_draw_counts
0430173c l     F .text	000000a0 recount_draw_colors
043017dc l     F .text	0000003c time_shared_read8
04301818 l     F .text	00000058 time_draw_valid_cell
04301870 l     F .text	00000034 time_draw_grid_index
043018a4 l     F .text	00000084 time_draw_cell
04301928 l     F .text	0000005c time_draw_rx_indicator
04301984 l     F .text	000000ac time_draw_update_rx_status
04301a30 l     F .text	0000005c time_draw_border
04301a8c l     F .text	0000009c time_draw_full_grid
04301b28 l     F .text	0000018c time_apply_draw_background_if_ready
04301cb4 l     F .text	00000168 time_apply_draw_mailbox
00000000 l    df *ABS*	00000000 main.c
04323a14 l     O .bss	00000004 vga_irq_pending
04323a18 l     O .bss	00000004 vga_irq_key_pressed_mask
04323a1c l     O .bss	00000004 vga_irq_switch_state
04323a20 l     O .bss	00000004 vga_irq_control_event_type
04323a24 l     O .bss	00000004 current_screen
04323a28 l     O .bss	00000004 selected_menu_index
04323a2c l     O .bss	00000004 emergency_stop_active
04301f90 l     F .text	00000040 shared_write_u32
04301fd0 l     F .text	00000034 shared_read_u32
04302004 l     F .text	00000044 trigger_sfx_flag
04302048 l     F .text	000000f8 shared_flags_init_for_vga
04302140 l     F .text	0000007c vga_irq_rx_isr
043021bc l     F .text	0000006c vga_irq_rx_setup
04302228 l     F .text	00000050 wait_until_irq_signal_low
04302278 l     F .text	00000090 read_menu_direction
04302308 l     F .text	0000002c abs_alt32
04302334 l     F .text	00000098 read_accel_xyz
043023cc l     F .text	00000058 emergency_orientation_is_unsafe
04302424 l     F .text	00000058 emergency_orientation_is_safe
0430247c l     F .text	00000158 draw_emergency_stop_screen
043025d4 l     F .text	000000e8 enter_emergency_stop_screen
043026bc l     F .text	000000b0 service_emergency_stop
0430276c l     F .text	0000010c update_menu_navigation
04302878 l     F .text	000001d4 enter_screen
04302a4c l     F .text	0000002c consume_vga_irq_key_mask
04302a78 l     F .text	000002d4 handle_irq_button_action
04302d4c l     F .text	000000c0 update_current_screen
00000000 l    df *ABS*	00000000 menu.c
00000000 l    df *ABS*	00000000 pixel_theme.c
04303010 l     F .text	000000d0 pt_border
043030e0 l     F .text	000000a0 pt_double_border
04303490 l     F .text	000001cc pt_cloud
0430365c l     F .text	00000080 pt_pixel_spark
043036dc l     F .text	0000012c pt_draw_rope_platform
00000000 l    df *ABS*	00000000 ship.c
04326038 l     O .bss	00000064 hidden_map
0432609c l     O .bss	00000064 shot_map
04326100 l     O .bss	00000064 dirty_cell
04326164 l     O .bss	000001e0 blasts
04323a30 l     O .bss	00000004 cursor_x
04323a34 l     O .bss	00000004 cursor_y
04323a38 l     O .bss	00000004 old_cursor_x
04323a3c l     O .bss	00000004 old_cursor_y
04323a40 l     O .bss	00000004 loaded_ship_cells
04323a44 l     O .bss	00000004 destroyed_ship_cells
04323a48 l     O .bss	00000004 layout_loaded
04323a4c l     O .bss	00000004 fleet_popup_visible
04323a50 l     O .bss	00000004 fleet_popup_drawn
04323a54 l     O .bss	00000004 fleet_popup_dismissed
04323a58 l     O .bss	00000004 reveal_enabled
04323a5c l     O .bss	00000004 reveal_anim_active
04323a60 l     O .bss	00000004 reveal_columns
04323a64 l     O .bss	00000004 selected_bomb
04321df4 l     O .rwdata	00000004 cross_bombs_left
04321df8 l     O .rwdata	00000004 square_bombs_left
04323a68 l     O .bss	00000004 last_battle_seq
04323a6c l     O .bss	00000004 last_battle_grid_seq
04323a70 l     O .bss	00000004 last_switch_state
04323a74 l     O .bss	00000004 battle_rx_last_seq
04323a78 l     O .bss	00000004 battle_rx_ticks
04323a7c l     O .bss	00000004 battle_rx_indicator_active
04323a80 l     O .bss	00000004 fake_time_us
04323a84 l     O .bss	00000004 last_cursor_move_us
04323a88 l     O .bss	00000004 last_reveal_step_us
04321dfc l     O .rwdata	00000004 full_redraw_needed
04321e00 l     O .rwdata	00000004 hud_dirty
04321e04 l     O .rwdata	00000004 board_dirty
04323a8c l     O .bss	00000004 battle_win_sfx_sent
04305f58 l     F .text	00000034 shared_read32
04305f8c l     F .text	00000040 shared_write32
04305fcc l     F .text	0000003c debug_write32
04306008 l     F .text	00000030 debug_read32
04306038 l     F .text	000000d8 debug_write_message
04306110 l     F .text	00000068 publish_control_message
04306178 l     F .text	00000044 trigger_sfx_flag
043061bc l     F .text	0000007c clear_battle_grid_mirror_memory
04306238 l     F .text	00000054 bomb_name_for_control
0430628c l     F .text	00000140 publish_battle_status_to_control
043063cc l     F .text	0000003c show_fleet_down_popup_once
04306408 l     F .text	0000002c tick_us
04306434 l     F .text	00000058 in_bounds
0430648c l     F .text	0000002c cell_left
043064b8 l     F .text	0000002c cell_top
043064e4 l     F .text	00000070 mark_cell_dirty
04306554 l     F .text	0000008c mark_all_cells_dirty
043065e0 l     F .text	00000144 recalc_ship_counts
04306724 l     F .text	000000a4 reset_round_keep_layout
043067c8 l     F .text	00000094 clear_layout_and_round
0430685c l     F .text	00000068 draw_bevel_box
043068c4 l     F .text	0000006c draw_neon_box
04306930 l     F .text	00000050 draw_sidebar_text_line
04306980 l     F .text	00000040 reveal_visible_for_cell
043069c0 l     F .text	00000048 draw_water_tile
04306a08 l     F .text	00000054 draw_ship_tile
04306a5c l     F .text	00000128 draw_cell_base
04306b84 l     F .text	00000058 draw_cursor
04306bdc l     F .text	00000140 draw_active_blasts
04306d1c l     F .text	0000014c draw_static_frame
04306e68 l     F .text	00000054 bomb_name
04306ebc l     F .text	000000d8 draw_hud_bar
04306f94 l     F .text	0000005c battle_draw_rx_indicator
04306ff0 l     F .text	000000ac battle_update_rx_status
0430709c l     F .text	000002e0 draw_hud
0430737c l     F .text	0000002c draw_fleet_down_popup
043073a8 l     F .text	00000114 redraw_dirty_cells_and_overlays
043074bc l     F .text	0000014c add_blast
04307608 l     F .text	00000198 apply_hit_to_cell
043077a0 l     F .text	00000040 fire_standard
043077e0 l     F .text	000000b0 fire_cross
04307890 l     F .text	00000094 fire_square
04307924 l     F .text	00000138 fire_selected_bomb
04307a5c l     F .text	00000164 update_blasts
04307bc0 l     F .text	00000200 sync_battle_grid_mirror
04307dc0 l     F .text	00000210 poll_battle_mailbox_once
04307fd0 l     F .text	00000068 poll_battle_mailbox
04308038 l     F .text	0000019c update_cursor_from_accel
043081d4 l     F .text	000000d8 update_reveal_anim
043082ac l     F .text	00000094 toggle_moderator_reveal
04308340 l     F .text	00000088 choose_bomb_from_switches
00000000 l    df *ABS*	00000000 snake.c
04326344 l     O .bss	00001600 snake
04323a90 l     O .bss	00000004 snake_len
04323a94 l     O .bss	00000008 food
04323a9c l     O .bss	00000004 food_valid
04323aa0 l     O .bss	00000004 active_apple_count
04323aa4 l     O .bss	00000008 portal_a
04323aac l     O .bss	00000008 portal_b
04323ab4 l     O .bss	00000004 portal_enabled
04321e08 l     O .rwdata	00000004 current_dir
04321e0c l     O .rwdata	00000004 next_dir
04323ab8 l     O .bss	00000004 score
04323abc l     O .bss	00000004 snake_lost
04321e10 l     O .rwdata	00000004 first_full_draw_needed
04321e14 l     O .rwdata	00000004 snake_rand_seed
04327944 l     O .bss	000002c0 arena_grid
04323ac0 l     O .bss	00000004 wall_count
04327c04 l     O .bss	000002c0 decoder_arena_grid
04323ac4 l     O .bss	00000004 decoder_config_valid
04327ec4 l     O .bss	00000200 decoder_apples
04323ac8 l     O .bss	00000004 decoder_apple_count
04323acc l     O .bss	00000008 decoder_portal_a
04323ad4 l     O .bss	00000008 decoder_portal_b
04323adc l     O .bss	00000004 decoder_portal_enabled
04323ae0 l     O .bss	00000004 arena_version
04323ae4 l     O .bss	00000004 snake_event_flags
04323ae8 l     O .bss	00000004 last_seen_mailbox_seq
04323aec l     O .bss	00000008 old_tail
04323af4 l     O .bss	00000008 old_head
04323afc l     O .bss	00000004 erase_tail_needed
04323b00 l     O .bss	00000004 ate_food_last_step
04321e18 l     O .rwdata	00000004 score_draw_needed
04323b04 l     O .bss	00000004 lose_screen_drawn
04323b08 l     O .bss	00000004 snake_rx_last_seq
04323b0c l     O .bss	00000004 snake_rx_pause_ticks
04321e1c l     O .rwdata	00000004 snake_rx_indicator_state
04321e20 l     O .rwdata	00000004 last_published_dir
04308610 l     F .text	00000040 shared_write32
04308650 l     F .text	00000034 shared_read32
04308684 l     F .text	0000004c shared_write8
043086d0 l     F .text	0000003c shared_read8
0430870c l     F .text	0000003c debug_write32
04308748 l     F .text	00000030 debug_read32
04308778 l     F .text	000000d8 debug_write_message
04308850 l     F .text	00000068 publish_control_message
043088b8 l     F .text	00000044 trigger_sfx_flag
043088fc l     F .text	0000006c dir_name
04308968 l     F .text	00000048 publish_direction_if_changed
043089b0 l     F .text	00000058 valid_cell
04308a08 l     F .text	0000008c wrap_cell_to_arena
04308a94 l     F .text	00000034 grid_index
04308ac8 l     F .text	00000090 shared_mirror_cell
04308b58 l     F .text	00000074 shared_mirror_full_arena
04308bcc l     F .text	0000016c shared_mirror_apple_list
04308d38 l     F .text	0000004c shared_set_event
04308d84 l     F .text	000001c4 shared_publish_status
04308f48 l     F .text	00000070 shared_init_snake_page
04308fb8 l     F .text	00000040 snake_rand
04308ff8 l     F .text	000000a0 is_reverse_direction
04309098 l     F .text	00000094 snake_occupies_cell
0430912c l     F .text	0000007c arena_set_cell
043091a8 l     F .text	0000006c draw_cell_background
04309214 l     F .text	00000060 draw_snake_body_cell
04309274 l     F .text	00000068 draw_snake_head_cell
043092dc l     F .text	0000018c draw_static_cell
04309468 l     F .text	0000004c draw_static_cell_if_visible
043094b4 l     F .text	00000074 draw_static_arena_full
04309528 l     F .text	00000044 draw_border
0430956c l     F .text	0000005c snake_draw_rx_indicator
043095c8 l     F .text	000000ac snake_update_rx_status
04309674 l     F .text	00000070 draw_score
043096e4 l     F .text	00000078 draw_hud
0430975c l     F .text	000000cc draw_snake_full
04309828 l     F .text	00000054 draw_game_screen_full_once
0430987c l     F .text	000000b8 draw_game_screen_incremental
04309934 l     F .text	00000034 draw_lose_screen
04309968 l     F .text	00000070 clear_all_static_arena
043099d8 l     F .text	00000060 decoder_config_clear_all
04309a38 l     F .text	0000007c decoder_config_remove_type
04309ab4 l     F .text	00000034 decoder_apples_clear
04309ae8 l     F .text	000000a8 decoder_apples_add
04309c60 l     F .text	00000078 decoder_config_set_cell
04309b90 l     F .text	000000d0 active_apples_resync_first
04309cd8 l     F .text	000000fc restore_active_arena_from_decoder_config
04309dd4 l     F .text	0000025c spawn_food
0430a030 l     F .text	00000048 set_command_status
0430a078 l     F .text	0000010c read_payload_xy
0430a184 l     F .text	0000017c read_payload_portals
0430a300 l     F .text	000000d8 remove_old_apple
0430a3d8 l     F .text	00000124 remove_old_portals
0430a4fc l     F .text	000000b4 clear_walls_only
0430a5b0 l     F .text	00000200 apply_apples
0430a7b0 l     F .text	00000040 apply_set_apple
0430a7f0 l     F .text	00000040 apply_add_apples
0430a830 l     F .text	00000214 apply_walls
0430aa44 l     F .text	00000278 apply_set_portals
0430acbc l     F .text	000001ac apply_clear_cells
0430ae68 l     F .text	00000190 apply_mailbox_command
0430aff8 l     F .text	000000d4 snake_check_mailbox
0430b0cc l     F .text	0000010c read_snake_direction
0430b1d8 l     F .text	00000060 set_lost
0430b238 l     F .text	000000e4 apply_portal_if_needed
0430b31c l     F .text	000003b4 snake_step
0430b8a0 l     F .text	0000008c snake_service_mailbox_delay
00000000 l    df *ABS*	00000000 time.c
00000000 l    df *ABS*	00000000 vga.c
0430baa4 l     F .text	00000078 vga_gray8
04323b10 l     O .bss	00000004 animation_offset
0430bb1c l     F .text	00000044 delay
0430bb60 l     F .text	000000b0 draw_pixel
0431fe83 l     O .rodata	000000d0 font_AZ
0431ff53 l     O .rodata	00000050 font_09
00000000 l    df *ABS*	00000000 lib2-divmod.c
00000000 l    df *ABS*	00000000 fflush.c
00000000 l    df *ABS*	00000000 findfp.c
0430c680 l     F .text	00000008 __fp_unlock
0430c694 l     F .text	0000019c __sinit.part.1
0430c830 l     F .text	00000008 __fp_lock
00000000 l    df *ABS*	00000000 mallocr.c
00000000 l    df *ABS*	00000000 fwalk.c
00000000 l    df *ABS*	00000000 impure.c
04320308 l     O .rwdata	00000424 impure_data
00000000 l    df *ABS*	00000000 mallocr.c
00000000 l    df *ABS*	00000000 memset.c
00000000 l    df *ABS*	00000000 printf.c
00000000 l    df *ABS*	00000000 puts.c
00000000 l    df *ABS*	00000000 sbrkr.c
00000000 l    df *ABS*	00000000 snprintf.c
00000000 l    df *ABS*	00000000 sprintf.c
00000000 l    df *ABS*	00000000 stdio.c
00000000 l    df *ABS*	00000000 strcpy.c
00000000 l    df *ABS*	00000000 strlen.c
00000000 l    df *ABS*	00000000 strncpy.c
00000000 l    df *ABS*	00000000 vfprintf.c
0431ffee l     O .rodata	00000010 zeroes.4389
0431fffe l     O .rodata	00000010 blanks.4388
00000000 l    df *ABS*	00000000 vfprintf.c
0432000e l     O .rodata	00000010 zeroes.4404
04312460 l     F .text	000000bc __sbprintf
0432001e l     O .rodata	00000010 blanks.4403
00000000 l    df *ABS*	00000000 writer.c
00000000 l    df *ABS*	00000000 wsetup.c
00000000 l    df *ABS*	00000000 closer.c
00000000 l    df *ABS*	00000000 dtoa.c
04312724 l     F .text	00000200 quorem
00000000 l    df *ABS*	00000000 fclose.c
00000000 l    df *ABS*	00000000 fvwrite.c
00000000 l    df *ABS*	00000000 int_errno.c
00000000 l    df *ABS*	00000000 locale.c
04320b54 l     O .rwdata	00000020 lc_ctype_charset
04320b34 l     O .rwdata	00000020 lc_message_charset
04320b74 l     O .rwdata	00000038 lconv
00000000 l    df *ABS*	00000000 lseekr.c
00000000 l    df *ABS*	00000000 makebuf.c
00000000 l    df *ABS*	00000000 memchr.c
00000000 l    df *ABS*	00000000 memcpy.c
00000000 l    df *ABS*	00000000 memmove.c
00000000 l    df *ABS*	00000000 mprec.c
0432004c l     O .rodata	0000000c p05.2768
00000000 l    df *ABS*	00000000 readr.c
00000000 l    df *ABS*	00000000 mallocr.c
00000000 l    df *ABS*	00000000 s_fpclassify.c
00000000 l    df *ABS*	00000000 strcmp.c
00000000 l    df *ABS*	00000000 vfprintf.c
04320180 l     O .rodata	00000010 blanks.4332
04320170 l     O .rodata	00000010 zeroes.4333
00000000 l    df *ABS*	00000000 vfprintf.c
04317708 l     F .text	000000fc __sprint_r.part.0
043201a0 l     O .rodata	00000010 blanks.4348
04320190 l     O .rodata	00000010 zeroes.4349
04318c94 l     F .text	000000bc __sbprintf
00000000 l    df *ABS*	00000000 mallocr.c
00000000 l    df *ABS*	00000000 fputwc.c
00000000 l    df *ABS*	00000000 fstatr.c
00000000 l    df *ABS*	00000000 isattyr.c
00000000 l    df *ABS*	00000000 wbuf.c
00000000 l    df *ABS*	00000000 wcrtomb.c
00000000 l    df *ABS*	00000000 wctomb_r.c
00000000 l    df *ABS*	00000000 libgcc2.c
00000000 l    df *ABS*	00000000 libgcc2.c
00000000 l    df *ABS*	00000000 adddf3.c
00000000 l    df *ABS*	00000000 divdf3.c
00000000 l    df *ABS*	00000000 eqdf2.c
00000000 l    df *ABS*	00000000 gedf2.c
00000000 l    df *ABS*	00000000 ledf2.c
00000000 l    df *ABS*	00000000 muldf3.c
00000000 l    df *ABS*	00000000 subdf3.c
00000000 l    df *ABS*	00000000 fixdfsi.c
00000000 l    df *ABS*	00000000 floatsidf.c
00000000 l    df *ABS*	00000000 floatunsidf.c
00000000 l    df *ABS*	00000000 libgcc2.c
00000000 l    df *ABS*	00000000 libgcc2.c
00000000 l    df *ABS*	00000000 alt_close.c
0431c524 l     F .text	0000003c alt_get_errno
00000000 l    df *ABS*	00000000 alt_dev.c
0431c630 l     F .text	0000002c alt_dev_null_write
00000000 l    df *ABS*	00000000 alt_errno.c
00000000 l    df *ABS*	00000000 alt_fstat.c
0431c65c l     F .text	0000003c alt_get_errno
00000000 l    df *ABS*	00000000 alt_irq_register.c
00000000 l    df *ABS*	00000000 alt_irq_vars.c
00000000 l    df *ABS*	00000000 alt_isatty.c
0431c8c8 l     F .text	0000003c alt_get_errno
00000000 l    df *ABS*	00000000 alt_load.c
0431c9a8 l     F .text	00000068 alt_load_section
00000000 l    df *ABS*	00000000 alt_lseek.c
0431ca94 l     F .text	0000003c alt_get_errno
00000000 l    df *ABS*	00000000 alt_main.c
00000000 l    df *ABS*	00000000 alt_malloc_lock.c
00000000 l    df *ABS*	00000000 alt_putstr.c
00000000 l    df *ABS*	00000000 alt_read.c
0431cca4 l     F .text	0000003c alt_get_errno
00000000 l    df *ABS*	00000000 alt_release_fd.c
00000000 l    df *ABS*	00000000 alt_sbrk.c
04321e58 l     O .rwdata	00000004 heap_end
00000000 l    df *ABS*	00000000 alt_usleep.c
00000000 l    df *ABS*	00000000 alt_write.c
0431cf20 l     F .text	0000003c alt_get_errno
00000000 l    df *ABS*	00000000 alt_sys_init.c
0431d054 l     F .text	00000034 alt_dev_reg
0431d088 l     F .text	0000003c alt_get_errno
0431d0c4 l     F .text	00000068 alt_avalon_mutex_reg
04320d54 l     O .rwdata	00001060 jtag_vga
04321db4 l     O .rwdata	00000010 mutex_0
04321dc4 l     O .rwdata	0000002c accelerometer_spi_0
00000000 l    df *ABS*	00000000 altera_avalon_jtag_uart_fd.c
00000000 l    df *ABS*	00000000 altera_avalon_jtag_uart_init.c
0431d3dc l     F .text	00000210 altera_avalon_jtag_uart_irq
0431d5ec l     F .text	000000a0 altera_avalon_jtag_uart_timeout
00000000 l    df *ABS*	00000000 altera_avalon_jtag_uart_ioctl.c
00000000 l    df *ABS*	00000000 altera_avalon_jtag_uart_read.c
00000000 l    df *ABS*	00000000 altera_avalon_jtag_uart_write.c
00000000 l    df *ABS*	00000000 altera_avalon_mutex.c
0431dc68 l     F .text	0000003c alt_get_errno
0431dca4 l     F .text	0000007c alt_mutex_trylock
00000000 l    df *ABS*	00000000 altera_up_avalon_accelerometer_spi.c
00000000 l    df *ABS*	00000000 alt_alarm_start.c
00000000 l    df *ABS*	00000000 alt_busy_sleep.c
00000000 l    df *ABS*	00000000 alt_dcache_flush_all.c
00000000 l    df *ABS*	00000000 alt_dev_llist_insert.c
0431e5b0 l     F .text	0000003c alt_get_errno
00000000 l    df *ABS*	00000000 alt_do_ctors.c
00000000 l    df *ABS*	00000000 alt_do_dtors.c
00000000 l    df *ABS*	00000000 alt_find_dev.c
00000000 l    df *ABS*	00000000 alt_icache_flush_all.c
00000000 l    df *ABS*	00000000 alt_io_redirect.c
0431e814 l     F .text	000000c4 alt_open_fd
00000000 l    df *ABS*	00000000 alt_open.c
0431e954 l     F .text	0000003c alt_get_errno
0431e990 l     F .text	000000c4 alt_file_locked
00000000 l    df *ABS*	00000000 alt_tick.c
00000000 l    df *ABS*	00000000 altera_nios2_gen2_irq.c
00000000 l    df *ABS*	00000000 alt_find_file.c
00000000 l    df *ABS*	00000000 alt_get_fd.c
00000000 l    df *ABS*	00000000 alt_icache_flush.c
00000000 l    df *ABS*	00000000 atexit.c
00000000 l    df *ABS*	00000000 exit.c
00000000 l    df *ABS*	00000000 fputs.c
00000000 l    df *ABS*	00000000 memcmp.c
00000000 l    df *ABS*	00000000 __atexit.c
00000000 l    df *ABS*	00000000 __call_atexit.c
00000000 l    df *ABS*	00000000 alt_exit.c
04323b48 g     O .bss	00000004 alt_instruction_exception_handler
04315a70 g     F .text	00000074 _mprec_log10
04315b5c g     F .text	0000008c __any_on
04319078 g     F .text	00000054 _isatty_r
04320058 g     O .rodata	00000028 __mprec_tinytens
0431cba4 g     F .text	0000007c alt_main
0430de60 g     F .text	00000090 strcpy
0430d97c g     F .text	000000c0 _puts_r
043280ec g     O .bss	00000100 alt_irq
04301e1c  w    F .text	00000140 draw_game_init
04314648 g     F .text	00000060 _lseek_r
04321e6c g       *ABS*	00000000 __flash_rwdata_start
0430b6d0 g     F .text	000001d0 snake_init
0431b050 g     F .text	00000088 .hidden __eqdf2
043281ec g       *ABS*	00000000 __alt_heap_start
0430d940 g     F .text	0000003c printf
0430c0c0 g     F .text	000000a0 vga_print_text
04319224 g     F .text	0000009c _wcrtomb_r
0430ddfc g     F .text	0000005c __sseek
0430c9d0 g     F .text	00000010 __sinit
043190cc g     F .text	00000140 __swbuf_r
0431456c g     F .text	0000007c _setlocale_r
0430c838 g     F .text	00000068 __sfmoreglue
0431cc44 g     F .text	00000024 __malloc_unlock
0430b9f8 g     F .text	00000028 snake_is_lost
04304330 g     F .text	00000394 pt_draw_snake_head
04314a90 g     F .text	0000015c memmove
0430536c g     F .text	000002b0 pt_draw_battle_ship_tile
04305cc4 g     F .text	00000148 pt_draw_canvas_background
0430c9b8 g     F .text	00000018 _cleanup
0430db7c g     F .text	000000e4 snprintf
0431dddc g     F .text	00000040 altera_avalon_mutex_trylock
04314bec g     F .text	000000a8 _Balloc
0430513c g     F .text	00000230 pt_draw_battle_ocean_tile
0431cc68 g     F .text	0000003c alt_putstr
0430b92c g     F .text	000000cc snake_update
0431b0d8 g     F .text	000000dc .hidden __gtdf2
0431ed4c g     F .text	00000024 altera_nios2_gen2_irq_init
043041a8 g     F .text	00000188 pt_draw_snake_body
00004000 g     F .entry	0000001c __reset
04300100 g     F .text	00000054 accel_read_y
0430561c g     F .text	000001ec pt_draw_battle_cursor
0431e080 g     F .text	000000cc alt_up_accelerometer_spi_read_x_axis
0431de70 g     F .text	00000074 altera_avalon_mutex_is_mine
00004020 g       *ABS*	00000000 __flash_exceptions_start
0431901c g     F .text	0000005c _fstat_r
04323b20 g     O .bss	00000004 errno
0430dd78 g     F .text	00000008 __seofread
043164cc g     F .text	0000123c ___svfiprintf_internal_r
04323b38 g     O .bss	00000004 alt_argv
04329df0 g       *ABS*	00000000 _gp
0431cef0 g     F .text	00000030 usleep
04305808 g     F .text	000001c0 pt_draw_battle_blast
043083c8 g     F .text	00000110 ship_game_handle_control_event
04320bd4 g     O .rwdata	00000180 alt_fd_list
0431e750 g     F .text	00000090 alt_find_dev
04314948 g     F .text	00000148 memcpy
0430c688 g     F .text	0000000c _cleanup_r
0431c33c g     F .text	000000dc .hidden __floatsidf
043000ac g     F .text	00000054 accel_read_x
0431e8d8 g     F .text	0000007c alt_io_redirect
0431b1b4 g     F .text	000000f4 .hidden __ltdf2
0431f490 g       *ABS*	00000000 __DTOR_END__
0430da3c g     F .text	00000014 puts
0431efac g     F .text	0000009c alt_exception_cause_generated_bad_addr
043161ac g     F .text	00000074 __fpclassifyd
043159cc g     F .text	000000a4 __ratio
04318c78 g     F .text	0000001c __vfiprintf_internal
04305068 g     F .text	000000d4 pt_draw_battle_panel
0431d7e4 g     F .text	0000021c altera_avalon_jtag_uart_read
0430d910 g     F .text	00000030 _printf_r
0430c31c g     F .text	00000064 .hidden __udivsi3
0431c904 g     F .text	000000a4 isatty
0430bf3c g     F .text	000000e0 vga_draw_circle
04304c7c g     F .text	000000a8 pt_draw_snake_hud_panel
043200a8 g     O .rodata	000000c8 __mprec_tens
043145e8 g     F .text	0000000c __locale_charset
04303d60 g     F .text	00000180 pt_draw_snake_cell_background
0431ef1c g     F .text	00000090 alt_icache_flush
04323b1c g     O .bss	00000004 __malloc_top_pad
0430be90 g     F .text	000000ac vga_draw_rectangle
0430c160 g     F .text	000000c4 process_dynamic_image
04304fc8 g     F .text	000000a0 pt_draw_battle_board_backplate
04321e34 g     O .rwdata	00000004 __mb_cur_max
04314618 g     F .text	0000000c _localeconv_r
04314ff8 g     F .text	0000003c __i2b
043140b0 g     F .text	000004bc __sfvwrite_r
0430da50 g     F .text	00000054 _sbrk_r
04315be8 g     F .text	00000060 _read_r
04321e4c g     O .rwdata	00000004 alt_max_fd
04313fac g     F .text	000000f0 _fclose_r
0430c650 g     F .text	00000030 fflush
04323b18 g     O .bss	00000004 __malloc_max_sbrked_mem
0431c748 g     F .text	00000180 alt_irq_register
04319ebc g     F .text	000008ac .hidden __adddf3
04315774 g     F .text	0000010c __b2d
0430bc10 g     F .text	00000030 vga_init
04319984 g     F .text	00000538 .hidden __umoddi3
0431cad0 g     F .text	000000d4 lseek
0431dee4 g     F .text	00000050 altera_avalon_mutex_first_lock
04321e24 g     O .rwdata	00000004 _global_impure_ptr
04315c48 g     F .text	00000564 _realloc_r
043281ec g       *ABS*	00000000 __bss_end
0431ec44 g     F .text	00000108 alt_tick
0431940c g     F .text	00000578 .hidden __udivdi3
04318f78 g     F .text	00000024 _fputwc_r
04320080 g     O .rodata	00000028 __mprec_bigtens
04314ddc g     F .text	00000104 __s2b
0431c418 g     F .text	000000a8 .hidden __floatunsidf
043154b4 g     F .text	00000060 __mcmp
0430c9f0 g     F .text	00000018 __fp_lock_all
00004000 g       *ABS*	00000000 __alt_mem_vga_mem
0431eba8 g     F .text	0000009c alt_alarm_stop
04323b30 g     O .bss	00000004 alt_irq_active
04303180 g     F .text	00000078 pt_print_shadow
04300ffc g     F .text	00000098 debug_update
000040fc g     F .exceptions	000000d8 alt_irq_handler
04320bac g     O .rwdata	00000028 alt_dev_null
04301094 g     F .text	00000038 debug_note_image_capture_requested
0431dd20 g     F .text	00000054 altera_avalon_mutex_open
0431e568 g     F .text	00000048 alt_dcache_flush_all
04314ee0 g     F .text	00000068 __hi0bits
0431c2bc g     F .text	00000080 .hidden __fixdfsi
04302fb4 g     F .text	0000005c menu_get_selected_screen
04321e6c g       *ABS*	00000000 __ram_rwdata_end
04321e44 g     O .rwdata	00000008 alt_dev_list
0431cf5c g     F .text	000000f8 write
04305bf4 g     F .text	000000d0 pt_draw_battle_win_popup
04321e5c g     O .rwdata	00000008 alt_mutex_list
04320308 g       *ABS*	00000000 __ram_rodata_end
0431c698 g     F .text	000000b0 fstat
0431b1b4 g     F .text	000000f4 .hidden __ledf2
043059c8 g     F .text	0000022c pt_draw_battle_bomb_icon
0431522c g     F .text	00000140 __pow5mult
043046c4 g     F .text	0000018c pt_draw_snake_apple
0431781c g     F .text	0000145c ___vfiprintf_internal_r
04323b2c g     O .bss	00000004 __nlocale_changed
0430c380 g     F .text	00000058 .hidden __umodsi3
043281ec g       *ABS*	00000000 end
04300154 g     F .text	00000054 accel_read_z
04308500 g     F .text	00000098 ship_game_init
0431d328 g     F .text	000000b4 altera_avalon_jtag_uart_init
000041d4 g     F .exceptions	00000074 alt_instruction_exception_entry
0431f490 g       *ABS*	00000000 __CTOR_LIST__
04500000 g       *ABS*	00000000 __alt_stack_pointer
0430bc40 g     F .text	00000084 vga_fill_background
0431c4c0 g     F .text	00000064 .hidden __clzsi2
0430daa4 g     F .text	000000d8 _snprintf_r
04303c10 g     F .text	00000150 pt_menu_draw_option
04303b10 g     F .text	00000100 pt_menu_draw_title
0431da00 g     F .text	00000268 altera_avalon_jtag_uart_write
0430c9e0 g     F .text	00000004 __sfp_lock_acquire
04314864 g     F .text	000000e4 memchr
0431024c g     F .text	000021f8 ___vfprintf_internal_r
0430dc60 g     F .text	00000058 _sprintf_r
0430cb44 g     F .text	00000310 _free_r
04303354 g     F .text	0000013c pt_draw_rx_badge
043145f4 g     F .text	00000010 __locale_mb_cur_max
0431f2dc g     F .text	00000180 __call_exitprocs
04323b28 g     O .bss	00000004 __mlocale_changed
04321e2c g     O .rwdata	00000004 __malloc_sbrk_base
04300000 g     F .text	0000004c _start
04323b40 g     O .bss	00000004 _alt_tick_rate
0431536c g     F .text	00000148 __lshift
04323b44 g     O .bss	00000004 _alt_nticks
0431cce0 g     F .text	000000fc read
0431d164 g     F .text	00000060 alt_sys_init
0431df70 g     F .text	00000044 alt_up_accelerometer_spi_read_address_register
043162fc g     F .text	000001d0 __ssprint_r
04302eb8 g     F .text	00000030 menu_init
0431f1c4 g     F .text	00000118 __register_exitproc
0430ba20 g     F .text	00000084 snake_handle_button
0431de1c g     F .text	00000054 altera_avalon_mutex_unlock
04315034 g     F .text	000001f8 __multiply
0431d68c g     F .text	00000068 altera_avalon_jtag_uart_close
04320308 g       *ABS*	00000000 __ram_rwdata_start
0431f490 g       *ABS*	00000000 __ram_rodata_start
0430df88 g     F .text	000000ec strncpy
043280c4 g     O .bss	00000028 __malloc_current_mallinfo
04315880 g     F .text	0000014c __d2b
04305e0c g     F .text	000000bc pt_draw_canvas_frame
043010cc g     F .text	000001ac debug_accept_current_image_as_draw_background
0431d1c4 g     F .text	00000060 altera_avalon_jtag_uart_read_fd
0431ee78 g     F .text	000000a4 alt_get_fd
0431e410 g     F .text	00000158 alt_busy_sleep
0431e14c g     F .text	000000cc alt_up_accelerometer_spi_read_y_axis
043126d0 g     F .text	00000054 _close_r
0431f148 g     F .text	0000007c memcmp
0431d284 g     F .text	00000050 altera_avalon_jtag_uart_close_fd
043281ec g       *ABS*	00000000 __alt_stack_base
0431d2d4 g     F .text	00000054 altera_avalon_jtag_uart_ioctl_fd
0431257c g     F .text	00000154 __swsetup_r
0431a768 g     F .text	000008e8 .hidden __divdf3
0430c8a0 g     F .text	00000118 __sfp
04315ae4 g     F .text	00000078 __copybits
0432072c g     O .rwdata	00000408 __malloc_av_
0430c9ec g     F .text	00000004 __sinit_lock_release
0431b2a8 g     F .text	00000718 .hidden __muldf3
0430dd24 g     F .text	00000054 __sread
0431ed70 g     F .text	00000108 alt_find_file
0431e5ec g     F .text	000000a4 alt_dev_llist_insert
0431cc20 g     F .text	00000024 __malloc_lock
0431ce40 g     F .text	000000b0 sbrk
04301f5c  w    F .text	00000034 draw_game_update
0430e074 g     F .text	000021d8 ___svfprintf_internal_r
0430c5f4 g     F .text	0000005c _fflush_r
04318d50 g     F .text	000000c4 _calloc_r
043239d0 g       *ABS*	00000000 __bss_start
0430d7e8 g     F .text	00000128 memset
04302e0c g     F .text	000000ac main
04323b3c g     O .bss	00000004 alt_envp
04323b14 g     O .bss	00000004 __malloc_max_total_mem
0431d224 g     F .text	00000060 altera_avalon_jtag_uart_write_fd
0431920c g     F .text	00000018 __swbuf
043031f8 g     F .text	0000015c pt_draw_shadow_box
0430de58 g     F .text	00000008 __sclose
04500000 g       *ABS*	00000000 __alt_heap_limit
0431409c g     F .text	00000014 fclose
0431dd98 g     F .text	00000044 altera_avalon_mutex_lock
04312924 g     F .text	00001688 _dtoa_r
0430cfdc g     F .text	0000080c _malloc_r
04319380 g     F .text	00000030 __ascii_wctomb
04321e50 g     O .rwdata	00000004 alt_errno
04305ec8 g     F .text	00000090 pt_draw_canvas_cell
0430ce54 g     F .text	000000c4 _fwalk
0430c224 g     F .text	00000084 .hidden __divsi3
0430ca20 g     F .text	00000124 _malloc_trim_r
0431f490 g       *ABS*	00000000 __CTOR_END__
04316220 g     F .text	000000dc strcmp
04300fac g     F .text	00000050 debug_init
0431f490 g       *ABS*	00000000 __flash_rodata_start
0431f490 g       *ABS*	00000000 __DTOR_LIST__
0431b050 g     F .text	00000088 .hidden __nedf2
0431d12c g     F .text	00000038 alt_irq_init
0431cddc g     F .text	00000064 alt_release_fd
0430dcb8 g     F .text	0000006c sprintf
043201b0 g     O .rodata	00000100 .hidden __clz_tab
04323b24 g     O .bss	00000004 _PathLocale
0431f048 g     F .text	00000014 atexit
0431251c g     F .text	00000060 _write_r
04314624 g     F .text	00000018 setlocale
04321e28 g     O .rwdata	00000004 _impure_ptr
04323b34 g     O .bss	00000004 alt_argc
0430c3d8 g     F .text	0000021c __sflush_r
0431e6f0 g     F .text	00000060 _do_dtors
04314610 g     F .text	00000008 __locale_cjk_lang
00004020 g       .exceptions	00000000 alt_irq_entry
04301278 g     F .text	00000078 debug_display_irq_capture_from_sdram
04315710 g     F .text	00000064 __ulp
0430ca08 g     F .text	00000018 __fp_unlock_all
04321e3c g     O .rwdata	00000008 alt_fs_list
04304850 g     F .text	000001b4 pt_draw_snake_wall
04303ee0 g     F .text	00000194 pt_draw_snake_background
00004020 g       *ABS*	00000000 __ram_exceptions_start
0431df34 g     F .text	0000003c alt_up_accelerometer_spi_open_dev
0431463c g     F .text	0000000c localeconv
04000000 g       *ABS*	00000000 __alt_mem_new_sdram_controller_0
04308598 g     F .text	00000078 ship_game_update
04321e6c g       *ABS*	00000000 _edata
043281ec g       *ABS*	00000000 _end
04318e14 g     F .text	00000164 __fputwc
00004248 g       *ABS*	00000000 __ram_exceptions_end
0431d6f4 g     F .text	000000f0 altera_avalon_jtag_uart_ioctl
0431f094 g     F .text	0000009c _fputs_r
0430bcc4 g     F .text	000001cc vga_print_software_text
0430004c g     F .text	00000060 accel_init
0430dd80 g     F .text	0000007c __swrite
04321e30 g     O .rwdata	00000004 __malloc_trim_threshold
04314604 g     F .text	0000000c __locale_msgcharset
0430034c g     F .text	0000002c debug_irq_tx_set_false
0431f05c g     F .text	00000038 exit
0430cf18 g     F .text	000000c4 _fwalk_reent
04315514 g     F .text	000001fc __mdiff
0430c2a8 g     F .text	00000074 .hidden __modsi3
0431e218 g     F .text	000000cc alt_up_accelerometer_spi_read_z_axis
04500000 g       *ABS*	00000000 __alt_data_end
00004020 g     F .exceptions	00000000 alt_exception
0430c9e4 g     F .text	00000004 __sfp_lock_release
04304d24 g     F .text	00000104 pt_draw_snake_lose_screen
04304074 g     F .text	00000134 pt_draw_snake_frame
04302ee8 g     F .text	000000cc menu_draw
04304a04 g     F .text	00000278 pt_draw_snake_portal
0431f45c g     F .text	00000034 _exit
0431e2e4 g     F .text	0000012c alt_alarm_start
0431dfb4 g     F .text	00000068 alt_up_accelerometer_spi_read
0431e01c g     F .text	00000064 alt_up_accelerometer_spi_write
043146a8 g     F .text	000001bc __smakebuf_r
0430def0 g     F .text	00000098 strlen
0431ea54 g     F .text	00000154 open
0431b0d8 g     F .text	000000dc .hidden __gedf2
04303808 g     F .text	00000308 pt_menu_draw_background
04321e38 g     O .rwdata	00000004 __wctomb
04317804 g     F .text	00000018 __sprint_r
0431e7e0 g     F .text	00000034 alt_icache_flush_all
0431f130 g     F .text	00000018 fputs
04321e54 g     O .rwdata	00000004 alt_priority_mask
0430c01c g     F .text	000000a4 vga_draw_image
04312444 g     F .text	0000001c __vfprintf_internal
0431dd74 g     F .text	00000024 altera_avalon_mutex_close
043193b0 g     F .text	0000005c _wctomb_r
0431b9c0 g     F .text	000008fc .hidden __subdf3
04314f48 g     F .text	000000b0 __lo0bits
04321e64 g     O .rwdata	00000008 alt_alarm_list
0431e690 g     F .text	00000060 _do_ctors
043084d8 g     F .text	00000028 ship_game_fleet_popup_visible
043192c0 g     F .text	000000c0 wcrtomb
0431c560 g     F .text	000000d0 close
0431ca10 g     F .text	00000084 alt_load
04318f9c g     F .text	00000080 fputwc
0430c9e8 g     F .text	00000004 __sinit_lock_acquire
04304e28 g     F .text	000001a0 pt_draw_battle_background
04314cbc g     F .text	00000120 __multadd
04314c94 g     F .text	00000028 _Bfree



Disassembly of section .entry:

00004000 <__reset>:
#if NIOS2_ICACHE_SIZE > 0 && defined(ALT_ALLOW_CODE_AT_RESET) && (!defined(ALT_SIM_OPTIMIZE) || defined(NIOS2_ECC_PRESENT))
    /* Assume the instruction cache size is always a power of two. */
#if NIOS2_ICACHE_SIZE > 0x8000
    movhi r2, %hi(NIOS2_ICACHE_SIZE)
#else
    movui r2, NIOS2_ICACHE_SIZE
    4000:	00840014 	movui	r2,4096
#endif

0:
    initi r2
    4004:	1001483a 	initi	r2
    addi r2, r2, -NIOS2_ICACHE_LINE_SIZE
    4008:	10bff804 	addi	r2,r2,-32
    bgt r2, zero, 0b
    400c:	00bffd16 	blt	zero,r2,4004 <__alt_data_end+0xfbb04004>
 * Jump to the _start entry point in the .text section if reset code
 * is allowed or if optimizing for RTL simulation.
 */
#if defined(ALT_ALLOW_CODE_AT_RESET) || defined(ALT_SIM_OPTIMIZE)
    /* Jump to the _start entry point in the .text section. */
    movhi r1, %hi(_start)
    4010:	00410c34 	movhi	at,1072
    ori r1, r1, %lo(_start)
    4014:	08400014 	ori	at,at,0
    jmp r1
    4018:	0800683a 	jmp	at
    401c:	00000000 	call	0 <__alt_mem_vga_mem-0x4000>

Disassembly of section .exceptions:

00004020 <alt_exception>:

#else /* ALT_EXCEPTION_STACK disabled */
        /* 
         * Reserve space on normal stack for registers about to be pushed.
         */
        addi  sp, sp, -76
    4020:	deffed04 	addi	sp,sp,-76
         * documentation for details).
         *
         * Leave a gap in the stack frame at 4(sp) for the muldiv handler to
         * store zero into.
         */
        stw   ra,  0(sp)
    4024:	dfc00015 	stw	ra,0(sp)
        stw   r1,   8(sp)
    4028:	d8400215 	stw	at,8(sp)
        stw   r2,  12(sp)
    402c:	d8800315 	stw	r2,12(sp)
        stw   r3,  16(sp)
    4030:	d8c00415 	stw	r3,16(sp)
        stw   r4,  20(sp)
    4034:	d9000515 	stw	r4,20(sp)
        stw   r5,  24(sp)
    4038:	d9400615 	stw	r5,24(sp)
        stw   r6,  28(sp)
    403c:	d9800715 	stw	r6,28(sp)
        stw   r7,  32(sp)
    4040:	d9c00815 	stw	r7,32(sp)
        rdctl r5, estatus   /* Read early to avoid usage stall */
    4044:	000b307a 	rdctl	r5,estatus
        stw   r8,  36(sp)
    4048:	da000915 	stw	r8,36(sp)
        stw   r9,  40(sp)
    404c:	da400a15 	stw	r9,40(sp)
        stw   r10, 44(sp)
    4050:	da800b15 	stw	r10,44(sp)
        stw   r11, 48(sp)
    4054:	dac00c15 	stw	r11,48(sp)
        stw   r12, 52(sp)
    4058:	db000d15 	stw	r12,52(sp)
        stw   r13, 56(sp)
    405c:	db400e15 	stw	r13,56(sp)
        stw   r14, 60(sp)
    4060:	db800f15 	stw	r14,60(sp)
        stw   r15, 64(sp)
    4064:	dbc01015 	stw	r15,64(sp)
        /*
         * ea-4 contains the address of the instruction being executed
         * when the exception occured. For interrupt exceptions, we will
         * will be re-issue the isntruction. Store it in 72(sp)
         */
        stw   r5,  68(sp)  /* estatus */
    4068:	d9401115 	stw	r5,68(sp)
        addi  r15, ea, -4  /* instruction that caused exception */
    406c:	ebffff04 	addi	r15,ea,-4
        stw   r15,  72(sp)
    4070:	dbc01215 	stw	r15,72(sp)
#else
        /*
         * Test to see if the exception was a software exception or caused 
         * by an external interrupt, and vector accordingly.
         */
        rdctl r4, ipending
    4074:	0009313a 	rdctl	r4,ipending
        andi  r2, r5, 1
    4078:	2880004c 	andi	r2,r5,1
        beq   r2, zero, .Lnot_irq
    407c:	10000326 	beq	r2,zero,408c <alt_exception+0x6c>
        beq   r4, zero, .Lnot_irq
    4080:	20000226 	beq	r4,zero,408c <alt_exception+0x6c>
        /*
         * Now that all necessary registers have been preserved, call 
         * alt_irq_handler() to process the interrupts.
         */

        call alt_irq_handler
    4084:	00040fc0 	call	40fc <alt_irq_handler>

        .section .exceptions.irqreturn, "xa"

        br    .Lexception_exit
    4088:	00000706 	br	40a8 <alt_exception+0x88>
         * upon completion, so we write ea (address of instruction *after*
         * the one where the exception occured) into 72(sp). The actual
         * instruction that caused the exception is written in r2, which these
         * handlers will utilize.
         */
        stw ea, 72(sp) /* EA is PC+4 so will skip over instruction causing exception */
    408c:	df401215 	stw	ea,72(sp)
.Lunknown_16bit:
        addi.n r4, r4, 2 /* Need PC+2 to skip over instruction causing exception */
        stw r4, 72(sp)

#else /* CDX is not Enabled and all instructions are 32bits */
        ldw r2, -4(ea) /* Instruction value that caused exception */
    4090:	e8bfff17 	ldw	r2,-4(ea)
         * debugger is present) or go into an infinite loop since the
         * handling behavior is undefined; in that case we will not return here.
         */

        /* Load exception-causing address as first argument (r4) */
        addi   r4, ea, -4
    4094:	e93fff04 	addi	r4,ea,-4

        /* Call the instruction-exception entry */
        call   alt_instruction_exception_entry
    4098:	00041d40 	call	41d4 <alt_instruction_exception_entry>
         * instruction
         *
         * Return code was 0: Skip. The instruction after the exception is
         * already stored in 72(sp).
         */
        bne   r2, r0, .Lexception_exit
    409c:	1000021e 	bne	r2,zero,40a8 <alt_exception+0x88>

        /*
         * Otherwise, modify 72(sp) to re-issue the instruction that caused the
         * exception.
         */
        addi  r15, ea, -4  /* instruction that caused exception */
    40a0:	ebffff04 	addi	r15,ea,-4
        stw   r15,  72(sp)
    40a4:	dbc01215 	stw	r15,72(sp)
        /* 
         * Restore the saved registers, so that all general purpose registers 
         * have been restored to their state at the time the interrupt occured.
         */

        ldw   r5,  68(sp)
    40a8:	d9401117 	ldw	r5,68(sp)
        ldw   ea,  72(sp)  /* This becomes the PC once eret is executed */
    40ac:	df401217 	ldw	ea,72(sp)
        ldw   ra,   0(sp)
    40b0:	dfc00017 	ldw	ra,0(sp)

        wrctl estatus, r5
    40b4:	2801707a 	wrctl	estatus,r5

        ldw   r1,   8(sp)
    40b8:	d8400217 	ldw	at,8(sp)
        ldw   r2,  12(sp)
    40bc:	d8800317 	ldw	r2,12(sp)
        ldw   r3,  16(sp)
    40c0:	d8c00417 	ldw	r3,16(sp)
        ldw   r4,  20(sp)
    40c4:	d9000517 	ldw	r4,20(sp)
        ldw   r5,  24(sp)
    40c8:	d9400617 	ldw	r5,24(sp)
        ldw   r6,  28(sp)
    40cc:	d9800717 	ldw	r6,28(sp)
        ldw   r7,  32(sp)
    40d0:	d9c00817 	ldw	r7,32(sp)

#if defined(ALT_EXCEPTION_STACK) && defined(ALT_STACK_CHECK)
        ldw   et, %gprel(alt_exception_old_stack_limit)(gp)
#endif

        ldw   r8,  36(sp)
    40d4:	da000917 	ldw	r8,36(sp)
        ldw   r9,  40(sp)
    40d8:	da400a17 	ldw	r9,40(sp)
        ldw   r10, 44(sp)
    40dc:	da800b17 	ldw	r10,44(sp)
        ldw   r11, 48(sp)
    40e0:	dac00c17 	ldw	r11,48(sp)
        ldw   r12, 52(sp)
    40e4:	db000d17 	ldw	r12,52(sp)
        ldw   r13, 56(sp)
    40e8:	db400e17 	ldw	r13,56(sp)
        ldw   r14, 60(sp)
    40ec:	db800f17 	ldw	r14,60(sp)
        ldw   r15, 64(sp)
    40f0:	dbc01017 	ldw	r15,64(sp)
        stw   et, %gprel(alt_stack_limit_value)(gp)
        stw   zero, %gprel(alt_exception_old_stack_limit)(gp)
#endif /* ALT_STACK_CHECK */
        ldw   sp,  76(sp)
#else /* ALT_EXCEPTION_STACK disabled */
        addi  sp, sp, 76
    40f4:	dec01304 	addi	sp,sp,76

        /*
         * Return to the interrupted instruction.
         */

        eret
    40f8:	ef80083a 	eret

000040fc <alt_irq_handler>:
 * instruction is present if the macro ALT_CI_INTERRUPT_VECTOR defined.
 */

void alt_irq_handler (void) __attribute__ ((section (".exceptions")));
void alt_irq_handler (void)
{
    40fc:	defff904 	addi	sp,sp,-28
    4100:	dfc00615 	stw	ra,24(sp)
    4104:	df000515 	stw	fp,20(sp)
    4108:	df000504 	addi	fp,sp,20
  
  /*
   * Notify the operating system that we are at interrupt level.
   */ 
  
  ALT_OS_INT_ENTER();
    410c:	0001883a 	nop
#ifndef NIOS2_EIC_PRESENT
static ALT_INLINE alt_u32 ALT_ALWAYS_INLINE alt_irq_pending (void)
{
  alt_u32 active;

  NIOS2_READ_IPENDING (active);
    4110:	0005313a 	rdctl	r2,ipending
    4114:	e0bffe15 	stw	r2,-8(fp)

  return active;
    4118:	e0bffe17 	ldw	r2,-8(fp)
   * Consider the case where the high priority interupt is asserted during
   * the interrupt entry sequence for a lower priority interrupt to see why
   * this is the case.
   */

  active = alt_irq_pending ();
    411c:	e0bffb15 	stw	r2,-20(fp)

  do
  {
    i = 0;
    4120:	e03ffd15 	stw	zero,-12(fp)
    mask = 1;
    4124:	00800044 	movi	r2,1
    4128:	e0bffc15 	stw	r2,-16(fp)
     * called to clear the interrupt condition.
     */

    do
    {
      if (active & mask)
    412c:	e0fffb17 	ldw	r3,-20(fp)
    4130:	e0bffc17 	ldw	r2,-16(fp)
    4134:	1884703a 	and	r2,r3,r2
    4138:	10001526 	beq	r2,zero,4190 <alt_irq_handler+0x94>
      { 
#ifdef ALT_ENHANCED_INTERRUPT_API_PRESENT
        alt_irq[i].handler(alt_irq[i].context); 
#else
        alt_irq[i].handler(alt_irq[i].context, i); 
    413c:	00810cf4 	movhi	r2,1075
    4140:	10a03b04 	addi	r2,r2,-32532
    4144:	e0fffd17 	ldw	r3,-12(fp)
    4148:	180690fa 	slli	r3,r3,3
    414c:	10c5883a 	add	r2,r2,r3
    4150:	10c00017 	ldw	r3,0(r2)
    4154:	00810cf4 	movhi	r2,1075
    4158:	10a03b04 	addi	r2,r2,-32532
    415c:	e13ffd17 	ldw	r4,-12(fp)
    4160:	200890fa 	slli	r4,r4,3
    4164:	1105883a 	add	r2,r2,r4
    4168:	10800104 	addi	r2,r2,4
    416c:	10800017 	ldw	r2,0(r2)
    4170:	e17ffd17 	ldw	r5,-12(fp)
    4174:	1009883a 	mov	r4,r2
    4178:	183ee83a 	callr	r3
#endif
        break;
    417c:	0001883a 	nop
#ifndef NIOS2_EIC_PRESENT
static ALT_INLINE alt_u32 ALT_ALWAYS_INLINE alt_irq_pending (void)
{
  alt_u32 active;

  NIOS2_READ_IPENDING (active);
    4180:	0005313a 	rdctl	r2,ipending
    4184:	e0bfff15 	stw	r2,-4(fp)

  return active;
    4188:	e0bfff17 	ldw	r2,-4(fp)
    418c:	00000706 	br	41ac <alt_irq_handler+0xb0>
      }
      mask <<= 1;
    4190:	e0bffc17 	ldw	r2,-16(fp)
    4194:	1085883a 	add	r2,r2,r2
    4198:	e0bffc15 	stw	r2,-16(fp)
      i++;
    419c:	e0bffd17 	ldw	r2,-12(fp)
    41a0:	10800044 	addi	r2,r2,1
    41a4:	e0bffd15 	stw	r2,-12(fp)

    } while (1);
    41a8:	003fe006 	br	412c <__alt_data_end+0xfbb0412c>

    active = alt_irq_pending ();
    41ac:	e0bffb15 	stw	r2,-20(fp)
    
  } while (active);
    41b0:	e0bffb17 	ldw	r2,-20(fp)
    41b4:	103fda1e 	bne	r2,zero,4120 <__alt_data_end+0xfbb04120>

  /*
   * Notify the operating system that interrupt processing is complete.
   */ 

  ALT_OS_INT_EXIT();
    41b8:	0001883a 	nop
}
    41bc:	0001883a 	nop
    41c0:	e037883a 	mov	sp,fp
    41c4:	dfc00117 	ldw	ra,4(sp)
    41c8:	df000017 	ldw	fp,0(sp)
    41cc:	dec00204 	addi	sp,sp,8
    41d0:	f800283a 	ret

000041d4 <alt_instruction_exception_entry>:
 * that handler if it has been registered. Absent a handler, it will
 * break break or hang as discussed below.
 */
int 
alt_instruction_exception_entry (alt_u32 exception_pc)
{
    41d4:	defffb04 	addi	sp,sp,-20
    41d8:	dfc00415 	stw	ra,16(sp)
    41dc:	df000315 	stw	fp,12(sp)
    41e0:	df000304 	addi	fp,sp,12
    41e4:	e13fff15 	stw	r4,-4(fp)
 * NIOS2_EXCEPTION_CAUSE_NOT_PRESENT. Your handling routine should
 * check the validity of the cause argument before proceeding.
 */
#ifdef NIOS2_HAS_EXTRA_EXCEPTION_INFO
  /* Get exception cause & "badaddr" */
  NIOS2_READ_EXCEPTION(cause);
    41e8:	000531fa 	rdctl	r2,exception
    41ec:	e0bffd15 	stw	r2,-12(fp)
  cause = ( (cause & NIOS2_EXCEPTION_REG_CAUSE_MASK) >>
    41f0:	e0bffd17 	ldw	r2,-12(fp)
    41f4:	10801f0c 	andi	r2,r2,124
    41f8:	1004d0ba 	srli	r2,r2,2
    41fc:	e0bffd15 	stw	r2,-12(fp)
              NIOS2_EXCEPTION_REG_CAUSE_OFST );

  NIOS2_READ_BADADDR(badaddr);
    4200:	0005333a 	rdctl	r2,badaddr
    4204:	e0bffe15 	stw	r2,-8(fp)
#else
  cause = NIOS2_EXCEPTION_CAUSE_NOT_PRESENT;
  badaddr = 0;
#endif /* NIOS2_HAS_EXTRA_EXCEPTION_INFO */

  if(alt_instruction_exception_handler) {
    4208:	d0a75617 	ldw	r2,-25256(gp)
    420c:	10000726 	beq	r2,zero,422c <alt_instruction_exception_entry+0x58>
     * Call handler. Its return value indicates whether the exception-causing
     * instruction should be re-issued. The code that called us,
     * alt_eceptions_entry.S, will look at this value and adjust the ea
     * register as necessary
     */
    return alt_instruction_exception_handler(cause, exception_pc, badaddr);
    4210:	d0a75617 	ldw	r2,-25256(gp)
    4214:	e0fffd17 	ldw	r3,-12(fp)
    4218:	e1bffe17 	ldw	r6,-8(fp)
    421c:	e17fff17 	ldw	r5,-4(fp)
    4220:	1809883a 	mov	r4,r3
    4224:	103ee83a 	callr	r2
    4228:	00000206 	br	4234 <alt_instruction_exception_entry+0x60>
   *    (a peripheral which negates its interrupt output before its
   *    interrupt handler has been executed will cause spurious interrupts)
   */
  else {
#ifdef NIOS2_HAS_DEBUG_STUB
    NIOS2_BREAK();
    422c:	003da03a 	break	0
      ;
#endif /* NIOS2_HAS_DEBUG_STUB */
  }

  /* We should not get here. Remove compiler warning. */
  return NIOS2_EXCEPTION_RETURN_REISSUE_INST;
    4230:	0005883a 	mov	r2,zero
}
    4234:	e037883a 	mov	sp,fp
    4238:	dfc00117 	ldw	ra,4(sp)
    423c:	df000017 	ldw	fp,0(sp)
    4240:	dec00204 	addi	sp,sp,8
    4244:	f800283a 	ret

Disassembly of section .text:

04300000 <_start>:

    /* Assume the data cache size is always a power of two. */
#if NIOS2_DCACHE_SIZE > 0x8000
    movhi r2, %hi(NIOS2_DCACHE_SIZE)
#else
    movui r2, NIOS2_DCACHE_SIZE
 4300000:	00820014 	movui	r2,2048
#endif

0:
    initd 0(r2)
 4300004:	10000033 	initd	0(r2)
#ifdef NIOS2_ECC_PRESENT
    addi r2, r2, -4
#else
    addi r2, r2, -NIOS2_DCACHE_LINE_SIZE
 4300008:	10bff804 	addi	r2,r2,-32
#endif
    bgt r2, zero, 0b
 430000c:	00bffd16 	blt	zero,r2,4300004 <__alt_data_end+0xffe00004>

    /*
     * Now that the caches are initialized, set up the stack pointer and global pointer.
     * The values provided by the linker are assumed to be correctly aligned.
     */
    movhi sp, %hi(__alt_stack_pointer)
 4300010:	06c11434 	movhi	sp,1104
    ori sp, sp, %lo(__alt_stack_pointer)
 4300014:	dec00014 	ori	sp,sp,0
    movhi gp, %hi(_gp)
 4300018:	06810cb4 	movhi	gp,1074
    ori gp, gp, %lo(_gp)
 430001c:	d6a77c14 	ori	gp,gp,40432
 */
#ifndef ALT_SIM_OPTIMIZE
    /* Log that the BSS is about to be cleared. */
    ALT_LOG_PUTS(alt_log_msg_bss)

    movhi r2, %hi(__bss_start)
 4300020:	00810cb4 	movhi	r2,1074
    ori r2, r2, %lo(__bss_start)
 4300024:	108e7414 	ori	r2,r2,14800

    movhi r3, %hi(__bss_end)
 4300028:	00c10cb4 	movhi	r3,1074
    ori r3, r3, %lo(__bss_end)
 430002c:	18e07b14 	ori	r3,r3,33260

    beq r2, r3, 1f
 4300030:	10c00326 	beq	r2,r3,4300040 <_start+0x40>

0:
    stw zero, (r2)
 4300034:	10000015 	stw	zero,0(r2)
    addi r2, r2, 4
 4300038:	10800104 	addi	r2,r2,4
    bltu r2, r3, 0b
 430003c:	10fffd36 	bltu	r2,r3,4300034 <__alt_data_end+0xffe00034>
     * section aren't defined until alt_load() has been called).
     */
    mov   et, zero
#endif

    call alt_load
 4300040:	431ca100 	call	431ca10 <alt_load>

    /* Log that alt_main is about to be called. */
    ALT_LOG_PUTS(alt_log_msg_alt_main)

    /* Call the C entry point. It should never return. */
    call alt_main
 4300044:	431cba40 	call	431cba4 <alt_main>

04300048 <alt_after_alt_main>:

    /* Wait in infinite loop in case alt_main does return. */
alt_after_alt_main:
    br alt_after_alt_main
 4300048:	003fff06 	br	4300048 <__alt_data_end+0xffe00048>

0430004c <accel_init>:
#include "altera_up_avalon_accelerometer_spi.h"

static alt_up_accelerometer_spi_dev *acc_dev = NULL;

int accel_init(void)
{
 430004c:	defffe04 	addi	sp,sp,-8
 4300050:	dfc00115 	stw	ra,4(sp)
 4300054:	df000015 	stw	fp,0(sp)
 4300058:	d839883a 	mov	fp,sp
    acc_dev = alt_up_accelerometer_spi_open_dev("/dev/accelerometer_spi_0");
 430005c:	01010cb4 	movhi	r4,1074
 4300060:	213d2404 	addi	r4,r4,-2928
 4300064:	431df340 	call	431df34 <alt_up_accelerometer_spi_open_dev>
 4300068:	d0a6f815 	stw	r2,-25632(gp)

    if (acc_dev == NULL) {
 430006c:	d0a6f817 	ldw	r2,-25632(gp)
 4300070:	1000051e 	bne	r2,zero,4300088 <accel_init+0x3c>
        alt_putstr("[ACCEL] Failed to open device.\n");
 4300074:	01010cb4 	movhi	r4,1074
 4300078:	213d2b04 	addi	r4,r4,-2900
 430007c:	431cc680 	call	431cc68 <alt_putstr>
        return -1;
 4300080:	00bfffc4 	movi	r2,-1
 4300084:	00000406 	br	4300098 <accel_init+0x4c>
    } else {
        alt_putstr("[ACCEL] Device initialized successfully\n");
 4300088:	01010cb4 	movhi	r4,1074
 430008c:	213d3304 	addi	r4,r4,-2868
 4300090:	431cc680 	call	431cc68 <alt_putstr>
    }

    return 0;
 4300094:	0005883a 	mov	r2,zero
}
 4300098:	e037883a 	mov	sp,fp
 430009c:	dfc00117 	ldw	ra,4(sp)
 43000a0:	df000017 	ldw	fp,0(sp)
 43000a4:	dec00204 	addi	sp,sp,8
 43000a8:	f800283a 	ret

043000ac <accel_read_x>:

int accel_read_x(alt_32 *x)
{
 43000ac:	defffd04 	addi	sp,sp,-12
 43000b0:	dfc00215 	stw	ra,8(sp)
 43000b4:	df000115 	stw	fp,4(sp)
 43000b8:	df000104 	addi	fp,sp,4
 43000bc:	e13fff15 	stw	r4,-4(fp)
    if (acc_dev == NULL || x == NULL)
 43000c0:	d0a6f817 	ldw	r2,-25632(gp)
 43000c4:	10000226 	beq	r2,zero,43000d0 <accel_read_x+0x24>
 43000c8:	e0bfff17 	ldw	r2,-4(fp)
 43000cc:	1000021e 	bne	r2,zero,43000d8 <accel_read_x+0x2c>
        return -1;
 43000d0:	00bfffc4 	movi	r2,-1
 43000d4:	00000506 	br	43000ec <accel_read_x+0x40>

    alt_up_accelerometer_spi_read_x_axis(acc_dev, x);
 43000d8:	d0a6f817 	ldw	r2,-25632(gp)
 43000dc:	e17fff17 	ldw	r5,-4(fp)
 43000e0:	1009883a 	mov	r4,r2
 43000e4:	431e0800 	call	431e080 <alt_up_accelerometer_spi_read_x_axis>
    return 0;
 43000e8:	0005883a 	mov	r2,zero
}
 43000ec:	e037883a 	mov	sp,fp
 43000f0:	dfc00117 	ldw	ra,4(sp)
 43000f4:	df000017 	ldw	fp,0(sp)
 43000f8:	dec00204 	addi	sp,sp,8
 43000fc:	f800283a 	ret

04300100 <accel_read_y>:

int accel_read_y(alt_32 *y)
{
 4300100:	defffd04 	addi	sp,sp,-12
 4300104:	dfc00215 	stw	ra,8(sp)
 4300108:	df000115 	stw	fp,4(sp)
 430010c:	df000104 	addi	fp,sp,4
 4300110:	e13fff15 	stw	r4,-4(fp)
    if (acc_dev == NULL || y == NULL)
 4300114:	d0a6f817 	ldw	r2,-25632(gp)
 4300118:	10000226 	beq	r2,zero,4300124 <accel_read_y+0x24>
 430011c:	e0bfff17 	ldw	r2,-4(fp)
 4300120:	1000021e 	bne	r2,zero,430012c <accel_read_y+0x2c>
        return -1;
 4300124:	00bfffc4 	movi	r2,-1
 4300128:	00000506 	br	4300140 <accel_read_y+0x40>

    alt_up_accelerometer_spi_read_y_axis(acc_dev, y);
 430012c:	d0a6f817 	ldw	r2,-25632(gp)
 4300130:	e17fff17 	ldw	r5,-4(fp)
 4300134:	1009883a 	mov	r4,r2
 4300138:	431e14c0 	call	431e14c <alt_up_accelerometer_spi_read_y_axis>
    return 0;
 430013c:	0005883a 	mov	r2,zero
}
 4300140:	e037883a 	mov	sp,fp
 4300144:	dfc00117 	ldw	ra,4(sp)
 4300148:	df000017 	ldw	fp,0(sp)
 430014c:	dec00204 	addi	sp,sp,8
 4300150:	f800283a 	ret

04300154 <accel_read_z>:

int accel_read_z(alt_32 *z)
{
 4300154:	defffd04 	addi	sp,sp,-12
 4300158:	dfc00215 	stw	ra,8(sp)
 430015c:	df000115 	stw	fp,4(sp)
 4300160:	df000104 	addi	fp,sp,4
 4300164:	e13fff15 	stw	r4,-4(fp)
    if (acc_dev == NULL || z == NULL)
 4300168:	d0a6f817 	ldw	r2,-25632(gp)
 430016c:	10000226 	beq	r2,zero,4300178 <accel_read_z+0x24>
 4300170:	e0bfff17 	ldw	r2,-4(fp)
 4300174:	1000021e 	bne	r2,zero,4300180 <accel_read_z+0x2c>
        return -1;
 4300178:	00bfffc4 	movi	r2,-1
 430017c:	00000506 	br	4300194 <accel_read_z+0x40>

    alt_up_accelerometer_spi_read_z_axis(acc_dev, z);
 4300180:	d0a6f817 	ldw	r2,-25632(gp)
 4300184:	e17fff17 	ldw	r5,-4(fp)
 4300188:	1009883a 	mov	r4,r2
 430018c:	431e2180 	call	431e218 <alt_up_accelerometer_spi_read_z_axis>
    return 0;
 4300190:	0005883a 	mov	r2,zero
}
 4300194:	e037883a 	mov	sp,fp
 4300198:	dfc00117 	ldw	ra,4(sp)
 430019c:	df000017 	ldw	fp,0(sp)
 43001a0:	dec00204 	addi	sp,sp,8
 43001a4:	f800283a 	ret

043001a8 <read_u16_le>:
static uint32_t last_image_seq = 0;
static int current_image_valid = 0;
static int debug_last_line_is_text_fragment = 0;

static uint16_t read_u16_le(volatile uint8_t *p)
{
 43001a8:	defffe04 	addi	sp,sp,-8
 43001ac:	df000115 	stw	fp,4(sp)
 43001b0:	df000104 	addi	fp,sp,4
 43001b4:	e13fff15 	stw	r4,-4(fp)
    return ((uint16_t)p[0]) | ((uint16_t)p[1] << 8);
 43001b8:	e0bfff17 	ldw	r2,-4(fp)
 43001bc:	10800003 	ldbu	r2,0(r2)
 43001c0:	10803fcc 	andi	r2,r2,255
 43001c4:	e0ffff17 	ldw	r3,-4(fp)
 43001c8:	18c00044 	addi	r3,r3,1
 43001cc:	18c00003 	ldbu	r3,0(r3)
 43001d0:	18c03fcc 	andi	r3,r3,255
 43001d4:	1806923a 	slli	r3,r3,8
 43001d8:	10c4b03a 	or	r2,r2,r3
}
 43001dc:	e037883a 	mov	sp,fp
 43001e0:	df000017 	ldw	fp,0(sp)
 43001e4:	dec00104 	addi	sp,sp,4
 43001e8:	f800283a 	ret

043001ec <read_u32_le>:

static uint32_t read_u32_le(volatile uint8_t *p)
{
 43001ec:	defffe04 	addi	sp,sp,-8
 43001f0:	df000115 	stw	fp,4(sp)
 43001f4:	df000104 	addi	fp,sp,4
 43001f8:	e13fff15 	stw	r4,-4(fp)
    return ((uint32_t)p[0]) |
 43001fc:	e0bfff17 	ldw	r2,-4(fp)
 4300200:	10800003 	ldbu	r2,0(r2)
 4300204:	10c03fcc 	andi	r3,r2,255
           ((uint32_t)p[1] << 8) |
 4300208:	e0bfff17 	ldw	r2,-4(fp)
 430020c:	10800044 	addi	r2,r2,1
 4300210:	10800003 	ldbu	r2,0(r2)
 4300214:	10803fcc 	andi	r2,r2,255
 4300218:	1004923a 	slli	r2,r2,8
    return ((uint16_t)p[0]) | ((uint16_t)p[1] << 8);
}

static uint32_t read_u32_le(volatile uint8_t *p)
{
    return ((uint32_t)p[0]) |
 430021c:	1886b03a 	or	r3,r3,r2
           ((uint32_t)p[1] << 8) |
           ((uint32_t)p[2] << 16) |
 4300220:	e0bfff17 	ldw	r2,-4(fp)
 4300224:	10800084 	addi	r2,r2,2
 4300228:	10800003 	ldbu	r2,0(r2)
 430022c:	10803fcc 	andi	r2,r2,255
 4300230:	1004943a 	slli	r2,r2,16
}

static uint32_t read_u32_le(volatile uint8_t *p)
{
    return ((uint32_t)p[0]) |
           ((uint32_t)p[1] << 8) |
 4300234:	1886b03a 	or	r3,r3,r2
           ((uint32_t)p[2] << 16) |
           ((uint32_t)p[3] << 24);
 4300238:	e0bfff17 	ldw	r2,-4(fp)
 430023c:	108000c4 	addi	r2,r2,3
 4300240:	10800003 	ldbu	r2,0(r2)
 4300244:	10803fcc 	andi	r2,r2,255
 4300248:	1004963a 	slli	r2,r2,24
    return ((uint16_t)p[0]) | ((uint16_t)p[1] << 8);
}

static uint32_t read_u32_le(volatile uint8_t *p)
{
    return ((uint32_t)p[0]) |
 430024c:	1884b03a 	or	r2,r3,r2
           ((uint32_t)p[1] << 8) |
           ((uint32_t)p[2] << 16) |
           ((uint32_t)p[3] << 24);
}
 4300250:	e037883a 	mov	sp,fp
 4300254:	df000017 	ldw	fp,0(sp)
 4300258:	dec00104 	addi	sp,sp,4
 430025c:	f800283a 	ret

04300260 <shared_read32>:

static uint32_t shared_read32(uint32_t offset)
{
 4300260:	defffe04 	addi	sp,sp,-8
 4300264:	df000115 	stw	fp,4(sp)
 4300268:	df000104 	addi	fp,sp,4
 430026c:	e13fff15 	stw	r4,-4(fp)
    return IORD_32DIRECT(SHARED_FLAGS_BASE, offset);
 4300270:	e0ffff17 	ldw	r3,-4(fp)
 4300274:	00814874 	movhi	r2,1313
 4300278:	10880004 	addi	r2,r2,8192
 430027c:	1885883a 	add	r2,r3,r2
 4300280:	10800037 	ldwio	r2,0(r2)
}
 4300284:	e037883a 	mov	sp,fp
 4300288:	df000017 	ldw	fp,0(sp)
 430028c:	dec00104 	addi	sp,sp,4
 4300290:	f800283a 	ret

04300294 <shared_write32>:

static void shared_write32(uint32_t offset, uint32_t value)
{
 4300294:	defffd04 	addi	sp,sp,-12
 4300298:	df000215 	stw	fp,8(sp)
 430029c:	df000204 	addi	fp,sp,8
 43002a0:	e13ffe15 	stw	r4,-8(fp)
 43002a4:	e17fff15 	stw	r5,-4(fp)
    IOWR_32DIRECT(SHARED_FLAGS_BASE, offset, value);
 43002a8:	e0fffe17 	ldw	r3,-8(fp)
 43002ac:	00814874 	movhi	r2,1313
 43002b0:	10880004 	addi	r2,r2,8192
 43002b4:	1885883a 	add	r2,r3,r2
 43002b8:	e0ffff17 	ldw	r3,-4(fp)
 43002bc:	10c00035 	stwio	r3,0(r2)
}
 43002c0:	0001883a 	nop
 43002c4:	e037883a 	mov	sp,fp
 43002c8:	df000017 	ldw	fp,0(sp)
 43002cc:	dec00104 	addi	sp,sp,4
 43002d0:	f800283a 	ret

043002d4 <shared_write8>:

static void shared_write8(uint32_t offset, uint8_t value)
{
 43002d4:	defffc04 	addi	sp,sp,-16
 43002d8:	df000315 	stw	fp,12(sp)
 43002dc:	df000304 	addi	fp,sp,12
 43002e0:	e13ffe15 	stw	r4,-8(fp)
 43002e4:	2805883a 	mov	r2,r5
 43002e8:	e0bfff05 	stb	r2,-4(fp)
    volatile uint8_t *p = (volatile uint8_t *)(SHARED_FLAGS_BASE + offset);
 43002ec:	e0fffe17 	ldw	r3,-8(fp)
 43002f0:	00814874 	movhi	r2,1313
 43002f4:	10880004 	addi	r2,r2,8192
 43002f8:	1885883a 	add	r2,r3,r2
 43002fc:	e0bffd15 	stw	r2,-12(fp)
    *p = value;
 4300300:	e0bffd17 	ldw	r2,-12(fp)
 4300304:	e0ffff03 	ldbu	r3,-4(fp)
 4300308:	10c00005 	stb	r3,0(r2)
}
 430030c:	0001883a 	nop
 4300310:	e037883a 	mov	sp,fp
 4300314:	df000017 	ldw	fp,0(sp)
 4300318:	dec00104 	addi	sp,sp,4
 430031c:	f800283a 	ret

04300320 <vga_irq_tx_set_true>:

static void vga_irq_tx_set_true(void)
{
 4300320:	deffff04 	addi	sp,sp,-4
 4300324:	df000015 	stw	fp,0(sp)
 4300328:	d839883a 	mov	fp,sp
    IOWR_ALTERA_AVALON_PIO_DATA(VGA_IRQ_TX_BASE, VGA_IRQ_TX_ACTIVE_MASK);
 430032c:	00c00044 	movi	r3,1
 4300330:	00a41c14 	movui	r2,36976
 4300334:	10c00035 	stwio	r3,0(r2)
}
 4300338:	0001883a 	nop
 430033c:	e037883a 	mov	sp,fp
 4300340:	df000017 	ldw	fp,0(sp)
 4300344:	dec00104 	addi	sp,sp,4
 4300348:	f800283a 	ret

0430034c <debug_irq_tx_set_false>:

void debug_irq_tx_set_false(void)
{
 430034c:	deffff04 	addi	sp,sp,-4
 4300350:	df000015 	stw	fp,0(sp)
 4300354:	d839883a 	mov	fp,sp
    IOWR_ALTERA_AVALON_PIO_DATA(VGA_IRQ_TX_BASE, 0x0);
 4300358:	0007883a 	mov	r3,zero
 430035c:	00a41c14 	movui	r2,36976
 4300360:	10c00035 	stwio	r3,0(r2)
}
 4300364:	0001883a 	nop
 4300368:	e037883a 	mov	sp,fp
 430036c:	df000017 	ldw	fp,0(sp)
 4300370:	dec00104 	addi	sp,sp,4
 4300374:	f800283a 	ret

04300378 <packet_ready>:

static int packet_ready(void)
{
 4300378:	defffe04 	addi	sp,sp,-8
 430037c:	df000115 	stw	fp,4(sp)
 4300380:	df000104 	addi	fp,sp,4
    volatile uint8_t *status = (volatile uint8_t *)STATUS_BASE;
 4300384:	00814874 	movhi	r2,1313
 4300388:	10a40004 	addi	r2,r2,-28672
 430038c:	e0bfff15 	stw	r2,-4(fp)

    return (status[STATUS_MAGIC0_OFS] == 'G' &&
 4300390:	e0bfff17 	ldw	r2,-4(fp)
 4300394:	10800003 	ldbu	r2,0(r2)
 4300398:	10803fcc 	andi	r2,r2,255
 430039c:	108011d8 	cmpnei	r2,r2,71
 43003a0:	1000081e 	bne	r2,zero,43003c4 <packet_ready+0x4c>
            status[STATUS_MAGIC1_OFS] == 'V');
 43003a4:	e0bfff17 	ldw	r2,-4(fp)
 43003a8:	10800044 	addi	r2,r2,1
 43003ac:	10800003 	ldbu	r2,0(r2)

static int packet_ready(void)
{
    volatile uint8_t *status = (volatile uint8_t *)STATUS_BASE;

    return (status[STATUS_MAGIC0_OFS] == 'G' &&
 43003b0:	10803fcc 	andi	r2,r2,255
 43003b4:	10801598 	cmpnei	r2,r2,86
 43003b8:	1000021e 	bne	r2,zero,43003c4 <packet_ready+0x4c>
 43003bc:	00800044 	movi	r2,1
 43003c0:	00000106 	br	43003c8 <packet_ready+0x50>
 43003c4:	0005883a 	mov	r2,zero
            status[STATUS_MAGIC1_OFS] == 'V');
}
 43003c8:	e037883a 	mov	sp,fp
 43003cc:	df000017 	ldw	fp,0(sp)
 43003d0:	dec00104 	addi	sp,sp,4
 43003d4:	f800283a 	ret

043003d8 <get_text_len>:

static uint16_t get_text_len(void)
{
 43003d8:	defffd04 	addi	sp,sp,-12
 43003dc:	dfc00215 	stw	ra,8(sp)
 43003e0:	df000115 	stw	fp,4(sp)
 43003e4:	df000104 	addi	fp,sp,4
    volatile uint8_t *status = (volatile uint8_t *)STATUS_BASE;
 43003e8:	00814874 	movhi	r2,1313
 43003ec:	10a40004 	addi	r2,r2,-28672
 43003f0:	e0bfff15 	stw	r2,-4(fp)
    return read_u16_le(&status[STATUS_TEXT_LEN_OFS]);
 43003f4:	e0bfff17 	ldw	r2,-4(fp)
 43003f8:	10800204 	addi	r2,r2,8
 43003fc:	1009883a 	mov	r4,r2
 4300400:	43001a80 	call	43001a8 <read_u16_le>
}
 4300404:	e037883a 	mov	sp,fp
 4300408:	dfc00117 	ldw	ra,4(sp)
 430040c:	df000017 	ldw	fp,0(sp)
 4300410:	dec00204 	addi	sp,sp,8
 4300414:	f800283a 	ret

04300418 <get_image_len>:

static uint32_t get_image_len(void)
{
 4300418:	defffd04 	addi	sp,sp,-12
 430041c:	dfc00215 	stw	ra,8(sp)
 4300420:	df000115 	stw	fp,4(sp)
 4300424:	df000104 	addi	fp,sp,4
    volatile uint8_t *status = (volatile uint8_t *)STATUS_BASE;
 4300428:	00814874 	movhi	r2,1313
 430042c:	10a40004 	addi	r2,r2,-28672
 4300430:	e0bfff15 	stw	r2,-4(fp)
    return read_u32_le(&status[STATUS_IMAGE_LEN_OFS]);
 4300434:	e0bfff17 	ldw	r2,-4(fp)
 4300438:	10800404 	addi	r2,r2,16
 430043c:	1009883a 	mov	r4,r2
 4300440:	43001ec0 	call	43001ec <read_u32_le>
}
 4300444:	e037883a 	mov	sp,fp
 4300448:	dfc00117 	ldw	ra,4(sp)
 430044c:	df000017 	ldw	fp,0(sp)
 4300450:	dec00204 	addi	sp,sp,8
 4300454:	f800283a 	ret

04300458 <rgb332_to_vga_color>:

static uint8_t rgb332_to_vga_color(uint8_t rgb332)
{
 4300458:	defffe04 	addi	sp,sp,-8
 430045c:	df000115 	stw	fp,4(sp)
 4300460:	df000104 	addi	fp,sp,4
 4300464:	2005883a 	mov	r2,r4
 4300468:	e0bfff05 	stb	r2,-4(fp)
           bit 7..5 = red, bit 4..2 = green, bit 1..0 = blue.

       Packet size is unchanged from grayscale because both formats are
       1 byte/pixel at 96x96.
    */
    return rgb332;
 430046c:	e0bfff03 	ldbu	r2,-4(fp)
}
 4300470:	e037883a 	mov	sp,fp
 4300474:	df000017 	ldw	fp,0(sp)
 4300478:	dec00104 	addi	sp,sp,4
 430047c:	f800283a 	ret

04300480 <draw_image_from_sdram>:

static void draw_image_from_sdram(void)
{
 4300480:	defff704 	addi	sp,sp,-36
 4300484:	dfc00815 	stw	ra,32(sp)
 4300488:	df000715 	stw	fp,28(sp)
 430048c:	df000704 	addi	fp,sp,28
    volatile uint8_t *img = (volatile uint8_t *)IMAGE_BUFFER_BASE;
 4300490:	00814874 	movhi	r2,1313
 4300494:	10a80004 	addi	r2,r2,-24576
 4300498:	e0bffc15 	stw	r2,-16(fp)
    int x;
    int y;

    for (y = 0; y < IMAGE_BOX_H; y++)
 430049c:	e03ffb15 	stw	zero,-20(fp)
 43004a0:	00002f06 	br	4300560 <draw_image_from_sdram+0xe0>
    {
        int src_y = (y * IMAGE_H) / IMAGE_BOX_H;
 43004a4:	e0bffb17 	ldw	r2,-20(fp)
 43004a8:	10801824 	muli	r2,r2,96
 43004ac:	01401804 	movi	r5,96
 43004b0:	1009883a 	mov	r4,r2
 43004b4:	430c2240 	call	430c224 <__divsi3>
 43004b8:	e0bffd15 	stw	r2,-12(fp)

        for (x = 0; x < IMAGE_BOX_W; x++)
 43004bc:	e03ffa15 	stw	zero,-24(fp)
 43004c0:	00002106 	br	4300548 <draw_image_from_sdram+0xc8>
        {
            int src_x = (x * IMAGE_W) / IMAGE_BOX_W;
 43004c4:	e0bffa17 	ldw	r2,-24(fp)
 43004c8:	10801824 	muli	r2,r2,96
 43004cc:	01401804 	movi	r5,96
 43004d0:	1009883a 	mov	r4,r2
 43004d4:	430c2240 	call	430c224 <__divsi3>
 43004d8:	e0bffe15 	stw	r2,-8(fp)
            uint8_t rgb332 = img[src_y * IMAGE_W + src_x];
 43004dc:	e0bffd17 	ldw	r2,-12(fp)
 43004e0:	10c01824 	muli	r3,r2,96
 43004e4:	e0bffe17 	ldw	r2,-8(fp)
 43004e8:	1885883a 	add	r2,r3,r2
 43004ec:	1007883a 	mov	r3,r2
 43004f0:	e0bffc17 	ldw	r2,-16(fp)
 43004f4:	10c5883a 	add	r2,r2,r3
 43004f8:	10800003 	ldbu	r2,0(r2)
 43004fc:	e0bfff05 	stb	r2,-4(fp)
            uint8_t color = rgb332_to_vga_color(rgb332);
 4300500:	e0bfff03 	ldbu	r2,-4(fp)
 4300504:	1009883a 	mov	r4,r2
 4300508:	43004580 	call	4300458 <rgb332_to_vga_color>
 430050c:	e0bfff45 	stb	r2,-3(fp)

            vga_draw_rectangle(IMAGE_BOX_X + x,
 4300510:	e0bffa17 	ldw	r2,-24(fp)
 4300514:	10c01c04 	addi	r3,r2,112
 4300518:	e0bffb17 	ldw	r2,-20(fp)
 430051c:	11000404 	addi	r4,r2,16
 4300520:	e0bfff43 	ldbu	r2,-3(fp)
 4300524:	d8800015 	stw	r2,0(sp)
 4300528:	01c00044 	movi	r7,1
 430052c:	01800044 	movi	r6,1
 4300530:	200b883a 	mov	r5,r4
 4300534:	1809883a 	mov	r4,r3
 4300538:	430be900 	call	430be90 <vga_draw_rectangle>

    for (y = 0; y < IMAGE_BOX_H; y++)
    {
        int src_y = (y * IMAGE_H) / IMAGE_BOX_H;

        for (x = 0; x < IMAGE_BOX_W; x++)
 430053c:	e0bffa17 	ldw	r2,-24(fp)
 4300540:	10800044 	addi	r2,r2,1
 4300544:	e0bffa15 	stw	r2,-24(fp)
 4300548:	e0bffa17 	ldw	r2,-24(fp)
 430054c:	10801810 	cmplti	r2,r2,96
 4300550:	103fdc1e 	bne	r2,zero,43004c4 <__alt_data_end+0xffe004c4>
{
    volatile uint8_t *img = (volatile uint8_t *)IMAGE_BUFFER_BASE;
    int x;
    int y;

    for (y = 0; y < IMAGE_BOX_H; y++)
 4300554:	e0bffb17 	ldw	r2,-20(fp)
 4300558:	10800044 	addi	r2,r2,1
 430055c:	e0bffb15 	stw	r2,-20(fp)
 4300560:	e0bffb17 	ldw	r2,-20(fp)
 4300564:	10801810 	cmplti	r2,r2,96
 4300568:	103fce1e 	bne	r2,zero,43004a4 <__alt_data_end+0xffe004a4>
                               1,
                               color);
        }
    }

    current_image_valid = 1;
 430056c:	00800044 	movi	r2,1
 4300570:	d0a6fc15 	stw	r2,-25616(gp)
    shared_write32(FLAG_DEBUG_STATUS, DEBUG_STATUS_IMAGE_READY);
 4300574:	01400084 	movi	r5,2
 4300578:	01021304 	movi	r4,2124
 430057c:	43002940 	call	4300294 <shared_write32>
}
 4300580:	0001883a 	nop
 4300584:	e037883a 	mov	sp,fp
 4300588:	dfc00117 	ldw	ra,4(sp)
 430058c:	df000017 	ldw	fp,0(sp)
 4300590:	dec00204 	addi	sp,sp,8
 4300594:	f800283a 	ret

04300598 <draw_image_frame>:

static void draw_image_frame(void)
{
 4300598:	defffb04 	addi	sp,sp,-20
 430059c:	dfc00415 	stw	ra,16(sp)
 43005a0:	df000315 	stw	fp,12(sp)
 43005a4:	df000304 	addi	fp,sp,12
    vga_draw_rectangle(0, 0, 320, 140, PT_WATER_DARK);
 43005a8:	00800184 	movi	r2,6
 43005ac:	d8800015 	stw	r2,0(sp)
 43005b0:	01c02304 	movi	r7,140
 43005b4:	01805004 	movi	r6,320
 43005b8:	000b883a 	mov	r5,zero
 43005bc:	0009883a 	mov	r4,zero
 43005c0:	430be900 	call	430be90 <vga_draw_rectangle>
    vga_draw_rectangle(0, 0, 320, 24, PT_WOOD_DARK);
 43005c4:	00801104 	movi	r2,68
 43005c8:	d8800015 	stw	r2,0(sp)
 43005cc:	01c00604 	movi	r7,24
 43005d0:	01805004 	movi	r6,320
 43005d4:	000b883a 	mov	r5,zero
 43005d8:	0009883a 	mov	r4,zero
 43005dc:	430be900 	call	430be90 <vga_draw_rectangle>
    vga_draw_rectangle(0, 24, 320, 2, PT_GOLD);
 43005e0:	00803d04 	movi	r2,244
 43005e4:	d8800015 	stw	r2,0(sp)
 43005e8:	01c00084 	movi	r7,2
 43005ec:	01805004 	movi	r6,320
 43005f0:	01400604 	movi	r5,24
 43005f4:	0009883a 	mov	r4,zero
 43005f8:	430be900 	call	430be90 <vga_draw_rectangle>
    pt_print_shadow(8, 8, "DEBUG DOCK", PT_GOLD);
 43005fc:	01c03d04 	movi	r7,244
 4300600:	01810cb4 	movhi	r6,1074
 4300604:	31bd3e04 	addi	r6,r6,-2824
 4300608:	01400204 	movi	r5,8
 430060c:	01000204 	movi	r4,8
 4300610:	43031800 	call	4303180 <pt_print_shadow>

    pt_draw_shadow_box(IMAGE_BOX_X - 5,
 4300614:	00800944 	movi	r2,37
 4300618:	d8800215 	stw	r2,8(sp)
 430061c:	00803d04 	movi	r2,244
 4300620:	d8800115 	stw	r2,4(sp)
 4300624:	00801104 	movi	r2,68
 4300628:	d8800015 	stw	r2,0(sp)
 430062c:	01c01a84 	movi	r7,106
 4300630:	01801a84 	movi	r6,106
 4300634:	014002c4 	movi	r5,11
 4300638:	01001ac4 	movi	r4,107
 430063c:	43031f80 	call	43031f8 <pt_draw_shadow_box>
                       IMAGE_BOX_W + 10,
                       IMAGE_BOX_H + 10,
                       PT_WOOD_DARK,
                       PT_GOLD,
                       PT_SHADOW);
    vga_draw_rectangle(IMAGE_BOX_X,
 4300640:	d8000015 	stw	zero,0(sp)
 4300644:	01c01804 	movi	r7,96
 4300648:	01801804 	movi	r6,96
 430064c:	01400404 	movi	r5,16
 4300650:	01001c04 	movi	r4,112
 4300654:	430be900 	call	430be90 <vga_draw_rectangle>
                       IMAGE_BOX_Y,
                       IMAGE_BOX_W,
                       IMAGE_BOX_H,
                       VGA_BLACK);
}
 4300658:	0001883a 	nop
 430065c:	e037883a 	mov	sp,fp
 4300660:	dfc00117 	ldw	ra,4(sp)
 4300664:	df000017 	ldw	fp,0(sp)
 4300668:	dec00204 	addi	sp,sp,8
 430066c:	f800283a 	ret

04300670 <debug_image_buffer_should_be_valid>:

static int debug_image_buffer_should_be_valid(void)
{
 4300670:	defffe04 	addi	sp,sp,-8
 4300674:	dfc00115 	stw	ra,4(sp)
 4300678:	df000015 	stw	fp,0(sp)
 430067c:	d839883a 	mov	fp,sp
    if (current_image_valid)
 4300680:	d0a6fc17 	ldw	r2,-25616(gp)
 4300684:	10000226 	beq	r2,zero,4300690 <debug_image_buffer_should_be_valid+0x20>
        return 1;
 4300688:	00800044 	movi	r2,1
 430068c:	00001606 	br	43006e8 <debug_image_buffer_should_be_valid+0x78>

    if (shared_read32(FLAG_IMAGE_READY) != 0)
 4300690:	01000904 	movi	r4,36
 4300694:	43002600 	call	4300260 <shared_read32>
 4300698:	10000226 	beq	r2,zero,43006a4 <debug_image_buffer_should_be_valid+0x34>
        return 1;
 430069c:	00800044 	movi	r2,1
 43006a0:	00001106 	br	43006e8 <debug_image_buffer_should_be_valid+0x78>

    if (shared_read32(FLAG_DEBUG_STATUS) == DEBUG_STATUS_IMAGE_READY ||
 43006a4:	01021304 	movi	r4,2124
 43006a8:	43002600 	call	4300260 <shared_read32>
 43006ac:	108000a0 	cmpeqi	r2,r2,2
 43006b0:	1000041e 	bne	r2,zero,43006c4 <debug_image_buffer_should_be_valid+0x54>
        shared_read32(FLAG_DEBUG_STATUS) == DEBUG_STATUS_BG_ACCEPTED)
 43006b4:	01021304 	movi	r4,2124
 43006b8:	43002600 	call	4300260 <shared_read32>
        return 1;

    if (shared_read32(FLAG_IMAGE_READY) != 0)
        return 1;

    if (shared_read32(FLAG_DEBUG_STATUS) == DEBUG_STATUS_IMAGE_READY ||
 43006bc:	108000d8 	cmpnei	r2,r2,3
 43006c0:	1000021e 	bne	r2,zero,43006cc <debug_image_buffer_should_be_valid+0x5c>
        shared_read32(FLAG_DEBUG_STATUS) == DEBUG_STATUS_BG_ACCEPTED)
        return 1;
 43006c4:	00800044 	movi	r2,1
 43006c8:	00000706 	br	43006e8 <debug_image_buffer_should_be_valid+0x78>

    if (packet_ready() && get_image_len() > 0)
 43006cc:	43003780 	call	4300378 <packet_ready>
 43006d0:	10000426 	beq	r2,zero,43006e4 <debug_image_buffer_should_be_valid+0x74>
 43006d4:	43004180 	call	4300418 <get_image_len>
 43006d8:	10000226 	beq	r2,zero,43006e4 <debug_image_buffer_should_be_valid+0x74>
        return 1;
 43006dc:	00800044 	movi	r2,1
 43006e0:	00000106 	br	43006e8 <debug_image_buffer_should_be_valid+0x78>

    return 0;
 43006e4:	0005883a 	mov	r2,zero
}
 43006e8:	e037883a 	mov	sp,fp
 43006ec:	dfc00117 	ldw	ra,4(sp)
 43006f0:	df000017 	ldw	fp,0(sp)
 43006f4:	dec00204 	addi	sp,sp,8
 43006f8:	f800283a 	ret

043006fc <debug_refresh_image_from_sdram>:

static int debug_refresh_image_from_sdram(void)
{
 43006fc:	defffe04 	addi	sp,sp,-8
 4300700:	dfc00115 	stw	ra,4(sp)
 4300704:	df000015 	stw	fp,0(sp)
 4300708:	d839883a 	mov	fp,sp
    if (!debug_image_buffer_should_be_valid())
 430070c:	43006700 	call	4300670 <debug_image_buffer_should_be_valid>
 4300710:	1000021e 	bne	r2,zero,430071c <debug_refresh_image_from_sdram+0x20>
        return 0;
 4300714:	0005883a 	mov	r2,zero
 4300718:	00000306 	br	4300728 <debug_refresh_image_from_sdram+0x2c>

    draw_image_frame();
 430071c:	43005980 	call	4300598 <draw_image_frame>
    draw_image_from_sdram();
 4300720:	43004800 	call	4300480 <draw_image_from_sdram>
    return 1;
 4300724:	00800044 	movi	r2,1
}
 4300728:	e037883a 	mov	sp,fp
 430072c:	dfc00117 	ldw	ra,4(sp)
 4300730:	df000017 	ldw	fp,0(sp)
 4300734:	dec00204 	addi	sp,sp,8
 4300738:	f800283a 	ret

0430073c <debug_clear_lines>:

static void debug_clear_lines(void)
{
 430073c:	defffe04 	addi	sp,sp,-8
 4300740:	df000115 	stw	fp,4(sp)
 4300744:	df000104 	addi	fp,sp,4
    int i;

    for (i = 0; i < DEBUG_MAX_LINES; i++)
 4300748:	e03fff15 	stw	zero,-4(fp)
 430074c:	00000906 	br	4300774 <debug_clear_lines+0x38>
        debug_lines[i][0] = '\0';
 4300750:	00810cb4 	movhi	r2,1074
 4300754:	108ed304 	addi	r2,r2,15180
 4300758:	e0ffff17 	ldw	r3,-4(fp)
 430075c:	18c009e4 	muli	r3,r3,39
 4300760:	10c5883a 	add	r2,r2,r3
 4300764:	10000005 	stb	zero,0(r2)

static void debug_clear_lines(void)
{
    int i;

    for (i = 0; i < DEBUG_MAX_LINES; i++)
 4300768:	e0bfff17 	ldw	r2,-4(fp)
 430076c:	10800044 	addi	r2,r2,1
 4300770:	e0bfff15 	stw	r2,-4(fp)
 4300774:	e0bfff17 	ldw	r2,-4(fp)
 4300778:	10800190 	cmplti	r2,r2,6
 430077c:	103ff41e 	bne	r2,zero,4300750 <__alt_data_end+0xffe00750>
        debug_lines[i][0] = '\0';

    debug_line_count = 0;
 4300780:	d026f915 	stw	zero,-25628(gp)
    debug_last_line_is_text_fragment = 0;
 4300784:	d026fd15 	stw	zero,-25612(gp)
}
 4300788:	0001883a 	nop
 430078c:	e037883a 	mov	sp,fp
 4300790:	df000017 	ldw	fp,0(sp)
 4300794:	dec00104 	addi	sp,sp,4
 4300798:	f800283a 	ret

0430079c <debug_make_empty_line_for_append>:

static void debug_make_empty_line_for_append(void)
{
 430079c:	defffd04 	addi	sp,sp,-12
 43007a0:	dfc00215 	stw	ra,8(sp)
 43007a4:	df000115 	stw	fp,4(sp)
 43007a8:	df000104 	addi	fp,sp,4
    int i;

    if (debug_line_count >= DEBUG_MAX_LINES)
 43007ac:	d0a6f917 	ldw	r2,-25628(gp)
 43007b0:	10800190 	cmplti	r2,r2,6
 43007b4:	1000181e 	bne	r2,zero,4300818 <debug_make_empty_line_for_append+0x7c>
    {
        for (i = 1; i < DEBUG_MAX_LINES; i++)
 43007b8:	00800044 	movi	r2,1
 43007bc:	e0bfff15 	stw	r2,-4(fp)
 43007c0:	00001006 	br	4300804 <debug_make_empty_line_for_append+0x68>
            strcpy(debug_lines[i - 1], debug_lines[i]);
 43007c4:	e0bfff17 	ldw	r2,-4(fp)
 43007c8:	10bfffc4 	addi	r2,r2,-1
 43007cc:	10c009e4 	muli	r3,r2,39
 43007d0:	00810cb4 	movhi	r2,1074
 43007d4:	108ed304 	addi	r2,r2,15180
 43007d8:	1889883a 	add	r4,r3,r2
 43007dc:	e0bfff17 	ldw	r2,-4(fp)
 43007e0:	10c009e4 	muli	r3,r2,39
 43007e4:	00810cb4 	movhi	r2,1074
 43007e8:	108ed304 	addi	r2,r2,15180
 43007ec:	1885883a 	add	r2,r3,r2
 43007f0:	100b883a 	mov	r5,r2
 43007f4:	430de600 	call	430de60 <strcpy>
{
    int i;

    if (debug_line_count >= DEBUG_MAX_LINES)
    {
        for (i = 1; i < DEBUG_MAX_LINES; i++)
 43007f8:	e0bfff17 	ldw	r2,-4(fp)
 43007fc:	10800044 	addi	r2,r2,1
 4300800:	e0bfff15 	stw	r2,-4(fp)
 4300804:	e0bfff17 	ldw	r2,-4(fp)
 4300808:	10800190 	cmplti	r2,r2,6
 430080c:	103fed1e 	bne	r2,zero,43007c4 <__alt_data_end+0xffe007c4>
            strcpy(debug_lines[i - 1], debug_lines[i]);
        debug_line_count = DEBUG_MAX_LINES - 1;
 4300810:	00800144 	movi	r2,5
 4300814:	d0a6f915 	stw	r2,-25628(gp)
    }

    debug_lines[debug_line_count][0] = '\0';
 4300818:	d0e6f917 	ldw	r3,-25628(gp)
 430081c:	00810cb4 	movhi	r2,1074
 4300820:	108ed304 	addi	r2,r2,15180
 4300824:	18c009e4 	muli	r3,r3,39
 4300828:	10c5883a 	add	r2,r2,r3
 430082c:	10000005 	stb	zero,0(r2)
    debug_line_count++;
 4300830:	d0a6f917 	ldw	r2,-25628(gp)
 4300834:	10800044 	addi	r2,r2,1
 4300838:	d0a6f915 	stw	r2,-25628(gp)
}
 430083c:	0001883a 	nop
 4300840:	e037883a 	mov	sp,fp
 4300844:	dfc00117 	ldw	ra,4(sp)
 4300848:	df000017 	ldw	fp,0(sp)
 430084c:	dec00204 	addi	sp,sp,8
 4300850:	f800283a 	ret

04300854 <debug_add_line>:

static void debug_add_line(const char *line)
{
 4300854:	defffc04 	addi	sp,sp,-16
 4300858:	dfc00315 	stw	ra,12(sp)
 430085c:	df000215 	stw	fp,8(sp)
 4300860:	df000204 	addi	fp,sp,8
 4300864:	e13fff15 	stw	r4,-4(fp)
    int i;

    if (line == 0 || line[0] == '\0')
 4300868:	e0bfff17 	ldw	r2,-4(fp)
 430086c:	10003626 	beq	r2,zero,4300948 <debug_add_line+0xf4>
 4300870:	e0bfff17 	ldw	r2,-4(fp)
 4300874:	10800003 	ldbu	r2,0(r2)
 4300878:	10803fcc 	andi	r2,r2,255
 430087c:	1080201c 	xori	r2,r2,128
 4300880:	10bfe004 	addi	r2,r2,-128
 4300884:	10003026 	beq	r2,zero,4300948 <debug_add_line+0xf4>
        return;

    if (debug_line_count >= DEBUG_MAX_LINES)
 4300888:	d0a6f917 	ldw	r2,-25628(gp)
 430088c:	10800190 	cmplti	r2,r2,6
 4300890:	1000181e 	bne	r2,zero,43008f4 <debug_add_line+0xa0>
    {
        for (i = 1; i < DEBUG_MAX_LINES; i++)
 4300894:	00800044 	movi	r2,1
 4300898:	e0bffe15 	stw	r2,-8(fp)
 430089c:	00001006 	br	43008e0 <debug_add_line+0x8c>
            strcpy(debug_lines[i - 1], debug_lines[i]);
 43008a0:	e0bffe17 	ldw	r2,-8(fp)
 43008a4:	10bfffc4 	addi	r2,r2,-1
 43008a8:	10c009e4 	muli	r3,r2,39
 43008ac:	00810cb4 	movhi	r2,1074
 43008b0:	108ed304 	addi	r2,r2,15180
 43008b4:	1889883a 	add	r4,r3,r2
 43008b8:	e0bffe17 	ldw	r2,-8(fp)
 43008bc:	10c009e4 	muli	r3,r2,39
 43008c0:	00810cb4 	movhi	r2,1074
 43008c4:	108ed304 	addi	r2,r2,15180
 43008c8:	1885883a 	add	r2,r3,r2
 43008cc:	100b883a 	mov	r5,r2
 43008d0:	430de600 	call	430de60 <strcpy>
    if (line == 0 || line[0] == '\0')
        return;

    if (debug_line_count >= DEBUG_MAX_LINES)
    {
        for (i = 1; i < DEBUG_MAX_LINES; i++)
 43008d4:	e0bffe17 	ldw	r2,-8(fp)
 43008d8:	10800044 	addi	r2,r2,1
 43008dc:	e0bffe15 	stw	r2,-8(fp)
 43008e0:	e0bffe17 	ldw	r2,-8(fp)
 43008e4:	10800190 	cmplti	r2,r2,6
 43008e8:	103fed1e 	bne	r2,zero,43008a0 <__alt_data_end+0xffe008a0>
            strcpy(debug_lines[i - 1], debug_lines[i]);
        debug_line_count = DEBUG_MAX_LINES - 1;
 43008ec:	00800144 	movi	r2,5
 43008f0:	d0a6f915 	stw	r2,-25628(gp)
    }

    strncpy(debug_lines[debug_line_count], line, DEBUG_LINE_CHARS);
 43008f4:	d0a6f917 	ldw	r2,-25628(gp)
 43008f8:	10c009e4 	muli	r3,r2,39
 43008fc:	00810cb4 	movhi	r2,1074
 4300900:	108ed304 	addi	r2,r2,15180
 4300904:	1885883a 	add	r2,r3,r2
 4300908:	01800984 	movi	r6,38
 430090c:	e17fff17 	ldw	r5,-4(fp)
 4300910:	1009883a 	mov	r4,r2
 4300914:	430df880 	call	430df88 <strncpy>
    debug_lines[debug_line_count][DEBUG_LINE_CHARS] = '\0';
 4300918:	d0e6f917 	ldw	r3,-25628(gp)
 430091c:	00810cb4 	movhi	r2,1074
 4300920:	108ed304 	addi	r2,r2,15180
 4300924:	18c009e4 	muli	r3,r3,39
 4300928:	10c5883a 	add	r2,r2,r3
 430092c:	10800984 	addi	r2,r2,38
 4300930:	10000005 	stb	zero,0(r2)
    debug_line_count++;
 4300934:	d0a6f917 	ldw	r2,-25628(gp)
 4300938:	10800044 	addi	r2,r2,1
 430093c:	d0a6f915 	stw	r2,-25628(gp)

    /* System/status lines should not be merged with the next OCR fragment. */
    debug_last_line_is_text_fragment = 0;
 4300940:	d026fd15 	stw	zero,-25612(gp)
 4300944:	00000106 	br	430094c <debug_add_line+0xf8>
static void debug_add_line(const char *line)
{
    int i;

    if (line == 0 || line[0] == '\0')
        return;
 4300948:	0001883a 	nop
    debug_lines[debug_line_count][DEBUG_LINE_CHARS] = '\0';
    debug_line_count++;

    /* System/status lines should not be merged with the next OCR fragment. */
    debug_last_line_is_text_fragment = 0;
}
 430094c:	e037883a 	mov	sp,fp
 4300950:	dfc00117 	ldw	ra,4(sp)
 4300954:	df000017 	ldw	fp,0(sp)
 4300958:	dec00204 	addi	sp,sp,8
 430095c:	f800283a 	ret

04300960 <debug_append_text_fragment>:

static void debug_append_text_fragment(const char *fragment)
{
 4300960:	defffa04 	addi	sp,sp,-24
 4300964:	dfc00515 	stw	ra,20(sp)
 4300968:	df000415 	stw	fp,16(sp)
 430096c:	df000404 	addi	fp,sp,16
 4300970:	e13fff15 	stw	r4,-4(fp)
    int i;

    if (fragment == 0 || fragment[0] == '\0')
 4300974:	e0bfff17 	ldw	r2,-4(fp)
 4300978:	10004826 	beq	r2,zero,4300a9c <debug_append_text_fragment+0x13c>
 430097c:	e0bfff17 	ldw	r2,-4(fp)
 4300980:	10800003 	ldbu	r2,0(r2)
 4300984:	10803fcc 	andi	r2,r2,255
 4300988:	1080201c 	xori	r2,r2,128
 430098c:	10bfe004 	addi	r2,r2,-128
 4300990:	10004226 	beq	r2,zero,4300a9c <debug_append_text_fragment+0x13c>
        return;

    i = 0;
 4300994:	e03ffc15 	stw	zero,-16(fp)
    while (fragment[i] != '\0')
 4300998:	00003706 	br	4300a78 <debug_append_text_fragment+0x118>
    {
        int last_index;
        int len;

        if (debug_line_count == 0 ||
 430099c:	d0a6f917 	ldw	r2,-25628(gp)
 43009a0:	10000c26 	beq	r2,zero,43009d4 <debug_append_text_fragment+0x74>
            !debug_last_line_is_text_fragment ||
 43009a4:	d0a6fd17 	ldw	r2,-25612(gp)
    while (fragment[i] != '\0')
    {
        int last_index;
        int len;

        if (debug_line_count == 0 ||
 43009a8:	10000a26 	beq	r2,zero,43009d4 <debug_append_text_fragment+0x74>
            !debug_last_line_is_text_fragment ||
            strlen(debug_lines[debug_line_count - 1]) >= DEBUG_LINE_CHARS)
 43009ac:	d0a6f917 	ldw	r2,-25628(gp)
 43009b0:	10bfffc4 	addi	r2,r2,-1
 43009b4:	10c009e4 	muli	r3,r2,39
 43009b8:	00810cb4 	movhi	r2,1074
 43009bc:	108ed304 	addi	r2,r2,15180
 43009c0:	1885883a 	add	r2,r3,r2
 43009c4:	1009883a 	mov	r4,r2
 43009c8:	430def00 	call	430def0 <strlen>
    {
        int last_index;
        int len;

        if (debug_line_count == 0 ||
            !debug_last_line_is_text_fragment ||
 43009cc:	108009b0 	cmpltui	r2,r2,38
 43009d0:	1000031e 	bne	r2,zero,43009e0 <debug_append_text_fragment+0x80>
            strlen(debug_lines[debug_line_count - 1]) >= DEBUG_LINE_CHARS)
        {
            debug_make_empty_line_for_append();
 43009d4:	430079c0 	call	430079c <debug_make_empty_line_for_append>
            debug_last_line_is_text_fragment = 1;
 43009d8:	00800044 	movi	r2,1
 43009dc:	d0a6fd15 	stw	r2,-25612(gp)
        }

        last_index = debug_line_count - 1;
 43009e0:	d0a6f917 	ldw	r2,-25628(gp)
 43009e4:	10bfffc4 	addi	r2,r2,-1
 43009e8:	e0bffd15 	stw	r2,-12(fp)
        len = strlen(debug_lines[last_index]);
 43009ec:	e0bffd17 	ldw	r2,-12(fp)
 43009f0:	10c009e4 	muli	r3,r2,39
 43009f4:	00810cb4 	movhi	r2,1074
 43009f8:	108ed304 	addi	r2,r2,15180
 43009fc:	1885883a 	add	r2,r3,r2
 4300a00:	1009883a 	mov	r4,r2
 4300a04:	430def00 	call	430def0 <strlen>
 4300a08:	e0bffe15 	stw	r2,-8(fp)

        if (len < DEBUG_LINE_CHARS)
 4300a0c:	e0bffe17 	ldw	r2,-8(fp)
 4300a10:	10800988 	cmpgei	r2,r2,38
 4300a14:	1000181e 	bne	r2,zero,4300a78 <debug_append_text_fragment+0x118>
        {
            debug_lines[last_index][len] = fragment[i];
 4300a18:	e0bffc17 	ldw	r2,-16(fp)
 4300a1c:	e0ffff17 	ldw	r3,-4(fp)
 4300a20:	1885883a 	add	r2,r3,r2
 4300a24:	10c00003 	ldbu	r3,0(r2)
 4300a28:	00810cb4 	movhi	r2,1074
 4300a2c:	108ed304 	addi	r2,r2,15180
 4300a30:	e13ffd17 	ldw	r4,-12(fp)
 4300a34:	210009e4 	muli	r4,r4,39
 4300a38:	1109883a 	add	r4,r2,r4
 4300a3c:	e0bffe17 	ldw	r2,-8(fp)
 4300a40:	2085883a 	add	r2,r4,r2
 4300a44:	10c00005 	stb	r3,0(r2)
            debug_lines[last_index][len + 1] = '\0';
 4300a48:	e0bffe17 	ldw	r2,-8(fp)
 4300a4c:	10c00044 	addi	r3,r2,1
 4300a50:	00810cb4 	movhi	r2,1074
 4300a54:	108ed304 	addi	r2,r2,15180
 4300a58:	e13ffd17 	ldw	r4,-12(fp)
 4300a5c:	210009e4 	muli	r4,r4,39
 4300a60:	1105883a 	add	r2,r2,r4
 4300a64:	10c5883a 	add	r2,r2,r3
 4300a68:	10000005 	stb	zero,0(r2)
            i++;
 4300a6c:	e0bffc17 	ldw	r2,-16(fp)
 4300a70:	10800044 	addi	r2,r2,1
 4300a74:	e0bffc15 	stw	r2,-16(fp)

    if (fragment == 0 || fragment[0] == '\0')
        return;

    i = 0;
    while (fragment[i] != '\0')
 4300a78:	e0bffc17 	ldw	r2,-16(fp)
 4300a7c:	e0ffff17 	ldw	r3,-4(fp)
 4300a80:	1885883a 	add	r2,r3,r2
 4300a84:	10800003 	ldbu	r2,0(r2)
 4300a88:	10803fcc 	andi	r2,r2,255
 4300a8c:	1080201c 	xori	r2,r2,128
 4300a90:	10bfe004 	addi	r2,r2,-128
 4300a94:	103fc11e 	bne	r2,zero,430099c <__alt_data_end+0xffe0099c>
 4300a98:	00000106 	br	4300aa0 <debug_append_text_fragment+0x140>
static void debug_append_text_fragment(const char *fragment)
{
    int i;

    if (fragment == 0 || fragment[0] == '\0')
        return;
 4300a9c:	0001883a 	nop
            debug_lines[last_index][len] = fragment[i];
            debug_lines[last_index][len + 1] = '\0';
            i++;
        }
    }
}
 4300aa0:	e037883a 	mov	sp,fp
 4300aa4:	dfc00117 	ldw	ra,4(sp)
 4300aa8:	df000017 	ldw	fp,0(sp)
 4300aac:	dec00204 	addi	sp,sp,8
 4300ab0:	f800283a 	ret

04300ab4 <debug_end_current_text_instruction>:

static void debug_end_current_text_instruction(void)
{
 4300ab4:	deffff04 	addi	sp,sp,-4
 4300ab8:	df000015 	stw	fp,0(sp)
 4300abc:	d839883a 	mov	fp,sp
    /*
       A real newline from IMG/Arduino means the next OCR text belongs to a
       new debug instruction.  This keeps instruction boundaries, while still
       allowing short fragments from separate packets to fill the full VGA box.
    */
    debug_last_line_is_text_fragment = 0;
 4300ac0:	d026fd15 	stw	zero,-25612(gp)
}
 4300ac4:	0001883a 	nop
 4300ac8:	e037883a 	mov	sp,fp
 4300acc:	df000017 	ldw	fp,0(sp)
 4300ad0:	dec00104 	addi	sp,sp,4
 4300ad4:	f800283a 	ret

04300ad8 <debug_draw_text_panel>:

static void debug_draw_text_panel(void)
{
 4300ad8:	defffa04 	addi	sp,sp,-24
 4300adc:	dfc00515 	stw	ra,20(sp)
 4300ae0:	df000415 	stw	fp,16(sp)
 4300ae4:	df000404 	addi	fp,sp,16
    int i;

    vga_draw_rectangle(TEXT_REGION_X,
 4300ae8:	00800144 	movi	r2,5
 4300aec:	d8800015 	stw	r2,0(sp)
 4300af0:	01c01904 	movi	r7,100
 4300af4:	01805004 	movi	r6,320
 4300af8:	01402304 	movi	r5,140
 4300afc:	0009883a 	mov	r4,zero
 4300b00:	430be900 	call	430be90 <vga_draw_rectangle>
                       TEXT_REGION_Y,
                       TEXT_REGION_W,
                       TEXT_REGION_H,
                       PT_INK);
    pt_draw_shadow_box(4, 142, 312, 94, PT_INK, PT_GOLD, PT_SHADOW);
 4300b04:	00800944 	movi	r2,37
 4300b08:	d8800215 	stw	r2,8(sp)
 4300b0c:	00803d04 	movi	r2,244
 4300b10:	d8800115 	stw	r2,4(sp)
 4300b14:	00800144 	movi	r2,5
 4300b18:	d8800015 	stw	r2,0(sp)
 4300b1c:	01c01784 	movi	r7,94
 4300b20:	01804e04 	movi	r6,312
 4300b24:	01402384 	movi	r5,142
 4300b28:	01000104 	movi	r4,4
 4300b2c:	43031f80 	call	43031f8 <pt_draw_shadow_box>

    if (debug_line_count == 0)
 4300b30:	d0a6f917 	ldw	r2,-25628(gp)
 4300b34:	1000071e 	bne	r2,zero,4300b54 <debug_draw_text_panel+0x7c>
    {
        vga_print_software_text(TEXT_START_X,
 4300b38:	01c03e84 	movi	r7,250
 4300b3c:	01810cb4 	movhi	r6,1074
 4300b40:	31bd4104 	addi	r6,r6,-2812
 4300b44:	01402584 	movi	r5,150
 4300b48:	01000284 	movi	r4,10
 4300b4c:	430bcc40 	call	430bcc4 <vga_print_software_text>
                                TEXT_START_Y,
                                "WAITING FOR REALTIME TEXT",
                                PT_CREAM);
        return;
 4300b50:	00001506 	br	4300ba8 <debug_draw_text_panel+0xd0>
    }

    for (i = 0; i < debug_line_count; i++)
 4300b54:	e03fff15 	stw	zero,-4(fp)
 4300b58:	00001006 	br	4300b9c <debug_draw_text_panel+0xc4>
    {
        vga_print_software_text(TEXT_START_X,
                                TEXT_START_Y + i * TEXT_LINE_STEP,
 4300b5c:	e0bfff17 	ldw	r2,-4(fp)
 4300b60:	108003a4 	muli	r2,r2,14
        return;
    }

    for (i = 0; i < debug_line_count; i++)
    {
        vga_print_software_text(TEXT_START_X,
 4300b64:	11002584 	addi	r4,r2,150
                                TEXT_START_Y + i * TEXT_LINE_STEP,
                                debug_lines[i],
 4300b68:	e0bfff17 	ldw	r2,-4(fp)
 4300b6c:	10c009e4 	muli	r3,r2,39
 4300b70:	00810cb4 	movhi	r2,1074
 4300b74:	108ed304 	addi	r2,r2,15180
 4300b78:	1885883a 	add	r2,r3,r2
        return;
    }

    for (i = 0; i < debug_line_count; i++)
    {
        vga_print_software_text(TEXT_START_X,
 4300b7c:	01c03e84 	movi	r7,250
 4300b80:	100d883a 	mov	r6,r2
 4300b84:	200b883a 	mov	r5,r4
 4300b88:	01000284 	movi	r4,10
 4300b8c:	430bcc40 	call	430bcc4 <vga_print_software_text>
                                "WAITING FOR REALTIME TEXT",
                                PT_CREAM);
        return;
    }

    for (i = 0; i < debug_line_count; i++)
 4300b90:	e0bfff17 	ldw	r2,-4(fp)
 4300b94:	10800044 	addi	r2,r2,1
 4300b98:	e0bfff15 	stw	r2,-4(fp)
 4300b9c:	d0a6f917 	ldw	r2,-25628(gp)
 4300ba0:	e0ffff17 	ldw	r3,-4(fp)
 4300ba4:	18bfed16 	blt	r3,r2,4300b5c <__alt_data_end+0xffe00b5c>
        vga_print_software_text(TEXT_START_X,
                                TEXT_START_Y + i * TEXT_LINE_STEP,
                                debug_lines[i],
                                PT_CREAM);
    }
}
 4300ba8:	e037883a 	mov	sp,fp
 4300bac:	dfc00117 	ldw	ra,4(sp)
 4300bb0:	df000017 	ldw	fp,0(sp)
 4300bb4:	dec00204 	addi	sp,sp,8
 4300bb8:	f800283a 	ret

04300bbc <debug_packet_contains_newline>:

static int debug_packet_contains_newline(uint16_t text_len)
{
 4300bbc:	defffd04 	addi	sp,sp,-12
 4300bc0:	df000215 	stw	fp,8(sp)
 4300bc4:	df000204 	addi	fp,sp,8
 4300bc8:	2005883a 	mov	r2,r4
 4300bcc:	e0bfff0d 	sth	r2,-4(fp)
    uint16_t i;

    if (text_len > 512)
 4300bd0:	e0bfff0b 	ldhu	r2,-4(fp)
 4300bd4:	10808070 	cmpltui	r2,r2,513
 4300bd8:	1000021e 	bne	r2,zero,4300be4 <debug_packet_contains_newline+0x28>
        text_len = 512;
 4300bdc:	00808004 	movi	r2,512
 4300be0:	e0bfff0d 	sth	r2,-4(fp)

    for (i = 0; i < text_len; i++)
 4300be4:	e03ffe0d 	sth	zero,-8(fp)
 4300be8:	00001106 	br	4300c30 <debug_packet_contains_newline+0x74>
    {
        char c = (char)(IORD_8DIRECT(TEXT_BUFFER_BASE, i) & 0xFF);
 4300bec:	e0fffe0b 	ldhu	r3,-8(fp)
 4300bf0:	00814834 	movhi	r2,1312
 4300bf4:	1885883a 	add	r2,r3,r2
 4300bf8:	10800023 	ldbuio	r2,0(r2)
 4300bfc:	10803fcc 	andi	r2,r2,255
 4300c00:	e0bffe85 	stb	r2,-6(fp)
        if (c == '\n' || c == '\r')
 4300c04:	e0bffe87 	ldb	r2,-6(fp)
 4300c08:	108002a0 	cmpeqi	r2,r2,10
 4300c0c:	1000031e 	bne	r2,zero,4300c1c <debug_packet_contains_newline+0x60>
 4300c10:	e0bffe87 	ldb	r2,-6(fp)
 4300c14:	10800358 	cmpnei	r2,r2,13
 4300c18:	1000021e 	bne	r2,zero,4300c24 <debug_packet_contains_newline+0x68>
            return 1;
 4300c1c:	00800044 	movi	r2,1
 4300c20:	00000706 	br	4300c40 <debug_packet_contains_newline+0x84>
    uint16_t i;

    if (text_len > 512)
        text_len = 512;

    for (i = 0; i < text_len; i++)
 4300c24:	e0bffe0b 	ldhu	r2,-8(fp)
 4300c28:	10800044 	addi	r2,r2,1
 4300c2c:	e0bffe0d 	sth	r2,-8(fp)
 4300c30:	e0fffe0b 	ldhu	r3,-8(fp)
 4300c34:	e0bfff0b 	ldhu	r2,-4(fp)
 4300c38:	18bfec36 	bltu	r3,r2,4300bec <__alt_data_end+0xffe00bec>
        char c = (char)(IORD_8DIRECT(TEXT_BUFFER_BASE, i) & 0xFF);
        if (c == '\n' || c == '\r')
            return 1;
    }

    return 0;
 4300c3c:	0005883a 	mov	r2,zero
}
 4300c40:	e037883a 	mov	sp,fp
 4300c44:	df000017 	ldw	fp,0(sp)
 4300c48:	dec00104 	addi	sp,sp,4
 4300c4c:	f800283a 	ret

04300c50 <debug_append_text_from_sdram>:

static void debug_append_text_from_sdram(uint16_t text_len)
{
 4300c50:	deffef04 	addi	sp,sp,-68
 4300c54:	dfc01015 	stw	ra,64(sp)
 4300c58:	df000f15 	stw	fp,60(sp)
 4300c5c:	df000f04 	addi	fp,sp,60
 4300c60:	2005883a 	mov	r2,r4
 4300c64:	e0bfff0d 	sth	r2,-4(fp)
    char fragment[DEBUG_LINE_CHARS + 1];
    int fragment_pos = 0;
 4300c68:	e03ff115 	stw	zero,-60(fp)
    uint16_t i;
    uint16_t effective_len;
    int has_newline;

    if (text_len == 0)
 4300c6c:	e0bfff0b 	ldhu	r2,-4(fp)
 4300c70:	10007a26 	beq	r2,zero,4300e5c <debug_append_text_from_sdram+0x20c>
        return;

    if (text_len > 512)
 4300c74:	e0bfff0b 	ldhu	r2,-4(fp)
 4300c78:	10808070 	cmpltui	r2,r2,513
 4300c7c:	1000021e 	bne	r2,zero,4300c88 <debug_append_text_from_sdram+0x38>
        text_len = 512;
 4300c80:	00808004 	movi	r2,512
 4300c84:	e0bfff0d 	sth	r2,-4(fp)

    has_newline = debug_packet_contains_newline(text_len);
 4300c88:	e0bfff0b 	ldhu	r2,-4(fp)
 4300c8c:	1009883a 	mov	r4,r2
 4300c90:	4300bbc0 	call	4300bbc <debug_packet_contains_newline>
 4300c94:	e0bff415 	stw	r2,-48(fp)
       what fixes the occasional beginning/end character mismatch.

       Full debug passages that contain real newlines are not padded here;
       those newlines intentionally mark instruction boundaries.
    */
    effective_len = text_len;
 4300c98:	e0bfff0b 	ldhu	r2,-4(fp)
 4300c9c:	e0bff28d 	sth	r2,-54(fp)
    if (!has_newline && text_len > 0 && text_len < DEBUG_WIRE_ROW_CHARS)
 4300ca0:	e0bff417 	ldw	r2,-48(fp)
 4300ca4:	1000071e 	bne	r2,zero,4300cc4 <debug_append_text_from_sdram+0x74>
 4300ca8:	e0bfff0b 	ldhu	r2,-4(fp)
 4300cac:	10000526 	beq	r2,zero,4300cc4 <debug_append_text_from_sdram+0x74>
 4300cb0:	e0bfff0b 	ldhu	r2,-4(fp)
 4300cb4:	10800228 	cmpgeui	r2,r2,8
 4300cb8:	1000021e 	bne	r2,zero,4300cc4 <debug_append_text_from_sdram+0x74>
        effective_len = DEBUG_WIRE_ROW_CHARS;
 4300cbc:	00800204 	movi	r2,8
 4300cc0:	e0bff28d 	sth	r2,-54(fp)

    memset(fragment, 0, sizeof(fragment));
 4300cc4:	e0bff504 	addi	r2,fp,-44
 4300cc8:	018009c4 	movi	r6,39
 4300ccc:	000b883a 	mov	r5,zero
 4300cd0:	1009883a 	mov	r4,r2
 4300cd4:	430d7e80 	call	430d7e8 <memset>

    for (i = 0; i < effective_len; i++)
 4300cd8:	e03ff20d 	sth	zero,-56(fp)
 4300cdc:	00004f06 	br	4300e1c <debug_append_text_from_sdram+0x1cc>
    {
        char c;

        if (i < text_len)
 4300ce0:	e0fff20b 	ldhu	r3,-56(fp)
 4300ce4:	e0bfff0b 	ldhu	r2,-4(fp)
 4300ce8:	1880072e 	bgeu	r3,r2,4300d08 <debug_append_text_from_sdram+0xb8>
            c = (char)(IORD_8DIRECT(TEXT_BUFFER_BASE, i) & 0xFF);
 4300cec:	e0fff20b 	ldhu	r3,-56(fp)
 4300cf0:	00814834 	movhi	r2,1312
 4300cf4:	1885883a 	add	r2,r3,r2
 4300cf8:	10800023 	ldbuio	r2,0(r2)
 4300cfc:	10803fcc 	andi	r2,r2,255
 4300d00:	e0bff305 	stb	r2,-52(fp)
 4300d04:	00000206 	br	4300d10 <debug_append_text_from_sdram+0xc0>
        else
            c = ' ';
 4300d08:	00800804 	movi	r2,32
 4300d0c:	e0bff305 	stb	r2,-52(fp)

        if (i < text_len && c == '\0')
 4300d10:	e0fff20b 	ldhu	r3,-56(fp)
 4300d14:	e0bfff0b 	ldhu	r2,-4(fp)
 4300d18:	1880022e 	bgeu	r3,r2,4300d24 <debug_append_text_from_sdram+0xd4>
 4300d1c:	e0bff307 	ldb	r2,-52(fp)
 4300d20:	10004226 	beq	r2,zero,4300e2c <debug_append_text_from_sdram+0x1dc>
            break;

        if (c == '\r' || c == '\n')
 4300d24:	e0bff307 	ldb	r2,-52(fp)
 4300d28:	10800360 	cmpeqi	r2,r2,13
 4300d2c:	1000031e 	bne	r2,zero,4300d3c <debug_append_text_from_sdram+0xec>
 4300d30:	e0bff307 	ldb	r2,-52(fp)
 4300d34:	10800298 	cmpnei	r2,r2,10
 4300d38:	1000111e 	bne	r2,zero,4300d80 <debug_append_text_from_sdram+0x130>
        {
            if (fragment_pos > 0)
 4300d3c:	e0bff117 	ldw	r2,-60(fp)
 4300d40:	00800d0e 	bge	zero,r2,4300d78 <debug_append_text_from_sdram+0x128>
            {
                fragment[fragment_pos] = '\0';
 4300d44:	e0fff504 	addi	r3,fp,-44
 4300d48:	e0bff117 	ldw	r2,-60(fp)
 4300d4c:	1885883a 	add	r2,r3,r2
 4300d50:	10000005 	stb	zero,0(r2)
                debug_append_text_fragment(fragment);
 4300d54:	e0bff504 	addi	r2,fp,-44
 4300d58:	1009883a 	mov	r4,r2
 4300d5c:	43009600 	call	4300960 <debug_append_text_fragment>
                fragment_pos = 0;
 4300d60:	e03ff115 	stw	zero,-60(fp)
                memset(fragment, 0, sizeof(fragment));
 4300d64:	e0bff504 	addi	r2,fp,-44
 4300d68:	018009c4 	movi	r6,39
 4300d6c:	000b883a 	mov	r5,zero
 4300d70:	1009883a 	mov	r4,r2
 4300d74:	430d7e80 	call	430d7e8 <memset>
            }

            debug_end_current_text_instruction();
 4300d78:	4300ab40 	call	4300ab4 <debug_end_current_text_instruction>
            continue;
 4300d7c:	00002406 	br	4300e10 <debug_append_text_from_sdram+0x1c0>
        }

        if (c == '\t')
 4300d80:	e0bff307 	ldb	r2,-52(fp)
 4300d84:	10800258 	cmpnei	r2,r2,9
 4300d88:	1000021e 	bne	r2,zero,4300d94 <debug_append_text_from_sdram+0x144>
            c = ' ';
 4300d8c:	00800804 	movi	r2,32
 4300d90:	e0bff305 	stb	r2,-52(fp)
        if (c < 32 || c > 126)
 4300d94:	e0bff307 	ldb	r2,-52(fp)
 4300d98:	10800810 	cmplti	r2,r2,32
 4300d9c:	1000031e 	bne	r2,zero,4300dac <debug_append_text_from_sdram+0x15c>
 4300da0:	e0bff307 	ldb	r2,-52(fp)
 4300da4:	10801fd8 	cmpnei	r2,r2,127
 4300da8:	1000021e 	bne	r2,zero,4300db4 <debug_append_text_from_sdram+0x164>
            c = ' ';
 4300dac:	00800804 	movi	r2,32
 4300db0:	e0bff305 	stb	r2,-52(fp)

        fragment[fragment_pos++] = c;
 4300db4:	e0bff117 	ldw	r2,-60(fp)
 4300db8:	10c00044 	addi	r3,r2,1
 4300dbc:	e0fff115 	stw	r3,-60(fp)
 4300dc0:	e0fff504 	addi	r3,fp,-44
 4300dc4:	1885883a 	add	r2,r3,r2
 4300dc8:	e0fff303 	ldbu	r3,-52(fp)
 4300dcc:	10c00005 	stb	r3,0(r2)

        if (fragment_pos >= DEBUG_LINE_CHARS)
 4300dd0:	e0bff117 	ldw	r2,-60(fp)
 4300dd4:	10800990 	cmplti	r2,r2,38
 4300dd8:	10000d1e 	bne	r2,zero,4300e10 <debug_append_text_from_sdram+0x1c0>
        {
            fragment[fragment_pos] = '\0';
 4300ddc:	e0fff504 	addi	r3,fp,-44
 4300de0:	e0bff117 	ldw	r2,-60(fp)
 4300de4:	1885883a 	add	r2,r3,r2
 4300de8:	10000005 	stb	zero,0(r2)
            debug_append_text_fragment(fragment);
 4300dec:	e0bff504 	addi	r2,fp,-44
 4300df0:	1009883a 	mov	r4,r2
 4300df4:	43009600 	call	4300960 <debug_append_text_fragment>
            fragment_pos = 0;
 4300df8:	e03ff115 	stw	zero,-60(fp)
            memset(fragment, 0, sizeof(fragment));
 4300dfc:	e0bff504 	addi	r2,fp,-44
 4300e00:	018009c4 	movi	r6,39
 4300e04:	000b883a 	mov	r5,zero
 4300e08:	1009883a 	mov	r4,r2
 4300e0c:	430d7e80 	call	430d7e8 <memset>
    if (!has_newline && text_len > 0 && text_len < DEBUG_WIRE_ROW_CHARS)
        effective_len = DEBUG_WIRE_ROW_CHARS;

    memset(fragment, 0, sizeof(fragment));

    for (i = 0; i < effective_len; i++)
 4300e10:	e0bff20b 	ldhu	r2,-56(fp)
 4300e14:	10800044 	addi	r2,r2,1
 4300e18:	e0bff20d 	sth	r2,-56(fp)
 4300e1c:	e0fff20b 	ldhu	r3,-56(fp)
 4300e20:	e0bff28b 	ldhu	r2,-54(fp)
 4300e24:	18bfae36 	bltu	r3,r2,4300ce0 <__alt_data_end+0xffe00ce0>
 4300e28:	00000106 	br	4300e30 <debug_append_text_from_sdram+0x1e0>
            c = (char)(IORD_8DIRECT(TEXT_BUFFER_BASE, i) & 0xFF);
        else
            c = ' ';

        if (i < text_len && c == '\0')
            break;
 4300e2c:	0001883a 	nop
            fragment_pos = 0;
            memset(fragment, 0, sizeof(fragment));
        }
    }

    if (fragment_pos > 0)
 4300e30:	e0bff117 	ldw	r2,-60(fp)
 4300e34:	0080070e 	bge	zero,r2,4300e54 <debug_append_text_from_sdram+0x204>
    {
        fragment[fragment_pos] = '\0';
 4300e38:	e0fff504 	addi	r3,fp,-44
 4300e3c:	e0bff117 	ldw	r2,-60(fp)
 4300e40:	1885883a 	add	r2,r3,r2
 4300e44:	10000005 	stb	zero,0(r2)
        debug_append_text_fragment(fragment);
 4300e48:	e0bff504 	addi	r2,fp,-44
 4300e4c:	1009883a 	mov	r4,r2
 4300e50:	43009600 	call	4300960 <debug_append_text_fragment>
    }

    debug_draw_text_panel();
 4300e54:	4300ad80 	call	4300ad8 <debug_draw_text_panel>
 4300e58:	00000106 	br	4300e60 <debug_append_text_from_sdram+0x210>
    uint16_t i;
    uint16_t effective_len;
    int has_newline;

    if (text_len == 0)
        return;
 4300e5c:	0001883a 	nop
        fragment[fragment_pos] = '\0';
        debug_append_text_fragment(fragment);
    }

    debug_draw_text_panel();
}
 4300e60:	e037883a 	mov	sp,fp
 4300e64:	dfc00117 	ldw	ra,4(sp)
 4300e68:	df000017 	ldw	fp,0(sp)
 4300e6c:	dec00204 	addi	sp,sp,8
 4300e70:	f800283a 	ret

04300e74 <draw_static_screen>:

static void draw_static_screen(void)
{
 4300e74:	defffd04 	addi	sp,sp,-12
 4300e78:	dfc00215 	stw	ra,8(sp)
 4300e7c:	df000115 	stw	fp,4(sp)
 4300e80:	df000104 	addi	fp,sp,4
    draw_image_frame();
 4300e84:	43005980 	call	4300598 <draw_image_frame>
    vga_draw_rectangle(0, 140, 320, 100, PT_INK);
 4300e88:	00800144 	movi	r2,5
 4300e8c:	d8800015 	stw	r2,0(sp)
 4300e90:	01c01904 	movi	r7,100
 4300e94:	01805004 	movi	r6,320
 4300e98:	01402304 	movi	r5,140
 4300e9c:	0009883a 	mov	r4,zero
 4300ea0:	430be900 	call	430be90 <vga_draw_rectangle>

    /* Keep the top-left text tiny so it does not cover the image preview. */
    pt_print_shadow(4, 118, "K0 IMG  K1 BG  SW9 MENU", PT_GOLD);
 4300ea4:	01c03d04 	movi	r7,244
 4300ea8:	01810cb4 	movhi	r6,1074
 4300eac:	31bd4804 	addi	r6,r6,-2784
 4300eb0:	01401d84 	movi	r5,118
 4300eb4:	01000104 	movi	r4,4
 4300eb8:	43031800 	call	4303180 <pt_print_shadow>

    if (!debug_refresh_image_from_sdram())
 4300ebc:	43006fc0 	call	43006fc <debug_refresh_image_from_sdram>
 4300ec0:	1000061e 	bne	r2,zero,4300edc <draw_static_screen+0x68>
    {
        pt_print_shadow(136, 60, "NO IMG", PT_CREAM);
 4300ec4:	01c03e84 	movi	r7,250
 4300ec8:	01810cb4 	movhi	r6,1074
 4300ecc:	31bd4e04 	addi	r6,r6,-2760
 4300ed0:	01400f04 	movi	r5,60
 4300ed4:	01002204 	movi	r4,136
 4300ed8:	43031800 	call	4303180 <pt_print_shadow>
    }

    debug_draw_text_panel();
 4300edc:	4300ad80 	call	4300ad8 <debug_draw_text_panel>
}
 4300ee0:	0001883a 	nop
 4300ee4:	e037883a 	mov	sp,fp
 4300ee8:	dfc00117 	ldw	ra,4(sp)
 4300eec:	df000017 	ldw	fp,0(sp)
 4300ef0:	dec00204 	addi	sp,sp,8
 4300ef4:	f800283a 	ret

04300ef8 <display_capture_from_sdram>:

static void display_capture_from_sdram(void)
{
 4300ef8:	defffc04 	addi	sp,sp,-16
 4300efc:	dfc00315 	stw	ra,12(sp)
 4300f00:	df000215 	stw	fp,8(sp)
 4300f04:	df000204 	addi	fp,sp,8
    uint16_t text_len;
    uint32_t image_len;

    if (!packet_ready())
 4300f08:	43003780 	call	4300378 <packet_ready>
 4300f0c:	10000c1e 	bne	r2,zero,4300f40 <display_capture_from_sdram+0x48>
    {
        printf("Debug display: no valid packet\n");
 4300f10:	01010cb4 	movhi	r4,1074
 4300f14:	213d5004 	addi	r4,r4,-2752
 4300f18:	430da3c0 	call	430da3c <puts>
        fflush(stdout);
 4300f1c:	d0a00e17 	ldw	r2,-32712(gp)
 4300f20:	10800217 	ldw	r2,8(r2)
 4300f24:	1009883a 	mov	r4,r2
 4300f28:	430c6500 	call	430c650 <fflush>
        debug_add_line("NO VALID PACKET");
 4300f2c:	01010cb4 	movhi	r4,1074
 4300f30:	213d5804 	addi	r4,r4,-2720
 4300f34:	43008540 	call	4300854 <debug_add_line>
        debug_draw_text_panel();
 4300f38:	4300ad80 	call	4300ad8 <debug_draw_text_panel>
        return;
 4300f3c:	00001606 	br	4300f98 <display_capture_from_sdram+0xa0>
    }

    text_len = get_text_len();
 4300f40:	43003d80 	call	43003d8 <get_text_len>
 4300f44:	e0bffe0d 	sth	r2,-8(fp)
    image_len = get_image_len();
 4300f48:	43004180 	call	4300418 <get_image_len>
 4300f4c:	e0bfff15 	stw	r2,-4(fp)

    if (image_len > 0)
 4300f50:	e0bfff17 	ldw	r2,-4(fp)
 4300f54:	10000126 	beq	r2,zero,4300f5c <display_capture_from_sdram+0x64>
    {
        debug_refresh_image_from_sdram();
 4300f58:	43006fc0 	call	43006fc <debug_refresh_image_from_sdram>
    }

    if (text_len > 0)
 4300f5c:	e0bffe0b 	ldhu	r2,-8(fp)
 4300f60:	10000326 	beq	r2,zero,4300f70 <display_capture_from_sdram+0x78>
        debug_append_text_from_sdram(text_len);
 4300f64:	e0bffe0b 	ldhu	r2,-8(fp)
 4300f68:	1009883a 	mov	r4,r2
 4300f6c:	4300c500 	call	4300c50 <debug_append_text_from_sdram>

    printf("Debug display update: text_len=%u image_len=%lu\n",
 4300f70:	e0bffe0b 	ldhu	r2,-8(fp)
 4300f74:	e1bfff17 	ldw	r6,-4(fp)
 4300f78:	100b883a 	mov	r5,r2
 4300f7c:	01010cb4 	movhi	r4,1074
 4300f80:	213d5c04 	addi	r4,r4,-2704
 4300f84:	430d9400 	call	430d940 <printf>
           (unsigned int)text_len,
           (unsigned long)image_len);
    fflush(stdout);
 4300f88:	d0a00e17 	ldw	r2,-32712(gp)
 4300f8c:	10800217 	ldw	r2,8(r2)
 4300f90:	1009883a 	mov	r4,r2
 4300f94:	430c6500 	call	430c650 <fflush>
}
 4300f98:	e037883a 	mov	sp,fp
 4300f9c:	dfc00117 	ldw	ra,4(sp)
 4300fa0:	df000017 	ldw	fp,0(sp)
 4300fa4:	dec00204 	addi	sp,sp,8
 4300fa8:	f800283a 	ret

04300fac <debug_init>:

void debug_init(void)
{
 4300fac:	defffe04 	addi	sp,sp,-8
 4300fb0:	dfc00115 	stw	ra,4(sp)
 4300fb4:	df000015 	stw	fp,0(sp)
 4300fb8:	d839883a 	mov	fp,sp
    debug_clear_lines();
 4300fbc:	430073c0 	call	430073c <debug_clear_lines>
    last_text_seq = shared_read32(FLAG_TEXT_READY_SHARED);
 4300fc0:	01000a04 	movi	r4,40
 4300fc4:	43002600 	call	4300260 <shared_read32>
 4300fc8:	d0a6fa15 	stw	r2,-25624(gp)
    last_image_seq = shared_read32(FLAG_IMAGE_READY);
 4300fcc:	01000904 	movi	r4,36
 4300fd0:	43002600 	call	4300260 <shared_read32>
 4300fd4:	d0a6fb15 	stw	r2,-25620(gp)
    current_image_valid = debug_image_buffer_should_be_valid();
 4300fd8:	43006700 	call	4300670 <debug_image_buffer_should_be_valid>
 4300fdc:	d0a6fc15 	stw	r2,-25616(gp)

    draw_static_screen();
 4300fe0:	4300e740 	call	4300e74 <draw_static_screen>
}
 4300fe4:	0001883a 	nop
 4300fe8:	e037883a 	mov	sp,fp
 4300fec:	dfc00117 	ldw	ra,4(sp)
 4300ff0:	df000017 	ldw	fp,0(sp)
 4300ff4:	dec00204 	addi	sp,sp,8
 4300ff8:	f800283a 	ret

04300ffc <debug_update>:

void debug_update(void)
{
 4300ffc:	defffc04 	addi	sp,sp,-16
 4301000:	dfc00315 	stw	ra,12(sp)
 4301004:	df000215 	stw	fp,8(sp)
 4301008:	df000204 	addi	fp,sp,8
    uint32_t text_seq;
    uint32_t image_seq;

    text_seq = shared_read32(FLAG_TEXT_READY_SHARED);
 430100c:	01000a04 	movi	r4,40
 4301010:	43002600 	call	4300260 <shared_read32>
 4301014:	e0bffe15 	stw	r2,-8(fp)
    image_seq = shared_read32(FLAG_IMAGE_READY);
 4301018:	01000904 	movi	r4,36
 430101c:	43002600 	call	4300260 <shared_read32>
 4301020:	e0bfff15 	stw	r2,-4(fp)

    if (image_seq != last_image_seq)
 4301024:	d0a6fb17 	ldw	r2,-25620(gp)
 4301028:	e0ffff17 	ldw	r3,-4(fp)
 430102c:	18800826 	beq	r3,r2,4301050 <debug_update+0x54>
    {
        last_image_seq = image_seq;
 4301030:	e0bfff17 	ldw	r2,-4(fp)
 4301034:	d0a6fb15 	stw	r2,-25620(gp)

        if (debug_refresh_image_from_sdram())
 4301038:	43006fc0 	call	43006fc <debug_refresh_image_from_sdram>
 430103c:	10000426 	beq	r2,zero,4301050 <debug_update+0x54>
        {
            debug_add_line("IMAGE CAPTURED");
 4301040:	01010cb4 	movhi	r4,1074
 4301044:	213d6904 	addi	r4,r4,-2652
 4301048:	43008540 	call	4300854 <debug_add_line>
            debug_draw_text_panel();
 430104c:	4300ad80 	call	4300ad8 <debug_draw_text_panel>
        }
    }

    if (text_seq != last_text_seq)
 4301050:	d0a6fa17 	ldw	r2,-25624(gp)
 4301054:	e0fffe17 	ldw	r3,-8(fp)
 4301058:	18800826 	beq	r3,r2,430107c <debug_update+0x80>
    {
        last_text_seq = text_seq;
 430105c:	e0bffe17 	ldw	r2,-8(fp)
 4301060:	d0a6fa15 	stw	r2,-25624(gp)

        if (packet_ready())
 4301064:	43003780 	call	4300378 <packet_ready>
 4301068:	10000426 	beq	r2,zero,430107c <debug_update+0x80>
            debug_append_text_from_sdram(get_text_len());
 430106c:	43003d80 	call	43003d8 <get_text_len>
 4301070:	10bfffcc 	andi	r2,r2,65535
 4301074:	1009883a 	mov	r4,r2
 4301078:	4300c500 	call	4300c50 <debug_append_text_from_sdram>
    }
}
 430107c:	0001883a 	nop
 4301080:	e037883a 	mov	sp,fp
 4301084:	dfc00117 	ldw	ra,4(sp)
 4301088:	df000017 	ldw	fp,0(sp)
 430108c:	dec00204 	addi	sp,sp,8
 4301090:	f800283a 	ret

04301094 <debug_note_image_capture_requested>:

void debug_note_image_capture_requested(void)
{
 4301094:	defffe04 	addi	sp,sp,-8
 4301098:	dfc00115 	stw	ra,4(sp)
 430109c:	df000015 	stw	fp,0(sp)
 43010a0:	d839883a 	mov	fp,sp
    debug_add_line("KEY0 IMAGE CAPTURE REQ");
 43010a4:	01010cb4 	movhi	r4,1074
 43010a8:	213d6d04 	addi	r4,r4,-2636
 43010ac:	43008540 	call	4300854 <debug_add_line>
    debug_draw_text_panel();
 43010b0:	4300ad80 	call	4300ad8 <debug_draw_text_panel>
}
 43010b4:	0001883a 	nop
 43010b8:	e037883a 	mov	sp,fp
 43010bc:	dfc00117 	ldw	ra,4(sp)
 43010c0:	df000017 	ldw	fp,0(sp)
 43010c4:	dec00204 	addi	sp,sp,8
 43010c8:	f800283a 	ret

043010cc <debug_accept_current_image_as_draw_background>:

void debug_accept_current_image_as_draw_background(void)
{
 43010cc:	defff704 	addi	sp,sp,-36
 43010d0:	dfc00815 	stw	ra,32(sp)
 43010d4:	df000715 	stw	fp,28(sp)
 43010d8:	df000704 	addi	fp,sp,28
    volatile uint8_t *img = (volatile uint8_t *)IMAGE_BUFFER_BASE;
 43010dc:	00814874 	movhi	r2,1313
 43010e0:	10a80004 	addi	r2,r2,-24576
 43010e4:	e0bffb15 	stw	r2,-20(fp)
    int x;
    int y;
    uint32_t seq;

    if (!current_image_valid)
 43010e8:	d0a6fc17 	ldw	r2,-25616(gp)
 43010ec:	1000011e 	bne	r2,zero,43010f4 <debug_accept_current_image_as_draw_background+0x28>
    {
        debug_refresh_image_from_sdram();
 43010f0:	43006fc0 	call	43006fc <debug_refresh_image_from_sdram>
    }

    if (!debug_image_buffer_should_be_valid())
 43010f4:	43006700 	call	4300670 <debug_image_buffer_should_be_valid>
 43010f8:	1000081e 	bne	r2,zero,430111c <debug_accept_current_image_as_draw_background+0x50>
    {
        debug_add_line("NO IMAGE TO USE AS BG");
 43010fc:	01010cb4 	movhi	r4,1074
 4301100:	213d7304 	addi	r4,r4,-2612
 4301104:	43008540 	call	4300854 <debug_add_line>
        debug_draw_text_panel();
 4301108:	4300ad80 	call	4300ad8 <debug_draw_text_panel>
        shared_write32(FLAG_DEBUG_STATUS, DEBUG_STATUS_NO_IMAGE);
 430110c:	01400104 	movi	r5,4
 4301110:	01021304 	movi	r4,2124
 4301114:	43002940 	call	4300294 <shared_write32>
        return;
 4301118:	00005206 	br	4301264 <debug_accept_current_image_as_draw_background+0x198>
    }

    for (y = 0; y < DRAW_GRID_H; y++)
 430111c:	e03ffa15 	stw	zero,-24(fp)
 4301120:	00002e06 	br	43011dc <debug_accept_current_image_as_draw_background+0x110>
    {
        int src_y = (y * IMAGE_H) / DRAW_GRID_H;
 4301124:	e0bffa17 	ldw	r2,-24(fp)
 4301128:	10801824 	muli	r2,r2,96
 430112c:	01401804 	movi	r5,96
 4301130:	1009883a 	mov	r4,r2
 4301134:	430c2240 	call	430c224 <__divsi3>
 4301138:	e0bffc15 	stw	r2,-16(fp)

        for (x = 0; x < DRAW_GRID_W; x++)
 430113c:	e03ff915 	stw	zero,-28(fp)
 4301140:	00002006 	br	43011c4 <debug_accept_current_image_as_draw_background+0xf8>
        {
            int src_x = (x * IMAGE_W) / DRAW_GRID_W;
 4301144:	e0bff917 	ldw	r2,-28(fp)
 4301148:	10801824 	muli	r2,r2,96
 430114c:	01401804 	movi	r5,96
 4301150:	1009883a 	mov	r4,r2
 4301154:	430c2240 	call	430c224 <__divsi3>
 4301158:	e0bffd15 	stw	r2,-12(fp)
            uint8_t rgb332 = img[src_y * IMAGE_W + src_x];
 430115c:	e0bffc17 	ldw	r2,-16(fp)
 4301160:	10c01824 	muli	r3,r2,96
 4301164:	e0bffd17 	ldw	r2,-12(fp)
 4301168:	1885883a 	add	r2,r3,r2
 430116c:	1007883a 	mov	r3,r2
 4301170:	e0bffb17 	ldw	r2,-20(fp)
 4301174:	10c5883a 	add	r2,r2,r3
 4301178:	10800003 	ldbu	r2,0(r2)
 430117c:	e0bffe05 	stb	r2,-8(fp)
            uint8_t color = rgb332_to_vga_color(rgb332);
 4301180:	e0bffe03 	ldbu	r2,-8(fp)
 4301184:	1009883a 	mov	r4,r2
 4301188:	43004580 	call	4300458 <rgb332_to_vga_color>
 430118c:	e0bffe45 	stb	r2,-7(fp)
            shared_write8(DRAW_BG_GRID + y * DRAW_GRID_W + x, color);
 4301190:	e0bffa17 	ldw	r2,-24(fp)
 4301194:	10801824 	muli	r2,r2,96
 4301198:	10c40004 	addi	r3,r2,4096
 430119c:	e0bff917 	ldw	r2,-28(fp)
 43011a0:	1885883a 	add	r2,r3,r2
 43011a4:	1007883a 	mov	r3,r2
 43011a8:	e0bffe43 	ldbu	r2,-7(fp)
 43011ac:	100b883a 	mov	r5,r2
 43011b0:	1809883a 	mov	r4,r3
 43011b4:	43002d40 	call	43002d4 <shared_write8>

    for (y = 0; y < DRAW_GRID_H; y++)
    {
        int src_y = (y * IMAGE_H) / DRAW_GRID_H;

        for (x = 0; x < DRAW_GRID_W; x++)
 43011b8:	e0bff917 	ldw	r2,-28(fp)
 43011bc:	10800044 	addi	r2,r2,1
 43011c0:	e0bff915 	stw	r2,-28(fp)
 43011c4:	e0bff917 	ldw	r2,-28(fp)
 43011c8:	10801810 	cmplti	r2,r2,96
 43011cc:	103fdd1e 	bne	r2,zero,4301144 <__alt_data_end+0xffe01144>
        debug_draw_text_panel();
        shared_write32(FLAG_DEBUG_STATUS, DEBUG_STATUS_NO_IMAGE);
        return;
    }

    for (y = 0; y < DRAW_GRID_H; y++)
 43011d0:	e0bffa17 	ldw	r2,-24(fp)
 43011d4:	10800044 	addi	r2,r2,1
 43011d8:	e0bffa15 	stw	r2,-24(fp)
 43011dc:	e0bffa17 	ldw	r2,-24(fp)
 43011e0:	10801810 	cmplti	r2,r2,96
 43011e4:	103fcf1e 	bne	r2,zero,4301124 <__alt_data_end+0xffe01124>
            uint8_t color = rgb332_to_vga_color(rgb332);
            shared_write8(DRAW_BG_GRID + y * DRAW_GRID_W + x, color);
        }
    }

    seq = shared_read32(DRAW_BG_SEQ) + 1;
 43011e8:	01026104 	movi	r4,2436
 43011ec:	43002600 	call	4300260 <shared_read32>
 43011f0:	10800044 	addi	r2,r2,1
 43011f4:	e0bfff15 	stw	r2,-4(fp)
    shared_write32(DRAW_BG_SEQ, seq);
 43011f8:	e17fff17 	ldw	r5,-4(fp)
 43011fc:	01026104 	movi	r4,2436
 4301200:	43002940 	call	4300294 <shared_write32>
    shared_write32(DRAW_BG_READY, 1);
 4301204:	01400044 	movi	r5,1
 4301208:	01026004 	movi	r4,2432
 430120c:	43002940 	call	4300294 <shared_write32>
    shared_write32(FLAG_DEBUG_BG_ACCEPT_SEQ, shared_read32(FLAG_DEBUG_BG_ACCEPT_SEQ) + 1);
 4301210:	01021204 	movi	r4,2120
 4301214:	43002600 	call	4300260 <shared_read32>
 4301218:	10800044 	addi	r2,r2,1
 430121c:	100b883a 	mov	r5,r2
 4301220:	01021204 	movi	r4,2120
 4301224:	43002940 	call	4300294 <shared_write32>
    shared_write32(FLAG_DEBUG_STATUS, DEBUG_STATUS_BG_ACCEPTED);
 4301228:	014000c4 	movi	r5,3
 430122c:	01021304 	movi	r4,2124
 4301230:	43002940 	call	4300294 <shared_write32>

    debug_add_line("IMAGE SAVED AS 96X96 DRAW BG");
 4301234:	01010cb4 	movhi	r4,1074
 4301238:	213d7904 	addi	r4,r4,-2588
 430123c:	43008540 	call	4300854 <debug_add_line>
    debug_draw_text_panel();
 4301240:	4300ad80 	call	4300ad8 <debug_draw_text_panel>

    printf("Debug image accepted as draw background, seq=%lu\n", (unsigned long)seq);
 4301244:	e17fff17 	ldw	r5,-4(fp)
 4301248:	01010cb4 	movhi	r4,1074
 430124c:	213d8104 	addi	r4,r4,-2556
 4301250:	430d9400 	call	430d940 <printf>
    fflush(stdout);
 4301254:	d0a00e17 	ldw	r2,-32712(gp)
 4301258:	10800217 	ldw	r2,8(r2)
 430125c:	1009883a 	mov	r4,r2
 4301260:	430c6500 	call	430c650 <fflush>
}
 4301264:	e037883a 	mov	sp,fp
 4301268:	dfc00117 	ldw	ra,4(sp)
 430126c:	df000017 	ldw	fp,0(sp)
 4301270:	dec00204 	addi	sp,sp,8
 4301274:	f800283a 	ret

04301278 <debug_display_irq_capture_from_sdram>:

void debug_display_irq_capture_from_sdram(void)
{
 4301278:	defffe04 	addi	sp,sp,-8
 430127c:	dfc00115 	stw	ra,4(sp)
 4301280:	df000015 	stw	fp,0(sp)
 4301284:	d839883a 	mov	fp,sp
    printf("Debug manual display requested\n");
 4301288:	01010cb4 	movhi	r4,1074
 430128c:	213d8e04 	addi	r4,r4,-2504
 4301290:	430da3c0 	call	430da3c <puts>
    fflush(stdout);
 4301294:	d0a00e17 	ldw	r2,-32712(gp)
 4301298:	10800217 	ldw	r2,8(r2)
 430129c:	1009883a 	mov	r4,r2
 43012a0:	430c6500 	call	430c650 <fflush>

    debug_irq_tx_set_false();
 43012a4:	430034c0 	call	430034c <debug_irq_tx_set_false>
    display_capture_from_sdram();
 43012a8:	4300ef80 	call	4300ef8 <display_capture_from_sdram>
    vga_irq_tx_set_true();
 43012ac:	43003200 	call	4300320 <vga_irq_tx_set_true>

    while ((IORD_ALTERA_AVALON_PIO_DATA(VGA_IRQ_RX_BASE) & VGA_IRQ_RX_ACTIVE_MASK) != 0)
 43012b0:	00000206 	br	43012bc <debug_display_irq_capture_from_sdram+0x44>
        usleep(1000);
 43012b4:	0100fa04 	movi	r4,1000
 43012b8:	431cef00 	call	431cef0 <usleep>

    debug_irq_tx_set_false();
    display_capture_from_sdram();
    vga_irq_tx_set_true();

    while ((IORD_ALTERA_AVALON_PIO_DATA(VGA_IRQ_RX_BASE) & VGA_IRQ_RX_ACTIVE_MASK) != 0)
 43012bc:	00a41814 	movui	r2,36960
 43012c0:	10800037 	ldwio	r2,0(r2)
 43012c4:	1080004c 	andi	r2,r2,1
 43012c8:	103ffa1e 	bne	r2,zero,43012b4 <__alt_data_end+0xffe012b4>
        usleep(1000);

    IOWR_ALTERA_AVALON_PIO_EDGE_CAP(VGA_IRQ_RX_BASE, VGA_IRQ_RX_ACTIVE_MASK);
 43012cc:	00c00044 	movi	r3,1
 43012d0:	00a41b14 	movui	r2,36972
 43012d4:	10c00035 	stwio	r3,0(r2)
}
 43012d8:	0001883a 	nop
 43012dc:	e037883a 	mov	sp,fp
 43012e0:	dfc00117 	ldw	ra,4(sp)
 43012e4:	df000017 	ldw	fp,0(sp)
 43012e8:	dec00204 	addi	sp,sp,8
 43012ec:	f800283a 	ret

043012f0 <time_shared_read32>:
static uint32_t draw_count_black = 0;
static uint32_t draw_count_white = 0;
static uint32_t draw_count_other = 0;

static uint32_t time_shared_read32(uint32_t offset)
{
 43012f0:	defffe04 	addi	sp,sp,-8
 43012f4:	df000115 	stw	fp,4(sp)
 43012f8:	df000104 	addi	fp,sp,4
 43012fc:	e13fff15 	stw	r4,-4(fp)
    return IORD_32DIRECT(SHARED_FLAGS_BASE, offset);
 4301300:	e0ffff17 	ldw	r3,-4(fp)
 4301304:	00814874 	movhi	r2,1313
 4301308:	10880004 	addi	r2,r2,8192
 430130c:	1885883a 	add	r2,r3,r2
 4301310:	10800037 	ldwio	r2,0(r2)
}
 4301314:	e037883a 	mov	sp,fp
 4301318:	df000017 	ldw	fp,0(sp)
 430131c:	dec00104 	addi	sp,sp,4
 4301320:	f800283a 	ret

04301324 <time_shared_write32>:

static void time_shared_write32(uint32_t offset, uint32_t value)
{
 4301324:	defffd04 	addi	sp,sp,-12
 4301328:	df000215 	stw	fp,8(sp)
 430132c:	df000204 	addi	fp,sp,8
 4301330:	e13ffe15 	stw	r4,-8(fp)
 4301334:	e17fff15 	stw	r5,-4(fp)
    IOWR_32DIRECT(SHARED_FLAGS_BASE, offset, value);
 4301338:	e0fffe17 	ldw	r3,-8(fp)
 430133c:	00814874 	movhi	r2,1313
 4301340:	10880004 	addi	r2,r2,8192
 4301344:	1885883a 	add	r2,r3,r2
 4301348:	e0ffff17 	ldw	r3,-4(fp)
 430134c:	10c00035 	stwio	r3,0(r2)
}
 4301350:	0001883a 	nop
 4301354:	e037883a 	mov	sp,fp
 4301358:	df000017 	ldw	fp,0(sp)
 430135c:	dec00104 	addi	sp,sp,4
 4301360:	f800283a 	ret

04301364 <trigger_sfx_flag>:

static void trigger_sfx_flag(uint32_t offset)
{
 4301364:	defffd04 	addi	sp,sp,-12
 4301368:	dfc00215 	stw	ra,8(sp)
 430136c:	df000115 	stw	fp,4(sp)
 4301370:	df000104 	addi	fp,sp,4
 4301374:	e13fff15 	stw	r4,-4(fp)
    time_shared_write32(offset, time_shared_read32(offset) + 1);
 4301378:	e13fff17 	ldw	r4,-4(fp)
 430137c:	43012f00 	call	43012f0 <time_shared_read32>
 4301380:	10800044 	addi	r2,r2,1
 4301384:	100b883a 	mov	r5,r2
 4301388:	e13fff17 	ldw	r4,-4(fp)
 430138c:	43013240 	call	4301324 <time_shared_write32>
}
 4301390:	0001883a 	nop
 4301394:	e037883a 	mov	sp,fp
 4301398:	dfc00117 	ldw	ra,4(sp)
 430139c:	df000017 	ldw	fp,0(sp)
 43013a0:	dec00204 	addi	sp,sp,8
 43013a4:	f800283a 	ret

043013a8 <debug_write32>:

static void debug_write32(uint32_t offset, uint32_t value)
{
 43013a8:	defffd04 	addi	sp,sp,-12
 43013ac:	df000215 	stw	fp,8(sp)
 43013b0:	df000204 	addi	fp,sp,8
 43013b4:	e13ffe15 	stw	r4,-8(fp)
 43013b8:	e17fff15 	stw	r5,-4(fp)
    IOWR_32DIRECT(DEBUG_CONTROL_BASE, offset, value);
 43013bc:	e0fffe17 	ldw	r3,-8(fp)
 43013c0:	00818034 	movhi	r2,1536
 43013c4:	1885883a 	add	r2,r3,r2
 43013c8:	e0ffff17 	ldw	r3,-4(fp)
 43013cc:	10c00035 	stwio	r3,0(r2)
}
 43013d0:	0001883a 	nop
 43013d4:	e037883a 	mov	sp,fp
 43013d8:	df000017 	ldw	fp,0(sp)
 43013dc:	dec00104 	addi	sp,sp,4
 43013e0:	f800283a 	ret

043013e4 <debug_read32>:

static uint32_t debug_read32(uint32_t offset)
{
 43013e4:	defffe04 	addi	sp,sp,-8
 43013e8:	df000115 	stw	fp,4(sp)
 43013ec:	df000104 	addi	fp,sp,4
 43013f0:	e13fff15 	stw	r4,-4(fp)
    return IORD_32DIRECT(DEBUG_CONTROL_BASE, offset);
 43013f4:	e0ffff17 	ldw	r3,-4(fp)
 43013f8:	00818034 	movhi	r2,1536
 43013fc:	1885883a 	add	r2,r3,r2
 4301400:	10800037 	ldwio	r2,0(r2)
}
 4301404:	e037883a 	mov	sp,fp
 4301408:	df000017 	ldw	fp,0(sp)
 430140c:	dec00104 	addi	sp,sp,4
 4301410:	f800283a 	ret

04301414 <debug_write_message>:

static void debug_write_message(const char *msg)
{
 4301414:	defffd04 	addi	sp,sp,-12
 4301418:	df000215 	stw	fp,8(sp)
 430141c:	df000204 	addi	fp,sp,8
 4301420:	e13fff15 	stw	r4,-4(fp)
    int i;
    for (i = 0; i < DEBUG_CONTROL_MESSAGE_BYTES; i++)
 4301424:	e03ffe15 	stw	zero,-8(fp)
 4301428:	00000a06 	br	4301454 <debug_write_message+0x40>
        IOWR_8DIRECT(DEBUG_CONTROL_BASE, FLAG_CONTROL_MESSAGE + i, 0);
 430142c:	e0bffe17 	ldw	r2,-8(fp)
 4301430:	10820a04 	addi	r2,r2,2088
 4301434:	1007883a 	mov	r3,r2
 4301438:	00818034 	movhi	r2,1536
 430143c:	1885883a 	add	r2,r3,r2
 4301440:	0007883a 	mov	r3,zero
 4301444:	10c00025 	stbio	r3,0(r2)
}

static void debug_write_message(const char *msg)
{
    int i;
    for (i = 0; i < DEBUG_CONTROL_MESSAGE_BYTES; i++)
 4301448:	e0bffe17 	ldw	r2,-8(fp)
 430144c:	10800044 	addi	r2,r2,1
 4301450:	e0bffe15 	stw	r2,-8(fp)
 4301454:	e0bffe17 	ldw	r2,-8(fp)
 4301458:	10801110 	cmplti	r2,r2,68
 430145c:	103ff31e 	bne	r2,zero,430142c <__alt_data_end+0xffe0142c>
        IOWR_8DIRECT(DEBUG_CONTROL_BASE, FLAG_CONTROL_MESSAGE + i, 0);
    if (msg == 0)
 4301460:	e0bfff17 	ldw	r2,-4(fp)
 4301464:	10001c26 	beq	r2,zero,43014d8 <debug_write_message+0xc4>
        return;
    for (i = 0; i < DEBUG_CONTROL_MESSAGE_BYTES - 1 && msg[i] != '\0'; i++)
 4301468:	e03ffe15 	stw	zero,-8(fp)
 430146c:	00000e06 	br	43014a8 <debug_write_message+0x94>
        IOWR_8DIRECT(DEBUG_CONTROL_BASE, FLAG_CONTROL_MESSAGE + i, (uint8_t)msg[i]);
 4301470:	e0bffe17 	ldw	r2,-8(fp)
 4301474:	10820a04 	addi	r2,r2,2088
 4301478:	1007883a 	mov	r3,r2
 430147c:	00818034 	movhi	r2,1536
 4301480:	1885883a 	add	r2,r3,r2
 4301484:	e0fffe17 	ldw	r3,-8(fp)
 4301488:	e13fff17 	ldw	r4,-4(fp)
 430148c:	20c7883a 	add	r3,r4,r3
 4301490:	18c00003 	ldbu	r3,0(r3)
 4301494:	18c03fcc 	andi	r3,r3,255
 4301498:	10c00025 	stbio	r3,0(r2)
    int i;
    for (i = 0; i < DEBUG_CONTROL_MESSAGE_BYTES; i++)
        IOWR_8DIRECT(DEBUG_CONTROL_BASE, FLAG_CONTROL_MESSAGE + i, 0);
    if (msg == 0)
        return;
    for (i = 0; i < DEBUG_CONTROL_MESSAGE_BYTES - 1 && msg[i] != '\0'; i++)
 430149c:	e0bffe17 	ldw	r2,-8(fp)
 43014a0:	10800044 	addi	r2,r2,1
 43014a4:	e0bffe15 	stw	r2,-8(fp)
 43014a8:	e0bffe17 	ldw	r2,-8(fp)
 43014ac:	108010c8 	cmpgei	r2,r2,67
 43014b0:	10000a1e 	bne	r2,zero,43014dc <debug_write_message+0xc8>
 43014b4:	e0bffe17 	ldw	r2,-8(fp)
 43014b8:	e0ffff17 	ldw	r3,-4(fp)
 43014bc:	1885883a 	add	r2,r3,r2
 43014c0:	10800003 	ldbu	r2,0(r2)
 43014c4:	10803fcc 	andi	r2,r2,255
 43014c8:	1080201c 	xori	r2,r2,128
 43014cc:	10bfe004 	addi	r2,r2,-128
 43014d0:	103fe71e 	bne	r2,zero,4301470 <__alt_data_end+0xffe01470>
 43014d4:	00000106 	br	43014dc <debug_write_message+0xc8>
{
    int i;
    for (i = 0; i < DEBUG_CONTROL_MESSAGE_BYTES; i++)
        IOWR_8DIRECT(DEBUG_CONTROL_BASE, FLAG_CONTROL_MESSAGE + i, 0);
    if (msg == 0)
        return;
 43014d8:	0001883a 	nop
    for (i = 0; i < DEBUG_CONTROL_MESSAGE_BYTES - 1 && msg[i] != '\0'; i++)
        IOWR_8DIRECT(DEBUG_CONTROL_BASE, FLAG_CONTROL_MESSAGE + i, (uint8_t)msg[i]);
}
 43014dc:	e037883a 	mov	sp,fp
 43014e0:	df000017 	ldw	fp,0(sp)
 43014e4:	dec00104 	addi	sp,sp,4
 43014e8:	f800283a 	ret

043014ec <publish_control_message>:

static void publish_control_message(const char *msg)
{
 43014ec:	defffc04 	addi	sp,sp,-16
 43014f0:	dfc00315 	stw	ra,12(sp)
 43014f4:	df000215 	stw	fp,8(sp)
 43014f8:	df000204 	addi	fp,sp,8
 43014fc:	e13fff15 	stw	r4,-4(fp)
    uint32_t seq;
    debug_write_message(msg);
 4301500:	e13fff17 	ldw	r4,-4(fp)
 4301504:	43014140 	call	4301414 <debug_write_message>
    debug_write32(FLAG_CONTROL_LAST_EVENT_TYPE, DEBUG_CONTROL_CMD_BATCH);
 4301508:	01401904 	movi	r5,100
 430150c:	01020504 	movi	r4,2068
 4301510:	43013a80 	call	43013a8 <debug_write32>
    debug_write32(FLAG_CONTROL_LAST_EVENT_VALUE, DEBUG_CONTROL_MASK_HEX_MESSAGE);
 4301514:	01400044 	movi	r5,1
 4301518:	01020604 	movi	r4,2072
 430151c:	43013a80 	call	43013a8 <debug_write32>
    seq = debug_read32(FLAG_CONTROL_EVENT_SEQ) + 1;
 4301520:	01020004 	movi	r4,2048
 4301524:	43013e40 	call	43013e4 <debug_read32>
 4301528:	10800044 	addi	r2,r2,1
 430152c:	e0bffe15 	stw	r2,-8(fp)
    debug_write32(FLAG_CONTROL_EVENT_SEQ, seq);
 4301530:	e17ffe17 	ldw	r5,-8(fp)
 4301534:	01020004 	movi	r4,2048
 4301538:	43013a80 	call	43013a8 <debug_write32>
}
 430153c:	0001883a 	nop
 4301540:	e037883a 	mov	sp,fp
 4301544:	dfc00117 	ldw	ra,4(sp)
 4301548:	df000017 	ldw	fp,0(sp)
 430154c:	dec00204 	addi	sp,sp,8
 4301550:	f800283a 	ret

04301554 <count_color_add>:

static void count_color_add(uint8_t color, int delta)
{
 4301554:	defffc04 	addi	sp,sp,-16
 4301558:	df000315 	stw	fp,12(sp)
 430155c:	df000304 	addi	fp,sp,12
 4301560:	2005883a 	mov	r2,r4
 4301564:	e17fff15 	stw	r5,-4(fp)
 4301568:	e0bffe05 	stb	r2,-8(fp)
    uint32_t *target = &draw_count_other;
 430156c:	d0a70804 	addi	r2,gp,-25568
 4301570:	e0bffd15 	stw	r2,-12(fp)

    if (color == COL_RED) target = &draw_count_red;
 4301574:	e0bffe03 	ldbu	r2,-8(fp)
 4301578:	10803818 	cmpnei	r2,r2,224
 430157c:	1000031e 	bne	r2,zero,430158c <count_color_add+0x38>
 4301580:	d0a70204 	addi	r2,gp,-25592
 4301584:	e0bffd15 	stw	r2,-12(fp)
 4301588:	00001c06 	br	43015fc <count_color_add+0xa8>
    else if (color == COL_GREEN) target = &draw_count_green;
 430158c:	e0bffe03 	ldbu	r2,-8(fp)
 4301590:	10800718 	cmpnei	r2,r2,28
 4301594:	1000031e 	bne	r2,zero,43015a4 <count_color_add+0x50>
 4301598:	d0a70304 	addi	r2,gp,-25588
 430159c:	e0bffd15 	stw	r2,-12(fp)
 43015a0:	00001606 	br	43015fc <count_color_add+0xa8>
    else if (color == COL_BLUE) target = &draw_count_blue;
 43015a4:	e0bffe03 	ldbu	r2,-8(fp)
 43015a8:	108000d8 	cmpnei	r2,r2,3
 43015ac:	1000031e 	bne	r2,zero,43015bc <count_color_add+0x68>
 43015b0:	d0a70404 	addi	r2,gp,-25584
 43015b4:	e0bffd15 	stw	r2,-12(fp)
 43015b8:	00001006 	br	43015fc <count_color_add+0xa8>
    else if (color == COL_YELLOW) target = &draw_count_yellow;
 43015bc:	e0bffe03 	ldbu	r2,-8(fp)
 43015c0:	10803f18 	cmpnei	r2,r2,252
 43015c4:	1000031e 	bne	r2,zero,43015d4 <count_color_add+0x80>
 43015c8:	d0a70504 	addi	r2,gp,-25580
 43015cc:	e0bffd15 	stw	r2,-12(fp)
 43015d0:	00000a06 	br	43015fc <count_color_add+0xa8>
    else if (color == COL_BLACK) target = &draw_count_black;
 43015d4:	e0bffe03 	ldbu	r2,-8(fp)
 43015d8:	1000031e 	bne	r2,zero,43015e8 <count_color_add+0x94>
 43015dc:	d0a70604 	addi	r2,gp,-25576
 43015e0:	e0bffd15 	stw	r2,-12(fp)
 43015e4:	00000506 	br	43015fc <count_color_add+0xa8>
    else if (color == COL_WHITE) target = &draw_count_white;
 43015e8:	e0bffe03 	ldbu	r2,-8(fp)
 43015ec:	10803fd8 	cmpnei	r2,r2,255
 43015f0:	1000021e 	bne	r2,zero,43015fc <count_color_add+0xa8>
 43015f4:	d0a70704 	addi	r2,gp,-25572
 43015f8:	e0bffd15 	stw	r2,-12(fp)

    if (delta < 0) {
 43015fc:	e0bfff17 	ldw	r2,-4(fp)
 4301600:	1000090e 	bge	r2,zero,4301628 <count_color_add+0xd4>
        if (*target > 0) (*target)--;
 4301604:	e0bffd17 	ldw	r2,-12(fp)
 4301608:	10800017 	ldw	r2,0(r2)
 430160c:	10000b26 	beq	r2,zero,430163c <count_color_add+0xe8>
 4301610:	e0bffd17 	ldw	r2,-12(fp)
 4301614:	10800017 	ldw	r2,0(r2)
 4301618:	10ffffc4 	addi	r3,r2,-1
 430161c:	e0bffd17 	ldw	r2,-12(fp)
 4301620:	10c00015 	stw	r3,0(r2)
    } else {
        (*target)++;
    }
}
 4301624:	00000506 	br	430163c <count_color_add+0xe8>
    else if (color == COL_WHITE) target = &draw_count_white;

    if (delta < 0) {
        if (*target > 0) (*target)--;
    } else {
        (*target)++;
 4301628:	e0bffd17 	ldw	r2,-12(fp)
 430162c:	10800017 	ldw	r2,0(r2)
 4301630:	10c00044 	addi	r3,r2,1
 4301634:	e0bffd17 	ldw	r2,-12(fp)
 4301638:	10c00015 	stw	r3,0(r2)
    }
}
 430163c:	0001883a 	nop
 4301640:	e037883a 	mov	sp,fp
 4301644:	df000017 	ldw	fp,0(sp)
 4301648:	dec00104 	addi	sp,sp,4
 430164c:	f800283a 	ret

04301650 <publish_draw_counts>:

static void publish_draw_counts(void)
{
 4301650:	deffe704 	addi	sp,sp,-100
 4301654:	dfc01815 	stw	ra,96(sp)
 4301658:	df001715 	stw	fp,92(sp)
 430165c:	df001704 	addi	fp,sp,92
    char msg[DEBUG_CONTROL_MESSAGE_BYTES];
    time_shared_write32(FLAG_DRAW_RED_COUNT, draw_count_red);
 4301660:	d0a70217 	ldw	r2,-25592(gp)
 4301664:	100b883a 	mov	r5,r2
 4301668:	01033004 	movi	r4,3264
 430166c:	43013240 	call	4301324 <time_shared_write32>
    time_shared_write32(FLAG_DRAW_GREEN_COUNT, draw_count_green);
 4301670:	d0a70317 	ldw	r2,-25588(gp)
 4301674:	100b883a 	mov	r5,r2
 4301678:	01033104 	movi	r4,3268
 430167c:	43013240 	call	4301324 <time_shared_write32>
    time_shared_write32(FLAG_DRAW_BLUE_COUNT, draw_count_blue);
 4301680:	d0a70417 	ldw	r2,-25584(gp)
 4301684:	100b883a 	mov	r5,r2
 4301688:	01033204 	movi	r4,3272
 430168c:	43013240 	call	4301324 <time_shared_write32>
    time_shared_write32(FLAG_DRAW_YELLOW_COUNT, draw_count_yellow);
 4301690:	d0a70517 	ldw	r2,-25580(gp)
 4301694:	100b883a 	mov	r5,r2
 4301698:	01033304 	movi	r4,3276
 430169c:	43013240 	call	4301324 <time_shared_write32>
    time_shared_write32(FLAG_DRAW_BLACK_COUNT, draw_count_black);
 43016a0:	d0a70617 	ldw	r2,-25576(gp)
 43016a4:	100b883a 	mov	r5,r2
 43016a8:	01033404 	movi	r4,3280
 43016ac:	43013240 	call	4301324 <time_shared_write32>
    time_shared_write32(FLAG_DRAW_WHITE_COUNT, draw_count_white);
 43016b0:	d0a70717 	ldw	r2,-25572(gp)
 43016b4:	100b883a 	mov	r5,r2
 43016b8:	01033504 	movi	r4,3284
 43016bc:	43013240 	call	4301324 <time_shared_write32>
    time_shared_write32(FLAG_DRAW_OTHER_COUNT, draw_count_other);
 43016c0:	d0a70817 	ldw	r2,-25568(gp)
 43016c4:	100b883a 	mov	r5,r2
 43016c8:	01033604 	movi	r4,3288
 43016cc:	43013240 	call	4301324 <time_shared_write32>

    snprintf(msg, sizeof(msg), "R%lu G%lu B%lu Y%lu K%lu W%lu O%lu",
 43016d0:	d2270217 	ldw	r8,-25592(gp)
 43016d4:	d0a70317 	ldw	r2,-25588(gp)
 43016d8:	d0e70417 	ldw	r3,-25584(gp)
 43016dc:	d1270517 	ldw	r4,-25580(gp)
 43016e0:	d1670617 	ldw	r5,-25576(gp)
 43016e4:	d1a70717 	ldw	r6,-25572(gp)
 43016e8:	d1e70817 	ldw	r7,-25568(gp)
 43016ec:	d9c00515 	stw	r7,20(sp)
 43016f0:	d9800415 	stw	r6,16(sp)
 43016f4:	d9400315 	stw	r5,12(sp)
 43016f8:	d9000215 	stw	r4,8(sp)
 43016fc:	d8c00115 	stw	r3,4(sp)
 4301700:	d8800015 	stw	r2,0(sp)
 4301704:	400f883a 	mov	r7,r8
 4301708:	01810cb4 	movhi	r6,1074
 430170c:	31bd9604 	addi	r6,r6,-2472
 4301710:	01401104 	movi	r5,68
 4301714:	e13fef04 	addi	r4,fp,-68
 4301718:	430db7c0 	call	430db7c <snprintf>
             (unsigned long)draw_count_blue,
             (unsigned long)draw_count_yellow,
             (unsigned long)draw_count_black,
             (unsigned long)draw_count_white,
             (unsigned long)draw_count_other);
    publish_control_message(msg);
 430171c:	e13fef04 	addi	r4,fp,-68
 4301720:	43014ec0 	call	43014ec <publish_control_message>
}
 4301724:	0001883a 	nop
 4301728:	e037883a 	mov	sp,fp
 430172c:	dfc00117 	ldw	ra,4(sp)
 4301730:	df000017 	ldw	fp,0(sp)
 4301734:	dec00204 	addi	sp,sp,8
 4301738:	f800283a 	ret

0430173c <recount_draw_colors>:

static void recount_draw_colors(void)
{
 430173c:	defffd04 	addi	sp,sp,-12
 4301740:	dfc00215 	stw	ra,8(sp)
 4301744:	df000115 	stw	fp,4(sp)
 4301748:	df000104 	addi	fp,sp,4
    int i;
    draw_count_red = draw_count_green = draw_count_blue = draw_count_yellow = 0;
 430174c:	d0270515 	stw	zero,-25580(gp)
 4301750:	d0a70517 	ldw	r2,-25580(gp)
 4301754:	d0a70415 	stw	r2,-25584(gp)
 4301758:	d0a70417 	ldw	r2,-25584(gp)
 430175c:	d0a70315 	stw	r2,-25588(gp)
 4301760:	d0a70317 	ldw	r2,-25588(gp)
 4301764:	d0a70215 	stw	r2,-25592(gp)
    draw_count_black = draw_count_white = draw_count_other = 0;
 4301768:	d0270815 	stw	zero,-25568(gp)
 430176c:	d0a70817 	ldw	r2,-25568(gp)
 4301770:	d0a70715 	stw	r2,-25572(gp)
 4301774:	d0a70717 	ldw	r2,-25572(gp)
 4301778:	d0a70615 	stw	r2,-25576(gp)
    for (i = 0; i < DRAW_GRID_W * DRAW_GRID_H; i++)
 430177c:	e03fff15 	stw	zero,-4(fp)
 4301780:	00000c06 	br	43017b4 <recount_draw_colors+0x78>
        count_color_add(time_draw_grid[i], 1);
 4301784:	00810cb4 	movhi	r2,1074
 4301788:	108f0d84 	addi	r2,r2,15414
 430178c:	e0ffff17 	ldw	r3,-4(fp)
 4301790:	10c5883a 	add	r2,r2,r3
 4301794:	10800003 	ldbu	r2,0(r2)
 4301798:	10803fcc 	andi	r2,r2,255
 430179c:	01400044 	movi	r5,1
 43017a0:	1009883a 	mov	r4,r2
 43017a4:	43015540 	call	4301554 <count_color_add>
static void recount_draw_colors(void)
{
    int i;
    draw_count_red = draw_count_green = draw_count_blue = draw_count_yellow = 0;
    draw_count_black = draw_count_white = draw_count_other = 0;
    for (i = 0; i < DRAW_GRID_W * DRAW_GRID_H; i++)
 43017a8:	e0bfff17 	ldw	r2,-4(fp)
 43017ac:	10800044 	addi	r2,r2,1
 43017b0:	e0bfff15 	stw	r2,-4(fp)
 43017b4:	e0bfff17 	ldw	r2,-4(fp)
 43017b8:	10890010 	cmplti	r2,r2,9216
 43017bc:	103ff11e 	bne	r2,zero,4301784 <__alt_data_end+0xffe01784>
        count_color_add(time_draw_grid[i], 1);
    publish_draw_counts();
 43017c0:	43016500 	call	4301650 <publish_draw_counts>
}
 43017c4:	0001883a 	nop
 43017c8:	e037883a 	mov	sp,fp
 43017cc:	dfc00117 	ldw	ra,4(sp)
 43017d0:	df000017 	ldw	fp,0(sp)
 43017d4:	dec00204 	addi	sp,sp,8
 43017d8:	f800283a 	ret

043017dc <time_shared_read8>:

static uint8_t time_shared_read8(uint32_t offset)
{
 43017dc:	defffd04 	addi	sp,sp,-12
 43017e0:	df000215 	stw	fp,8(sp)
 43017e4:	df000204 	addi	fp,sp,8
 43017e8:	e13fff15 	stw	r4,-4(fp)
    volatile uint8_t *p = (volatile uint8_t *)(SHARED_FLAGS_BASE + offset);
 43017ec:	e0ffff17 	ldw	r3,-4(fp)
 43017f0:	00814874 	movhi	r2,1313
 43017f4:	10880004 	addi	r2,r2,8192
 43017f8:	1885883a 	add	r2,r3,r2
 43017fc:	e0bffe15 	stw	r2,-8(fp)
    return *p;
 4301800:	e0bffe17 	ldw	r2,-8(fp)
 4301804:	10800003 	ldbu	r2,0(r2)
}
 4301808:	e037883a 	mov	sp,fp
 430180c:	df000017 	ldw	fp,0(sp)
 4301810:	dec00104 	addi	sp,sp,4
 4301814:	f800283a 	ret

04301818 <time_draw_valid_cell>:

static int time_draw_valid_cell(int x, int y)
{
 4301818:	defffd04 	addi	sp,sp,-12
 430181c:	df000215 	stw	fp,8(sp)
 4301820:	df000204 	addi	fp,sp,8
 4301824:	e13ffe15 	stw	r4,-8(fp)
 4301828:	e17fff15 	stw	r5,-4(fp)
    return (x >= 0 && x < DRAW_GRID_W && y >= 0 && y < DRAW_GRID_H);
 430182c:	e0bffe17 	ldw	r2,-8(fp)
 4301830:	10000a16 	blt	r2,zero,430185c <time_draw_valid_cell+0x44>
 4301834:	e0bffe17 	ldw	r2,-8(fp)
 4301838:	10801808 	cmpgei	r2,r2,96
 430183c:	1000071e 	bne	r2,zero,430185c <time_draw_valid_cell+0x44>
 4301840:	e0bfff17 	ldw	r2,-4(fp)
 4301844:	10000516 	blt	r2,zero,430185c <time_draw_valid_cell+0x44>
 4301848:	e0bfff17 	ldw	r2,-4(fp)
 430184c:	10801808 	cmpgei	r2,r2,96
 4301850:	1000021e 	bne	r2,zero,430185c <time_draw_valid_cell+0x44>
 4301854:	00800044 	movi	r2,1
 4301858:	00000106 	br	4301860 <time_draw_valid_cell+0x48>
 430185c:	0005883a 	mov	r2,zero
}
 4301860:	e037883a 	mov	sp,fp
 4301864:	df000017 	ldw	fp,0(sp)
 4301868:	dec00104 	addi	sp,sp,4
 430186c:	f800283a 	ret

04301870 <time_draw_grid_index>:

static int time_draw_grid_index(int x, int y)
{
 4301870:	defffd04 	addi	sp,sp,-12
 4301874:	df000215 	stw	fp,8(sp)
 4301878:	df000204 	addi	fp,sp,8
 430187c:	e13ffe15 	stw	r4,-8(fp)
 4301880:	e17fff15 	stw	r5,-4(fp)
    return y * DRAW_GRID_W + x;
 4301884:	e0bfff17 	ldw	r2,-4(fp)
 4301888:	10c01824 	muli	r3,r2,96
 430188c:	e0bffe17 	ldw	r2,-8(fp)
 4301890:	1885883a 	add	r2,r3,r2
}
 4301894:	e037883a 	mov	sp,fp
 4301898:	df000017 	ldw	fp,0(sp)
 430189c:	dec00104 	addi	sp,sp,4
 43018a0:	f800283a 	ret

043018a4 <time_draw_cell>:

static void time_draw_cell(int x, int y, uint8_t color)
{
 43018a4:	defff904 	addi	sp,sp,-28
 43018a8:	dfc00615 	stw	ra,24(sp)
 43018ac:	df000515 	stw	fp,20(sp)
 43018b0:	df000504 	addi	fp,sp,20
 43018b4:	e13ffd15 	stw	r4,-12(fp)
 43018b8:	e17ffe15 	stw	r5,-8(fp)
 43018bc:	3005883a 	mov	r2,r6
 43018c0:	e0bfff05 	stb	r2,-4(fp)
    int px;
    int py;

    if (!time_draw_valid_cell(x, y))
 43018c4:	e17ffe17 	ldw	r5,-8(fp)
 43018c8:	e13ffd17 	ldw	r4,-12(fp)
 43018cc:	43018180 	call	4301818 <time_draw_valid_cell>
 43018d0:	10000f26 	beq	r2,zero,4301910 <time_draw_cell+0x6c>
        return;

    px = DRAW_GRID_X0 + x * DRAW_CELL_SIZE;
 43018d4:	e0bffd17 	ldw	r2,-12(fp)
 43018d8:	10800804 	addi	r2,r2,32
 43018dc:	1085883a 	add	r2,r2,r2
 43018e0:	e0bffb15 	stw	r2,-20(fp)
    py = DRAW_GRID_Y0 + y * DRAW_CELL_SIZE;
 43018e4:	e0bffe17 	ldw	r2,-8(fp)
 43018e8:	10800304 	addi	r2,r2,12
 43018ec:	1085883a 	add	r2,r2,r2
 43018f0:	e0bffc15 	stw	r2,-16(fp)

    pt_draw_canvas_cell(px, py, DRAW_CELL_SIZE, color);
 43018f4:	e0bfff03 	ldbu	r2,-4(fp)
 43018f8:	100f883a 	mov	r7,r2
 43018fc:	01800084 	movi	r6,2
 4301900:	e17ffc17 	ldw	r5,-16(fp)
 4301904:	e13ffb17 	ldw	r4,-20(fp)
 4301908:	4305ec80 	call	4305ec8 <pt_draw_canvas_cell>
 430190c:	00000106 	br	4301914 <time_draw_cell+0x70>
{
    int px;
    int py;

    if (!time_draw_valid_cell(x, y))
        return;
 4301910:	0001883a 	nop

    px = DRAW_GRID_X0 + x * DRAW_CELL_SIZE;
    py = DRAW_GRID_Y0 + y * DRAW_CELL_SIZE;

    pt_draw_canvas_cell(px, py, DRAW_CELL_SIZE, color);
}
 4301914:	e037883a 	mov	sp,fp
 4301918:	dfc00117 	ldw	ra,4(sp)
 430191c:	df000017 	ldw	fp,0(sp)
 4301920:	dec00204 	addi	sp,sp,8
 4301924:	f800283a 	ret

04301928 <time_draw_rx_indicator>:

static void time_draw_rx_indicator(int active)
{
 4301928:	defffd04 	addi	sp,sp,-12
 430192c:	dfc00215 	stw	ra,8(sp)
 4301930:	df000115 	stw	fp,4(sp)
 4301934:	df000104 	addi	fp,sp,4
 4301938:	e13fff15 	stw	r4,-4(fp)
    pt_draw_rx_badge(10, 7, active, active ? "RX" : "ID");
 430193c:	e0bfff17 	ldw	r2,-4(fp)
 4301940:	10000326 	beq	r2,zero,4301950 <time_draw_rx_indicator+0x28>
 4301944:	00810cb4 	movhi	r2,1074
 4301948:	10bd9f04 	addi	r2,r2,-2436
 430194c:	00000206 	br	4301958 <time_draw_rx_indicator+0x30>
 4301950:	00810cb4 	movhi	r2,1074
 4301954:	10bda004 	addi	r2,r2,-2432
 4301958:	100f883a 	mov	r7,r2
 430195c:	e1bfff17 	ldw	r6,-4(fp)
 4301960:	014001c4 	movi	r5,7
 4301964:	01000284 	movi	r4,10
 4301968:	43033540 	call	4303354 <pt_draw_rx_badge>
}
 430196c:	0001883a 	nop
 4301970:	e037883a 	mov	sp,fp
 4301974:	dfc00117 	ldw	ra,4(sp)
 4301978:	df000017 	ldw	fp,0(sp)
 430197c:	dec00204 	addi	sp,sp,8
 4301980:	f800283a 	ret

04301984 <time_draw_update_rx_status>:

static void time_draw_update_rx_status(void)
{
 4301984:	defffb04 	addi	sp,sp,-20
 4301988:	dfc00415 	stw	ra,16(sp)
 430198c:	df000315 	stw	fp,12(sp)
 4301990:	df000304 	addi	fp,sp,12
    uint32_t seq = time_shared_read32(FLAG_RT_ACTIVITY_SEQ);
 4301994:	01021c04 	movi	r4,2160
 4301998:	43012f00 	call	43012f0 <time_shared_read32>
 430199c:	e0bffd15 	stw	r2,-12(fp)
    uint32_t panel = time_shared_read32(FLAG_RT_PANEL_MODE);
 43019a0:	01021d04 	movi	r4,2164
 43019a4:	43012f00 	call	43012f0 <time_shared_read32>
 43019a8:	e0bffe15 	stw	r2,-8(fp)
    int active;

    if (panel == GAME_MODE_DRAW && seq != time_draw_rx_last_seq)
 43019ac:	e0bffe17 	ldw	r2,-8(fp)
 43019b0:	10800098 	cmpnei	r2,r2,2
 43019b4:	1000081e 	bne	r2,zero,43019d8 <time_draw_update_rx_status+0x54>
 43019b8:	d0a70017 	ldw	r2,-25600(gp)
 43019bc:	e0fffd17 	ldw	r3,-12(fp)
 43019c0:	18800526 	beq	r3,r2,43019d8 <time_draw_update_rx_status+0x54>
    {
        time_draw_rx_last_seq = seq;
 43019c4:	e0bffd17 	ldw	r2,-12(fp)
 43019c8:	d0a70015 	stw	r2,-25600(gp)
        time_draw_rx_ticks = RX_ACTIVE_TICKS;
 43019cc:	00800784 	movi	r2,30
 43019d0:	d0a70115 	stw	r2,-25596(gp)
 43019d4:	00000506 	br	43019ec <time_draw_update_rx_status+0x68>
    }
    else if (time_draw_rx_ticks > 0)
 43019d8:	d0a70117 	ldw	r2,-25596(gp)
 43019dc:	0080030e 	bge	zero,r2,43019ec <time_draw_update_rx_status+0x68>
    {
        time_draw_rx_ticks--;
 43019e0:	d0a70117 	ldw	r2,-25596(gp)
 43019e4:	10bfffc4 	addi	r2,r2,-1
 43019e8:	d0a70115 	stw	r2,-25596(gp)
    }

    active = (time_draw_rx_ticks > 0);
 43019ec:	d0a70117 	ldw	r2,-25596(gp)
 43019f0:	0084803a 	cmplt	r2,zero,r2
 43019f4:	10803fcc 	andi	r2,r2,255
 43019f8:	e0bfff15 	stw	r2,-4(fp)

    if (active != time_draw_rx_indicator_state)
 43019fc:	d0a00017 	ldw	r2,-32768(gp)
 4301a00:	e0ffff17 	ldw	r3,-4(fp)
 4301a04:	18800426 	beq	r3,r2,4301a18 <time_draw_update_rx_status+0x94>
    {
        time_draw_rx_indicator_state = active;
 4301a08:	e0bfff17 	ldw	r2,-4(fp)
 4301a0c:	d0a00015 	stw	r2,-32768(gp)
        time_draw_rx_indicator(active);
 4301a10:	e13fff17 	ldw	r4,-4(fp)
 4301a14:	43019280 	call	4301928 <time_draw_rx_indicator>
    }
}
 4301a18:	0001883a 	nop
 4301a1c:	e037883a 	mov	sp,fp
 4301a20:	dfc00117 	ldw	ra,4(sp)
 4301a24:	df000017 	ldw	fp,0(sp)
 4301a28:	dec00204 	addi	sp,sp,8
 4301a2c:	f800283a 	ret

04301a30 <time_draw_border>:

static void time_draw_border(void)
{
 4301a30:	defffa04 	addi	sp,sp,-24
 4301a34:	dfc00515 	stw	ra,20(sp)
 4301a38:	df000415 	stw	fp,16(sp)
 4301a3c:	df000404 	addi	fp,sp,16
    int x = DRAW_GRID_X0 - 2;
 4301a40:	00800f84 	movi	r2,62
 4301a44:	e0bffc15 	stw	r2,-16(fp)
    int y = DRAW_GRID_Y0 - 2;
 4301a48:	00800584 	movi	r2,22
 4301a4c:	e0bffd15 	stw	r2,-12(fp)
    int w = DRAW_GRID_W * DRAW_CELL_SIZE + 4;
 4301a50:	00803104 	movi	r2,196
 4301a54:	e0bffe15 	stw	r2,-8(fp)
    int h = DRAW_GRID_H * DRAW_CELL_SIZE + 4;
 4301a58:	00803104 	movi	r2,196
 4301a5c:	e0bfff15 	stw	r2,-4(fp)

    pt_draw_canvas_frame(x, y, w, h);
 4301a60:	e1ffff17 	ldw	r7,-4(fp)
 4301a64:	e1bffe17 	ldw	r6,-8(fp)
 4301a68:	e17ffd17 	ldw	r5,-12(fp)
 4301a6c:	e13ffc17 	ldw	r4,-16(fp)
 4301a70:	4305e0c0 	call	4305e0c <pt_draw_canvas_frame>
}
 4301a74:	0001883a 	nop
 4301a78:	e037883a 	mov	sp,fp
 4301a7c:	dfc00117 	ldw	ra,4(sp)
 4301a80:	df000017 	ldw	fp,0(sp)
 4301a84:	dec00204 	addi	sp,sp,8
 4301a88:	f800283a 	ret

04301a8c <time_draw_full_grid>:

static void time_draw_full_grid(void)
{
 4301a8c:	defffc04 	addi	sp,sp,-16
 4301a90:	dfc00315 	stw	ra,12(sp)
 4301a94:	df000215 	stw	fp,8(sp)
 4301a98:	df000204 	addi	fp,sp,8
    int x;
    int y;

    for (y = 0; y < DRAW_GRID_H; y++)
 4301a9c:	e03fff15 	stw	zero,-4(fp)
 4301aa0:	00001806 	br	4301b04 <time_draw_full_grid+0x78>
    {
        for (x = 0; x < DRAW_GRID_W; x++)
 4301aa4:	e03ffe15 	stw	zero,-8(fp)
 4301aa8:	00001006 	br	4301aec <time_draw_full_grid+0x60>
            time_draw_cell(x, y, time_draw_grid[time_draw_grid_index(x, y)]);
 4301aac:	e17fff17 	ldw	r5,-4(fp)
 4301ab0:	e13ffe17 	ldw	r4,-8(fp)
 4301ab4:	43018700 	call	4301870 <time_draw_grid_index>
 4301ab8:	1007883a 	mov	r3,r2
 4301abc:	00810cb4 	movhi	r2,1074
 4301ac0:	108f0d84 	addi	r2,r2,15414
 4301ac4:	10c5883a 	add	r2,r2,r3
 4301ac8:	10800003 	ldbu	r2,0(r2)
 4301acc:	10803fcc 	andi	r2,r2,255
 4301ad0:	100d883a 	mov	r6,r2
 4301ad4:	e17fff17 	ldw	r5,-4(fp)
 4301ad8:	e13ffe17 	ldw	r4,-8(fp)
 4301adc:	43018a40 	call	43018a4 <time_draw_cell>
    int x;
    int y;

    for (y = 0; y < DRAW_GRID_H; y++)
    {
        for (x = 0; x < DRAW_GRID_W; x++)
 4301ae0:	e0bffe17 	ldw	r2,-8(fp)
 4301ae4:	10800044 	addi	r2,r2,1
 4301ae8:	e0bffe15 	stw	r2,-8(fp)
 4301aec:	e0bffe17 	ldw	r2,-8(fp)
 4301af0:	10801810 	cmplti	r2,r2,96
 4301af4:	103fed1e 	bne	r2,zero,4301aac <__alt_data_end+0xffe01aac>
static void time_draw_full_grid(void)
{
    int x;
    int y;

    for (y = 0; y < DRAW_GRID_H; y++)
 4301af8:	e0bfff17 	ldw	r2,-4(fp)
 4301afc:	10800044 	addi	r2,r2,1
 4301b00:	e0bfff15 	stw	r2,-4(fp)
 4301b04:	e0bfff17 	ldw	r2,-4(fp)
 4301b08:	10801810 	cmplti	r2,r2,96
 4301b0c:	103fe51e 	bne	r2,zero,4301aa4 <__alt_data_end+0xffe01aa4>
    {
        for (x = 0; x < DRAW_GRID_W; x++)
            time_draw_cell(x, y, time_draw_grid[time_draw_grid_index(x, y)]);
    }
}
 4301b10:	0001883a 	nop
 4301b14:	e037883a 	mov	sp,fp
 4301b18:	dfc00117 	ldw	ra,4(sp)
 4301b1c:	df000017 	ldw	fp,0(sp)
 4301b20:	dec00204 	addi	sp,sp,8
 4301b24:	f800283a 	ret

04301b28 <time_apply_draw_background_if_ready>:

static void time_apply_draw_background_if_ready(void)
{
 4301b28:	defff704 	addi	sp,sp,-36
 4301b2c:	dfc00815 	stw	ra,32(sp)
 4301b30:	df000715 	stw	fp,28(sp)
 4301b34:	df000704 	addi	fp,sp,28
    uint32_t ready;
    uint32_t seq;
    int x;
    int y;
    int changed = 0;
 4301b38:	e03ffb15 	stw	zero,-20(fp)

    ready = time_shared_read32(DRAW_BG_READY);
 4301b3c:	01026004 	movi	r4,2432
 4301b40:	43012f00 	call	43012f0 <time_shared_read32>
 4301b44:	e0bffc15 	stw	r2,-16(fp)
    if (ready == 0)
 4301b48:	e0bffc17 	ldw	r2,-16(fp)
 4301b4c:	10005326 	beq	r2,zero,4301c9c <time_apply_draw_background_if_ready+0x174>
        return;

    seq = time_shared_read32(DRAW_BG_SEQ);
 4301b50:	01026104 	movi	r4,2436
 4301b54:	43012f00 	call	43012f0 <time_shared_read32>
 4301b58:	e0bffd15 	stw	r2,-12(fp)
    if (seq == time_draw_last_bg_seq)
 4301b5c:	d0a6ff17 	ldw	r2,-25604(gp)
 4301b60:	e0fffd17 	ldw	r3,-12(fp)
 4301b64:	1880041e 	bne	r3,r2,4301b78 <time_apply_draw_background_if_ready+0x50>
    {
        time_shared_write32(DRAW_BG_READY, 0);
 4301b68:	000b883a 	mov	r5,zero
 4301b6c:	01026004 	movi	r4,2432
 4301b70:	43013240 	call	4301324 <time_shared_write32>
        return;
 4301b74:	00004a06 	br	4301ca0 <time_apply_draw_background_if_ready+0x178>
    /*
       Direct grid mirror sync.
       Debug KEY1 background and IMG draw micro-batches both write the same
       96x96 RGB332 grid. Redraw only changed cells.
    */
    for (y = 0; y < DRAW_GRID_H; y++)
 4301b78:	e03ffa15 	stw	zero,-24(fp)
 4301b7c:	00002d06 	br	4301c34 <time_apply_draw_background_if_ready+0x10c>
    {
        for (x = 0; x < DRAW_GRID_W; x++)
 4301b80:	e03ff915 	stw	zero,-28(fp)
 4301b84:	00002506 	br	4301c1c <time_apply_draw_background_if_ready+0xf4>
        {
            int index = time_draw_grid_index(x, y);
 4301b88:	e17ffa17 	ldw	r5,-24(fp)
 4301b8c:	e13ff917 	ldw	r4,-28(fp)
 4301b90:	43018700 	call	4301870 <time_draw_grid_index>
 4301b94:	e0bffe15 	stw	r2,-8(fp)
            uint8_t color = time_shared_read8(DRAW_BG_GRID + y * DRAW_GRID_W + x);
 4301b98:	e0bffa17 	ldw	r2,-24(fp)
 4301b9c:	10801824 	muli	r2,r2,96
 4301ba0:	10c40004 	addi	r3,r2,4096
 4301ba4:	e0bff917 	ldw	r2,-28(fp)
 4301ba8:	1885883a 	add	r2,r3,r2
 4301bac:	1009883a 	mov	r4,r2
 4301bb0:	43017dc0 	call	43017dc <time_shared_read8>
 4301bb4:	e0bfff05 	stb	r2,-4(fp)

            if (time_draw_grid[index] != color)
 4301bb8:	00810cb4 	movhi	r2,1074
 4301bbc:	108f0d84 	addi	r2,r2,15414
 4301bc0:	e0fffe17 	ldw	r3,-8(fp)
 4301bc4:	10c5883a 	add	r2,r2,r3
 4301bc8:	10800003 	ldbu	r2,0(r2)
 4301bcc:	10c03fcc 	andi	r3,r2,255
 4301bd0:	e0bfff03 	ldbu	r2,-4(fp)
 4301bd4:	18800e26 	beq	r3,r2,4301c10 <time_apply_draw_background_if_ready+0xe8>
            {
                time_draw_grid[index] = color;
 4301bd8:	00810cb4 	movhi	r2,1074
 4301bdc:	108f0d84 	addi	r2,r2,15414
 4301be0:	e0fffe17 	ldw	r3,-8(fp)
 4301be4:	10c5883a 	add	r2,r2,r3
 4301be8:	e0ffff03 	ldbu	r3,-4(fp)
 4301bec:	10c00005 	stb	r3,0(r2)
                time_draw_cell(x, y, color);
 4301bf0:	e0bfff03 	ldbu	r2,-4(fp)
 4301bf4:	100d883a 	mov	r6,r2
 4301bf8:	e17ffa17 	ldw	r5,-24(fp)
 4301bfc:	e13ff917 	ldw	r4,-28(fp)
 4301c00:	43018a40 	call	43018a4 <time_draw_cell>
                changed++;
 4301c04:	e0bffb17 	ldw	r2,-20(fp)
 4301c08:	10800044 	addi	r2,r2,1
 4301c0c:	e0bffb15 	stw	r2,-20(fp)
       Debug KEY1 background and IMG draw micro-batches both write the same
       96x96 RGB332 grid. Redraw only changed cells.
    */
    for (y = 0; y < DRAW_GRID_H; y++)
    {
        for (x = 0; x < DRAW_GRID_W; x++)
 4301c10:	e0bff917 	ldw	r2,-28(fp)
 4301c14:	10800044 	addi	r2,r2,1
 4301c18:	e0bff915 	stw	r2,-28(fp)
 4301c1c:	e0bff917 	ldw	r2,-28(fp)
 4301c20:	10801810 	cmplti	r2,r2,96
 4301c24:	103fd81e 	bne	r2,zero,4301b88 <__alt_data_end+0xffe01b88>
    /*
       Direct grid mirror sync.
       Debug KEY1 background and IMG draw micro-batches both write the same
       96x96 RGB332 grid. Redraw only changed cells.
    */
    for (y = 0; y < DRAW_GRID_H; y++)
 4301c28:	e0bffa17 	ldw	r2,-24(fp)
 4301c2c:	10800044 	addi	r2,r2,1
 4301c30:	e0bffa15 	stw	r2,-24(fp)
 4301c34:	e0bffa17 	ldw	r2,-24(fp)
 4301c38:	10801810 	cmplti	r2,r2,96
 4301c3c:	103fd01e 	bne	r2,zero,4301b80 <__alt_data_end+0xffe01b80>
                changed++;
            }
        }
    }

    time_draw_last_bg_seq = seq;
 4301c40:	e0bffd17 	ldw	r2,-12(fp)
 4301c44:	d0a6ff15 	stw	r2,-25604(gp)
    time_shared_write32(DRAW_BG_READY, 0);
 4301c48:	000b883a 	mov	r5,zero
 4301c4c:	01026004 	movi	r4,2432
 4301c50:	43013240 	call	4301324 <time_shared_write32>

    if (changed > 0)
 4301c54:	e0bffb17 	ldw	r2,-20(fp)
 4301c58:	0080110e 	bge	zero,r2,4301ca0 <time_apply_draw_background_if_ready+0x178>
    {
        recount_draw_colors();
 4301c5c:	430173c0 	call	430173c <recount_draw_colors>
        if (draw_count_black == (uint32_t)(DRAW_GRID_W * DRAW_GRID_H))
 4301c60:	d0a70617 	ldw	r2,-25576(gp)
 4301c64:	10890018 	cmpnei	r2,r2,9216
 4301c68:	1000021e 	bne	r2,zero,4301c74 <time_apply_draw_background_if_ready+0x14c>
            trigger_sfx_flag(FLAG_SFX_CLEAR);
 4301c6c:	01031b04 	movi	r4,3180
 4301c70:	43013640 	call	4301364 <trigger_sfx_flag>
        printf("Draw: synced 96x96 RGB332 grid seq=%lu changed=%d\n",
 4301c74:	e1bffb17 	ldw	r6,-20(fp)
 4301c78:	e17ffd17 	ldw	r5,-12(fp)
 4301c7c:	01010cb4 	movhi	r4,1074
 4301c80:	213da104 	addi	r4,r4,-2428
 4301c84:	430d9400 	call	430d940 <printf>
               (unsigned long)seq,
               changed);
        fflush(stdout);
 4301c88:	d0a00e17 	ldw	r2,-32712(gp)
 4301c8c:	10800217 	ldw	r2,8(r2)
 4301c90:	1009883a 	mov	r4,r2
 4301c94:	430c6500 	call	430c650 <fflush>
 4301c98:	00000106 	br	4301ca0 <time_apply_draw_background_if_ready+0x178>
    int y;
    int changed = 0;

    ready = time_shared_read32(DRAW_BG_READY);
    if (ready == 0)
        return;
 4301c9c:	0001883a 	nop
        printf("Draw: synced 96x96 RGB332 grid seq=%lu changed=%d\n",
               (unsigned long)seq,
               changed);
        fflush(stdout);
    }
}
 4301ca0:	e037883a 	mov	sp,fp
 4301ca4:	dfc00117 	ldw	ra,4(sp)
 4301ca8:	df000017 	ldw	fp,0(sp)
 4301cac:	dec00204 	addi	sp,sp,8
 4301cb0:	f800283a 	ret

04301cb4 <time_apply_draw_mailbox>:

static void time_apply_draw_mailbox(void)
{
 4301cb4:	defff704 	addi	sp,sp,-36
 4301cb8:	dfc00815 	stw	ra,32(sp)
 4301cbc:	df000715 	stw	fp,28(sp)
 4301cc0:	df000704 	addi	fp,sp,28
    uint32_t seq;
    int x;
    int y;
    uint8_t color;

    ready = time_shared_read32(DRAW_MB_READY);
 4301cc4:	01024004 	movi	r4,2304
 4301cc8:	43012f00 	call	43012f0 <time_shared_read32>
 4301ccc:	e0bff915 	stw	r2,-28(fp)
    if (ready == 0)
 4301cd0:	e0bff917 	ldw	r2,-28(fp)
 4301cd4:	10004b26 	beq	r2,zero,4301e04 <time_apply_draw_mailbox+0x150>
        return;

    seq = time_shared_read32(DRAW_MB_SEQ);
 4301cd8:	01024204 	movi	r4,2312
 4301cdc:	43012f00 	call	43012f0 <time_shared_read32>
 4301ce0:	e0bffa15 	stw	r2,-24(fp)
    if (seq == time_draw_last_seq)
 4301ce4:	d0a6fe17 	ldw	r2,-25608(gp)
 4301ce8:	e0fffa17 	ldw	r3,-24(fp)
 4301cec:	1880071e 	bne	r3,r2,4301d0c <time_apply_draw_mailbox+0x58>
    {
        time_shared_write32(DRAW_MB_ACK, seq);
 4301cf0:	e17ffa17 	ldw	r5,-24(fp)
 4301cf4:	01024104 	movi	r4,2308
 4301cf8:	43013240 	call	4301324 <time_shared_write32>
        time_shared_write32(DRAW_MB_READY, 0);
 4301cfc:	000b883a 	mov	r5,zero
 4301d00:	01024004 	movi	r4,2304
 4301d04:	43013240 	call	4301324 <time_shared_write32>
        return;
 4301d08:	00003f06 	br	4301e08 <time_apply_draw_mailbox+0x154>
    }

    x = (int)time_shared_read32(DRAW_MB_X);
 4301d0c:	01024304 	movi	r4,2316
 4301d10:	43012f00 	call	43012f0 <time_shared_read32>
 4301d14:	e0bffb15 	stw	r2,-20(fp)
    y = (int)time_shared_read32(DRAW_MB_Y);
 4301d18:	01024404 	movi	r4,2320
 4301d1c:	43012f00 	call	43012f0 <time_shared_read32>
 4301d20:	e0bffc15 	stw	r2,-16(fp)
    color = (uint8_t)(time_shared_read32(DRAW_MB_COLOR) & 0xFF);
 4301d24:	01024504 	movi	r4,2324
 4301d28:	43012f00 	call	43012f0 <time_shared_read32>
 4301d2c:	e0bffd05 	stb	r2,-12(fp)
    time_draw_last_seq = seq;
 4301d30:	e0bffa17 	ldw	r2,-24(fp)
 4301d34:	d0a6fe15 	stw	r2,-25608(gp)

    if (!time_draw_valid_cell(x, y))
 4301d38:	e17ffc17 	ldw	r5,-16(fp)
 4301d3c:	e13ffb17 	ldw	r4,-20(fp)
 4301d40:	43018180 	call	4301818 <time_draw_valid_cell>
 4301d44:	1000041e 	bne	r2,zero,4301d58 <time_apply_draw_mailbox+0xa4>
    {
        time_shared_write32(DRAW_MB_STATUS, DRAW_STATUS_BAD_COORD);
 4301d48:	01400044 	movi	r5,1
 4301d4c:	01024604 	movi	r4,2328
 4301d50:	43013240 	call	4301324 <time_shared_write32>
 4301d54:	00002406 	br	4301de8 <time_apply_draw_mailbox+0x134>
    }
    else
    {
        int idx = time_draw_grid_index(x, y);
 4301d58:	e17ffc17 	ldw	r5,-16(fp)
 4301d5c:	e13ffb17 	ldw	r4,-20(fp)
 4301d60:	43018700 	call	4301870 <time_draw_grid_index>
 4301d64:	e0bffe15 	stw	r2,-8(fp)
        uint8_t old_color = time_draw_grid[idx];
 4301d68:	00810cb4 	movhi	r2,1074
 4301d6c:	108f0d84 	addi	r2,r2,15414
 4301d70:	e0fffe17 	ldw	r3,-8(fp)
 4301d74:	10c5883a 	add	r2,r2,r3
 4301d78:	10800003 	ldbu	r2,0(r2)
 4301d7c:	e0bfff05 	stb	r2,-4(fp)
        if (old_color != color)
 4301d80:	e0ffff03 	ldbu	r3,-4(fp)
 4301d84:	e0bffd03 	ldbu	r2,-12(fp)
 4301d88:	18800f26 	beq	r3,r2,4301dc8 <time_apply_draw_mailbox+0x114>
        {
            count_color_add(old_color, -1);
 4301d8c:	e0bfff03 	ldbu	r2,-4(fp)
 4301d90:	017fffc4 	movi	r5,-1
 4301d94:	1009883a 	mov	r4,r2
 4301d98:	43015540 	call	4301554 <count_color_add>
            time_draw_grid[idx] = color;
 4301d9c:	00810cb4 	movhi	r2,1074
 4301da0:	108f0d84 	addi	r2,r2,15414
 4301da4:	e0fffe17 	ldw	r3,-8(fp)
 4301da8:	10c5883a 	add	r2,r2,r3
 4301dac:	e0fffd03 	ldbu	r3,-12(fp)
 4301db0:	10c00005 	stb	r3,0(r2)
            count_color_add(color, 1);
 4301db4:	e0bffd03 	ldbu	r2,-12(fp)
 4301db8:	01400044 	movi	r5,1
 4301dbc:	1009883a 	mov	r4,r2
 4301dc0:	43015540 	call	4301554 <count_color_add>
            publish_draw_counts();
 4301dc4:	43016500 	call	4301650 <publish_draw_counts>
        }
        time_draw_cell(x, y, color);
 4301dc8:	e0bffd03 	ldbu	r2,-12(fp)
 4301dcc:	100d883a 	mov	r6,r2
 4301dd0:	e17ffc17 	ldw	r5,-16(fp)
 4301dd4:	e13ffb17 	ldw	r4,-20(fp)
 4301dd8:	43018a40 	call	43018a4 <time_draw_cell>
        time_shared_write32(DRAW_MB_STATUS, DRAW_STATUS_OK);
 4301ddc:	000b883a 	mov	r5,zero
 4301de0:	01024604 	movi	r4,2328
 4301de4:	43013240 	call	4301324 <time_shared_write32>
    }

    time_shared_write32(DRAW_MB_ACK, seq);
 4301de8:	e17ffa17 	ldw	r5,-24(fp)
 4301dec:	01024104 	movi	r4,2308
 4301df0:	43013240 	call	4301324 <time_shared_write32>
    time_shared_write32(DRAW_MB_READY, 0);
 4301df4:	000b883a 	mov	r5,zero
 4301df8:	01024004 	movi	r4,2304
 4301dfc:	43013240 	call	4301324 <time_shared_write32>
 4301e00:	00000106 	br	4301e08 <time_apply_draw_mailbox+0x154>
    int y;
    uint8_t color;

    ready = time_shared_read32(DRAW_MB_READY);
    if (ready == 0)
        return;
 4301e04:	0001883a 	nop
        time_shared_write32(DRAW_MB_STATUS, DRAW_STATUS_OK);
    }

    time_shared_write32(DRAW_MB_ACK, seq);
    time_shared_write32(DRAW_MB_READY, 0);
}
 4301e08:	e037883a 	mov	sp,fp
 4301e0c:	dfc00117 	ldw	ra,4(sp)
 4301e10:	df000017 	ldw	fp,0(sp)
 4301e14:	dec00204 	addi	sp,sp,8
 4301e18:	f800283a 	ret

04301e1c <draw_game_init>:

void __attribute__((weak)) draw_game_init(void)
{
 4301e1c:	defffd04 	addi	sp,sp,-12
 4301e20:	dfc00215 	stw	ra,8(sp)
 4301e24:	df000115 	stw	fp,4(sp)
 4301e28:	df000104 	addi	fp,sp,4
    int i;

    for (i = 0; i < DRAW_GRID_W * DRAW_GRID_H; i++)
 4301e2c:	e03fff15 	stw	zero,-4(fp)
 4301e30:	00000806 	br	4301e54 <draw_game_init+0x38>
        time_draw_grid[i] = COL_BLACK;
 4301e34:	00810cb4 	movhi	r2,1074
 4301e38:	108f0d84 	addi	r2,r2,15414
 4301e3c:	e0ffff17 	ldw	r3,-4(fp)
 4301e40:	10c5883a 	add	r2,r2,r3
 4301e44:	10000005 	stb	zero,0(r2)

void __attribute__((weak)) draw_game_init(void)
{
    int i;

    for (i = 0; i < DRAW_GRID_W * DRAW_GRID_H; i++)
 4301e48:	e0bfff17 	ldw	r2,-4(fp)
 4301e4c:	10800044 	addi	r2,r2,1
 4301e50:	e0bfff15 	stw	r2,-4(fp)
 4301e54:	e0bfff17 	ldw	r2,-4(fp)
 4301e58:	10890010 	cmplti	r2,r2,9216
 4301e5c:	103ff51e 	bne	r2,zero,4301e34 <__alt_data_end+0xffe01e34>
        time_draw_grid[i] = COL_BLACK;

    draw_count_red = draw_count_green = draw_count_blue = draw_count_yellow = 0;
 4301e60:	d0270515 	stw	zero,-25580(gp)
 4301e64:	d0a70517 	ldw	r2,-25580(gp)
 4301e68:	d0a70415 	stw	r2,-25584(gp)
 4301e6c:	d0a70417 	ldw	r2,-25584(gp)
 4301e70:	d0a70315 	stw	r2,-25588(gp)
 4301e74:	d0a70317 	ldw	r2,-25588(gp)
 4301e78:	d0a70215 	stw	r2,-25592(gp)
    draw_count_black = DRAW_GRID_W * DRAW_GRID_H;
 4301e7c:	00890004 	movi	r2,9216
 4301e80:	d0a70615 	stw	r2,-25576(gp)
    draw_count_white = draw_count_other = 0;
 4301e84:	d0270815 	stw	zero,-25568(gp)
 4301e88:	d0a70817 	ldw	r2,-25568(gp)
 4301e8c:	d0a70715 	stw	r2,-25572(gp)
    publish_draw_counts();
 4301e90:	43016500 	call	4301650 <publish_draw_counts>

    time_draw_last_seq = 0;
 4301e94:	d026fe15 	stw	zero,-25608(gp)
    time_draw_last_bg_seq = 0;
 4301e98:	d026ff15 	stw	zero,-25604(gp)
    time_draw_rx_last_seq = time_shared_read32(FLAG_RT_ACTIVITY_SEQ);
 4301e9c:	01021c04 	movi	r4,2160
 4301ea0:	43012f00 	call	43012f0 <time_shared_read32>
 4301ea4:	d0a70015 	stw	r2,-25600(gp)
    time_draw_rx_ticks = 0;
 4301ea8:	d0270115 	stw	zero,-25596(gp)
    time_draw_rx_indicator_state = -1;
 4301eac:	00bfffc4 	movi	r2,-1
 4301eb0:	d0a00015 	stw	r2,-32768(gp)

    pt_draw_canvas_background();
 4301eb4:	4305cc40 	call	4305cc4 <pt_draw_canvas_background>
    pt_print_shadow(92, 8, "PIXEL STUDIO", PT_GRASS_LIGHT);
 4301eb8:	01c02744 	movi	r7,157
 4301ebc:	01810cb4 	movhi	r6,1074
 4301ec0:	31bdae04 	addi	r6,r6,-2376
 4301ec4:	01400204 	movi	r5,8
 4301ec8:	01001704 	movi	r4,92
 4301ecc:	43031800 	call	4303180 <pt_print_shadow>
    pt_print_shadow(38, 220, "96X96 RGB332 LIVE CANVAS", PT_GOLD);
 4301ed0:	01c03d04 	movi	r7,244
 4301ed4:	01810cb4 	movhi	r6,1074
 4301ed8:	31bdb204 	addi	r6,r6,-2360
 4301edc:	01403704 	movi	r5,220
 4301ee0:	01000984 	movi	r4,38
 4301ee4:	43031800 	call	4303180 <pt_print_shadow>

    time_draw_rx_indicator(0);
 4301ee8:	0009883a 	mov	r4,zero
 4301eec:	43019280 	call	4301928 <time_draw_rx_indicator>
    time_draw_border();
 4301ef0:	4301a300 	call	4301a30 <time_draw_border>
    time_draw_full_grid();
 4301ef4:	4301a8c0 	call	4301a8c <time_draw_full_grid>

    time_shared_write32(DRAW_MB_READY, 0);
 4301ef8:	000b883a 	mov	r5,zero
 4301efc:	01024004 	movi	r4,2304
 4301f00:	43013240 	call	4301324 <time_shared_write32>
    time_shared_write32(DRAW_MB_ACK, 0);
 4301f04:	000b883a 	mov	r5,zero
 4301f08:	01024104 	movi	r4,2308
 4301f0c:	43013240 	call	4301324 <time_shared_write32>
    time_shared_write32(DRAW_MB_STATUS, DRAW_STATUS_OK);
 4301f10:	000b883a 	mov	r5,zero
 4301f14:	01024604 	movi	r4,2328
 4301f18:	43013240 	call	4301324 <time_shared_write32>

    time_apply_draw_background_if_ready();
 4301f1c:	4301b280 	call	4301b28 <time_apply_draw_background_if_ready>

    printf("Draw pixel game start. 96x96 RGB332 mailbox at 0x%08X + 0x900\n", SHARED_FLAGS_BASE);
 4301f20:	01414874 	movhi	r5,1313
 4301f24:	29480004 	addi	r5,r5,8192
 4301f28:	01010cb4 	movhi	r4,1074
 4301f2c:	213db904 	addi	r4,r4,-2332
 4301f30:	430d9400 	call	430d940 <printf>
    fflush(stdout);
 4301f34:	d0a00e17 	ldw	r2,-32712(gp)
 4301f38:	10800217 	ldw	r2,8(r2)
 4301f3c:	1009883a 	mov	r4,r2
 4301f40:	430c6500 	call	430c650 <fflush>
}
 4301f44:	0001883a 	nop
 4301f48:	e037883a 	mov	sp,fp
 4301f4c:	dfc00117 	ldw	ra,4(sp)
 4301f50:	df000017 	ldw	fp,0(sp)
 4301f54:	dec00204 	addi	sp,sp,8
 4301f58:	f800283a 	ret

04301f5c <draw_game_update>:

void __attribute__((weak)) draw_game_update(void)
{
 4301f5c:	defffe04 	addi	sp,sp,-8
 4301f60:	dfc00115 	stw	ra,4(sp)
 4301f64:	df000015 	stw	fp,0(sp)
 4301f68:	d839883a 	mov	fp,sp
    time_draw_update_rx_status();
 4301f6c:	43019840 	call	4301984 <time_draw_update_rx_status>
    time_apply_draw_background_if_ready();
 4301f70:	4301b280 	call	4301b28 <time_apply_draw_background_if_ready>
    time_apply_draw_mailbox();
 4301f74:	4301cb40 	call	4301cb4 <time_apply_draw_mailbox>
}
 4301f78:	0001883a 	nop
 4301f7c:	e037883a 	mov	sp,fp
 4301f80:	dfc00117 	ldw	ra,4(sp)
 4301f84:	df000017 	ldw	fp,0(sp)
 4301f88:	dec00204 	addi	sp,sp,8
 4301f8c:	f800283a 	ret

04301f90 <shared_write_u32>:
static int current_screen = SCREEN_MENU;
static int selected_menu_index = 0;
static int emergency_stop_active = 0;

static void shared_write_u32(uint32_t offset, uint32_t value)
{
 4301f90:	defffd04 	addi	sp,sp,-12
 4301f94:	df000215 	stw	fp,8(sp)
 4301f98:	df000204 	addi	fp,sp,8
 4301f9c:	e13ffe15 	stw	r4,-8(fp)
 4301fa0:	e17fff15 	stw	r5,-4(fp)
    IOWR_32DIRECT(SHARED_FLAGS_BASE, offset, value);
 4301fa4:	e0fffe17 	ldw	r3,-8(fp)
 4301fa8:	00814874 	movhi	r2,1313
 4301fac:	10880004 	addi	r2,r2,8192
 4301fb0:	1885883a 	add	r2,r3,r2
 4301fb4:	e0ffff17 	ldw	r3,-4(fp)
 4301fb8:	10c00035 	stwio	r3,0(r2)
}
 4301fbc:	0001883a 	nop
 4301fc0:	e037883a 	mov	sp,fp
 4301fc4:	df000017 	ldw	fp,0(sp)
 4301fc8:	dec00104 	addi	sp,sp,4
 4301fcc:	f800283a 	ret

04301fd0 <shared_read_u32>:

static uint32_t shared_read_u32(uint32_t offset)
{
 4301fd0:	defffe04 	addi	sp,sp,-8
 4301fd4:	df000115 	stw	fp,4(sp)
 4301fd8:	df000104 	addi	fp,sp,4
 4301fdc:	e13fff15 	stw	r4,-4(fp)
    return IORD_32DIRECT(SHARED_FLAGS_BASE, offset);
 4301fe0:	e0ffff17 	ldw	r3,-4(fp)
 4301fe4:	00814874 	movhi	r2,1313
 4301fe8:	10880004 	addi	r2,r2,8192
 4301fec:	1885883a 	add	r2,r3,r2
 4301ff0:	10800037 	ldwio	r2,0(r2)
}
 4301ff4:	e037883a 	mov	sp,fp
 4301ff8:	df000017 	ldw	fp,0(sp)
 4301ffc:	dec00104 	addi	sp,sp,4
 4302000:	f800283a 	ret

04302004 <trigger_sfx_flag>:

static void enter_screen(int next_screen);

static void trigger_sfx_flag(uint32_t offset)
{
 4302004:	defffd04 	addi	sp,sp,-12
 4302008:	dfc00215 	stw	ra,8(sp)
 430200c:	df000115 	stw	fp,4(sp)
 4302010:	df000104 	addi	fp,sp,4
 4302014:	e13fff15 	stw	r4,-4(fp)
    shared_write_u32(offset, shared_read_u32(offset) + 1);
 4302018:	e13fff17 	ldw	r4,-4(fp)
 430201c:	4301fd00 	call	4301fd0 <shared_read_u32>
 4302020:	10800044 	addi	r2,r2,1
 4302024:	100b883a 	mov	r5,r2
 4302028:	e13fff17 	ldw	r4,-4(fp)
 430202c:	4301f900 	call	4301f90 <shared_write_u32>
}
 4302030:	0001883a 	nop
 4302034:	e037883a 	mov	sp,fp
 4302038:	dfc00117 	ldw	ra,4(sp)
 430203c:	df000017 	ldw	fp,0(sp)
 4302040:	dec00204 	addi	sp,sp,8
 4302044:	f800283a 	ret

04302048 <shared_flags_init_for_vga>:

static void shared_flags_init_for_vga(void)
{
 4302048:	defffe04 	addi	sp,sp,-8
 430204c:	dfc00115 	stw	ra,4(sp)
 4302050:	df000015 	stw	fp,0(sp)
 4302054:	d839883a 	mov	fp,sp
    shared_write_u32(FLAG_SYSTEM_MAGIC, 0x47414D45);
 4302058:	0151d074 	movhi	r5,18241
 430205c:	29535144 	addi	r5,r5,19781
 4302060:	0009883a 	mov	r4,zero
 4302064:	4301f900 	call	4301f90 <shared_write_u32>
    shared_write_u32(FLAG_VGA_PROCESSOR_READY, 1);
 4302068:	01400044 	movi	r5,1
 430206c:	01000304 	movi	r4,12
 4302070:	4301f900 	call	4301f90 <shared_write_u32>
    shared_write_u32(FLAG_CURRENT_MENU, MENU_SELECT_BATTLE);
 4302074:	000b883a 	mov	r5,zero
 4302078:	01000504 	movi	r4,20
 430207c:	4301f900 	call	4301f90 <shared_write_u32>
    shared_write_u32(FLAG_CURRENT_GAME, GAME_MODE_MENU);
 4302080:	000b883a 	mov	r5,zero
 4302084:	01000604 	movi	r4,24
 4302088:	4301f900 	call	4301f90 <shared_write_u32>
    shared_write_u32(FLAG_GAME_RUNNING, 0);
 430208c:	000b883a 	mov	r5,zero
 4302090:	01000704 	movi	r4,28
 4302094:	4301f900 	call	4301f90 <shared_write_u32>
    shared_write_u32(FLAG_DEBUG_MODE, 0);
 4302098:	000b883a 	mov	r5,zero
 430209c:	01000804 	movi	r4,32
 43020a0:	4301f900 	call	4301f90 <shared_write_u32>
    shared_write_u32(FLAG_MENU_ENTER_EVENT, 0);
 43020a4:	000b883a 	mov	r5,zero
 43020a8:	01000e04 	movi	r4,56
 43020ac:	4301f900 	call	4301f90 <shared_write_u32>
    shared_write_u32(FLAG_MENU_EXIT_EVENT, 0);
 43020b0:	000b883a 	mov	r5,zero
 43020b4:	01000f04 	movi	r4,60
 43020b8:	4301f900 	call	4301f90 <shared_write_u32>
    shared_write_u32(FLAG_PANEL_MODE_SEQ, 0);
 43020bc:	000b883a 	mov	r5,zero
 43020c0:	01002304 	movi	r4,140
 43020c4:	4301f900 	call	4301f90 <shared_write_u32>
    shared_write_u32(FLAG_EMERGENCY_STOP, 0);
 43020c8:	000b883a 	mov	r5,zero
 43020cc:	01002404 	movi	r4,144
 43020d0:	4301f900 	call	4301f90 <shared_write_u32>
    shared_write_u32(FLAG_IMAGE_READY, 0);
 43020d4:	000b883a 	mov	r5,zero
 43020d8:	01000904 	movi	r4,36
 43020dc:	4301f900 	call	4301f90 <shared_write_u32>
    shared_write_u32(FLAG_TEXT_READY_SHARED, 0);
 43020e0:	000b883a 	mov	r5,zero
 43020e4:	01000a04 	movi	r4,40
 43020e8:	4301f900 	call	4301f90 <shared_write_u32>
    shared_write_u32(FLAG_VGA_DISPLAY_DONE, 0);
 43020ec:	000b883a 	mov	r5,zero
 43020f0:	01000b04 	movi	r4,44
 43020f4:	4301f900 	call	4301f90 <shared_write_u32>
    shared_write_u32(FLAG_SFX_CLICK, 0);
 43020f8:	000b883a 	mov	r5,zero
 43020fc:	01031704 	movi	r4,3164
 4302100:	4301f900 	call	4301f90 <shared_write_u32>
    shared_write_u32(FLAG_SFX_ENTER_SNAKE, 0);
 4302104:	000b883a 	mov	r5,zero
 4302108:	01031804 	movi	r4,3168
 430210c:	4301f900 	call	4301f90 <shared_write_u32>
    shared_write_u32(FLAG_SFX_ENTER_DRAW, 0);
 4302110:	000b883a 	mov	r5,zero
 4302114:	01031904 	movi	r4,3172
 4302118:	4301f900 	call	4301f90 <shared_write_u32>
    shared_write_u32(FLAG_SFX_ENTER_BATTLE, 0);
 430211c:	000b883a 	mov	r5,zero
 4302120:	01031a04 	movi	r4,3176
 4302124:	4301f900 	call	4301f90 <shared_write_u32>
}
 4302128:	0001883a 	nop
 430212c:	e037883a 	mov	sp,fp
 4302130:	dfc00117 	ldw	ra,4(sp)
 4302134:	df000017 	ldw	fp,0(sp)
 4302138:	dec00204 	addi	sp,sp,8
 430213c:	f800283a 	ret

04302140 <vga_irq_rx_isr>:

static void vga_irq_rx_isr(void* context)
{
 4302140:	defffc04 	addi	sp,sp,-16
 4302144:	dfc00315 	stw	ra,12(sp)
 4302148:	df000215 	stw	fp,8(sp)
 430214c:	df000204 	addi	fp,sp,8
 4302150:	e13fff15 	stw	r4,-4(fp)
    uint32_t key_mask;
    (void)context;

    IOWR_ALTERA_AVALON_PIO_EDGE_CAP(VGA_IRQ_RX_BASE, VGA_IRQ_RX_ACTIVE_MASK);
 4302154:	00c00044 	movi	r3,1
 4302158:	00a41b14 	movui	r2,36972
 430215c:	10c00035 	stwio	r3,0(r2)

    key_mask = shared_read_u32(FLAG_CONTROL_KEY_PRESSED_MASK) &
 4302160:	01020204 	movi	r4,2056
 4302164:	4301fd00 	call	4301fd0 <shared_read_u32>
 4302168:	108000cc 	andi	r2,r2,3
 430216c:	e0bffe15 	stw	r2,-8(fp)
               (CONTROL_KEY0_MASK | CONTROL_KEY1_MASK);

    vga_irq_key_pressed_mask |= key_mask;
 4302170:	d0e70a17 	ldw	r3,-25560(gp)
 4302174:	e0bffe17 	ldw	r2,-8(fp)
 4302178:	1884b03a 	or	r2,r3,r2
 430217c:	d0a70a15 	stw	r2,-25560(gp)
    vga_irq_switch_state = shared_read_u32(FLAG_CONTROL_SWITCH_STATE) & CONTROL_SW_MASK;
 4302180:	01020304 	movi	r4,2060
 4302184:	4301fd00 	call	4301fd0 <shared_read_u32>
 4302188:	1080ffcc 	andi	r2,r2,1023
 430218c:	d0a70b15 	stw	r2,-25556(gp)
    vga_irq_control_event_type = shared_read_u32(FLAG_CONTROL_LAST_EVENT_TYPE);
 4302190:	01020504 	movi	r4,2068
 4302194:	4301fd00 	call	4301fd0 <shared_read_u32>
 4302198:	d0a70c15 	stw	r2,-25552(gp)
    vga_irq_pending = 1;
 430219c:	00800044 	movi	r2,1
 43021a0:	d0a70915 	stw	r2,-25564(gp)
}
 43021a4:	0001883a 	nop
 43021a8:	e037883a 	mov	sp,fp
 43021ac:	dfc00117 	ldw	ra,4(sp)
 43021b0:	df000017 	ldw	fp,0(sp)
 43021b4:	dec00204 	addi	sp,sp,8
 43021b8:	f800283a 	ret

043021bc <vga_irq_rx_setup>:

static void vga_irq_rx_setup(void)
{
 43021bc:	defffe04 	addi	sp,sp,-8
 43021c0:	dfc00115 	stw	ra,4(sp)
 43021c4:	df000015 	stw	fp,0(sp)
 43021c8:	d839883a 	mov	fp,sp
    IOWR_ALTERA_AVALON_PIO_IRQ_MASK(VGA_IRQ_RX_BASE, 0x0);
 43021cc:	0007883a 	mov	r3,zero
 43021d0:	00a41a14 	movui	r2,36968
 43021d4:	10c00035 	stwio	r3,0(r2)
    IOWR_ALTERA_AVALON_PIO_EDGE_CAP(VGA_IRQ_RX_BASE, VGA_IRQ_RX_ACTIVE_MASK);
 43021d8:	00c00044 	movi	r3,1
 43021dc:	00a41b14 	movui	r2,36972
 43021e0:	10c00035 	stwio	r3,0(r2)

    alt_irq_register(VGA_IRQ_IRQ_RX, NULL, vga_irq_rx_isr);
 43021e4:	01810c34 	movhi	r6,1072
 43021e8:	31885004 	addi	r6,r6,8512
 43021ec:	000b883a 	mov	r5,zero
 43021f0:	01000044 	movi	r4,1
 43021f4:	431c7480 	call	431c748 <alt_irq_register>

    IOWR_ALTERA_AVALON_PIO_EDGE_CAP(VGA_IRQ_RX_BASE, VGA_IRQ_RX_ACTIVE_MASK);
 43021f8:	00c00044 	movi	r3,1
 43021fc:	00a41b14 	movui	r2,36972
 4302200:	10c00035 	stwio	r3,0(r2)
    IOWR_ALTERA_AVALON_PIO_IRQ_MASK(VGA_IRQ_RX_BASE, VGA_IRQ_RX_ACTIVE_MASK);
 4302204:	00c00044 	movi	r3,1
 4302208:	00a41a14 	movui	r2,36968
 430220c:	10c00035 	stwio	r3,0(r2)
}
 4302210:	0001883a 	nop
 4302214:	e037883a 	mov	sp,fp
 4302218:	dfc00117 	ldw	ra,4(sp)
 430221c:	df000017 	ldw	fp,0(sp)
 4302220:	dec00204 	addi	sp,sp,8
 4302224:	f800283a 	ret

04302228 <wait_until_irq_signal_low>:

static void wait_until_irq_signal_low(void)
{
 4302228:	defffe04 	addi	sp,sp,-8
 430222c:	dfc00115 	stw	ra,4(sp)
 4302230:	df000015 	stw	fp,0(sp)
 4302234:	d839883a 	mov	fp,sp
    while ((IORD_ALTERA_AVALON_PIO_DATA(VGA_IRQ_RX_BASE) & VGA_IRQ_RX_ACTIVE_MASK) != 0)
 4302238:	00000206 	br	4302244 <wait_until_irq_signal_low+0x1c>
        usleep(1000);
 430223c:	0100fa04 	movi	r4,1000
 4302240:	431cef00 	call	431cef0 <usleep>
    IOWR_ALTERA_AVALON_PIO_IRQ_MASK(VGA_IRQ_RX_BASE, VGA_IRQ_RX_ACTIVE_MASK);
}

static void wait_until_irq_signal_low(void)
{
    while ((IORD_ALTERA_AVALON_PIO_DATA(VGA_IRQ_RX_BASE) & VGA_IRQ_RX_ACTIVE_MASK) != 0)
 4302244:	00a41814 	movui	r2,36960
 4302248:	10800037 	ldwio	r2,0(r2)
 430224c:	1080004c 	andi	r2,r2,1
 4302250:	103ffa1e 	bne	r2,zero,430223c <__alt_data_end+0xffe0223c>
        usleep(1000);

    IOWR_ALTERA_AVALON_PIO_EDGE_CAP(VGA_IRQ_RX_BASE, VGA_IRQ_RX_ACTIVE_MASK);
 4302254:	00c00044 	movi	r3,1
 4302258:	00a41b14 	movui	r2,36972
 430225c:	10c00035 	stwio	r3,0(r2)
}
 4302260:	0001883a 	nop
 4302264:	e037883a 	mov	sp,fp
 4302268:	dfc00117 	ldw	ra,4(sp)
 430226c:	df000017 	ldw	fp,0(sp)
 4302270:	dec00204 	addi	sp,sp,8
 4302274:	f800283a 	ret

04302278 <read_menu_direction>:

static int read_menu_direction(void)
{
 4302278:	defffb04 	addi	sp,sp,-20
 430227c:	dfc00415 	stw	ra,16(sp)
 4302280:	df000315 	stw	fp,12(sp)
 4302284:	df000304 	addi	fp,sp,12
    alt_32 x = 0, y = 0, z = 0;
 4302288:	e03ffd15 	stw	zero,-12(fp)
 430228c:	e03ffe15 	stw	zero,-8(fp)
 4302290:	e03fff15 	stw	zero,-4(fp)
    if (accel_read_x(&x) != 0 || accel_read_y(&y) != 0 || accel_read_z(&z) != 0)
 4302294:	e13ffd04 	addi	r4,fp,-12
 4302298:	43000ac0 	call	43000ac <accel_read_x>
 430229c:	1000081e 	bne	r2,zero,43022c0 <read_menu_direction+0x48>
 43022a0:	e0bffe04 	addi	r2,fp,-8
 43022a4:	1009883a 	mov	r4,r2
 43022a8:	43001000 	call	4300100 <accel_read_y>
 43022ac:	1000041e 	bne	r2,zero,43022c0 <read_menu_direction+0x48>
 43022b0:	e0bfff04 	addi	r2,fp,-4
 43022b4:	1009883a 	mov	r4,r2
 43022b8:	43001540 	call	4300154 <accel_read_z>
 43022bc:	10000226 	beq	r2,zero,43022c8 <read_menu_direction+0x50>
        return 0;
 43022c0:	0005883a 	mov	r2,zero
 43022c4:	00000b06 	br	43022f4 <read_menu_direction+0x7c>

    if (y > ACCEL_MENU_THRESHOLD) return 1;
 43022c8:	e0bffe17 	ldw	r2,-8(fp)
 43022cc:	10801450 	cmplti	r2,r2,81
 43022d0:	1000021e 	bne	r2,zero,43022dc <read_menu_direction+0x64>
 43022d4:	00800044 	movi	r2,1
 43022d8:	00000606 	br	43022f4 <read_menu_direction+0x7c>
    if (y < -ACCEL_MENU_THRESHOLD) return -1;
 43022dc:	e0bffe17 	ldw	r2,-8(fp)
 43022e0:	10bfec08 	cmpgei	r2,r2,-80
 43022e4:	1000021e 	bne	r2,zero,43022f0 <read_menu_direction+0x78>
 43022e8:	00bfffc4 	movi	r2,-1
 43022ec:	00000106 	br	43022f4 <read_menu_direction+0x7c>
    return 0;
 43022f0:	0005883a 	mov	r2,zero
}
 43022f4:	e037883a 	mov	sp,fp
 43022f8:	dfc00117 	ldw	ra,4(sp)
 43022fc:	df000017 	ldw	fp,0(sp)
 4302300:	dec00204 	addi	sp,sp,8
 4302304:	f800283a 	ret

04302308 <abs_alt32>:

static int abs_alt32(alt_32 value)
{
 4302308:	defffe04 	addi	sp,sp,-8
 430230c:	df000115 	stw	fp,4(sp)
 4302310:	df000104 	addi	fp,sp,4
 4302314:	e13fff15 	stw	r4,-4(fp)
    return (value < 0) ? (int)(-value) : (int)value;
 4302318:	e0bfff17 	ldw	r2,-4(fp)
 430231c:	1000010e 	bge	r2,zero,4302324 <abs_alt32+0x1c>
 4302320:	0085c83a 	sub	r2,zero,r2
}
 4302324:	e037883a 	mov	sp,fp
 4302328:	df000017 	ldw	fp,0(sp)
 430232c:	dec00104 	addi	sp,sp,4
 4302330:	f800283a 	ret

04302334 <read_accel_xyz>:

static int read_accel_xyz(alt_32 *x, alt_32 *y, alt_32 *z)
{
 4302334:	defffb04 	addi	sp,sp,-20
 4302338:	dfc00415 	stw	ra,16(sp)
 430233c:	df000315 	stw	fp,12(sp)
 4302340:	df000304 	addi	fp,sp,12
 4302344:	e13ffd15 	stw	r4,-12(fp)
 4302348:	e17ffe15 	stw	r5,-8(fp)
 430234c:	e1bfff15 	stw	r6,-4(fp)
    if (x == NULL || y == NULL || z == NULL)
 4302350:	e0bffd17 	ldw	r2,-12(fp)
 4302354:	10000426 	beq	r2,zero,4302368 <read_accel_xyz+0x34>
 4302358:	e0bffe17 	ldw	r2,-8(fp)
 430235c:	10000226 	beq	r2,zero,4302368 <read_accel_xyz+0x34>
 4302360:	e0bfff17 	ldw	r2,-4(fp)
 4302364:	1000021e 	bne	r2,zero,4302370 <read_accel_xyz+0x3c>
        return -1;
 4302368:	00bfffc4 	movi	r2,-1
 430236c:	00001206 	br	43023b8 <read_accel_xyz+0x84>

    *x = 0;
 4302370:	e0bffd17 	ldw	r2,-12(fp)
 4302374:	10000015 	stw	zero,0(r2)
    *y = 0;
 4302378:	e0bffe17 	ldw	r2,-8(fp)
 430237c:	10000015 	stw	zero,0(r2)
    *z = 0;
 4302380:	e0bfff17 	ldw	r2,-4(fp)
 4302384:	10000015 	stw	zero,0(r2)

    if (accel_read_x(x) != 0 || accel_read_y(y) != 0 || accel_read_z(z) != 0)
 4302388:	e13ffd17 	ldw	r4,-12(fp)
 430238c:	43000ac0 	call	43000ac <accel_read_x>
 4302390:	1000061e 	bne	r2,zero,43023ac <read_accel_xyz+0x78>
 4302394:	e13ffe17 	ldw	r4,-8(fp)
 4302398:	43001000 	call	4300100 <accel_read_y>
 430239c:	1000031e 	bne	r2,zero,43023ac <read_accel_xyz+0x78>
 43023a0:	e13fff17 	ldw	r4,-4(fp)
 43023a4:	43001540 	call	4300154 <accel_read_z>
 43023a8:	10000226 	beq	r2,zero,43023b4 <read_accel_xyz+0x80>
        return -1;
 43023ac:	00bfffc4 	movi	r2,-1
 43023b0:	00000106 	br	43023b8 <read_accel_xyz+0x84>

    return 0;
 43023b4:	0005883a 	mov	r2,zero
}
 43023b8:	e037883a 	mov	sp,fp
 43023bc:	dfc00117 	ldw	ra,4(sp)
 43023c0:	df000017 	ldw	fp,0(sp)
 43023c4:	dec00204 	addi	sp,sp,8
 43023c8:	f800283a 	ret

043023cc <emergency_orientation_is_unsafe>:

static int emergency_orientation_is_unsafe(alt_32 x, alt_32 y)
{
 43023cc:	defffc04 	addi	sp,sp,-16
 43023d0:	dfc00315 	stw	ra,12(sp)
 43023d4:	df000215 	stw	fp,8(sp)
 43023d8:	df000204 	addi	fp,sp,8
 43023dc:	e13ffe15 	stw	r4,-8(fp)
 43023e0:	e17fff15 	stw	r5,-4(fp)
    return (abs_alt32(x) >= EMERGENCY_TILT_THRESHOLD ||
 43023e4:	e13ffe17 	ldw	r4,-8(fp)
 43023e8:	43023080 	call	4302308 <abs_alt32>
 43023ec:	10803c08 	cmpgei	r2,r2,240
 43023f0:	1000041e 	bne	r2,zero,4302404 <emergency_orientation_is_unsafe+0x38>
            abs_alt32(y) >= EMERGENCY_TILT_THRESHOLD);
 43023f4:	e13fff17 	ldw	r4,-4(fp)
 43023f8:	43023080 	call	4302308 <abs_alt32>
    return 0;
}

static int emergency_orientation_is_unsafe(alt_32 x, alt_32 y)
{
    return (abs_alt32(x) >= EMERGENCY_TILT_THRESHOLD ||
 43023fc:	10803c10 	cmplti	r2,r2,240
 4302400:	1000021e 	bne	r2,zero,430240c <emergency_orientation_is_unsafe+0x40>
 4302404:	00800044 	movi	r2,1
 4302408:	00000106 	br	4302410 <emergency_orientation_is_unsafe+0x44>
 430240c:	0005883a 	mov	r2,zero
            abs_alt32(y) >= EMERGENCY_TILT_THRESHOLD);
}
 4302410:	e037883a 	mov	sp,fp
 4302414:	dfc00117 	ldw	ra,4(sp)
 4302418:	df000017 	ldw	fp,0(sp)
 430241c:	dec00204 	addi	sp,sp,8
 4302420:	f800283a 	ret

04302424 <emergency_orientation_is_safe>:

static int emergency_orientation_is_safe(alt_32 x, alt_32 y)
{
 4302424:	defffc04 	addi	sp,sp,-16
 4302428:	dfc00315 	stw	ra,12(sp)
 430242c:	df000215 	stw	fp,8(sp)
 4302430:	df000204 	addi	fp,sp,8
 4302434:	e13ffe15 	stw	r4,-8(fp)
 4302438:	e17fff15 	stw	r5,-4(fp)
    return (abs_alt32(x) <= EMERGENCY_RECOVER_THRESHOLD &&
 430243c:	e13ffe17 	ldw	r4,-8(fp)
 4302440:	43023080 	call	4302308 <abs_alt32>
 4302444:	108016c8 	cmpgei	r2,r2,91
 4302448:	1000061e 	bne	r2,zero,4302464 <emergency_orientation_is_safe+0x40>
            abs_alt32(y) <= EMERGENCY_RECOVER_THRESHOLD);
 430244c:	e13fff17 	ldw	r4,-4(fp)
 4302450:	43023080 	call	4302308 <abs_alt32>
            abs_alt32(y) >= EMERGENCY_TILT_THRESHOLD);
}

static int emergency_orientation_is_safe(alt_32 x, alt_32 y)
{
    return (abs_alt32(x) <= EMERGENCY_RECOVER_THRESHOLD &&
 4302454:	108016c8 	cmpgei	r2,r2,91
 4302458:	1000021e 	bne	r2,zero,4302464 <emergency_orientation_is_safe+0x40>
 430245c:	00800044 	movi	r2,1
 4302460:	00000106 	br	4302468 <emergency_orientation_is_safe+0x44>
 4302464:	0005883a 	mov	r2,zero
            abs_alt32(y) <= EMERGENCY_RECOVER_THRESHOLD);
}
 4302468:	e037883a 	mov	sp,fp
 430246c:	dfc00117 	ldw	ra,4(sp)
 4302470:	df000017 	ldw	fp,0(sp)
 4302474:	dec00204 	addi	sp,sp,8
 4302478:	f800283a 	ret

0430247c <draw_emergency_stop_screen>:

static void draw_emergency_stop_screen(alt_32 x, alt_32 y, alt_32 z)
{
 430247c:	deffed04 	addi	sp,sp,-76
 4302480:	dfc01215 	stw	ra,72(sp)
 4302484:	df001115 	stw	fp,68(sp)
 4302488:	df001104 	addi	fp,sp,68
 430248c:	e13ffd15 	stw	r4,-12(fp)
 4302490:	e17ffe15 	stw	r5,-8(fp)
 4302494:	e1bfff15 	stw	r6,-4(fp)
    char buf[48];

    vga_fill_background(COL_BLACK);
 4302498:	0009883a 	mov	r4,zero
 430249c:	430bc400 	call	430bc40 <vga_fill_background>

    vga_draw_rectangle(0, 0, 320, 240, COL_RED);
 43024a0:	00803804 	movi	r2,224
 43024a4:	d8800015 	stw	r2,0(sp)
 43024a8:	01c03c04 	movi	r7,240
 43024ac:	01805004 	movi	r6,320
 43024b0:	000b883a 	mov	r5,zero
 43024b4:	0009883a 	mov	r4,zero
 43024b8:	430be900 	call	430be90 <vga_draw_rectangle>
    vga_draw_rectangle(6, 6, 308, 228, COL_BLACK);
 43024bc:	d8000015 	stw	zero,0(sp)
 43024c0:	01c03904 	movi	r7,228
 43024c4:	01804d04 	movi	r6,308
 43024c8:	01400184 	movi	r5,6
 43024cc:	01000184 	movi	r4,6
 43024d0:	430be900 	call	430be90 <vga_draw_rectangle>
    vga_draw_rectangle(12, 12, 296, 216, COL_YELLOW);
 43024d4:	00803f04 	movi	r2,252
 43024d8:	d8800015 	stw	r2,0(sp)
 43024dc:	01c03604 	movi	r7,216
 43024e0:	01804a04 	movi	r6,296
 43024e4:	01400304 	movi	r5,12
 43024e8:	01000304 	movi	r4,12
 43024ec:	430be900 	call	430be90 <vga_draw_rectangle>
    vga_draw_rectangle(18, 18, 284, 204, COL_BLACK);
 43024f0:	d8000015 	stw	zero,0(sp)
 43024f4:	01c03304 	movi	r7,204
 43024f8:	01804704 	movi	r6,284
 43024fc:	01400484 	movi	r5,18
 4302500:	01000484 	movi	r4,18
 4302504:	430be900 	call	430be90 <vga_draw_rectangle>

    vga_print_software_text(74, 38, "!!! CAUTION !!!", COL_RED);
 4302508:	01c03804 	movi	r7,224
 430250c:	01810cb4 	movhi	r6,1074
 4302510:	31bdc904 	addi	r6,r6,-2268
 4302514:	01400984 	movi	r5,38
 4302518:	01001284 	movi	r4,74
 430251c:	430bcc40 	call	430bcc4 <vga_print_software_text>
    vga_print_software_text(48, 66, "EMERGENCY STOP", COL_YELLOW);
 4302520:	01c03f04 	movi	r7,252
 4302524:	01810cb4 	movhi	r6,1074
 4302528:	31bdcd04 	addi	r6,r6,-2252
 430252c:	01401084 	movi	r5,66
 4302530:	01000c04 	movi	r4,48
 4302534:	430bcc40 	call	430bcc4 <vga_print_software_text>
    vga_print_software_text(34, 96, "VGA TILT LIMIT EXCEEDED", COL_WHITE);
 4302538:	01c03fc4 	movi	r7,255
 430253c:	01810cb4 	movhi	r6,1074
 4302540:	31bdd104 	addi	r6,r6,-2236
 4302544:	01401804 	movi	r5,96
 4302548:	01000884 	movi	r4,34
 430254c:	430bcc40 	call	430bcc4 <vga_print_software_text>
    vga_print_software_text(22, 124, "EMERGENCY IS LATCHED", COL_CYAN);
 4302550:	01c007c4 	movi	r7,31
 4302554:	01810cb4 	movhi	r6,1074
 4302558:	31bdd704 	addi	r6,r6,-2212
 430255c:	01401f04 	movi	r5,124
 4302560:	01000584 	movi	r4,22
 4302564:	430bcc40 	call	430bcc4 <vga_print_software_text>
    vga_print_software_text(28, 142, "PRESS KEY1 FOR MENU", COL_CYAN);
 4302568:	01c007c4 	movi	r7,31
 430256c:	01810cb4 	movhi	r6,1074
 4302570:	31bddd04 	addi	r6,r6,-2188
 4302574:	01402384 	movi	r5,142
 4302578:	01000704 	movi	r4,28
 430257c:	430bcc40 	call	430bcc4 <vga_print_software_text>

    snprintf(buf, sizeof(buf), "X=%ld Y=%ld Z=%ld", (long)x, (long)y, (long)z);
 4302580:	e0bfff17 	ldw	r2,-4(fp)
 4302584:	d8800115 	stw	r2,4(sp)
 4302588:	e0bffe17 	ldw	r2,-8(fp)
 430258c:	d8800015 	stw	r2,0(sp)
 4302590:	e1fffd17 	ldw	r7,-12(fp)
 4302594:	01810cb4 	movhi	r6,1074
 4302598:	31bde204 	addi	r6,r6,-2168
 430259c:	01400c04 	movi	r5,48
 43025a0:	e13ff104 	addi	r4,fp,-60
 43025a4:	430db7c0 	call	430db7c <snprintf>
    vga_print_software_text(58, 178, buf, COL_WHITE);
 43025a8:	01c03fc4 	movi	r7,255
 43025ac:	e1bff104 	addi	r6,fp,-60
 43025b0:	01402c84 	movi	r5,178
 43025b4:	01000e84 	movi	r4,58
 43025b8:	430bcc40 	call	430bcc4 <vga_print_software_text>
}
 43025bc:	0001883a 	nop
 43025c0:	e037883a 	mov	sp,fp
 43025c4:	dfc00117 	ldw	ra,4(sp)
 43025c8:	df000017 	ldw	fp,0(sp)
 43025cc:	dec00204 	addi	sp,sp,8
 43025d0:	f800283a 	ret

043025d4 <enter_emergency_stop_screen>:

static void enter_emergency_stop_screen(alt_32 x, alt_32 y, alt_32 z)
{
 43025d4:	defffb04 	addi	sp,sp,-20
 43025d8:	dfc00415 	stw	ra,16(sp)
 43025dc:	df000315 	stw	fp,12(sp)
 43025e0:	df000304 	addi	fp,sp,12
 43025e4:	e13ffd15 	stw	r4,-12(fp)
 43025e8:	e17ffe15 	stw	r5,-8(fp)
 43025ec:	e1bfff15 	stw	r6,-4(fp)
    emergency_stop_active = 1;
 43025f0:	00800044 	movi	r2,1
 43025f4:	d0a70f15 	stw	r2,-25540(gp)
    current_screen = SCREEN_EMERGENCY;
 43025f8:	00800144 	movi	r2,5
 43025fc:	d0a70d15 	stw	r2,-25548(gp)

    shared_write_u32(FLAG_EMERGENCY_STOP, 1);
 4302600:	01400044 	movi	r5,1
 4302604:	01002404 	movi	r4,144
 4302608:	4301f900 	call	4301f90 <shared_write_u32>
    shared_write_u32(FLAG_CURRENT_GAME, GAME_MODE_MENU);
 430260c:	000b883a 	mov	r5,zero
 4302610:	01000604 	movi	r4,24
 4302614:	4301f900 	call	4301f90 <shared_write_u32>
    shared_write_u32(FLAG_CURRENT_MENU, MENU_SELECT_NONE);
 4302618:	017fffc4 	movi	r5,-1
 430261c:	01000504 	movi	r4,20
 4302620:	4301f900 	call	4301f90 <shared_write_u32>
    shared_write_u32(FLAG_GAME_RUNNING, 0);
 4302624:	000b883a 	mov	r5,zero
 4302628:	01000704 	movi	r4,28
 430262c:	4301f900 	call	4301f90 <shared_write_u32>
    shared_write_u32(FLAG_DEBUG_MODE, 0);
 4302630:	000b883a 	mov	r5,zero
 4302634:	01000804 	movi	r4,32
 4302638:	4301f900 	call	4301f90 <shared_write_u32>
    shared_write_u32(FLAG_VGA_DISPLAY_DONE, 0);
 430263c:	000b883a 	mov	r5,zero
 4302640:	01000b04 	movi	r4,44
 4302644:	4301f900 	call	4301f90 <shared_write_u32>
    shared_write_u32(FLAG_PANEL_MODE_SEQ, shared_read_u32(FLAG_PANEL_MODE_SEQ) + 1);
 4302648:	01002304 	movi	r4,140
 430264c:	4301fd00 	call	4301fd0 <shared_read_u32>
 4302650:	10800044 	addi	r2,r2,1
 4302654:	100b883a 	mov	r5,r2
 4302658:	01002304 	movi	r4,140
 430265c:	4301f900 	call	4301f90 <shared_write_u32>

    draw_emergency_stop_screen(x, y, z);
 4302660:	e1bfff17 	ldw	r6,-4(fp)
 4302664:	e17ffe17 	ldw	r5,-8(fp)
 4302668:	e13ffd17 	ldw	r4,-12(fp)
 430266c:	430247c0 	call	430247c <draw_emergency_stop_screen>
    shared_write_u32(FLAG_VGA_DISPLAY_DONE, 1);
 4302670:	01400044 	movi	r5,1
 4302674:	01000b04 	movi	r4,44
 4302678:	4301f900 	call	4301f90 <shared_write_u32>

    printf("[EMERGENCY] tilt stop entered x=%ld y=%ld z=%ld\n", (long)x, (long)y, (long)z);
 430267c:	e1ffff17 	ldw	r7,-4(fp)
 4302680:	e1bffe17 	ldw	r6,-8(fp)
 4302684:	e17ffd17 	ldw	r5,-12(fp)
 4302688:	01010cb4 	movhi	r4,1074
 430268c:	213de704 	addi	r4,r4,-2148
 4302690:	430d9400 	call	430d940 <printf>
    fflush(stdout);
 4302694:	d0a00e17 	ldw	r2,-32712(gp)
 4302698:	10800217 	ldw	r2,8(r2)
 430269c:	1009883a 	mov	r4,r2
 43026a0:	430c6500 	call	430c650 <fflush>
}
 43026a4:	0001883a 	nop
 43026a8:	e037883a 	mov	sp,fp
 43026ac:	dfc00117 	ldw	ra,4(sp)
 43026b0:	df000017 	ldw	fp,0(sp)
 43026b4:	dec00204 	addi	sp,sp,8
 43026b8:	f800283a 	ret

043026bc <service_emergency_stop>:

static int service_emergency_stop(void)
{
 43026bc:	defffb04 	addi	sp,sp,-20
 43026c0:	dfc00415 	stw	ra,16(sp)
 43026c4:	df000315 	stw	fp,12(sp)
 43026c8:	df000304 	addi	fp,sp,12
    alt_32 x = 0, y = 0, z = 0;
 43026cc:	e03ffd15 	stw	zero,-12(fp)
 43026d0:	e03ffe15 	stw	zero,-8(fp)
 43026d4:	e03fff15 	stw	zero,-4(fp)

       The only thing that should happen while latched is handled later in
       handle_irq_button_action(): KEY1 acknowledges the emergency and returns
       to the main menu.
    */
    if (emergency_stop_active || current_screen == SCREEN_EMERGENCY)
 43026d8:	d0a70f17 	ldw	r2,-25540(gp)
 43026dc:	1000031e 	bne	r2,zero,43026ec <service_emergency_stop+0x30>
 43026e0:	d0a70d17 	ldw	r2,-25548(gp)
 43026e4:	10800158 	cmpnei	r2,r2,5
 43026e8:	1000021e 	bne	r2,zero,43026f4 <service_emergency_stop+0x38>
        return 1;
 43026ec:	00800044 	movi	r2,1
 43026f0:	00001906 	br	4302758 <service_emergency_stop+0x9c>

    if (read_accel_xyz(&x, &y, &z) != 0)
 43026f4:	e0ffff04 	addi	r3,fp,-4
 43026f8:	e0bffe04 	addi	r2,fp,-8
 43026fc:	180d883a 	mov	r6,r3
 4302700:	100b883a 	mov	r5,r2
 4302704:	e13ffd04 	addi	r4,fp,-12
 4302708:	43023340 	call	4302334 <read_accel_xyz>
 430270c:	10000226 	beq	r2,zero,4302718 <service_emergency_stop+0x5c>
        return 0;
 4302710:	0005883a 	mov	r2,zero
 4302714:	00001006 	br	4302758 <service_emergency_stop+0x9c>

    if (emergency_orientation_is_unsafe(x, y))
 4302718:	e0bffd17 	ldw	r2,-12(fp)
 430271c:	e0fffe17 	ldw	r3,-8(fp)
 4302720:	180b883a 	mov	r5,r3
 4302724:	1009883a 	mov	r4,r2
 4302728:	43023cc0 	call	43023cc <emergency_orientation_is_unsafe>
 430272c:	10000926 	beq	r2,zero,4302754 <service_emergency_stop+0x98>
    {
        enter_emergency_stop_screen(x, y, z);
 4302730:	e0bffd17 	ldw	r2,-12(fp)
 4302734:	e0fffe17 	ldw	r3,-8(fp)
 4302738:	e13fff17 	ldw	r4,-4(fp)
 430273c:	200d883a 	mov	r6,r4
 4302740:	180b883a 	mov	r5,r3
 4302744:	1009883a 	mov	r4,r2
 4302748:	43025d40 	call	43025d4 <enter_emergency_stop_screen>
        return 1;
 430274c:	00800044 	movi	r2,1
 4302750:	00000106 	br	4302758 <service_emergency_stop+0x9c>
    }

    return 0;
 4302754:	0005883a 	mov	r2,zero
}
 4302758:	e037883a 	mov	sp,fp
 430275c:	dfc00117 	ldw	ra,4(sp)
 4302760:	df000017 	ldw	fp,0(sp)
 4302764:	dec00204 	addi	sp,sp,8
 4302768:	f800283a 	ret

0430276c <update_menu_navigation>:

static void update_menu_navigation(void)
{
 430276c:	defffd04 	addi	sp,sp,-12
 4302770:	dfc00215 	stw	ra,8(sp)
 4302774:	df000115 	stw	fp,4(sp)
 4302778:	df000104 	addi	fp,sp,4
    int direction = read_menu_direction();
 430277c:	43022780 	call	4302278 <read_menu_direction>
 4302780:	e0bfff15 	stw	r2,-4(fp)

    if (direction > 0)
 4302784:	e0bfff17 	ldw	r2,-4(fp)
 4302788:	00801a0e 	bge	zero,r2,43027f4 <update_menu_navigation+0x88>
    {
        selected_menu_index++;
 430278c:	d0a70e17 	ldw	r2,-25544(gp)
 4302790:	10800044 	addi	r2,r2,1
 4302794:	d0a70e15 	stw	r2,-25544(gp)
        if (selected_menu_index >= MENU_ITEM_COUNT)
 4302798:	d0a70e17 	ldw	r2,-25544(gp)
 430279c:	10800110 	cmplti	r2,r2,4
 43027a0:	1000011e 	bne	r2,zero,43027a8 <update_menu_navigation+0x3c>
            selected_menu_index = 0;
 43027a4:	d0270e15 	stw	zero,-25544(gp)

        trigger_sfx_flag(FLAG_SFX_CLICK);
 43027a8:	01031704 	movi	r4,3164
 43027ac:	43020040 	call	4302004 <trigger_sfx_flag>
        shared_write_u32(FLAG_CURRENT_MENU, (uint32_t)selected_menu_index);
 43027b0:	d0a70e17 	ldw	r2,-25544(gp)
 43027b4:	100b883a 	mov	r5,r2
 43027b8:	01000504 	movi	r4,20
 43027bc:	4301f900 	call	4301f90 <shared_write_u32>
        shared_write_u32(FLAG_VGA_DISPLAY_DONE, 0);
 43027c0:	000b883a 	mov	r5,zero
 43027c4:	01000b04 	movi	r4,44
 43027c8:	4301f900 	call	4301f90 <shared_write_u32>
        menu_draw(selected_menu_index);
 43027cc:	d0a70e17 	ldw	r2,-25544(gp)
 43027d0:	1009883a 	mov	r4,r2
 43027d4:	4302ee80 	call	4302ee8 <menu_draw>
        shared_write_u32(FLAG_VGA_DISPLAY_DONE, 1);
 43027d8:	01400044 	movi	r5,1
 43027dc:	01000b04 	movi	r4,44
 43027e0:	4301f900 	call	4301f90 <shared_write_u32>
        usleep(MENU_MOVE_DELAY_US);
 43027e4:	01000134 	movhi	r4,4
 43027e8:	21342404 	addi	r4,r4,-12144
 43027ec:	431cef00 	call	431cef0 <usleep>
        shared_write_u32(FLAG_VGA_DISPLAY_DONE, 0);
        menu_draw(selected_menu_index);
        shared_write_u32(FLAG_VGA_DISPLAY_DONE, 1);
        usleep(MENU_MOVE_DELAY_US);
    }
}
 43027f0:	00001b06 	br	4302860 <update_menu_navigation+0xf4>
        shared_write_u32(FLAG_VGA_DISPLAY_DONE, 0);
        menu_draw(selected_menu_index);
        shared_write_u32(FLAG_VGA_DISPLAY_DONE, 1);
        usleep(MENU_MOVE_DELAY_US);
    }
    else if (direction < 0)
 43027f4:	e0bfff17 	ldw	r2,-4(fp)
 43027f8:	1000190e 	bge	r2,zero,4302860 <update_menu_navigation+0xf4>
    {
        selected_menu_index--;
 43027fc:	d0a70e17 	ldw	r2,-25544(gp)
 4302800:	10bfffc4 	addi	r2,r2,-1
 4302804:	d0a70e15 	stw	r2,-25544(gp)
        if (selected_menu_index < 0)
 4302808:	d0a70e17 	ldw	r2,-25544(gp)
 430280c:	1000020e 	bge	r2,zero,4302818 <update_menu_navigation+0xac>
            selected_menu_index = MENU_ITEM_COUNT - 1;
 4302810:	008000c4 	movi	r2,3
 4302814:	d0a70e15 	stw	r2,-25544(gp)

        trigger_sfx_flag(FLAG_SFX_CLICK);
 4302818:	01031704 	movi	r4,3164
 430281c:	43020040 	call	4302004 <trigger_sfx_flag>
        shared_write_u32(FLAG_CURRENT_MENU, (uint32_t)selected_menu_index);
 4302820:	d0a70e17 	ldw	r2,-25544(gp)
 4302824:	100b883a 	mov	r5,r2
 4302828:	01000504 	movi	r4,20
 430282c:	4301f900 	call	4301f90 <shared_write_u32>
        shared_write_u32(FLAG_VGA_DISPLAY_DONE, 0);
 4302830:	000b883a 	mov	r5,zero
 4302834:	01000b04 	movi	r4,44
 4302838:	4301f900 	call	4301f90 <shared_write_u32>
        menu_draw(selected_menu_index);
 430283c:	d0a70e17 	ldw	r2,-25544(gp)
 4302840:	1009883a 	mov	r4,r2
 4302844:	4302ee80 	call	4302ee8 <menu_draw>
        shared_write_u32(FLAG_VGA_DISPLAY_DONE, 1);
 4302848:	01400044 	movi	r5,1
 430284c:	01000b04 	movi	r4,44
 4302850:	4301f900 	call	4301f90 <shared_write_u32>
        usleep(MENU_MOVE_DELAY_US);
 4302854:	01000134 	movhi	r4,4
 4302858:	21342404 	addi	r4,r4,-12144
 430285c:	431cef00 	call	431cef0 <usleep>
    }
}
 4302860:	0001883a 	nop
 4302864:	e037883a 	mov	sp,fp
 4302868:	dfc00117 	ldw	ra,4(sp)
 430286c:	df000017 	ldw	fp,0(sp)
 4302870:	dec00204 	addi	sp,sp,8
 4302874:	f800283a 	ret

04302878 <enter_screen>:

static void enter_screen(int next_screen)
{
 4302878:	defffd04 	addi	sp,sp,-12
 430287c:	dfc00215 	stw	ra,8(sp)
 4302880:	df000115 	stw	fp,4(sp)
 4302884:	df000104 	addi	fp,sp,4
 4302888:	e13fff15 	stw	r4,-4(fp)
    shared_write_u32(FLAG_VGA_DISPLAY_DONE, 0);
 430288c:	000b883a 	mov	r5,zero
 4302890:	01000b04 	movi	r4,44
 4302894:	4301f900 	call	4301f90 <shared_write_u32>

    current_screen = next_screen;
 4302898:	e0bfff17 	ldw	r2,-4(fp)
 430289c:	d0a70d15 	stw	r2,-25548(gp)
    shared_write_u32(FLAG_PANEL_MODE_SEQ, shared_read_u32(FLAG_PANEL_MODE_SEQ) + 1);
 43028a0:	01002304 	movi	r4,140
 43028a4:	4301fd00 	call	4301fd0 <shared_read_u32>
 43028a8:	10800044 	addi	r2,r2,1
 43028ac:	100b883a 	mov	r5,r2
 43028b0:	01002304 	movi	r4,140
 43028b4:	4301f900 	call	4301f90 <shared_write_u32>

    if (current_screen == SCREEN_MENU)
 43028b8:	d0a70d17 	ldw	r2,-25548(gp)
 43028bc:	1000111e 	bne	r2,zero,4302904 <enter_screen+0x8c>
    {
        shared_write_u32(FLAG_CURRENT_GAME, GAME_MODE_MENU);
 43028c0:	000b883a 	mov	r5,zero
 43028c4:	01000604 	movi	r4,24
 43028c8:	4301f900 	call	4301f90 <shared_write_u32>
        shared_write_u32(FLAG_CURRENT_MENU, (uint32_t)selected_menu_index);
 43028cc:	d0a70e17 	ldw	r2,-25544(gp)
 43028d0:	100b883a 	mov	r5,r2
 43028d4:	01000504 	movi	r4,20
 43028d8:	4301f900 	call	4301f90 <shared_write_u32>
        shared_write_u32(FLAG_GAME_RUNNING, 0);
 43028dc:	000b883a 	mov	r5,zero
 43028e0:	01000704 	movi	r4,28
 43028e4:	4301f900 	call	4301f90 <shared_write_u32>
        shared_write_u32(FLAG_DEBUG_MODE, 0);
 43028e8:	000b883a 	mov	r5,zero
 43028ec:	01000804 	movi	r4,32
 43028f0:	4301f900 	call	4301f90 <shared_write_u32>
        menu_draw(selected_menu_index);
 43028f4:	d0a70e17 	ldw	r2,-25544(gp)
 43028f8:	1009883a 	mov	r4,r2
 43028fc:	4302ee80 	call	4302ee8 <menu_draw>
 4302900:	00004906 	br	4302a28 <enter_screen+0x1b0>
    }
    else if (current_screen == SCREEN_BATTLE)
 4302904:	d0a70d17 	ldw	r2,-25548(gp)
 4302908:	10800058 	cmpnei	r2,r2,1
 430290c:	1000101e 	bne	r2,zero,4302950 <enter_screen+0xd8>
    {
        shared_write_u32(FLAG_CURRENT_GAME, GAME_MODE_BATTLE);
 4302910:	01400104 	movi	r5,4
 4302914:	01000604 	movi	r4,24
 4302918:	4301f900 	call	4301f90 <shared_write_u32>
        shared_write_u32(FLAG_CURRENT_MENU, MENU_SELECT_NONE);
 430291c:	017fffc4 	movi	r5,-1
 4302920:	01000504 	movi	r4,20
 4302924:	4301f900 	call	4301f90 <shared_write_u32>
        shared_write_u32(FLAG_GAME_RUNNING, 1);
 4302928:	01400044 	movi	r5,1
 430292c:	01000704 	movi	r4,28
 4302930:	4301f900 	call	4301f90 <shared_write_u32>
        shared_write_u32(FLAG_DEBUG_MODE, 0);
 4302934:	000b883a 	mov	r5,zero
 4302938:	01000804 	movi	r4,32
 430293c:	4301f900 	call	4301f90 <shared_write_u32>
        trigger_sfx_flag(FLAG_SFX_ENTER_BATTLE);
 4302940:	01031a04 	movi	r4,3176
 4302944:	43020040 	call	4302004 <trigger_sfx_flag>
        ship_game_init();
 4302948:	43085000 	call	4308500 <ship_game_init>
 430294c:	00003606 	br	4302a28 <enter_screen+0x1b0>
    }
    else if (current_screen == SCREEN_SNAKE)
 4302950:	d0a70d17 	ldw	r2,-25548(gp)
 4302954:	10800098 	cmpnei	r2,r2,2
 4302958:	1000101e 	bne	r2,zero,430299c <enter_screen+0x124>
    {
        shared_write_u32(FLAG_CURRENT_GAME, GAME_MODE_SNAKE);
 430295c:	01400044 	movi	r5,1
 4302960:	01000604 	movi	r4,24
 4302964:	4301f900 	call	4301f90 <shared_write_u32>
        shared_write_u32(FLAG_CURRENT_MENU, MENU_SELECT_NONE);
 4302968:	017fffc4 	movi	r5,-1
 430296c:	01000504 	movi	r4,20
 4302970:	4301f900 	call	4301f90 <shared_write_u32>
        shared_write_u32(FLAG_GAME_RUNNING, 1);
 4302974:	01400044 	movi	r5,1
 4302978:	01000704 	movi	r4,28
 430297c:	4301f900 	call	4301f90 <shared_write_u32>
        shared_write_u32(FLAG_DEBUG_MODE, 0);
 4302980:	000b883a 	mov	r5,zero
 4302984:	01000804 	movi	r4,32
 4302988:	4301f900 	call	4301f90 <shared_write_u32>
        trigger_sfx_flag(FLAG_SFX_ENTER_SNAKE);
 430298c:	01031804 	movi	r4,3168
 4302990:	43020040 	call	4302004 <trigger_sfx_flag>
        snake_init();
 4302994:	430b6d00 	call	430b6d0 <snake_init>
 4302998:	00002306 	br	4302a28 <enter_screen+0x1b0>
    }
    else if (current_screen == SCREEN_DRAW)
 430299c:	d0a70d17 	ldw	r2,-25548(gp)
 43029a0:	108000d8 	cmpnei	r2,r2,3
 43029a4:	1000101e 	bne	r2,zero,43029e8 <enter_screen+0x170>
    {
        shared_write_u32(FLAG_CURRENT_GAME, GAME_MODE_DRAW);
 43029a8:	01400084 	movi	r5,2
 43029ac:	01000604 	movi	r4,24
 43029b0:	4301f900 	call	4301f90 <shared_write_u32>
        shared_write_u32(FLAG_CURRENT_MENU, MENU_SELECT_NONE);
 43029b4:	017fffc4 	movi	r5,-1
 43029b8:	01000504 	movi	r4,20
 43029bc:	4301f900 	call	4301f90 <shared_write_u32>
        shared_write_u32(FLAG_GAME_RUNNING, 1);
 43029c0:	01400044 	movi	r5,1
 43029c4:	01000704 	movi	r4,28
 43029c8:	4301f900 	call	4301f90 <shared_write_u32>
        shared_write_u32(FLAG_DEBUG_MODE, 0);
 43029cc:	000b883a 	mov	r5,zero
 43029d0:	01000804 	movi	r4,32
 43029d4:	4301f900 	call	4301f90 <shared_write_u32>
        trigger_sfx_flag(FLAG_SFX_ENTER_DRAW);
 43029d8:	01031904 	movi	r4,3172
 43029dc:	43020040 	call	4302004 <trigger_sfx_flag>
        draw_game_init();
 43029e0:	4301e1c0 	call	4301e1c <draw_game_init>
 43029e4:	00001006 	br	4302a28 <enter_screen+0x1b0>
    }
    else if (current_screen == SCREEN_DEBUG)
 43029e8:	d0a70d17 	ldw	r2,-25548(gp)
 43029ec:	10800118 	cmpnei	r2,r2,4
 43029f0:	10000d1e 	bne	r2,zero,4302a28 <enter_screen+0x1b0>
    {
        shared_write_u32(FLAG_CURRENT_GAME, GAME_MODE_DEBUG);
 43029f4:	014000c4 	movi	r5,3
 43029f8:	01000604 	movi	r4,24
 43029fc:	4301f900 	call	4301f90 <shared_write_u32>
        shared_write_u32(FLAG_CURRENT_MENU, MENU_SELECT_NONE);
 4302a00:	017fffc4 	movi	r5,-1
 4302a04:	01000504 	movi	r4,20
 4302a08:	4301f900 	call	4301f90 <shared_write_u32>
        shared_write_u32(FLAG_GAME_RUNNING, 0);
 4302a0c:	000b883a 	mov	r5,zero
 4302a10:	01000704 	movi	r4,28
 4302a14:	4301f900 	call	4301f90 <shared_write_u32>
        shared_write_u32(FLAG_DEBUG_MODE, 1);
 4302a18:	01400044 	movi	r5,1
 4302a1c:	01000804 	movi	r4,32
 4302a20:	4301f900 	call	4301f90 <shared_write_u32>
        debug_init();
 4302a24:	4300fac0 	call	4300fac <debug_init>
    }

    shared_write_u32(FLAG_VGA_DISPLAY_DONE, 1);
 4302a28:	01400044 	movi	r5,1
 4302a2c:	01000b04 	movi	r4,44
 4302a30:	4301f900 	call	4301f90 <shared_write_u32>
}
 4302a34:	0001883a 	nop
 4302a38:	e037883a 	mov	sp,fp
 4302a3c:	dfc00117 	ldw	ra,4(sp)
 4302a40:	df000017 	ldw	fp,0(sp)
 4302a44:	dec00204 	addi	sp,sp,8
 4302a48:	f800283a 	ret

04302a4c <consume_vga_irq_key_mask>:

static uint32_t consume_vga_irq_key_mask(void)
{
 4302a4c:	defffe04 	addi	sp,sp,-8
 4302a50:	df000115 	stw	fp,4(sp)
 4302a54:	df000104 	addi	fp,sp,4
    uint32_t key_mask = vga_irq_key_pressed_mask;
 4302a58:	d0a70a17 	ldw	r2,-25560(gp)
 4302a5c:	e0bfff15 	stw	r2,-4(fp)
    vga_irq_key_pressed_mask = 0;
 4302a60:	d0270a15 	stw	zero,-25560(gp)
    return key_mask;
 4302a64:	e0bfff17 	ldw	r2,-4(fp)
}
 4302a68:	e037883a 	mov	sp,fp
 4302a6c:	df000017 	ldw	fp,0(sp)
 4302a70:	dec00104 	addi	sp,sp,4
 4302a74:	f800283a 	ret

04302a78 <handle_irq_button_action>:

static void handle_irq_button_action(void)
{
 4302a78:	defffc04 	addi	sp,sp,-16
 4302a7c:	dfc00315 	stw	ra,12(sp)
 4302a80:	df000215 	stw	fp,8(sp)
 4302a84:	df000204 	addi	fp,sp,8
    uint32_t key_mask = consume_vga_irq_key_mask();
 4302a88:	4302a4c0 	call	4302a4c <consume_vga_irq_key_mask>
 4302a8c:	e0bffe15 	stw	r2,-8(fp)
    uint32_t event_type = vga_irq_control_event_type;
 4302a90:	d0a70c17 	ldw	r2,-25552(gp)
 4302a94:	e0bfff15 	stw	r2,-4(fp)

    if (emergency_stop_active || current_screen == SCREEN_EMERGENCY)
 4302a98:	d0a70f17 	ldw	r2,-25540(gp)
 4302a9c:	1000031e 	bne	r2,zero,4302aac <handle_irq_button_action+0x34>
 4302aa0:	d0a70d17 	ldw	r2,-25548(gp)
 4302aa4:	10800158 	cmpnei	r2,r2,5
 4302aa8:	1000161e 	bne	r2,zero,4302b04 <handle_irq_button_action+0x8c>
    {
        /*
           Emergency screen is latched.  Ignore everything except KEY1.
           KEY1 acknowledges the emergency and returns to the main menu.
        */
        if (key_mask & EMERGENCY_KEY_EXIT_MASK)
 4302aac:	e0bffe17 	ldw	r2,-8(fp)
 4302ab0:	1080008c 	andi	r2,r2,2
 4302ab4:	10001126 	beq	r2,zero,4302afc <handle_irq_button_action+0x84>
        {
            printf("[EMERGENCY] KEY1 acknowledged, returning to main menu\n");
 4302ab8:	01010cb4 	movhi	r4,1074
 4302abc:	213df404 	addi	r4,r4,-2096
 4302ac0:	430da3c0 	call	430da3c <puts>
            fflush(stdout);
 4302ac4:	d0a00e17 	ldw	r2,-32712(gp)
 4302ac8:	10800217 	ldw	r2,8(r2)
 4302acc:	1009883a 	mov	r4,r2
 4302ad0:	430c6500 	call	430c650 <fflush>

            emergency_stop_active = 0;
 4302ad4:	d0270f15 	stw	zero,-25540(gp)
            shared_write_u32(FLAG_EMERGENCY_STOP, 0);
 4302ad8:	000b883a 	mov	r5,zero
 4302adc:	01002404 	movi	r4,144
 4302ae0:	4301f900 	call	4301f90 <shared_write_u32>
            selected_menu_index = 0;
 4302ae4:	d0270e15 	stw	zero,-25544(gp)
            enter_screen(SCREEN_MENU);
 4302ae8:	0009883a 	mov	r4,zero
 4302aec:	43028780 	call	4302878 <enter_screen>
            usleep(SCREEN_EXIT_DELAY_US);
 4302af0:	01000134 	movhi	r4,4
 4302af4:	21342404 	addi	r4,r4,-12144
 4302af8:	431cef00 	call	431cef0 <usleep>
        }

        wait_until_irq_signal_low();
 4302afc:	43022280 	call	4302228 <wait_until_irq_signal_low>
        return;
 4302b00:	00008d06 	br	4302d38 <handle_irq_button_action+0x2c0>
    }

    if (event_type == CONTROL_EVENT_SWITCH && key_mask == 0)
 4302b04:	e0bfff17 	ldw	r2,-4(fp)
 4302b08:	10800098 	cmpnei	r2,r2,2
 4302b0c:	1000331e 	bne	r2,zero,4302bdc <handle_irq_button_action+0x164>
 4302b10:	e0bffe17 	ldw	r2,-8(fp)
 4302b14:	1000311e 	bne	r2,zero,4302bdc <handle_irq_button_action+0x164>
    {
        printf("VGA control switch update: SW=0x%03lX\n", (unsigned long)vga_irq_switch_state);
 4302b18:	d0a70b17 	ldw	r2,-25556(gp)
 4302b1c:	100b883a 	mov	r5,r2
 4302b20:	01010cb4 	movhi	r4,1074
 4302b24:	213e0204 	addi	r4,r4,-2040
 4302b28:	430d9400 	call	430d940 <printf>
        fflush(stdout);
 4302b2c:	d0a00e17 	ldw	r2,-32712(gp)
 4302b30:	10800217 	ldw	r2,8(r2)
 4302b34:	1009883a 	mov	r4,r2
 4302b38:	430c6500 	call	430c650 <fflush>

        if ((vga_irq_switch_state & CONTROL_SW9_MASK) != 0 && current_screen != SCREEN_MENU)
 4302b3c:	d0a70b17 	ldw	r2,-25556(gp)
 4302b40:	1080800c 	andi	r2,r2,512
 4302b44:	10001b26 	beq	r2,zero,4302bb4 <handle_irq_button_action+0x13c>
 4302b48:	d0a70d17 	ldw	r2,-25548(gp)
 4302b4c:	10001926 	beq	r2,zero,4302bb4 <handle_irq_button_action+0x13c>
        {
            if ((current_screen == SCREEN_SNAKE && snake_is_lost()) ||
 4302b50:	d0a70d17 	ldw	r2,-25548(gp)
 4302b54:	10800098 	cmpnei	r2,r2,2
 4302b58:	1000021e 	bne	r2,zero,4302b64 <handle_irq_button_action+0xec>
 4302b5c:	430b9f80 	call	430b9f8 <snake_is_lost>
 4302b60:	1000051e 	bne	r2,zero,4302b78 <handle_irq_button_action+0x100>
                (current_screen == SCREEN_BATTLE && ship_game_fleet_popup_visible()))
 4302b64:	d0a70d17 	ldw	r2,-25548(gp)
        printf("VGA control switch update: SW=0x%03lX\n", (unsigned long)vga_irq_switch_state);
        fflush(stdout);

        if ((vga_irq_switch_state & CONTROL_SW9_MASK) != 0 && current_screen != SCREEN_MENU)
        {
            if ((current_screen == SCREEN_SNAKE && snake_is_lost()) ||
 4302b68:	10800058 	cmpnei	r2,r2,1
 4302b6c:	1000041e 	bne	r2,zero,4302b80 <handle_irq_button_action+0x108>
                (current_screen == SCREEN_BATTLE && ship_game_fleet_popup_visible()))
 4302b70:	43084d80 	call	43084d8 <ship_game_fleet_popup_visible>
 4302b74:	10000226 	beq	r2,zero,4302b80 <handle_irq_button_action+0x108>
            {
                trigger_sfx_flag(FLAG_SFX_CLICK);
 4302b78:	01031704 	movi	r4,3164
 4302b7c:	43020040 	call	4302004 <trigger_sfx_flag>
            }
            shared_write_u32(FLAG_MENU_EXIT_EVENT, shared_read_u32(FLAG_MENU_EXIT_EVENT) + 1);
 4302b80:	01000f04 	movi	r4,60
 4302b84:	4301fd00 	call	4301fd0 <shared_read_u32>
 4302b88:	10800044 	addi	r2,r2,1
 4302b8c:	100b883a 	mov	r5,r2
 4302b90:	01000f04 	movi	r4,60
 4302b94:	4301f900 	call	4301f90 <shared_write_u32>
            enter_screen(SCREEN_MENU);
 4302b98:	0009883a 	mov	r4,zero
 4302b9c:	43028780 	call	4302878 <enter_screen>
            usleep(SCREEN_EXIT_DELAY_US);
 4302ba0:	01000134 	movhi	r4,4
 4302ba4:	21342404 	addi	r4,r4,-12144
 4302ba8:	431cef00 	call	431cef0 <usleep>
            wait_until_irq_signal_low();
 4302bac:	43022280 	call	4302228 <wait_until_irq_signal_low>
            return;
 4302bb0:	00006106 	br	4302d38 <handle_irq_button_action+0x2c0>
        }

        if (current_screen == SCREEN_BATTLE)
 4302bb4:	d0a70d17 	ldw	r2,-25548(gp)
 4302bb8:	10800058 	cmpnei	r2,r2,1
 4302bbc:	1000051e 	bne	r2,zero,4302bd4 <handle_irq_button_action+0x15c>
        {
            ship_game_handle_control_event(0, vga_irq_switch_state, event_type);
 4302bc0:	d0a70b17 	ldw	r2,-25556(gp)
 4302bc4:	e1bfff17 	ldw	r6,-4(fp)
 4302bc8:	100b883a 	mov	r5,r2
 4302bcc:	0009883a 	mov	r4,zero
 4302bd0:	43083c80 	call	43083c8 <ship_game_handle_control_event>
        }

        wait_until_irq_signal_low();
 4302bd4:	43022280 	call	4302228 <wait_until_irq_signal_low>
        return;
 4302bd8:	00005706 	br	4302d38 <handle_irq_button_action+0x2c0>
    }

    if (current_screen == SCREEN_MENU)
 4302bdc:	d0a70d17 	ldw	r2,-25548(gp)
 4302be0:	1000151e 	bne	r2,zero,4302c38 <handle_irq_button_action+0x1c0>
    {
        if ((key_mask & CONTROL_KEY1_MASK) || (key_mask == 0 && event_type != CONTROL_EVENT_SWITCH))
 4302be4:	e0bffe17 	ldw	r2,-8(fp)
 4302be8:	1080008c 	andi	r2,r2,2
 4302bec:	1000051e 	bne	r2,zero,4302c04 <handle_irq_button_action+0x18c>
 4302bf0:	e0bffe17 	ldw	r2,-8(fp)
 4302bf4:	10000e1e 	bne	r2,zero,4302c30 <handle_irq_button_action+0x1b8>
 4302bf8:	e0bfff17 	ldw	r2,-4(fp)
 4302bfc:	108000a0 	cmpeqi	r2,r2,2
 4302c00:	10000b1e 	bne	r2,zero,4302c30 <handle_irq_button_action+0x1b8>
        {
            shared_write_u32(FLAG_MENU_ENTER_EVENT, shared_read_u32(FLAG_MENU_ENTER_EVENT) + 1);
 4302c04:	01000e04 	movi	r4,56
 4302c08:	4301fd00 	call	4301fd0 <shared_read_u32>
 4302c0c:	10800044 	addi	r2,r2,1
 4302c10:	100b883a 	mov	r5,r2
 4302c14:	01000e04 	movi	r4,56
 4302c18:	4301f900 	call	4301f90 <shared_write_u32>
            enter_screen(menu_get_selected_screen(selected_menu_index));
 4302c1c:	d0a70e17 	ldw	r2,-25544(gp)
 4302c20:	1009883a 	mov	r4,r2
 4302c24:	4302fb40 	call	4302fb4 <menu_get_selected_screen>
 4302c28:	1009883a 	mov	r4,r2
 4302c2c:	43028780 	call	4302878 <enter_screen>
        }
        wait_until_irq_signal_low();
 4302c30:	43022280 	call	4302228 <wait_until_irq_signal_low>
 4302c34:	00004006 	br	4302d38 <handle_irq_button_action+0x2c0>
    }
    else if (current_screen == SCREEN_BATTLE)
 4302c38:	d0a70d17 	ldw	r2,-25548(gp)
 4302c3c:	10800058 	cmpnei	r2,r2,1
 4302c40:	1000071e 	bne	r2,zero,4302c60 <handle_irq_button_action+0x1e8>
    {
        ship_game_handle_control_event(key_mask, vga_irq_switch_state, event_type);
 4302c44:	d0a70b17 	ldw	r2,-25556(gp)
 4302c48:	e1bfff17 	ldw	r6,-4(fp)
 4302c4c:	100b883a 	mov	r5,r2
 4302c50:	e13ffe17 	ldw	r4,-8(fp)
 4302c54:	43083c80 	call	43083c8 <ship_game_handle_control_event>
        wait_until_irq_signal_low();
 4302c58:	43022280 	call	4302228 <wait_until_irq_signal_low>
 4302c5c:	00003606 	br	4302d38 <handle_irq_button_action+0x2c0>
    }
    else if (current_screen == SCREEN_SNAKE)
 4302c60:	d0a70d17 	ldw	r2,-25548(gp)
 4302c64:	10800098 	cmpnei	r2,r2,2
 4302c68:	1000121e 	bne	r2,zero,4302cb4 <handle_irq_button_action+0x23c>
        /*
           SW9 remains the universal escape handled above.
           KEY1/KEY0 should still work on the YOU LOSE screen, otherwise
           the player gets stuck staring at the retry prompt.
        */
        if (key_mask & (CONTROL_KEY0_MASK | CONTROL_KEY1_MASK))
 4302c6c:	e0bffe17 	ldw	r2,-8(fp)
 4302c70:	108000cc 	andi	r2,r2,3
 4302c74:	10000d26 	beq	r2,zero,4302cac <handle_irq_button_action+0x234>
        {
            if (snake_is_lost())
 4302c78:	430b9f80 	call	430b9f8 <snake_is_lost>
 4302c7c:	10000426 	beq	r2,zero,4302c90 <handle_irq_button_action+0x218>
            {
                trigger_sfx_flag(FLAG_SFX_CLICK);
 4302c80:	01031704 	movi	r4,3164
 4302c84:	43020040 	call	4302004 <trigger_sfx_flag>
                snake_handle_button();  /* retry, returns 0 */
 4302c88:	430ba200 	call	430ba20 <snake_handle_button>
 4302c8c:	00000706 	br	4302cac <handle_irq_button_action+0x234>
            }
            else
            {
                printf("Snake key consumed during live game; use SW9 for menu\n");
 4302c90:	01010cb4 	movhi	r4,1074
 4302c94:	213e0c04 	addi	r4,r4,-2000
 4302c98:	430da3c0 	call	430da3c <puts>
                fflush(stdout);
 4302c9c:	d0a00e17 	ldw	r2,-32712(gp)
 4302ca0:	10800217 	ldw	r2,8(r2)
 4302ca4:	1009883a 	mov	r4,r2
 4302ca8:	430c6500 	call	430c650 <fflush>
            }
        }
        wait_until_irq_signal_low();
 4302cac:	43022280 	call	4302228 <wait_until_irq_signal_low>
 4302cb0:	00002106 	br	4302d38 <handle_irq_button_action+0x2c0>
    }
    else if (current_screen == SCREEN_DRAW)
 4302cb4:	d0a70d17 	ldw	r2,-25548(gp)
 4302cb8:	108000d8 	cmpnei	r2,r2,3
 4302cbc:	10000c1e 	bne	r2,zero,4302cf0 <handle_irq_button_action+0x278>
    {
        if (key_mask & CONTROL_KEY1_MASK)
 4302cc0:	e0bffe17 	ldw	r2,-8(fp)
 4302cc4:	1080008c 	andi	r2,r2,2
 4302cc8:	10000726 	beq	r2,zero,4302ce8 <handle_irq_button_action+0x270>
        {
            printf("Draw KEY1 consumed; use SW9 to return to menu\n");
 4302ccc:	01010cb4 	movhi	r4,1074
 4302cd0:	213e1a04 	addi	r4,r4,-1944
 4302cd4:	430da3c0 	call	430da3c <puts>
            fflush(stdout);
 4302cd8:	d0a00e17 	ldw	r2,-32712(gp)
 4302cdc:	10800217 	ldw	r2,8(r2)
 4302ce0:	1009883a 	mov	r4,r2
 4302ce4:	430c6500 	call	430c650 <fflush>
        }
        wait_until_irq_signal_low();
 4302ce8:	43022280 	call	4302228 <wait_until_irq_signal_low>
 4302cec:	00001206 	br	4302d38 <handle_irq_button_action+0x2c0>
    }
    else if (current_screen == SCREEN_DEBUG)
 4302cf0:	d0a70d17 	ldw	r2,-25548(gp)
 4302cf4:	10800118 	cmpnei	r2,r2,4
 4302cf8:	10000f1e 	bne	r2,zero,4302d38 <handle_irq_button_action+0x2c0>
    {
        shared_write_u32(FLAG_VGA_DISPLAY_DONE, 0);
 4302cfc:	000b883a 	mov	r5,zero
 4302d00:	01000b04 	movi	r4,44
 4302d04:	4301f900 	call	4301f90 <shared_write_u32>
        if (key_mask & CONTROL_KEY0_MASK)
 4302d08:	e0bffe17 	ldw	r2,-8(fp)
 4302d0c:	1080004c 	andi	r2,r2,1
 4302d10:	10000126 	beq	r2,zero,4302d18 <handle_irq_button_action+0x2a0>
            debug_note_image_capture_requested();
 4302d14:	43010940 	call	4301094 <debug_note_image_capture_requested>
        if (key_mask & CONTROL_KEY1_MASK)
 4302d18:	e0bffe17 	ldw	r2,-8(fp)
 4302d1c:	1080008c 	andi	r2,r2,2
 4302d20:	10000126 	beq	r2,zero,4302d28 <handle_irq_button_action+0x2b0>
            debug_accept_current_image_as_draw_background();
 4302d24:	43010cc0 	call	43010cc <debug_accept_current_image_as_draw_background>
        shared_write_u32(FLAG_VGA_DISPLAY_DONE, 1);
 4302d28:	01400044 	movi	r5,1
 4302d2c:	01000b04 	movi	r4,44
 4302d30:	4301f900 	call	4301f90 <shared_write_u32>
        wait_until_irq_signal_low();
 4302d34:	43022280 	call	4302228 <wait_until_irq_signal_low>
    }
}
 4302d38:	e037883a 	mov	sp,fp
 4302d3c:	dfc00117 	ldw	ra,4(sp)
 4302d40:	df000017 	ldw	fp,0(sp)
 4302d44:	dec00204 	addi	sp,sp,8
 4302d48:	f800283a 	ret

04302d4c <update_current_screen>:

static void update_current_screen(void)
{
 4302d4c:	defffe04 	addi	sp,sp,-8
 4302d50:	dfc00115 	stw	ra,4(sp)
 4302d54:	df000015 	stw	fp,0(sp)
 4302d58:	d839883a 	mov	fp,sp
    if (service_emergency_stop())
 4302d5c:	43026bc0 	call	43026bc <service_emergency_stop>
 4302d60:	10000526 	beq	r2,zero,4302d78 <update_current_screen+0x2c>

           Still service the IRQ flag so KEY1 can acknowledge the latched
           emergency.  handle_irq_button_action() ignores every other input
           while emergency_stop_active is set.
        */
        if (vga_irq_pending)
 4302d64:	d0a70917 	ldw	r2,-25564(gp)
 4302d68:	10002226 	beq	r2,zero,4302df4 <update_current_screen+0xa8>
        {
            vga_irq_pending = 0;
 4302d6c:	d0270915 	stw	zero,-25564(gp)
            handle_irq_button_action();
 4302d70:	4302a780 	call	4302a78 <handle_irq_button_action>
        }
        return;
 4302d74:	00001f06 	br	4302df4 <update_current_screen+0xa8>
    }

    if (current_screen == SCREEN_MENU)
 4302d78:	d0a70d17 	ldw	r2,-25548(gp)
 4302d7c:	1000021e 	bne	r2,zero,4302d88 <update_current_screen+0x3c>
        update_menu_navigation();
 4302d80:	430276c0 	call	430276c <update_menu_navigation>
 4302d84:	00001306 	br	4302dd4 <update_current_screen+0x88>
    else if (current_screen == SCREEN_BATTLE)
 4302d88:	d0a70d17 	ldw	r2,-25548(gp)
 4302d8c:	10800058 	cmpnei	r2,r2,1
 4302d90:	1000021e 	bne	r2,zero,4302d9c <update_current_screen+0x50>
        ship_game_update();
 4302d94:	43085980 	call	4308598 <ship_game_update>
 4302d98:	00000e06 	br	4302dd4 <update_current_screen+0x88>
    else if (current_screen == SCREEN_SNAKE)
 4302d9c:	d0a70d17 	ldw	r2,-25548(gp)
 4302da0:	10800098 	cmpnei	r2,r2,2
 4302da4:	1000021e 	bne	r2,zero,4302db0 <update_current_screen+0x64>
        snake_update();
 4302da8:	430b92c0 	call	430b92c <snake_update>
 4302dac:	00000906 	br	4302dd4 <update_current_screen+0x88>
    else if (current_screen == SCREEN_DRAW)
 4302db0:	d0a70d17 	ldw	r2,-25548(gp)
 4302db4:	108000d8 	cmpnei	r2,r2,3
 4302db8:	1000021e 	bne	r2,zero,4302dc4 <update_current_screen+0x78>
        draw_game_update();
 4302dbc:	4301f5c0 	call	4301f5c <draw_game_update>
 4302dc0:	00000406 	br	4302dd4 <update_current_screen+0x88>
    else if (current_screen == SCREEN_DEBUG)
 4302dc4:	d0a70d17 	ldw	r2,-25548(gp)
 4302dc8:	10800118 	cmpnei	r2,r2,4
 4302dcc:	1000011e 	bne	r2,zero,4302dd4 <update_current_screen+0x88>
        debug_update();
 4302dd0:	4300ffc0 	call	4300ffc <debug_update>

    if (vga_irq_pending)
 4302dd4:	d0a70917 	ldw	r2,-25564(gp)
 4302dd8:	10000726 	beq	r2,zero,4302df8 <update_current_screen+0xac>
    {
        vga_irq_pending = 0;
 4302ddc:	d0270915 	stw	zero,-25564(gp)
        handle_irq_button_action();
 4302de0:	4302a780 	call	4302a78 <handle_irq_button_action>
        usleep(200000);
 4302de4:	010000f4 	movhi	r4,3
 4302de8:	21035004 	addi	r4,r4,3392
 4302dec:	431cef00 	call	431cef0 <usleep>
 4302df0:	00000106 	br	4302df8 <update_current_screen+0xac>
        if (vga_irq_pending)
        {
            vga_irq_pending = 0;
            handle_irq_button_action();
        }
        return;
 4302df4:	0001883a 	nop
    {
        vga_irq_pending = 0;
        handle_irq_button_action();
        usleep(200000);
    }
}
 4302df8:	e037883a 	mov	sp,fp
 4302dfc:	dfc00117 	ldw	ra,4(sp)
 4302e00:	df000017 	ldw	fp,0(sp)
 4302e04:	dec00204 	addi	sp,sp,8
 4302e08:	f800283a 	ret

04302e0c <main>:

int main(void)
{
 4302e0c:	defffe04 	addi	sp,sp,-8
 4302e10:	dfc00115 	stw	ra,4(sp)
 4302e14:	df000015 	stw	fp,0(sp)
 4302e18:	d839883a 	mov	fp,sp
    vga_init();
 4302e1c:	430bc100 	call	430bc10 <vga_init>

    printf("VGA display processor ready\n");
 4302e20:	01010cb4 	movhi	r4,1074
 4302e24:	213e2604 	addi	r4,r4,-1896
 4302e28:	430da3c0 	call	430da3c <puts>
    fflush(stdout);
 4302e2c:	d0a00e17 	ldw	r2,-32712(gp)
 4302e30:	10800217 	ldw	r2,8(r2)
 4302e34:	1009883a 	mov	r4,r2
 4302e38:	430c6500 	call	430c650 <fflush>

    shared_flags_init_for_vga();
 4302e3c:	43020480 	call	4302048 <shared_flags_init_for_vga>
    debug_irq_tx_set_false();
 4302e40:	430034c0 	call	430034c <debug_irq_tx_set_false>
    vga_irq_rx_setup();
 4302e44:	43021bc0 	call	43021bc <vga_irq_rx_setup>

    if (accel_init() != 0)
 4302e48:	430004c0 	call	430004c <accel_init>
 4302e4c:	10000826 	beq	r2,zero,4302e70 <main+0x64>
    {
        printf("Accelerometer init failed\n");
 4302e50:	01010cb4 	movhi	r4,1074
 4302e54:	213e2d04 	addi	r4,r4,-1868
 4302e58:	430da3c0 	call	430da3c <puts>
        fflush(stdout);
 4302e5c:	d0a00e17 	ldw	r2,-32712(gp)
 4302e60:	10800217 	ldw	r2,8(r2)
 4302e64:	1009883a 	mov	r4,r2
 4302e68:	430c6500 	call	430c650 <fflush>
 4302e6c:	00000706 	br	4302e8c <main+0x80>
    }
    else
    {
        printf("Accelerometer init OK\n");
 4302e70:	01010cb4 	movhi	r4,1074
 4302e74:	213e3404 	addi	r4,r4,-1840
 4302e78:	430da3c0 	call	430da3c <puts>
        fflush(stdout);
 4302e7c:	d0a00e17 	ldw	r2,-32712(gp)
 4302e80:	10800217 	ldw	r2,8(r2)
 4302e84:	1009883a 	mov	r4,r2
 4302e88:	430c6500 	call	430c650 <fflush>
    }

    shared_write_u32(FLAG_VGA_DISPLAY_DONE, 0);
 4302e8c:	000b883a 	mov	r5,zero
 4302e90:	01000b04 	movi	r4,44
 4302e94:	4301f900 	call	4301f90 <shared_write_u32>
    menu_init();
 4302e98:	4302eb80 	call	4302eb8 <menu_init>
    shared_write_u32(FLAG_VGA_DISPLAY_DONE, 1);
 4302e9c:	01400044 	movi	r5,1
 4302ea0:	01000b04 	movi	r4,44
 4302ea4:	4301f900 	call	4301f90 <shared_write_u32>

    while (1)
    {
        update_current_screen();
 4302ea8:	4302d4c0 	call	4302d4c <update_current_screen>
        usleep(20000);
 4302eac:	01138804 	movi	r4,20000
 4302eb0:	431cef00 	call	431cef0 <usleep>
    }
 4302eb4:	003ffc06 	br	4302ea8 <__alt_data_end+0xffe02ea8>

04302eb8 <menu_init>:
   theme. It still uses only the existing VGA drawing API and keeps the same
   menu selection behavior.
*/

void menu_init(void)
{
 4302eb8:	defffe04 	addi	sp,sp,-8
 4302ebc:	dfc00115 	stw	ra,4(sp)
 4302ec0:	df000015 	stw	fp,0(sp)
 4302ec4:	d839883a 	mov	fp,sp
    menu_draw(0);
 4302ec8:	0009883a 	mov	r4,zero
 4302ecc:	4302ee80 	call	4302ee8 <menu_draw>
}
 4302ed0:	0001883a 	nop
 4302ed4:	e037883a 	mov	sp,fp
 4302ed8:	dfc00117 	ldw	ra,4(sp)
 4302edc:	df000017 	ldw	fp,0(sp)
 4302ee0:	dec00204 	addi	sp,sp,8
 4302ee4:	f800283a 	ret

04302ee8 <menu_draw>:

void menu_draw(int selected_index)
{
 4302ee8:	defffd04 	addi	sp,sp,-12
 4302eec:	dfc00215 	stw	ra,8(sp)
 4302ef0:	df000115 	stw	fp,4(sp)
 4302ef4:	df000104 	addi	fp,sp,4
 4302ef8:	e13fff15 	stw	r4,-4(fp)
    pt_menu_draw_background();
 4302efc:	43038080 	call	4303808 <pt_menu_draw_background>
    pt_menu_draw_title();
 4302f00:	4303b100 	call	4303b10 <pt_menu_draw_title>

    pt_menu_draw_option(90,  "SEA RAIDERS",      selected_index == 0);
 4302f04:	e0bfff17 	ldw	r2,-4(fp)
 4302f08:	1005003a 	cmpeq	r2,r2,zero
 4302f0c:	10803fcc 	andi	r2,r2,255
 4302f10:	100d883a 	mov	r6,r2
 4302f14:	01410cb4 	movhi	r5,1074
 4302f18:	297e3a04 	addi	r5,r5,-1816
 4302f1c:	01001684 	movi	r4,90
 4302f20:	4303c100 	call	4303c10 <pt_menu_draw_option>
    pt_menu_draw_option(118, "SERPENT ORCHARD",  selected_index == 1);
 4302f24:	e0bfff17 	ldw	r2,-4(fp)
 4302f28:	10800060 	cmpeqi	r2,r2,1
 4302f2c:	10803fcc 	andi	r2,r2,255
 4302f30:	100d883a 	mov	r6,r2
 4302f34:	01410cb4 	movhi	r5,1074
 4302f38:	297e3d04 	addi	r5,r5,-1804
 4302f3c:	01001d84 	movi	r4,118
 4302f40:	4303c100 	call	4303c10 <pt_menu_draw_option>
    pt_menu_draw_option(146, "PIXEL STUDIO",     selected_index == 2);
 4302f44:	e0bfff17 	ldw	r2,-4(fp)
 4302f48:	108000a0 	cmpeqi	r2,r2,2
 4302f4c:	10803fcc 	andi	r2,r2,255
 4302f50:	100d883a 	mov	r6,r2
 4302f54:	01410cb4 	movhi	r5,1074
 4302f58:	297e4104 	addi	r5,r5,-1788
 4302f5c:	01002484 	movi	r4,146
 4302f60:	4303c100 	call	4303c10 <pt_menu_draw_option>
    pt_menu_draw_option(174, "DEBUG DOCK",       selected_index == 3);
 4302f64:	e0bfff17 	ldw	r2,-4(fp)
 4302f68:	108000e0 	cmpeqi	r2,r2,3
 4302f6c:	10803fcc 	andi	r2,r2,255
 4302f70:	100d883a 	mov	r6,r2
 4302f74:	01410cb4 	movhi	r5,1074
 4302f78:	297e4504 	addi	r5,r5,-1772
 4302f7c:	01002b84 	movi	r4,174
 4302f80:	4303c100 	call	4303c10 <pt_menu_draw_option>

    pt_print_shadow(36, 214, "TILT UP DOWN  KEY1 ENTER", PT_CREAM);
 4302f84:	01c03e84 	movi	r7,250
 4302f88:	01810cb4 	movhi	r6,1074
 4302f8c:	31be4804 	addi	r6,r6,-1760
 4302f90:	01403584 	movi	r5,214
 4302f94:	01000904 	movi	r4,36
 4302f98:	43031800 	call	4303180 <pt_print_shadow>
}
 4302f9c:	0001883a 	nop
 4302fa0:	e037883a 	mov	sp,fp
 4302fa4:	dfc00117 	ldw	ra,4(sp)
 4302fa8:	df000017 	ldw	fp,0(sp)
 4302fac:	dec00204 	addi	sp,sp,8
 4302fb0:	f800283a 	ret

04302fb4 <menu_get_selected_screen>:

int menu_get_selected_screen(int selected_index)
{
 4302fb4:	defffe04 	addi	sp,sp,-8
 4302fb8:	df000115 	stw	fp,4(sp)
 4302fbc:	df000104 	addi	fp,sp,4
 4302fc0:	e13fff15 	stw	r4,-4(fp)
    if (selected_index == 0)
 4302fc4:	e0bfff17 	ldw	r2,-4(fp)
 4302fc8:	1000021e 	bne	r2,zero,4302fd4 <menu_get_selected_screen+0x20>
        return SCREEN_BATTLE;
 4302fcc:	00800044 	movi	r2,1
 4302fd0:	00000b06 	br	4303000 <menu_get_selected_screen+0x4c>
    else if (selected_index == 1)
 4302fd4:	e0bfff17 	ldw	r2,-4(fp)
 4302fd8:	10800058 	cmpnei	r2,r2,1
 4302fdc:	1000021e 	bne	r2,zero,4302fe8 <menu_get_selected_screen+0x34>
        return SCREEN_SNAKE;
 4302fe0:	00800084 	movi	r2,2
 4302fe4:	00000606 	br	4303000 <menu_get_selected_screen+0x4c>
    else if (selected_index == 2)
 4302fe8:	e0bfff17 	ldw	r2,-4(fp)
 4302fec:	10800098 	cmpnei	r2,r2,2
 4302ff0:	1000021e 	bne	r2,zero,4302ffc <menu_get_selected_screen+0x48>
        return SCREEN_DRAW;
 4302ff4:	008000c4 	movi	r2,3
 4302ff8:	00000106 	br	4303000 <menu_get_selected_screen+0x4c>
    else
        return SCREEN_DEBUG;
 4302ffc:	00800104 	movi	r2,4
}
 4303000:	e037883a 	mov	sp,fp
 4303004:	df000017 	ldw	fp,0(sp)
 4303008:	dec00104 	addi	sp,sp,4
 430300c:	f800283a 	ret

04303010 <pt_border>:
#include "pixel_theme.h"
#include <stdio.h>

static void pt_border(int x, int y, int w, int h, vga_color_t c)
{
 4303010:	defff804 	addi	sp,sp,-32
 4303014:	dfc00715 	stw	ra,28(sp)
 4303018:	df000615 	stw	fp,24(sp)
 430301c:	df000604 	addi	fp,sp,24
 4303020:	e13ffb15 	stw	r4,-20(fp)
 4303024:	e17ffc15 	stw	r5,-16(fp)
 4303028:	e1bffd15 	stw	r6,-12(fp)
 430302c:	e1fffe15 	stw	r7,-8(fp)
 4303030:	e0800217 	ldw	r2,8(fp)
 4303034:	e0bfff05 	stb	r2,-4(fp)
    vga_draw_rectangle(x, y, w, 1, c);
 4303038:	e0bfff03 	ldbu	r2,-4(fp)
 430303c:	d8800015 	stw	r2,0(sp)
 4303040:	01c00044 	movi	r7,1
 4303044:	e1bffd17 	ldw	r6,-12(fp)
 4303048:	e17ffc17 	ldw	r5,-16(fp)
 430304c:	e13ffb17 	ldw	r4,-20(fp)
 4303050:	430be900 	call	430be90 <vga_draw_rectangle>
    vga_draw_rectangle(x, y + h - 1, w, 1, c);
 4303054:	e0fffc17 	ldw	r3,-16(fp)
 4303058:	e0bffe17 	ldw	r2,-8(fp)
 430305c:	1885883a 	add	r2,r3,r2
 4303060:	10ffffc4 	addi	r3,r2,-1
 4303064:	e0bfff03 	ldbu	r2,-4(fp)
 4303068:	d8800015 	stw	r2,0(sp)
 430306c:	01c00044 	movi	r7,1
 4303070:	e1bffd17 	ldw	r6,-12(fp)
 4303074:	180b883a 	mov	r5,r3
 4303078:	e13ffb17 	ldw	r4,-20(fp)
 430307c:	430be900 	call	430be90 <vga_draw_rectangle>
    vga_draw_rectangle(x, y, 1, h, c);
 4303080:	e0bfff03 	ldbu	r2,-4(fp)
 4303084:	d8800015 	stw	r2,0(sp)
 4303088:	e1fffe17 	ldw	r7,-8(fp)
 430308c:	01800044 	movi	r6,1
 4303090:	e17ffc17 	ldw	r5,-16(fp)
 4303094:	e13ffb17 	ldw	r4,-20(fp)
 4303098:	430be900 	call	430be90 <vga_draw_rectangle>
    vga_draw_rectangle(x + w - 1, y, 1, h, c);
 430309c:	e0fffb17 	ldw	r3,-20(fp)
 43030a0:	e0bffd17 	ldw	r2,-12(fp)
 43030a4:	1885883a 	add	r2,r3,r2
 43030a8:	10ffffc4 	addi	r3,r2,-1
 43030ac:	e0bfff03 	ldbu	r2,-4(fp)
 43030b0:	d8800015 	stw	r2,0(sp)
 43030b4:	e1fffe17 	ldw	r7,-8(fp)
 43030b8:	01800044 	movi	r6,1
 43030bc:	e17ffc17 	ldw	r5,-16(fp)
 43030c0:	1809883a 	mov	r4,r3
 43030c4:	430be900 	call	430be90 <vga_draw_rectangle>
}
 43030c8:	0001883a 	nop
 43030cc:	e037883a 	mov	sp,fp
 43030d0:	dfc00117 	ldw	ra,4(sp)
 43030d4:	df000017 	ldw	fp,0(sp)
 43030d8:	dec00204 	addi	sp,sp,8
 43030dc:	f800283a 	ret

043030e0 <pt_double_border>:

static void pt_double_border(int x, int y, int w, int h, vga_color_t hi, vga_color_t lo)
{
 43030e0:	defff704 	addi	sp,sp,-36
 43030e4:	dfc00815 	stw	ra,32(sp)
 43030e8:	df000715 	stw	fp,28(sp)
 43030ec:	df000704 	addi	fp,sp,28
 43030f0:	e13ffa15 	stw	r4,-24(fp)
 43030f4:	e17ffb15 	stw	r5,-20(fp)
 43030f8:	e1bffc15 	stw	r6,-16(fp)
 43030fc:	e1fffd15 	stw	r7,-12(fp)
 4303100:	e0c00217 	ldw	r3,8(fp)
 4303104:	e0800317 	ldw	r2,12(fp)
 4303108:	e0fffe05 	stb	r3,-8(fp)
 430310c:	e0bfff05 	stb	r2,-4(fp)
    pt_border(x, y, w, h, lo);
 4303110:	e0bfff03 	ldbu	r2,-4(fp)
 4303114:	d8800015 	stw	r2,0(sp)
 4303118:	e1fffd17 	ldw	r7,-12(fp)
 430311c:	e1bffc17 	ldw	r6,-16(fp)
 4303120:	e17ffb17 	ldw	r5,-20(fp)
 4303124:	e13ffa17 	ldw	r4,-24(fp)
 4303128:	43030100 	call	4303010 <pt_border>
    pt_border(x + 2, y + 2, w - 4, h - 4, hi);
 430312c:	e0bffa17 	ldw	r2,-24(fp)
 4303130:	10c00084 	addi	r3,r2,2
 4303134:	e0bffb17 	ldw	r2,-20(fp)
 4303138:	11000084 	addi	r4,r2,2
 430313c:	e0bffc17 	ldw	r2,-16(fp)
 4303140:	117fff04 	addi	r5,r2,-4
 4303144:	e0bffd17 	ldw	r2,-12(fp)
 4303148:	11bfff04 	addi	r6,r2,-4
 430314c:	e0bffe03 	ldbu	r2,-8(fp)
 4303150:	d8800015 	stw	r2,0(sp)
 4303154:	300f883a 	mov	r7,r6
 4303158:	280d883a 	mov	r6,r5
 430315c:	200b883a 	mov	r5,r4
 4303160:	1809883a 	mov	r4,r3
 4303164:	43030100 	call	4303010 <pt_border>
}
 4303168:	0001883a 	nop
 430316c:	e037883a 	mov	sp,fp
 4303170:	dfc00117 	ldw	ra,4(sp)
 4303174:	df000017 	ldw	fp,0(sp)
 4303178:	dec00204 	addi	sp,sp,8
 430317c:	f800283a 	ret

04303180 <pt_print_shadow>:

void pt_print_shadow(int x, int y, const char *text, vga_color_t color)
{
 4303180:	defffa04 	addi	sp,sp,-24
 4303184:	dfc00515 	stw	ra,20(sp)
 4303188:	df000415 	stw	fp,16(sp)
 430318c:	df000404 	addi	fp,sp,16
 4303190:	e13ffc15 	stw	r4,-16(fp)
 4303194:	e17ffd15 	stw	r5,-12(fp)
 4303198:	e1bffe15 	stw	r6,-8(fp)
 430319c:	3805883a 	mov	r2,r7
 43031a0:	e0bfff05 	stb	r2,-4(fp)
    vga_print_software_text(x + 1, y + 1, text, PT_SHADOW);
 43031a4:	e0bffc17 	ldw	r2,-16(fp)
 43031a8:	10c00044 	addi	r3,r2,1
 43031ac:	e0bffd17 	ldw	r2,-12(fp)
 43031b0:	10800044 	addi	r2,r2,1
 43031b4:	01c00944 	movi	r7,37
 43031b8:	e1bffe17 	ldw	r6,-8(fp)
 43031bc:	100b883a 	mov	r5,r2
 43031c0:	1809883a 	mov	r4,r3
 43031c4:	430bcc40 	call	430bcc4 <vga_print_software_text>
    vga_print_software_text(x, y, text, color);
 43031c8:	e0bfff03 	ldbu	r2,-4(fp)
 43031cc:	100f883a 	mov	r7,r2
 43031d0:	e1bffe17 	ldw	r6,-8(fp)
 43031d4:	e17ffd17 	ldw	r5,-12(fp)
 43031d8:	e13ffc17 	ldw	r4,-16(fp)
 43031dc:	430bcc40 	call	430bcc4 <vga_print_software_text>
}
 43031e0:	0001883a 	nop
 43031e4:	e037883a 	mov	sp,fp
 43031e8:	dfc00117 	ldw	ra,4(sp)
 43031ec:	df000017 	ldw	fp,0(sp)
 43031f0:	dec00204 	addi	sp,sp,8
 43031f4:	f800283a 	ret

043031f8 <pt_draw_shadow_box>:

void pt_draw_shadow_box(int x, int y, int w, int h, vga_color_t fill, vga_color_t edge, vga_color_t shadow)
{
 43031f8:	defff604 	addi	sp,sp,-40
 43031fc:	dfc00915 	stw	ra,36(sp)
 4303200:	df000815 	stw	fp,32(sp)
 4303204:	df000804 	addi	fp,sp,32
 4303208:	e13ff915 	stw	r4,-28(fp)
 430320c:	e17ffa15 	stw	r5,-24(fp)
 4303210:	e1bffb15 	stw	r6,-20(fp)
 4303214:	e1fffc15 	stw	r7,-16(fp)
 4303218:	e1000217 	ldw	r4,8(fp)
 430321c:	e0c00317 	ldw	r3,12(fp)
 4303220:	e0800417 	ldw	r2,16(fp)
 4303224:	e13ffd05 	stb	r4,-12(fp)
 4303228:	e0fffe05 	stb	r3,-8(fp)
 430322c:	e0bfff05 	stb	r2,-4(fp)
    vga_draw_rectangle(x + 3, y + 3, w, h, shadow);
 4303230:	e0bff917 	ldw	r2,-28(fp)
 4303234:	10c000c4 	addi	r3,r2,3
 4303238:	e0bffa17 	ldw	r2,-24(fp)
 430323c:	110000c4 	addi	r4,r2,3
 4303240:	e0bfff03 	ldbu	r2,-4(fp)
 4303244:	d8800015 	stw	r2,0(sp)
 4303248:	e1fffc17 	ldw	r7,-16(fp)
 430324c:	e1bffb17 	ldw	r6,-20(fp)
 4303250:	200b883a 	mov	r5,r4
 4303254:	1809883a 	mov	r4,r3
 4303258:	430be900 	call	430be90 <vga_draw_rectangle>
    vga_draw_rectangle(x, y, w, h, fill);
 430325c:	e0bffd03 	ldbu	r2,-12(fp)
 4303260:	d8800015 	stw	r2,0(sp)
 4303264:	e1fffc17 	ldw	r7,-16(fp)
 4303268:	e1bffb17 	ldw	r6,-20(fp)
 430326c:	e17ffa17 	ldw	r5,-24(fp)
 4303270:	e13ff917 	ldw	r4,-28(fp)
 4303274:	430be900 	call	430be90 <vga_draw_rectangle>
    vga_draw_rectangle(x, y, w, 2, edge);
 4303278:	e0bffe03 	ldbu	r2,-8(fp)
 430327c:	d8800015 	stw	r2,0(sp)
 4303280:	01c00084 	movi	r7,2
 4303284:	e1bffb17 	ldw	r6,-20(fp)
 4303288:	e17ffa17 	ldw	r5,-24(fp)
 430328c:	e13ff917 	ldw	r4,-28(fp)
 4303290:	430be900 	call	430be90 <vga_draw_rectangle>
    vga_draw_rectangle(x, y, 2, h, edge);
 4303294:	e0bffe03 	ldbu	r2,-8(fp)
 4303298:	d8800015 	stw	r2,0(sp)
 430329c:	e1fffc17 	ldw	r7,-16(fp)
 43032a0:	01800084 	movi	r6,2
 43032a4:	e17ffa17 	ldw	r5,-24(fp)
 43032a8:	e13ff917 	ldw	r4,-28(fp)
 43032ac:	430be900 	call	430be90 <vga_draw_rectangle>
    vga_draw_rectangle(x, y + h - 2, w, 2, PT_INK);
 43032b0:	e0fffa17 	ldw	r3,-24(fp)
 43032b4:	e0bffc17 	ldw	r2,-16(fp)
 43032b8:	1885883a 	add	r2,r3,r2
 43032bc:	10ffff84 	addi	r3,r2,-2
 43032c0:	00800144 	movi	r2,5
 43032c4:	d8800015 	stw	r2,0(sp)
 43032c8:	01c00084 	movi	r7,2
 43032cc:	e1bffb17 	ldw	r6,-20(fp)
 43032d0:	180b883a 	mov	r5,r3
 43032d4:	e13ff917 	ldw	r4,-28(fp)
 43032d8:	430be900 	call	430be90 <vga_draw_rectangle>
    vga_draw_rectangle(x + w - 2, y, 2, h, PT_INK);
 43032dc:	e0fff917 	ldw	r3,-28(fp)
 43032e0:	e0bffb17 	ldw	r2,-20(fp)
 43032e4:	1885883a 	add	r2,r3,r2
 43032e8:	10ffff84 	addi	r3,r2,-2
 43032ec:	00800144 	movi	r2,5
 43032f0:	d8800015 	stw	r2,0(sp)
 43032f4:	e1fffc17 	ldw	r7,-16(fp)
 43032f8:	01800084 	movi	r6,2
 43032fc:	e17ffa17 	ldw	r5,-24(fp)
 4303300:	1809883a 	mov	r4,r3
 4303304:	430be900 	call	430be90 <vga_draw_rectangle>
    vga_draw_rectangle(x + 4, y + 4, w - 8, 1, PT_WHITE);
 4303308:	e0bff917 	ldw	r2,-28(fp)
 430330c:	10c00104 	addi	r3,r2,4
 4303310:	e0bffa17 	ldw	r2,-24(fp)
 4303314:	11000104 	addi	r4,r2,4
 4303318:	e0bffb17 	ldw	r2,-20(fp)
 430331c:	117ffe04 	addi	r5,r2,-8
 4303320:	00803fc4 	movi	r2,255
 4303324:	d8800015 	stw	r2,0(sp)
 4303328:	01c00044 	movi	r7,1
 430332c:	280d883a 	mov	r6,r5
 4303330:	200b883a 	mov	r5,r4
 4303334:	1809883a 	mov	r4,r3
 4303338:	430be900 	call	430be90 <vga_draw_rectangle>
}
 430333c:	0001883a 	nop
 4303340:	e037883a 	mov	sp,fp
 4303344:	dfc00117 	ldw	ra,4(sp)
 4303348:	df000017 	ldw	fp,0(sp)
 430334c:	dec00204 	addi	sp,sp,8
 4303350:	f800283a 	ret

04303354 <pt_draw_rx_badge>:

void pt_draw_rx_badge(int x, int y, int active, const char *label)
{
 4303354:	defff804 	addi	sp,sp,-32
 4303358:	dfc00715 	stw	ra,28(sp)
 430335c:	df000615 	stw	fp,24(sp)
 4303360:	df000604 	addi	fp,sp,24
 4303364:	e13ffc15 	stw	r4,-16(fp)
 4303368:	e17ffd15 	stw	r5,-12(fp)
 430336c:	e1bffe15 	stw	r6,-8(fp)
 4303370:	e1ffff15 	stw	r7,-4(fp)
    vga_color_t light = active ? PT_GRASS_LIGHT : PT_RED;
 4303374:	e0bffe17 	ldw	r2,-8(fp)
 4303378:	10000226 	beq	r2,zero,4303384 <pt_draw_rx_badge+0x30>
 430337c:	00bfe744 	movi	r2,-99
 4303380:	00000106 	br	4303388 <pt_draw_rx_badge+0x34>
 4303384:	00bff804 	movi	r2,-32
 4303388:	e0bffb05 	stb	r2,-20(fp)
    vga_color_t body = active ? PT_GRASS : PT_AMBER;
 430338c:	e0bffe17 	ldw	r2,-8(fp)
 4303390:	10000226 	beq	r2,zero,430339c <pt_draw_rx_badge+0x48>
 4303394:	00800d04 	movi	r2,52
 4303398:	00000106 	br	43033a0 <pt_draw_rx_badge+0x4c>
 430339c:	00bff304 	movi	r2,-52
 43033a0:	e0bffb45 	stb	r2,-19(fp)

    vga_draw_rectangle(x, y, 46, 14, PT_INK);
 43033a4:	00800144 	movi	r2,5
 43033a8:	d8800015 	stw	r2,0(sp)
 43033ac:	01c00384 	movi	r7,14
 43033b0:	01800b84 	movi	r6,46
 43033b4:	e17ffd17 	ldw	r5,-12(fp)
 43033b8:	e13ffc17 	ldw	r4,-16(fp)
 43033bc:	430be900 	call	430be90 <vga_draw_rectangle>
    vga_draw_rectangle(x + 1, y + 1, 44, 12, PT_DARK);
 43033c0:	e0bffc17 	ldw	r2,-16(fp)
 43033c4:	10c00044 	addi	r3,r2,1
 43033c8:	e0bffd17 	ldw	r2,-12(fp)
 43033cc:	11000044 	addi	r4,r2,1
 43033d0:	00801244 	movi	r2,73
 43033d4:	d8800015 	stw	r2,0(sp)
 43033d8:	01c00304 	movi	r7,12
 43033dc:	01800b04 	movi	r6,44
 43033e0:	200b883a 	mov	r5,r4
 43033e4:	1809883a 	mov	r4,r3
 43033e8:	430be900 	call	430be90 <vga_draw_rectangle>
    vga_draw_circle(x + 8, y + 7, 4, body);
 43033ec:	e0bffc17 	ldw	r2,-16(fp)
 43033f0:	10c00204 	addi	r3,r2,8
 43033f4:	e0bffd17 	ldw	r2,-12(fp)
 43033f8:	108001c4 	addi	r2,r2,7
 43033fc:	e13ffb43 	ldbu	r4,-19(fp)
 4303400:	200f883a 	mov	r7,r4
 4303404:	01800104 	movi	r6,4
 4303408:	100b883a 	mov	r5,r2
 430340c:	1809883a 	mov	r4,r3
 4303410:	430bf3c0 	call	430bf3c <vga_draw_circle>
    vga_draw_rectangle(x + 6, y + 4, 3, 2, light);
 4303414:	e0bffc17 	ldw	r2,-16(fp)
 4303418:	10c00184 	addi	r3,r2,6
 430341c:	e0bffd17 	ldw	r2,-12(fp)
 4303420:	11000104 	addi	r4,r2,4
 4303424:	e0bffb03 	ldbu	r2,-20(fp)
 4303428:	d8800015 	stw	r2,0(sp)
 430342c:	01c00084 	movi	r7,2
 4303430:	018000c4 	movi	r6,3
 4303434:	200b883a 	mov	r5,r4
 4303438:	1809883a 	mov	r4,r3
 430343c:	430be900 	call	430be90 <vga_draw_rectangle>
    vga_print_software_text(x + 16, y + 3, label, active ? PT_GRASS_LIGHT : PT_CREAM);
 4303440:	e0bffc17 	ldw	r2,-16(fp)
 4303444:	10c00404 	addi	r3,r2,16
 4303448:	e0bffd17 	ldw	r2,-12(fp)
 430344c:	110000c4 	addi	r4,r2,3
 4303450:	e0bffe17 	ldw	r2,-8(fp)
 4303454:	10000226 	beq	r2,zero,4303460 <pt_draw_rx_badge+0x10c>
 4303458:	00802744 	movi	r2,157
 430345c:	00000106 	br	4303464 <pt_draw_rx_badge+0x110>
 4303460:	00803e84 	movi	r2,250
 4303464:	100f883a 	mov	r7,r2
 4303468:	e1bfff17 	ldw	r6,-4(fp)
 430346c:	200b883a 	mov	r5,r4
 4303470:	1809883a 	mov	r4,r3
 4303474:	430bcc40 	call	430bcc4 <vga_print_software_text>
}
 4303478:	0001883a 	nop
 430347c:	e037883a 	mov	sp,fp
 4303480:	dfc00117 	ldw	ra,4(sp)
 4303484:	df000017 	ldw	fp,0(sp)
 4303488:	dec00204 	addi	sp,sp,8
 430348c:	f800283a 	ret

04303490 <pt_cloud>:

static void pt_cloud(int x, int y, int scale)
{
 4303490:	defff904 	addi	sp,sp,-28
 4303494:	dfc00615 	stw	ra,24(sp)
 4303498:	df000515 	stw	fp,20(sp)
 430349c:	df000504 	addi	fp,sp,20
 43034a0:	e13ffd15 	stw	r4,-12(fp)
 43034a4:	e17ffe15 	stw	r5,-8(fp)
 43034a8:	e1bfff15 	stw	r6,-4(fp)
    int s = scale;
 43034ac:	e0bfff17 	ldw	r2,-4(fp)
 43034b0:	e0bffc15 	stw	r2,-16(fp)
    vga_draw_rectangle(x + 2*s, y + 2*s, 14*s, 4*s, PT_CLOUD_SHADOW);
 43034b4:	e0bffc17 	ldw	r2,-16(fp)
 43034b8:	1085883a 	add	r2,r2,r2
 43034bc:	1007883a 	mov	r3,r2
 43034c0:	e0bffd17 	ldw	r2,-12(fp)
 43034c4:	1887883a 	add	r3,r3,r2
 43034c8:	e0bffc17 	ldw	r2,-16(fp)
 43034cc:	1085883a 	add	r2,r2,r2
 43034d0:	1009883a 	mov	r4,r2
 43034d4:	e0bffe17 	ldw	r2,-8(fp)
 43034d8:	2089883a 	add	r4,r4,r2
 43034dc:	e0bffc17 	ldw	r2,-16(fp)
 43034e0:	114003a4 	muli	r5,r2,14
 43034e4:	e0bffc17 	ldw	r2,-16(fp)
 43034e8:	1085883a 	add	r2,r2,r2
 43034ec:	1085883a 	add	r2,r2,r2
 43034f0:	100d883a 	mov	r6,r2
 43034f4:	00801c84 	movi	r2,114
 43034f8:	d8800015 	stw	r2,0(sp)
 43034fc:	300f883a 	mov	r7,r6
 4303500:	280d883a 	mov	r6,r5
 4303504:	200b883a 	mov	r5,r4
 4303508:	1809883a 	mov	r4,r3
 430350c:	430be900 	call	430be90 <vga_draw_rectangle>
    vga_draw_rectangle(x + 0*s, y + 3*s, 20*s, 4*s, PT_CLOUD);
 4303510:	e0fffc17 	ldw	r3,-16(fp)
 4303514:	1805883a 	mov	r2,r3
 4303518:	1085883a 	add	r2,r2,r2
 430351c:	10c7883a 	add	r3,r2,r3
 4303520:	e0bffe17 	ldw	r2,-8(fp)
 4303524:	1887883a 	add	r3,r3,r2
 4303528:	e0bffc17 	ldw	r2,-16(fp)
 430352c:	11000524 	muli	r4,r2,20
 4303530:	e0bffc17 	ldw	r2,-16(fp)
 4303534:	1085883a 	add	r2,r2,r2
 4303538:	1085883a 	add	r2,r2,r2
 430353c:	100b883a 	mov	r5,r2
 4303540:	008037c4 	movi	r2,223
 4303544:	d8800015 	stw	r2,0(sp)
 4303548:	280f883a 	mov	r7,r5
 430354c:	200d883a 	mov	r6,r4
 4303550:	180b883a 	mov	r5,r3
 4303554:	e13ffd17 	ldw	r4,-12(fp)
 4303558:	430be900 	call	430be90 <vga_draw_rectangle>
    vga_draw_rectangle(x + 4*s, y + 1*s, 8*s, 5*s, PT_CLOUD);
 430355c:	e0bffc17 	ldw	r2,-16(fp)
 4303560:	1085883a 	add	r2,r2,r2
 4303564:	1085883a 	add	r2,r2,r2
 4303568:	1007883a 	mov	r3,r2
 430356c:	e0bffd17 	ldw	r2,-12(fp)
 4303570:	1889883a 	add	r4,r3,r2
 4303574:	e0fffe17 	ldw	r3,-8(fp)
 4303578:	e0bffc17 	ldw	r2,-16(fp)
 430357c:	1887883a 	add	r3,r3,r2
 4303580:	e0bffc17 	ldw	r2,-16(fp)
 4303584:	100a90fa 	slli	r5,r2,3
 4303588:	e0bffc17 	ldw	r2,-16(fp)
 430358c:	11800164 	muli	r6,r2,5
 4303590:	008037c4 	movi	r2,223
 4303594:	d8800015 	stw	r2,0(sp)
 4303598:	300f883a 	mov	r7,r6
 430359c:	280d883a 	mov	r6,r5
 43035a0:	180b883a 	mov	r5,r3
 43035a4:	430be900 	call	430be90 <vga_draw_rectangle>
    vga_draw_rectangle(x + 11*s, y + 2*s, 8*s, 4*s, PT_CLOUD);
 43035a8:	e0bffc17 	ldw	r2,-16(fp)
 43035ac:	10c002e4 	muli	r3,r2,11
 43035b0:	e0bffd17 	ldw	r2,-12(fp)
 43035b4:	1887883a 	add	r3,r3,r2
 43035b8:	e0bffc17 	ldw	r2,-16(fp)
 43035bc:	1085883a 	add	r2,r2,r2
 43035c0:	1009883a 	mov	r4,r2
 43035c4:	e0bffe17 	ldw	r2,-8(fp)
 43035c8:	2089883a 	add	r4,r4,r2
 43035cc:	e0bffc17 	ldw	r2,-16(fp)
 43035d0:	100a90fa 	slli	r5,r2,3
 43035d4:	e0bffc17 	ldw	r2,-16(fp)
 43035d8:	1085883a 	add	r2,r2,r2
 43035dc:	1085883a 	add	r2,r2,r2
 43035e0:	100d883a 	mov	r6,r2
 43035e4:	008037c4 	movi	r2,223
 43035e8:	d8800015 	stw	r2,0(sp)
 43035ec:	300f883a 	mov	r7,r6
 43035f0:	280d883a 	mov	r6,r5
 43035f4:	200b883a 	mov	r5,r4
 43035f8:	1809883a 	mov	r4,r3
 43035fc:	430be900 	call	430be90 <vga_draw_rectangle>
    vga_draw_rectangle(x + 2*s, y + 6*s, 16*s, 1*s, PT_CLOUD_SHADOW);
 4303600:	e0bffc17 	ldw	r2,-16(fp)
 4303604:	1085883a 	add	r2,r2,r2
 4303608:	1007883a 	mov	r3,r2
 430360c:	e0bffd17 	ldw	r2,-12(fp)
 4303610:	1889883a 	add	r4,r3,r2
 4303614:	e0bffc17 	ldw	r2,-16(fp)
 4303618:	10c001a4 	muli	r3,r2,6
 430361c:	e0bffe17 	ldw	r2,-8(fp)
 4303620:	1887883a 	add	r3,r3,r2
 4303624:	e0bffc17 	ldw	r2,-16(fp)
 4303628:	100a913a 	slli	r5,r2,4
 430362c:	00801c84 	movi	r2,114
 4303630:	d8800015 	stw	r2,0(sp)
 4303634:	e1fffc17 	ldw	r7,-16(fp)
 4303638:	280d883a 	mov	r6,r5
 430363c:	180b883a 	mov	r5,r3
 4303640:	430be900 	call	430be90 <vga_draw_rectangle>
}
 4303644:	0001883a 	nop
 4303648:	e037883a 	mov	sp,fp
 430364c:	dfc00117 	ldw	ra,4(sp)
 4303650:	df000017 	ldw	fp,0(sp)
 4303654:	dec00204 	addi	sp,sp,8
 4303658:	f800283a 	ret

0430365c <pt_pixel_spark>:

static void pt_pixel_spark(int x, int y, vga_color_t c)
{
 430365c:	defffa04 	addi	sp,sp,-24
 4303660:	dfc00515 	stw	ra,20(sp)
 4303664:	df000415 	stw	fp,16(sp)
 4303668:	df000404 	addi	fp,sp,16
 430366c:	e13ffd15 	stw	r4,-12(fp)
 4303670:	e17ffe15 	stw	r5,-8(fp)
 4303674:	3005883a 	mov	r2,r6
 4303678:	e0bfff05 	stb	r2,-4(fp)
    vga_draw_rectangle(x, y + 2, 5, 1, c);
 430367c:	e0bffe17 	ldw	r2,-8(fp)
 4303680:	10c00084 	addi	r3,r2,2
 4303684:	e0bfff03 	ldbu	r2,-4(fp)
 4303688:	d8800015 	stw	r2,0(sp)
 430368c:	01c00044 	movi	r7,1
 4303690:	01800144 	movi	r6,5
 4303694:	180b883a 	mov	r5,r3
 4303698:	e13ffd17 	ldw	r4,-12(fp)
 430369c:	430be900 	call	430be90 <vga_draw_rectangle>
    vga_draw_rectangle(x + 2, y, 1, 5, c);
 43036a0:	e0bffd17 	ldw	r2,-12(fp)
 43036a4:	10c00084 	addi	r3,r2,2
 43036a8:	e0bfff03 	ldbu	r2,-4(fp)
 43036ac:	d8800015 	stw	r2,0(sp)
 43036b0:	01c00144 	movi	r7,5
 43036b4:	01800044 	movi	r6,1
 43036b8:	e17ffe17 	ldw	r5,-8(fp)
 43036bc:	1809883a 	mov	r4,r3
 43036c0:	430be900 	call	430be90 <vga_draw_rectangle>
}
 43036c4:	0001883a 	nop
 43036c8:	e037883a 	mov	sp,fp
 43036cc:	dfc00117 	ldw	ra,4(sp)
 43036d0:	df000017 	ldw	fp,0(sp)
 43036d4:	dec00204 	addi	sp,sp,8
 43036d8:	f800283a 	ret

043036dc <pt_draw_rope_platform>:

static void pt_draw_rope_platform(int x, int y, int w)
{
 43036dc:	defff904 	addi	sp,sp,-28
 43036e0:	dfc00615 	stw	ra,24(sp)
 43036e4:	df000515 	stw	fp,20(sp)
 43036e8:	df000504 	addi	fp,sp,20
 43036ec:	e13ffd15 	stw	r4,-12(fp)
 43036f0:	e17ffe15 	stw	r5,-8(fp)
 43036f4:	e1bfff15 	stw	r6,-4(fp)
    int i;
    vga_draw_rectangle(x + 2, y + 8, w, 6, PT_WOOD_DARK);
 43036f8:	e0bffd17 	ldw	r2,-12(fp)
 43036fc:	10c00084 	addi	r3,r2,2
 4303700:	e0bffe17 	ldw	r2,-8(fp)
 4303704:	11000204 	addi	r4,r2,8
 4303708:	00801104 	movi	r2,68
 430370c:	d8800015 	stw	r2,0(sp)
 4303710:	01c00184 	movi	r7,6
 4303714:	e1bfff17 	ldw	r6,-4(fp)
 4303718:	200b883a 	mov	r5,r4
 430371c:	1809883a 	mov	r4,r3
 4303720:	430be900 	call	430be90 <vga_draw_rectangle>
    vga_draw_rectangle(x, y + 4, w, 6, PT_WOOD);
 4303724:	e0bffe17 	ldw	r2,-8(fp)
 4303728:	10c00104 	addi	r3,r2,4
 430372c:	00802a04 	movi	r2,168
 4303730:	d8800015 	stw	r2,0(sp)
 4303734:	01c00184 	movi	r7,6
 4303738:	e1bfff17 	ldw	r6,-4(fp)
 430373c:	180b883a 	mov	r5,r3
 4303740:	e13ffd17 	ldw	r4,-12(fp)
 4303744:	430be900 	call	430be90 <vga_draw_rectangle>
    vga_draw_rectangle(x, y + 4, w, 1, PT_WOOD_LIGHT);
 4303748:	e0bffe17 	ldw	r2,-8(fp)
 430374c:	10c00104 	addi	r3,r2,4
 4303750:	00803c44 	movi	r2,241
 4303754:	d8800015 	stw	r2,0(sp)
 4303758:	01c00044 	movi	r7,1
 430375c:	e1bfff17 	ldw	r6,-4(fp)
 4303760:	180b883a 	mov	r5,r3
 4303764:	e13ffd17 	ldw	r4,-12(fp)
 4303768:	430be900 	call	430be90 <vga_draw_rectangle>
    for (i = 0; i < w; i += 16)
 430376c:	e03ffc15 	stw	zero,-16(fp)
 4303770:	00001c06 	br	43037e4 <pt_draw_rope_platform+0x108>
    {
        vga_draw_rectangle(x + i, y + 3, 2, 8, PT_WOOD_DARK);
 4303774:	e0fffd17 	ldw	r3,-12(fp)
 4303778:	e0bffc17 	ldw	r2,-16(fp)
 430377c:	1887883a 	add	r3,r3,r2
 4303780:	e0bffe17 	ldw	r2,-8(fp)
 4303784:	110000c4 	addi	r4,r2,3
 4303788:	00801104 	movi	r2,68
 430378c:	d8800015 	stw	r2,0(sp)
 4303790:	01c00204 	movi	r7,8
 4303794:	01800084 	movi	r6,2
 4303798:	200b883a 	mov	r5,r4
 430379c:	1809883a 	mov	r4,r3
 43037a0:	430be900 	call	430be90 <vga_draw_rectangle>
        vga_draw_rectangle(x + i + 6, y + 7, 8, 1, PT_GOLD);
 43037a4:	e0fffd17 	ldw	r3,-12(fp)
 43037a8:	e0bffc17 	ldw	r2,-16(fp)
 43037ac:	1885883a 	add	r2,r3,r2
 43037b0:	10c00184 	addi	r3,r2,6
 43037b4:	e0bffe17 	ldw	r2,-8(fp)
 43037b8:	110001c4 	addi	r4,r2,7
 43037bc:	00803d04 	movi	r2,244
 43037c0:	d8800015 	stw	r2,0(sp)
 43037c4:	01c00044 	movi	r7,1
 43037c8:	01800204 	movi	r6,8
 43037cc:	200b883a 	mov	r5,r4
 43037d0:	1809883a 	mov	r4,r3
 43037d4:	430be900 	call	430be90 <vga_draw_rectangle>
{
    int i;
    vga_draw_rectangle(x + 2, y + 8, w, 6, PT_WOOD_DARK);
    vga_draw_rectangle(x, y + 4, w, 6, PT_WOOD);
    vga_draw_rectangle(x, y + 4, w, 1, PT_WOOD_LIGHT);
    for (i = 0; i < w; i += 16)
 43037d8:	e0bffc17 	ldw	r2,-16(fp)
 43037dc:	10800404 	addi	r2,r2,16
 43037e0:	e0bffc15 	stw	r2,-16(fp)
 43037e4:	e0fffc17 	ldw	r3,-16(fp)
 43037e8:	e0bfff17 	ldw	r2,-4(fp)
 43037ec:	18bfe116 	blt	r3,r2,4303774 <__alt_data_end+0xffe03774>
    {
        vga_draw_rectangle(x + i, y + 3, 2, 8, PT_WOOD_DARK);
        vga_draw_rectangle(x + i + 6, y + 7, 8, 1, PT_GOLD);
    }
}
 43037f0:	0001883a 	nop
 43037f4:	e037883a 	mov	sp,fp
 43037f8:	dfc00117 	ldw	ra,4(sp)
 43037fc:	df000017 	ldw	fp,0(sp)
 4303800:	dec00204 	addi	sp,sp,8
 4303804:	f800283a 	ret

04303808 <pt_menu_draw_background>:

void pt_menu_draw_background(void)
{
 4303808:	defffb04 	addi	sp,sp,-20
 430380c:	dfc00415 	stw	ra,16(sp)
 4303810:	df000315 	stw	fp,12(sp)
 4303814:	df000304 	addi	fp,sp,12
    int x;
    int y;

    vga_fill_background(PT_SKY);
 4303818:	01001dc4 	movi	r4,119
 430381c:	430bc400 	call	430bc40 <vga_fill_background>
    vga_draw_rectangle(0, 0, 320, 42, PT_SKY_LIGHT);
 4303820:	008026c4 	movi	r2,155
 4303824:	d8800015 	stw	r2,0(sp)
 4303828:	01c00a84 	movi	r7,42
 430382c:	01805004 	movi	r6,320
 4303830:	000b883a 	mov	r5,zero
 4303834:	0009883a 	mov	r4,zero
 4303838:	430be900 	call	430be90 <vga_draw_rectangle>
    vga_draw_rectangle(0, 42, 320, 44, PT_SKY);
 430383c:	00801dc4 	movi	r2,119
 4303840:	d8800015 	stw	r2,0(sp)
 4303844:	01c00b04 	movi	r7,44
 4303848:	01805004 	movi	r6,320
 430384c:	01400a84 	movi	r5,42
 4303850:	0009883a 	mov	r4,zero
 4303854:	430be900 	call	430be90 <vga_draw_rectangle>
    vga_draw_rectangle(0, 86, 320, 56, VGA_RGB332(2,4,3));
 4303858:	008014c4 	movi	r2,83
 430385c:	d8800015 	stw	r2,0(sp)
 4303860:	01c00e04 	movi	r7,56
 4303864:	01805004 	movi	r6,320
 4303868:	01401584 	movi	r5,86
 430386c:	0009883a 	mov	r4,zero
 4303870:	430be900 	call	430be90 <vga_draw_rectangle>
    vga_draw_rectangle(0, 142, 320, 98, PT_WATER_DARK);
 4303874:	00800184 	movi	r2,6
 4303878:	d8800015 	stw	r2,0(sp)
 430387c:	01c01884 	movi	r7,98
 4303880:	01805004 	movi	r6,320
 4303884:	01402384 	movi	r5,142
 4303888:	0009883a 	mov	r4,zero
 430388c:	430be900 	call	430be90 <vga_draw_rectangle>

    for (y = 150; y < 232; y += 14)
 4303890:	00802584 	movi	r2,150
 4303894:	e0bfff15 	stw	r2,-4(fp)
 4303898:	00002e06 	br	4303954 <pt_menu_draw_background+0x14c>
    {
        vga_draw_rectangle(0, y, 320, 2, (y & 16) ? PT_WATER : PT_WATER_LIGHT);
 430389c:	e0bfff17 	ldw	r2,-4(fp)
 43038a0:	1080040c 	andi	r2,r2,16
 43038a4:	10000226 	beq	r2,zero,43038b0 <pt_menu_draw_background+0xa8>
 43038a8:	008003c4 	movi	r2,15
 43038ac:	00000106 	br	43038b4 <pt_menu_draw_background+0xac>
 43038b0:	00800ec4 	movi	r2,59
 43038b4:	d8800015 	stw	r2,0(sp)
 43038b8:	01c00084 	movi	r7,2
 43038bc:	01805004 	movi	r6,320
 43038c0:	e17fff17 	ldw	r5,-4(fp)
 43038c4:	0009883a 	mov	r4,zero
 43038c8:	430be900 	call	430be90 <vga_draw_rectangle>
        vga_draw_rectangle((y * 3) % 41, y + 6, 68, 1, PT_FOAM);
 43038cc:	e0ffff17 	ldw	r3,-4(fp)
 43038d0:	1805883a 	mov	r2,r3
 43038d4:	1085883a 	add	r2,r2,r2
 43038d8:	10c5883a 	add	r2,r2,r3
 43038dc:	01400a44 	movi	r5,41
 43038e0:	1009883a 	mov	r4,r2
 43038e4:	430c2a80 	call	430c2a8 <__modsi3>
 43038e8:	1009883a 	mov	r4,r2
 43038ec:	e0bfff17 	ldw	r2,-4(fp)
 43038f0:	10c00184 	addi	r3,r2,6
 43038f4:	008037c4 	movi	r2,223
 43038f8:	d8800015 	stw	r2,0(sp)
 43038fc:	01c00044 	movi	r7,1
 4303900:	01801104 	movi	r6,68
 4303904:	180b883a 	mov	r5,r3
 4303908:	430be900 	call	430be90 <vga_draw_rectangle>
        vga_draw_rectangle(180 + ((y * 5) % 29), y + 8, 88, 1, PT_WATER_LIGHT);
 430390c:	e0bfff17 	ldw	r2,-4(fp)
 4303910:	10800164 	muli	r2,r2,5
 4303914:	01400744 	movi	r5,29
 4303918:	1009883a 	mov	r4,r2
 430391c:	430c2a80 	call	430c2a8 <__modsi3>
 4303920:	10c02d04 	addi	r3,r2,180
 4303924:	e0bfff17 	ldw	r2,-4(fp)
 4303928:	11000204 	addi	r4,r2,8
 430392c:	00800ec4 	movi	r2,59
 4303930:	d8800015 	stw	r2,0(sp)
 4303934:	01c00044 	movi	r7,1
 4303938:	01801604 	movi	r6,88
 430393c:	200b883a 	mov	r5,r4
 4303940:	1809883a 	mov	r4,r3
 4303944:	430be900 	call	430be90 <vga_draw_rectangle>
    vga_draw_rectangle(0, 0, 320, 42, PT_SKY_LIGHT);
    vga_draw_rectangle(0, 42, 320, 44, PT_SKY);
    vga_draw_rectangle(0, 86, 320, 56, VGA_RGB332(2,4,3));
    vga_draw_rectangle(0, 142, 320, 98, PT_WATER_DARK);

    for (y = 150; y < 232; y += 14)
 4303948:	e0bfff17 	ldw	r2,-4(fp)
 430394c:	10800384 	addi	r2,r2,14
 4303950:	e0bfff15 	stw	r2,-4(fp)
 4303954:	e0bfff17 	ldw	r2,-4(fp)
 4303958:	10803a10 	cmplti	r2,r2,232
 430395c:	103fcf1e 	bne	r2,zero,430389c <__alt_data_end+0xffe0389c>
        vga_draw_rectangle(0, y, 320, 2, (y & 16) ? PT_WATER : PT_WATER_LIGHT);
        vga_draw_rectangle((y * 3) % 41, y + 6, 68, 1, PT_FOAM);
        vga_draw_rectangle(180 + ((y * 5) % 29), y + 8, 88, 1, PT_WATER_LIGHT);
    }

    pt_cloud(18, 22, 1);
 4303960:	01800044 	movi	r6,1
 4303964:	01400584 	movi	r5,22
 4303968:	01000484 	movi	r4,18
 430396c:	43034900 	call	4303490 <pt_cloud>
    pt_cloud(224, 28, 1);
 4303970:	01800044 	movi	r6,1
 4303974:	01400704 	movi	r5,28
 4303978:	01003804 	movi	r4,224
 430397c:	43034900 	call	4303490 <pt_cloud>
    pt_cloud(124, 66, 1);
 4303980:	01800044 	movi	r6,1
 4303984:	01401084 	movi	r5,66
 4303988:	01001f04 	movi	r4,124
 430398c:	43034900 	call	4303490 <pt_cloud>

    /* Distant island silhouettes. */
    vga_draw_rectangle(0, 120, 320, 22, VGA_RGB332(1,3,2));
 4303990:	00800b84 	movi	r2,46
 4303994:	d8800015 	stw	r2,0(sp)
 4303998:	01c00584 	movi	r7,22
 430399c:	01805004 	movi	r6,320
 43039a0:	01401e04 	movi	r5,120
 43039a4:	0009883a 	mov	r4,zero
 43039a8:	430be900 	call	430be90 <vga_draw_rectangle>
    for (x = 0; x < 320; x += 28)
 43039ac:	e03ffe15 	stw	zero,-8(fp)
 43039b0:	00001106 	br	43039f8 <pt_menu_draw_background+0x1f0>
